(dp1
S'VMId'
p2
(dp3
S'length'
p4
I255
sS'unique'
p5
I00
sS'sortable'
p6
I1
sS'sql'
p7
S'INT NOT NULL'
p8
sS'notnull'
p9
I01
sS'type'
p10
S'integer'
p11
ssS'name'
p12
(dp13
g4
I20
sg5
I00
sg6
I2
sg7
S'VARCHAR(20)'
p14
sg9
I00
sg10
S'string'
p15
ssS'description'
p16
(dp17
g4
I50
sg5
I00
sg6
I3
sg7
S'VARCHAR(50)'
p18
sg9
I00
sg10
g15
ss.