(dp1
S'yearGroup'
p2
(dp3
S'length'
p4
I255
sS'unique'
p5
I00
sS'sortable'
p6
I1
sS'sql'
p7
S'INT'
p8
sS'notnull'
p9
I00
sS'type'
p10
S'integer'
p11
ssS'curse'
p12
(dp13
g4
I255
sg5
I00
sg6
I3
sg7
S'INT'
p14
sg9
I00
sg10
g11
ssS'cod'
p15
(dp16
g4
I255
sg5
I00
sg6
I2
sg7
S'INT NOT NULL'
p17
sg9
I01
sg10
g11
ssS'curseGroup'
p18
(dp19
g4
I1
sg5
I00
sg6
I4
sg7
S'VARCHAR(1)'
p20
sg9
I00
sg10
S'string'
p21
ss.