(dp1
S'userid'
p2
(dp3
S'length'
p4
I255
sS'unique'
p5
I00
sS'sortable'
p6
I1
sS'sql'
p7
S'VARCHAR(255) NOT NULL'
p8
sS'notnull'
p9
I01
sS'type'
p10
S'string'
p11
ssS'cod'
p12
(dp13
S'sortable'
p14
I2
sS'sql'
p15
S'INT NOT NULL'
p16
sS'length'
p17
I255
sS'notnull'
p18
I01
sS'unique'
p19
I00
sS'type'
p20
S'integer'
p21
ssS'cursegroup'
p22
(dp23
S'sortable'
p24
I3
sS'sql'
p25
S'VARCHAR(1) NOT NULL'
p26
sS'length'
p27
I1
sS'notnull'
p28
I01
sS'unique'
p29
I00
sS'type'
p30
S'string'
p31
ss.