(dp1
S'vmid'
p2
(dp3
S'sortable'
p4
I1
sS'sql'
p5
S'INT NOT NULL'
p6
sS'length'
p7
I255
sS'notnull'
p8
I01
sS'unique'
p9
I00
sS'type'
p10
S'integer'
p11
ssS'name'
p12
(dp13
g4
I2
sg5
S'VARCHAR(20)'
p14
sg7
I20
sg8
I00
sg9
I00
sg10
S'string'
p15
ssS'description'
p16
(dp17
S'length'
p18
I255
sS'unique'
p19
I00
sS'sortable'
p20
I3
sS'sql'
p21
S'VARCHAR(255)'
p22
sS'notnull'
p23
I00
sS'type'
p24
S'string'
p25
ss.