(dp1
S'yeargroup'
p2
(dp3
S'sortable'
p4
I1
sS'sql'
p5
S'INT'
p6
sS'length'
p7
I255
sS'notnull'
p8
I00
sS'unique'
p9
I00
sS'type'
p10
S'integer'
p11
ssS'placesnumber'
p12
(dp13
S'length'
p14
I255
sS'unique'
p15
I00
sS'sortable'
p16
I4
sS'sql'
p17
S'INT'
p18
sS'notnull'
p19
I00
sS'type'
p20
S'integer'
p21
ssS'cod'
p22
(dp23
g4
I2
sg5
S'INT NOT NULL'
p24
sg7
I255
sg8
I01
sg9
I00
sg10
g11
ssS'cursegroup'
p25
(dp26
g4
I4
sg5
S'VARCHAR(1)'
p27
sg7
I1
sg8
I00
sg9
I00
sg10
S'string'
p28
ss.