(dp1
S'picturePath'
p2
(dp3
S'length'
p4
I100
sS'unique'
p5
I00
sS'sortable'
p6
I2
sS'sql'
p7
S'VARCHAR(100)'
p8
sS'notnull'
p9
I00
sS'type'
p10
S'string'
p11
ssS'osPictureId'
p12
(dp13
g4
I255
sg5
I00
sg6
I1
sg7
S'INT NOT NULL'
p14
sg9
I01
sg10
S'integer'
p15
ss.