(dp1
S'userid'
p2
(dp3
S'length'
p4
I255
sS'unique'
p5
I00
sS'sortable'
p6
I1
sS'sql'
p7
S'VARCHAR(255) NOT NULL'
p8
sS'notnull'
p9
I01
sS'type'
p10
S'string'
p11
ssS'cod'
p12
(dp13
g4
I255
sg5
I00
sg6
I2
sg7
S'INT NOT NULL'
p14
sg9
I01
sg10
S'integer'
p15
ssS'cursegroup'
p16
(dp17
g4
I1
sg5
I00
sg6
I3
sg7
S'VARCHAR(1) NOT NULL'
p18
sg9
I01
sg10
g11
ss.