(dp1
S'code'
p2
(dp3
S'sortable'
p4
I1
sS'sql'
p5
S'INT NOT NULL'
p6
sS'length'
p7
I255
sS'notnull'
p8
I01
sS'unique'
p9
I00
sS'type'
p10
S'integer'
p11
ssS'name'
p12
(dp13
S'length'
p14
I50
sS'unique'
p15
I00
sS'sortable'
p16
I2
sS'sql'
p17
S'VARCHAR(50)'
p18
sS'notnull'
p19
I00
sS'type'
p20
S'string'
p21
ss.