(dp1
S'cursegroup'
p2
(dp3
S'length'
p4
I1
sS'unique'
p5
I00
sS'sortable'
p6
I3
sS'sql'
p7
S'INT'
p8
sS'notnull'
p9
I01
sS'type'
p10
S'reference UserGroup'
p11
ssS'cod'
p12
(dp13
g4
I255
sg5
I00
sg6
I2
sg7
S'INT NOT NULL'
p14
sg9
I01
sg10
S'integer'
p15
ssS'vmname'
p16
(dp17
g4
I20
sg5
I00
sg6
I1
sg7
S'VARCHAR(20) NOT NULL'
p18
sg9
I01
sg10
S'string'
p19
ss.