(dp1
S'code'
p2
(dp3
S'length'
p4
I255
sS'unique'
p5
I00
sS'sortable'
p6
I1
sS'sql'
p7
S'INT NOT NULL'
p8
sS'notnull'
p9
I01
sS'type'
p10
S'integer'
p11
ssS'name'
p12
(dp13
S'sortable'
p14
I3
sS'sql'
p15
S'VARCHAR(15)'
p16
sS'length'
p17
I15
sS'notnull'
p18
I00
sS'unique'
p19
I00
sS'type'
p20
S'string'
p21
ss.