(dp1
S'userid'
p2
(dp3
S'length'
p4
I255
sS'unique'
p5
I00
sS'sortable'
p6
I1
sS'sql'
p7
S'INT NOT NULL'
p8
sS'notnull'
p9
I01
sS'type'
p10
S'integer'
p11
ssS'cod'
p12
(dp13
S'sortable'
p14
I2
sS'sql'
p15
S'INT NOT NULL'
p16
sS'length'
p17
I255
sS'notnull'
p18
I01
sS'unique'
p19
I00
sS'type'
p20
S'integer'
p21
ssS'cursegroup'
p22
(dp23
g4
I1
sg5
I00
sg6
I3
sg7
S'INT'
p24
sg9
I01
sg10
S'reference UserGroup'
p25
ss.