(dp1
S'vmid'
p2
(dp3
S'length'
p4
I255
sS'unique'
p5
I00
sS'sortable'
p6
I1
sS'sql'
p7
S'INT NOT NULL'
p8
sS'notnull'
p9
I01
sS'type'
p10
S'integer'
p11
ssS'name'
p12
(dp13
S'sortable'
p14
I2
sS'sql'
p15
S'VARCHAR(20)'
p16
sS'length'
p17
I20
sS'notnull'
p18
I00
sS'unique'
p19
I00
sS'type'
p20
S'string'
p21
ssS'description'
p22
(dp23
g14
I3
sg15
S'VARCHAR(50)'
p24
sg17
I50
sg18
I00
sg19
I00
sg20
g21
ss.