(dp1
S'yeargroup'
p2
(dp3
S'sortable'
p4
I1
sS'sql'
p5
S'INT'
p6
sS'length'
p7
I255
sS'notnull'
p8
I00
sS'unique'
p9
I00
sS'type'
p10
S'integer'
p11
ssS'curse'
p12
(dp13
g4
I3
sg5
S'INT'
p14
sg7
I255
sg8
I00
sg9
I00
sg10
g11
ssS'cod'
p15
(dp16
g4
I2
sg5
S'INT NOT NULL'
p17
sg7
I255
sg8
I01
sg9
I00
sg10
g11
ssS'cursegroup'
p18
(dp19
S'length'
p20
I1
sS'unique'
p21
I00
sS'sortable'
p22
I4
sS'sql'
p23
S'VARCHAR(1)'
p24
sS'notnull'
p25
I00
sS'type'
p26
S'string'
p27
ss.