(dp1
S'vmid'
p2
(dp3
S'sortable'
p4
I1
sS'sql'
p5
S'INT NOT NULL'
p6
sS'length'
p7
I255
sS'notnull'
p8
I01
sS'unique'
p9
I00
sS'type'
p10
S'integer'
p11
ssS'cod'
p12
(dp13
S'sortable'
p14
I2
sS'sql'
p15
S'INT NOT NULL'
p16
sS'length'
p17
I255
sS'notnull'
p18
I01
sS'unique'
p19
I00
sS'type'
p20
S'integer'
p21
ssS'cursegroup'
p22
(dp23
S'length'
p24
I1
sS'unique'
p25
I00
sS'sortable'
p26
I3
sS'sql'
p27
S'VARCHAR(1) NOT NULL'
p28
sS'notnull'
p29
I01
sS'type'
p30
S'string'
p31
ss.