(dp1
S'output'
p2
S"<class 'applications.CygnusCloud.modules.network.exceptions.networkManager.NetworkManagerException'> The host 127.0.0.1:9000 seems to be unreachable"
p3
sS'layer'
p4
S'/home/adrian/web2py/applications/CygnusCloud/models/db.py'
p5
sS'code'
p6
S"# -*- coding: utf-8 -*-\nfrom configuration import DBConfigurator\nfrom gluon.tools import Auth\nfrom serverConnector.constants import rootPassword\nfrom serverConnector.singletonServerConnector import Singleton\nfrom clusterServer.connector.clusterServerConnector import ClusterServerConnector\nfrom clusterServer.connector.clusterServerConnector import GenericWebCallback\nimport os\n\n\nprint os.getcwd() \n\n\nconf = DBConfigurator(rootPassword)\nconf.createDatabase('CygnusCloudUserDB')\n#conf.addUser('CygnusCloud','cygnuscloud2012', 'UserDB')\nuserDB = DAL('mysql://CygnusCloud:cygnuscloud2012@localhost/CygnusCloudUserDB',migrate_enabled=True, pool_size=0)\n\n\n# Autentication\nauth = Auth(userDB)\nauth.define_tables(migrate = True)\n\n\n\n\n#userDB.auth_user.email.requires = IS_NOT_IN_DB(userDB, userDB.auth_user.email)\n\nuserDB.define_table('Images',\n            Field('VMId','integer' ),\n            Field('name',length=20 ),\n            Field('description',length=500 ),\n            primarykey=['VMId'],migrate= True)\n\n\nuserDB.define_table('ClassGroup',\n   Field('yearGroup','integer', 'reference auth_user'),\n   Field('cod','integer','reference Subjects'),\n   Field('curse','integer'),\n   Field('curseGroup', length=1),\n   primarykey=['cod'],migrate= True)\n\nuserDB.define_table('UserGroup',\n   Field('userId',length = 512 ),\n   Field('cod','integer','reference ClassGroup'),\n   Field('curseGroup',length=1 ),\n   primarykey=['cod','curseGroup','userId'],migrate= True)\n\nuserDB.define_table('Subjects',\n   Field('code','integer'),\n   Field('name',length=50),\n   primarykey=['code'],migrate= True)\n\n\n\nuserDB.define_table('VMByGroup',\n   Field('VMId','integer','reference Images'),\n   Field('cod','integer','reference UserGroup'),\n   Field('curseGroup',length=1 ),\n   primarykey=['cod','curseGroup','VMId'],migrate= True)\n\n\n#Establecemos la conexi\xc3\xb3n con el servidor principal\nconnector = Singleton.getInstance()\n"
p7
sS'snapshot'
p8
(dp9
S'exception'
p10
(dp11
S'__module__'
p12
S"'applications.CygnusCloud.modules.network.exceptions.networkManager'"
p13
sS'__getslice__'
p14
S"<method-wrapper '__getslice__' of NetworkManagerException object>"
p15
sS'__str__'
p16
S"<method-wrapper '__str__' of NetworkManagerException object>"
p17
sS'__reduce__'
p18
S'<built-in method __reduce__ of NetworkManagerException object>'
p19
sS'__dict__'
p20
S'{}'
p21
sS'__sizeof__'
p22
S'<built-in method __sizeof__ of NetworkManagerException object>'
p23
sS'__weakref__'
p24
S'None'
p25
sS'__init__'
p26
S"<method-wrapper '__init__' of NetworkManagerException object>"
p27
sS'__setattr__'
p28
S"<method-wrapper '__setattr__' of NetworkManagerException object>"
p29
sS'__reduce_ex__'
p30
S'<built-in method __reduce_ex__ of NetworkManagerException object>'
p31
sS'__new__'
p32
S'<built-in method __new__ of type object>'
p33
sS'__format__'
p34
S'<built-in method __format__ of NetworkManagerException object>'
p35
sS'__class__'
p36
S"<class 'applications.CygnusCloud.modules.network.exceptions.networkManager.NetworkManagerException'>"
p37
sS'__doc__'
p38
S"'\\n    NetworkManager exception class\\n    '"
p39
sS'__getitem__'
p40
S"<method-wrapper '__getitem__' of NetworkManagerException object>"
p41
sS'__setstate__'
p42
S'<built-in method __setstate__ of NetworkManagerException object>'
p43
sS'__getattribute__'
p44
S"<method-wrapper '__getattribute__' of NetworkManagerException object>"
p45
sS'args'
p46
S"('The host 127.0.0.1:9000 seems to be unreachable',)"
p47
sS'__subclasshook__'
p48
S'<built-in method __subclasshook__ of type object>'
p49
sS'__unicode__'
p50
S'<built-in method __unicode__ of NetworkManagerException object>'
p51
sS'__delattr__'
p52
S"<method-wrapper '__delattr__' of NetworkManagerException object>"
p53
sS'__repr__'
p54
S"<method-wrapper '__repr__' of NetworkManagerException object>"
p55
sS'__hash__'
p56
S"<method-wrapper '__hash__' of NetworkManagerException object>"
p57
ssS'evalue'
p58
S'The host 127.0.0.1:9000 seems to be unreachable'
p59
sS'request'
p60
ccopy_reg
_reconstructor
p61
(cgluon.html
BEAUTIFY
p62
c__builtin__
object
p63
NtRp64
(dp65
S'attributes'
p66
(dp67
sS'components'
p68
(lp69
g61
(cgluon.html
TABLE
p70
g63
NtRp71
(dp72
g66
(dp73
S'level'
p74
I5
ssS'parent'
p75
Nsg68
(lp76
g61
(cgluon.html
TR
p77
g63
NtRp78
(dp79
g66
(dp80
sg75
g71
sg68
(lp81
g61
(cgluon.html
TD
p82
g63
NtRp83
(dp84
g66
(dp85
S'_style'
p86
S'font-weight:bold;vertical-align:top'
p87
ssg75
g78
sg68
(lp88
S'ajax'
p89
asbag61
(g82
g63
NtRp90
(dp91
g66
(dp92
S'_valign'
p93
S'top'
p94
ssg75
g78
sg68
(lp95
S':'
asbag61
(g82
g63
NtRp96
(dp97
g66
(dp98
sg75
g78
sg68
(lp99
g61
(g62
g63
NtRp100
(dp101
g66
(dp102
g74
I5
ssg75
g96
sg68
(lp103
S'False'
p104
asbasbasbag61
(g77
g63
NtRp105
(dp106
g66
(dp107
sg75
g71
sg68
(lp108
g61
(g82
g63
NtRp109
(dp110
g66
(dp111
g86
g87
ssg75
g105
sg68
(lp112
S'application'
p113
asbag61
(g82
g63
NtRp114
(dp115
g66
(dp116
g93
g94
ssg75
g105
sg68
(lp117
S':'
asbag61
(g82
g63
NtRp118
(dp119
g66
(dp120
sg75
g105
sg68
(lp121
g61
(g62
g63
NtRp122
(dp123
g66
(dp124
g74
I5
ssg75
g118
sg68
(lp125
S'CygnusCloud'
p126
asbasbasbag61
(g77
g63
NtRp127
(dp128
g66
(dp129
sg75
g71
sg68
(lp130
g61
(g82
g63
NtRp131
(dp132
g66
(dp133
g86
g87
ssg75
g127
sg68
(lp134
g46
asbag61
(g82
g63
NtRp135
(dp136
g66
(dp137
g93
g94
ssg75
g127
sg68
(lp138
S':'
asbag61
(g82
g63
NtRp139
(dp140
g66
(dp141
sg75
g127
sg68
(lp142
g61
(g62
g63
NtRp143
(dp144
g66
(dp145
g74
I5
ssg75
g139
sg68
(lp146
g61
(g70
g63
NtRp147
(dp148
g66
(dp149
g74
I4
ssg75
Nsg68
(lp150
sbasbasbasbag61
(g77
g63
NtRp151
(dp152
g66
(dp153
sg75
g71
sg68
(lp154
g61
(g82
g63
NtRp155
(dp156
g66
(dp157
g86
g87
ssg75
g151
sg68
(lp158
S'body'
p159
asbag61
(g82
g63
NtRp160
(dp161
g66
(dp162
g93
g94
ssg75
g151
sg68
(lp163
S':'
asbag61
(g82
g63
NtRp164
(dp165
g66
(dp166
sg75
g151
sg68
(lp167
g61
(g62
g63
NtRp168
(dp169
g66
(dp170
g74
I5
ssg75
g164
sg68
(lp171
S'<cStringIO.StringO object at 0x2aba960>'
p172
asbasbasbag61
(g77
g63
NtRp173
(dp174
g66
(dp175
sg75
g71
sg68
(lp176
g61
(g82
g63
NtRp177
(dp178
g66
(dp179
g86
g87
ssg75
g173
sg68
(lp180
S'cid'
p181
asbag61
(g82
g63
NtRp182
(dp183
g66
(dp184
g93
g94
ssg75
g173
sg68
(lp185
S':'
asbag61
(g82
g63
NtRp186
(dp187
g66
(dp188
sg75
g173
sg68
(lp189
g61
(g62
g63
NtRp190
(dp191
g66
(dp192
g74
I5
ssg75
g186
sg68
(lp193
S'None'
p194
asbasbasbag61
(g77
g63
NtRp195
(dp196
g66
(dp197
sg75
g71
sg68
(lp198
g61
(g82
g63
NtRp199
(dp200
g66
(dp201
g86
g87
ssg75
g195
sg68
(lp202
S'client'
p203
asbag61
(g82
g63
NtRp204
(dp205
g66
(dp206
g93
g94
ssg75
g195
sg68
(lp207
S':'
asbag61
(g82
g63
NtRp208
(dp209
g66
(dp210
sg75
g195
sg68
(lp211
g61
(g62
g63
NtRp212
(dp213
g66
(dp214
g74
I5
ssg75
g208
sg68
(lp215
S'127.0.0.1'
p216
asbasbasbag61
(g77
g63
NtRp217
(dp218
g66
(dp219
sg75
g71
sg68
(lp220
g61
(g82
g63
NtRp221
(dp222
g66
(dp223
g86
g87
ssg75
g217
sg68
(lp224
S'controller'
p225
asbag61
(g82
g63
NtRp226
(dp227
g66
(dp228
g93
g94
ssg75
g217
sg68
(lp229
S':'
asbag61
(g82
g63
NtRp230
(dp231
g66
(dp232
sg75
g217
sg68
(lp233
g61
(g62
g63
NtRp234
(dp235
g66
(dp236
g74
I5
ssg75
g230
sg68
(lp237
S'main'
p238
asbasbasbag61
(g77
g63
NtRp239
(dp240
g66
(dp241
sg75
g71
sg68
(lp242
g61
(g82
g63
NtRp243
(dp244
g66
(dp245
g86
g87
ssg75
g239
sg68
(lp246
S'cookies'
p247
asbag61
(g82
g63
NtRp248
(dp249
g66
(dp250
g93
g94
ssg75
g239
sg68
(lp251
S':'
asbag61
(g82
g63
NtRp252
(dp253
g66
(dp254
sg75
g239
sg68
(lp255
g61
(g62
g63
NtRp256
(dp257
g66
(dp258
g74
I5
ssg75
g252
sg68
(lp259
g61
(g70
g63
NtRp260
(dp261
g66
(dp262
g74
I4
ssg75
Nsg68
(lp263
g61
(g77
g63
NtRp264
(dp265
g66
(dp266
sg75
g260
sg68
(lp267
g61
(g82
g63
NtRp268
(dp269
g66
(dp270
g86
g87
ssg75
g264
sg68
(lp271
S'kaej_unique_user'
p272
asbag61
(g82
g63
NtRp273
(dp274
g66
(dp275
g93
g94
ssg75
g264
sg68
(lp276
S':'
asbag61
(g82
g63
NtRp277
(dp278
g66
(dp279
sg75
g264
sg68
(lp280
g61
(g62
g63
NtRp281
(dp282
g66
(dp283
g74
I4
ssg75
g277
sg68
(lp284
S'1'
ag61
(g70
g63
NtRp285
(dp286
g66
(dp287
g74
I3
ssg75
Nsg68
(lp288
g61
(g77
g63
NtRp289
(dp290
g66
(dp291
sg75
g285
sg68
(lp292
g61
(g82
g63
NtRp293
(dp294
g66
(dp295
g86
g87
ssg75
g289
sg68
(lp296
S'comment'
p297
asbag61
(g82
g63
NtRp298
(dp299
g66
(dp300
g93
g94
ssg75
g289
sg68
(lp301
S':'
asbag61
(g82
g63
NtRp302
(dp303
g66
(dp304
sg75
g289
sg68
(lp305
g61
(g62
g63
NtRp306
(dp307
g66
(dp308
g74
I3
ssg75
g302
sg68
(lp309
S''
asbasbasbag61
(g77
g63
NtRp310
(dp311
g66
(dp312
sg75
g285
sg68
(lp313
g61
(g82
g63
NtRp314
(dp315
g66
(dp316
g86
g87
ssg75
g310
sg68
(lp317
S'domain'
p318
asbag61
(g82
g63
NtRp319
(dp320
g66
(dp321
g93
g94
ssg75
g310
sg68
(lp322
S':'
asbag61
(g82
g63
NtRp323
(dp324
g66
(dp325
sg75
g310
sg68
(lp326
g61
(g62
g63
NtRp327
(dp328
g66
(dp329
g74
I3
ssg75
g323
sg68
(lp330
S''
asbasbasbag61
(g77
g63
NtRp331
(dp332
g66
(dp333
sg75
g285
sg68
(lp334
g61
(g82
g63
NtRp335
(dp336
g66
(dp337
g86
g87
ssg75
g331
sg68
(lp338
S'expires'
p339
asbag61
(g82
g63
NtRp340
(dp341
g66
(dp342
g93
g94
ssg75
g331
sg68
(lp343
S':'
asbag61
(g82
g63
NtRp344
(dp345
g66
(dp346
sg75
g331
sg68
(lp347
g61
(g62
g63
NtRp348
(dp349
g66
(dp350
g74
I3
ssg75
g344
sg68
(lp351
S''
asbasbasbag61
(g77
g63
NtRp352
(dp353
g66
(dp354
sg75
g285
sg68
(lp355
g61
(g82
g63
NtRp356
(dp357
g66
(dp358
g86
g87
ssg75
g352
sg68
(lp359
S'httponly'
p360
asbag61
(g82
g63
NtRp361
(dp362
g66
(dp363
g93
g94
ssg75
g352
sg68
(lp364
S':'
asbag61
(g82
g63
NtRp365
(dp366
g66
(dp367
sg75
g352
sg68
(lp368
g61
(g62
g63
NtRp369
(dp370
g66
(dp371
g74
I3
ssg75
g365
sg68
(lp372
S''
asbasbasbag61
(g77
g63
NtRp373
(dp374
g66
(dp375
sg75
g285
sg68
(lp376
g61
(g82
g63
NtRp377
(dp378
g66
(dp379
g86
g87
ssg75
g373
sg68
(lp380
S'max-age'
p381
asbag61
(g82
g63
NtRp382
(dp383
g66
(dp384
g93
g94
ssg75
g373
sg68
(lp385
S':'
asbag61
(g82
g63
NtRp386
(dp387
g66
(dp388
sg75
g373
sg68
(lp389
g61
(g62
g63
NtRp390
(dp391
g66
(dp392
g74
I3
ssg75
g386
sg68
(lp393
S''
asbasbasbag61
(g77
g63
NtRp394
(dp395
g66
(dp396
sg75
g285
sg68
(lp397
g61
(g82
g63
NtRp398
(dp399
g66
(dp400
g86
g87
ssg75
g394
sg68
(lp401
S'path'
p402
asbag61
(g82
g63
NtRp403
(dp404
g66
(dp405
g93
g94
ssg75
g394
sg68
(lp406
S':'
asbag61
(g82
g63
NtRp407
(dp408
g66
(dp409
sg75
g394
sg68
(lp410
g61
(g62
g63
NtRp411
(dp412
g66
(dp413
g74
I3
ssg75
g407
sg68
(lp414
S''
asbasbasbag61
(g77
g63
NtRp415
(dp416
g66
(dp417
sg75
g285
sg68
(lp418
g61
(g82
g63
NtRp419
(dp420
g66
(dp421
g86
g87
ssg75
g415
sg68
(lp422
S'secure'
p423
asbag61
(g82
g63
NtRp424
(dp425
g66
(dp426
g93
g94
ssg75
g415
sg68
(lp427
S':'
asbag61
(g82
g63
NtRp428
(dp429
g66
(dp430
sg75
g415
sg68
(lp431
g61
(g62
g63
NtRp432
(dp433
g66
(dp434
g74
I3
ssg75
g428
sg68
(lp435
S''
asbasbasbag61
(g77
g63
NtRp436
(dp437
g66
(dp438
sg75
g285
sg68
(lp439
g61
(g82
g63
NtRp440
(dp441
g66
(dp442
g86
g87
ssg75
g436
sg68
(lp443
S'version'
p444
asbag61
(g82
g63
NtRp445
(dp446
g66
(dp447
g93
g94
ssg75
g436
sg68
(lp448
S':'
asbag61
(g82
g63
NtRp449
(dp450
g66
(dp451
sg75
g436
sg68
(lp452
g61
(g62
g63
NtRp453
(dp454
g66
(dp455
g74
I3
ssg75
g449
sg68
(lp456
S''
asbasbasbasbasbasbasbag61
(g77
g63
NtRp457
(dp458
g66
(dp459
sg75
g260
sg68
(lp460
g61
(g82
g63
NtRp461
(dp462
g66
(dp463
g86
g87
ssg75
g457
sg68
(lp464
S'session_id_admin'
p465
asbag61
(g82
g63
NtRp466
(dp467
g66
(dp468
g93
g94
ssg75
g457
sg68
(lp469
S':'
asbag61
(g82
g63
NtRp470
(dp471
g66
(dp472
sg75
g457
sg68
(lp473
g61
(g62
g63
NtRp474
(dp475
g66
(dp476
g74
I4
ssg75
g470
sg68
(lp477
S'127.0.0.1-41da04db-390e-412d-bcee-51806220151f'
p478
ag61
(g70
g63
NtRp479
(dp480
g66
(dp481
g74
I3
ssg75
Nsg68
(lp482
g61
(g77
g63
NtRp483
(dp484
g66
(dp485
sg75
g479
sg68
(lp486
g61
(g82
g63
NtRp487
(dp488
g66
(dp489
g86
g87
ssg75
g483
sg68
(lp490
g297
asbag61
(g82
g63
NtRp491
(dp492
g66
(dp493
g93
g94
ssg75
g483
sg68
(lp494
S':'
asbag61
(g82
g63
NtRp495
(dp496
g66
(dp497
sg75
g483
sg68
(lp498
g61
(g62
g63
NtRp499
(dp500
g66
(dp501
g74
I3
ssg75
g495
sg68
(lp502
S''
asbasbasbag61
(g77
g63
NtRp503
(dp504
g66
(dp505
sg75
g479
sg68
(lp506
g61
(g82
g63
NtRp507
(dp508
g66
(dp509
g86
g87
ssg75
g503
sg68
(lp510
g318
asbag61
(g82
g63
NtRp511
(dp512
g66
(dp513
g93
g94
ssg75
g503
sg68
(lp514
S':'
asbag61
(g82
g63
NtRp515
(dp516
g66
(dp517
sg75
g503
sg68
(lp518
g61
(g62
g63
NtRp519
(dp520
g66
(dp521
g74
I3
ssg75
g515
sg68
(lp522
S''
asbasbasbag61
(g77
g63
NtRp523
(dp524
g66
(dp525
sg75
g479
sg68
(lp526
g61
(g82
g63
NtRp527
(dp528
g66
(dp529
g86
g87
ssg75
g523
sg68
(lp530
g339
asbag61
(g82
g63
NtRp531
(dp532
g66
(dp533
g93
g94
ssg75
g523
sg68
(lp534
S':'
asbag61
(g82
g63
NtRp535
(dp536
g66
(dp537
sg75
g523
sg68
(lp538
g61
(g62
g63
NtRp539
(dp540
g66
(dp541
g74
I3
ssg75
g535
sg68
(lp542
S''
asbasbasbag61
(g77
g63
NtRp543
(dp544
g66
(dp545
sg75
g479
sg68
(lp546
g61
(g82
g63
NtRp547
(dp548
g66
(dp549
g86
g87
ssg75
g543
sg68
(lp550
g360
asbag61
(g82
g63
NtRp551
(dp552
g66
(dp553
g93
g94
ssg75
g543
sg68
(lp554
S':'
asbag61
(g82
g63
NtRp555
(dp556
g66
(dp557
sg75
g543
sg68
(lp558
g61
(g62
g63
NtRp559
(dp560
g66
(dp561
g74
I3
ssg75
g555
sg68
(lp562
S''
asbasbasbag61
(g77
g63
NtRp563
(dp564
g66
(dp565
sg75
g479
sg68
(lp566
g61
(g82
g63
NtRp567
(dp568
g66
(dp569
g86
g87
ssg75
g563
sg68
(lp570
g381
asbag61
(g82
g63
NtRp571
(dp572
g66
(dp573
g93
g94
ssg75
g563
sg68
(lp574
S':'
asbag61
(g82
g63
NtRp575
(dp576
g66
(dp577
sg75
g563
sg68
(lp578
g61
(g62
g63
NtRp579
(dp580
g66
(dp581
g74
I3
ssg75
g575
sg68
(lp582
S''
asbasbasbag61
(g77
g63
NtRp583
(dp584
g66
(dp585
sg75
g479
sg68
(lp586
g61
(g82
g63
NtRp587
(dp588
g66
(dp589
g86
g87
ssg75
g583
sg68
(lp590
g402
asbag61
(g82
g63
NtRp591
(dp592
g66
(dp593
g93
g94
ssg75
g583
sg68
(lp594
S':'
asbag61
(g82
g63
NtRp595
(dp596
g66
(dp597
sg75
g583
sg68
(lp598
g61
(g62
g63
NtRp599
(dp600
g66
(dp601
g74
I3
ssg75
g595
sg68
(lp602
S''
asbasbasbag61
(g77
g63
NtRp603
(dp604
g66
(dp605
sg75
g479
sg68
(lp606
g61
(g82
g63
NtRp607
(dp608
g66
(dp609
g86
g87
ssg75
g603
sg68
(lp610
g423
asbag61
(g82
g63
NtRp611
(dp612
g66
(dp613
g93
g94
ssg75
g603
sg68
(lp614
S':'
asbag61
(g82
g63
NtRp615
(dp616
g66
(dp617
sg75
g603
sg68
(lp618
g61
(g62
g63
NtRp619
(dp620
g66
(dp621
g74
I3
ssg75
g615
sg68
(lp622
S''
asbasbasbag61
(g77
g63
NtRp623
(dp624
g66
(dp625
sg75
g479
sg68
(lp626
g61
(g82
g63
NtRp627
(dp628
g66
(dp629
g86
g87
ssg75
g623
sg68
(lp630
g444
asbag61
(g82
g63
NtRp631
(dp632
g66
(dp633
g93
g94
ssg75
g623
sg68
(lp634
S':'
asbag61
(g82
g63
NtRp635
(dp636
g66
(dp637
sg75
g623
sg68
(lp638
g61
(g62
g63
NtRp639
(dp640
g66
(dp641
g74
I3
ssg75
g635
sg68
(lp642
S''
asbasbasbasbasbasbasbag61
(g77
g63
NtRp643
(dp644
g66
(dp645
sg75
g260
sg68
(lp646
g61
(g82
g63
NtRp647
(dp648
g66
(dp649
g86
g87
ssg75
g643
sg68
(lp650
S'session_id_cygnuscloud'
p651
asbag61
(g82
g63
NtRp652
(dp653
g66
(dp654
g93
g94
ssg75
g643
sg68
(lp655
S':'
asbag61
(g82
g63
NtRp656
(dp657
g66
(dp658
sg75
g643
sg68
(lp659
g61
(g62
g63
NtRp660
(dp661
g66
(dp662
g74
I4
ssg75
g656
sg68
(lp663
S'127.0.0.1-c587975d-3dc0-4e19-8fd9-70fb7b0fbde9'
p664
ag61
(g70
g63
NtRp665
(dp666
g66
(dp667
g74
I3
ssg75
Nsg68
(lp668
g61
(g77
g63
NtRp669
(dp670
g66
(dp671
sg75
g665
sg68
(lp672
g61
(g82
g63
NtRp673
(dp674
g66
(dp675
g86
g87
ssg75
g669
sg68
(lp676
g297
asbag61
(g82
g63
NtRp677
(dp678
g66
(dp679
g93
g94
ssg75
g669
sg68
(lp680
S':'
asbag61
(g82
g63
NtRp681
(dp682
g66
(dp683
sg75
g669
sg68
(lp684
g61
(g62
g63
NtRp685
(dp686
g66
(dp687
g74
I3
ssg75
g681
sg68
(lp688
S''
asbasbasbag61
(g77
g63
NtRp689
(dp690
g66
(dp691
sg75
g665
sg68
(lp692
g61
(g82
g63
NtRp693
(dp694
g66
(dp695
g86
g87
ssg75
g689
sg68
(lp696
g318
asbag61
(g82
g63
NtRp697
(dp698
g66
(dp699
g93
g94
ssg75
g689
sg68
(lp700
S':'
asbag61
(g82
g63
NtRp701
(dp702
g66
(dp703
sg75
g689
sg68
(lp704
g61
(g62
g63
NtRp705
(dp706
g66
(dp707
g74
I3
ssg75
g701
sg68
(lp708
S''
asbasbasbag61
(g77
g63
NtRp709
(dp710
g66
(dp711
sg75
g665
sg68
(lp712
g61
(g82
g63
NtRp713
(dp714
g66
(dp715
g86
g87
ssg75
g709
sg68
(lp716
g339
asbag61
(g82
g63
NtRp717
(dp718
g66
(dp719
g93
g94
ssg75
g709
sg68
(lp720
S':'
asbag61
(g82
g63
NtRp721
(dp722
g66
(dp723
sg75
g709
sg68
(lp724
g61
(g62
g63
NtRp725
(dp726
g66
(dp727
g74
I3
ssg75
g721
sg68
(lp728
S''
asbasbasbag61
(g77
g63
NtRp729
(dp730
g66
(dp731
sg75
g665
sg68
(lp732
g61
(g82
g63
NtRp733
(dp734
g66
(dp735
g86
g87
ssg75
g729
sg68
(lp736
g360
asbag61
(g82
g63
NtRp737
(dp738
g66
(dp739
g93
g94
ssg75
g729
sg68
(lp740
S':'
asbag61
(g82
g63
NtRp741
(dp742
g66
(dp743
sg75
g729
sg68
(lp744
g61
(g62
g63
NtRp745
(dp746
g66
(dp747
g74
I3
ssg75
g741
sg68
(lp748
S''
asbasbasbag61
(g77
g63
NtRp749
(dp750
g66
(dp751
sg75
g665
sg68
(lp752
g61
(g82
g63
NtRp753
(dp754
g66
(dp755
g86
g87
ssg75
g749
sg68
(lp756
g381
asbag61
(g82
g63
NtRp757
(dp758
g66
(dp759
g93
g94
ssg75
g749
sg68
(lp760
S':'
asbag61
(g82
g63
NtRp761
(dp762
g66
(dp763
sg75
g749
sg68
(lp764
g61
(g62
g63
NtRp765
(dp766
g66
(dp767
g74
I3
ssg75
g761
sg68
(lp768
S''
asbasbasbag61
(g77
g63
NtRp769
(dp770
g66
(dp771
sg75
g665
sg68
(lp772
g61
(g82
g63
NtRp773
(dp774
g66
(dp775
g86
g87
ssg75
g769
sg68
(lp776
g402
asbag61
(g82
g63
NtRp777
(dp778
g66
(dp779
g93
g94
ssg75
g769
sg68
(lp780
S':'
asbag61
(g82
g63
NtRp781
(dp782
g66
(dp783
sg75
g769
sg68
(lp784
g61
(g62
g63
NtRp785
(dp786
g66
(dp787
g74
I3
ssg75
g781
sg68
(lp788
S''
asbasbasbag61
(g77
g63
NtRp789
(dp790
g66
(dp791
sg75
g665
sg68
(lp792
g61
(g82
g63
NtRp793
(dp794
g66
(dp795
g86
g87
ssg75
g789
sg68
(lp796
g423
asbag61
(g82
g63
NtRp797
(dp798
g66
(dp799
g93
g94
ssg75
g789
sg68
(lp800
S':'
asbag61
(g82
g63
NtRp801
(dp802
g66
(dp803
sg75
g789
sg68
(lp804
g61
(g62
g63
NtRp805
(dp806
g66
(dp807
g74
I3
ssg75
g801
sg68
(lp808
S''
asbasbasbag61
(g77
g63
NtRp809
(dp810
g66
(dp811
sg75
g665
sg68
(lp812
g61
(g82
g63
NtRp813
(dp814
g66
(dp815
g86
g87
ssg75
g809
sg68
(lp816
g444
asbag61
(g82
g63
NtRp817
(dp818
g66
(dp819
g93
g94
ssg75
g809
sg68
(lp820
S':'
asbag61
(g82
g63
NtRp821
(dp822
g66
(dp823
sg75
g809
sg68
(lp824
g61
(g62
g63
NtRp825
(dp826
g66
(dp827
g74
I3
ssg75
g821
sg68
(lp828
S''
asbasbasbasbasbasbasbag61
(g77
g63
NtRp829
(dp830
g66
(dp831
sg75
g260
sg68
(lp832
g61
(g82
g63
NtRp833
(dp834
g66
(dp835
g86
g87
ssg75
g829
sg68
(lp836
S'session_id_welcome'
p837
asbag61
(g82
g63
NtRp838
(dp839
g66
(dp840
g93
g94
ssg75
g829
sg68
(lp841
S':'
asbag61
(g82
g63
NtRp842
(dp843
g66
(dp844
sg75
g829
sg68
(lp845
g61
(g62
g63
NtRp846
(dp847
g66
(dp848
g74
I4
ssg75
g842
sg68
(lp849
S'127.0.0.1-ebfdc699-9472-4804-814f-75e37bc25576'
p850
ag61
(g70
g63
NtRp851
(dp852
g66
(dp853
g74
I3
ssg75
Nsg68
(lp854
g61
(g77
g63
NtRp855
(dp856
g66
(dp857
sg75
g851
sg68
(lp858
g61
(g82
g63
NtRp859
(dp860
g66
(dp861
g86
g87
ssg75
g855
sg68
(lp862
g297
asbag61
(g82
g63
NtRp863
(dp864
g66
(dp865
g93
g94
ssg75
g855
sg68
(lp866
S':'
asbag61
(g82
g63
NtRp867
(dp868
g66
(dp869
sg75
g855
sg68
(lp870
g61
(g62
g63
NtRp871
(dp872
g66
(dp873
g74
I3
ssg75
g867
sg68
(lp874
S''
asbasbasbag61
(g77
g63
NtRp875
(dp876
g66
(dp877
sg75
g851
sg68
(lp878
g61
(g82
g63
NtRp879
(dp880
g66
(dp881
g86
g87
ssg75
g875
sg68
(lp882
g318
asbag61
(g82
g63
NtRp883
(dp884
g66
(dp885
g93
g94
ssg75
g875
sg68
(lp886
S':'
asbag61
(g82
g63
NtRp887
(dp888
g66
(dp889
sg75
g875
sg68
(lp890
g61
(g62
g63
NtRp891
(dp892
g66
(dp893
g74
I3
ssg75
g887
sg68
(lp894
S''
asbasbasbag61
(g77
g63
NtRp895
(dp896
g66
(dp897
sg75
g851
sg68
(lp898
g61
(g82
g63
NtRp899
(dp900
g66
(dp901
g86
g87
ssg75
g895
sg68
(lp902
g339
asbag61
(g82
g63
NtRp903
(dp904
g66
(dp905
g93
g94
ssg75
g895
sg68
(lp906
S':'
asbag61
(g82
g63
NtRp907
(dp908
g66
(dp909
sg75
g895
sg68
(lp910
g61
(g62
g63
NtRp911
(dp912
g66
(dp913
g74
I3
ssg75
g907
sg68
(lp914
S''
asbasbasbag61
(g77
g63
NtRp915
(dp916
g66
(dp917
sg75
g851
sg68
(lp918
g61
(g82
g63
NtRp919
(dp920
g66
(dp921
g86
g87
ssg75
g915
sg68
(lp922
g360
asbag61
(g82
g63
NtRp923
(dp924
g66
(dp925
g93
g94
ssg75
g915
sg68
(lp926
S':'
asbag61
(g82
g63
NtRp927
(dp928
g66
(dp929
sg75
g915
sg68
(lp930
g61
(g62
g63
NtRp931
(dp932
g66
(dp933
g74
I3
ssg75
g927
sg68
(lp934
S''
asbasbasbag61
(g77
g63
NtRp935
(dp936
g66
(dp937
sg75
g851
sg68
(lp938
g61
(g82
g63
NtRp939
(dp940
g66
(dp941
g86
g87
ssg75
g935
sg68
(lp942
g381
asbag61
(g82
g63
NtRp943
(dp944
g66
(dp945
g93
g94
ssg75
g935
sg68
(lp946
S':'
asbag61
(g82
g63
NtRp947
(dp948
g66
(dp949
sg75
g935
sg68
(lp950
g61
(g62
g63
NtRp951
(dp952
g66
(dp953
g74
I3
ssg75
g947
sg68
(lp954
S''
asbasbasbag61
(g77
g63
NtRp955
(dp956
g66
(dp957
sg75
g851
sg68
(lp958
g61
(g82
g63
NtRp959
(dp960
g66
(dp961
g86
g87
ssg75
g955
sg68
(lp962
g402
asbag61
(g82
g63
NtRp963
(dp964
g66
(dp965
g93
g94
ssg75
g955
sg68
(lp966
S':'
asbag61
(g82
g63
NtRp967
(dp968
g66
(dp969
sg75
g955
sg68
(lp970
g61
(g62
g63
NtRp971
(dp972
g66
(dp973
g74
I3
ssg75
g967
sg68
(lp974
S''
asbasbasbag61
(g77
g63
NtRp975
(dp976
g66
(dp977
sg75
g851
sg68
(lp978
g61
(g82
g63
NtRp979
(dp980
g66
(dp981
g86
g87
ssg75
g975
sg68
(lp982
g423
asbag61
(g82
g63
NtRp983
(dp984
g66
(dp985
g93
g94
ssg75
g975
sg68
(lp986
S':'
asbag61
(g82
g63
NtRp987
(dp988
g66
(dp989
sg75
g975
sg68
(lp990
g61
(g62
g63
NtRp991
(dp992
g66
(dp993
g74
I3
ssg75
g987
sg68
(lp994
S''
asbasbasbag61
(g77
g63
NtRp995
(dp996
g66
(dp997
sg75
g851
sg68
(lp998
g61
(g82
g63
NtRp999
(dp1000
g66
(dp1001
g86
g87
ssg75
g995
sg68
(lp1002
g444
asbag61
(g82
g63
NtRp1003
(dp1004
g66
(dp1005
g93
g94
ssg75
g995
sg68
(lp1006
S':'
asbag61
(g82
g63
NtRp1007
(dp1008
g66
(dp1009
sg75
g995
sg68
(lp1010
g61
(g62
g63
NtRp1011
(dp1012
g66
(dp1013
g74
I3
ssg75
g1007
sg68
(lp1014
S''
asbasbasbasbasbasbasbasbasbasbasbag61
(g77
g63
NtRp1015
(dp1016
g66
(dp1017
sg75
g71
sg68
(lp1018
g61
(g82
g63
NtRp1019
(dp1020
g66
(dp1021
g86
g87
ssg75
g1015
sg68
(lp1022
S'env'
p1023
asbag61
(g82
g63
NtRp1024
(dp1025
g66
(dp1026
g93
g94
ssg75
g1015
sg68
(lp1027
S':'
asbag61
(g82
g63
NtRp1028
(dp1029
g66
(dp1030
sg75
g1015
sg68
(lp1031
g61
(g62
g63
NtRp1032
(dp1033
g66
(dp1034
g74
I5
ssg75
g1028
sg68
(lp1035
g61
(g70
g63
NtRp1036
(dp1037
g66
(dp1038
g74
I4
ssg75
Nsg68
(lp1039
g61
(g77
g63
NtRp1040
(dp1041
g66
(dp1042
sg75
g1036
sg68
(lp1043
g61
(g82
g63
NtRp1044
(dp1045
g66
(dp1046
g86
g87
ssg75
g1040
sg68
(lp1047
S'app_folders'
p1048
asbag61
(g82
g63
NtRp1049
(dp1050
g66
(dp1051
g93
g94
ssg75
g1040
sg68
(lp1052
S':'
asbag61
(g82
g63
NtRp1053
(dp1054
g66
(dp1055
sg75
g1040
sg68
(lp1056
g61
(g62
g63
NtRp1057
(dp1058
g66
(dp1059
g74
I4
ssg75
g1053
sg68
(lp1060
S"set(['/home/adrian/web2py/applications/CygnusCloud/'])"
p1061
asbasbasbag61
(g77
g63
NtRp1062
(dp1063
g66
(dp1064
sg75
g1036
sg68
(lp1065
g61
(g82
g63
NtRp1066
(dp1067
g66
(dp1068
g86
g87
ssg75
g1062
sg68
(lp1069
S'applications_parent'
p1070
asbag61
(g82
g63
NtRp1071
(dp1072
g66
(dp1073
g93
g94
ssg75
g1062
sg68
(lp1074
S':'
asbag61
(g82
g63
NtRp1075
(dp1076
g66
(dp1077
sg75
g1062
sg68
(lp1078
g61
(g62
g63
NtRp1079
(dp1080
g66
(dp1081
g74
I4
ssg75
g1075
sg68
(lp1082
S'/home/adrian/web2py'
p1083
asbasbasbag61
(g77
g63
NtRp1084
(dp1085
g66
(dp1086
sg75
g1036
sg68
(lp1087
g61
(g82
g63
NtRp1088
(dp1089
g66
(dp1090
g86
g87
ssg75
g1084
sg68
(lp1091
S'cmd_args'
p1092
asbag61
(g82
g63
NtRp1093
(dp1094
g66
(dp1095
g93
g94
ssg75
g1084
sg68
(lp1096
S':'
asbag61
(g82
g63
NtRp1097
(dp1098
g66
(dp1099
sg75
g1084
sg68
(lp1100
g61
(g62
g63
NtRp1101
(dp1102
g66
(dp1103
g74
I4
ssg75
g1097
sg68
(lp1104
g61
(g70
g63
NtRp1105
(dp1106
g66
(dp1107
g74
I3
ssg75
Nsg68
(lp1108
sbasbasbasbag61
(g77
g63
NtRp1109
(dp1110
g66
(dp1111
sg75
g1036
sg68
(lp1112
g61
(g82
g63
NtRp1113
(dp1114
g66
(dp1115
g86
g87
ssg75
g1109
sg68
(lp1116
S'cmd_options'
p1117
asbag61
(g82
g63
NtRp1118
(dp1119
g66
(dp1120
g93
g94
ssg75
g1109
sg68
(lp1121
S':'
asbag61
(g82
g63
NtRp1122
(dp1123
g66
(dp1124
sg75
g1109
sg68
(lp1125
g61
(g62
g63
NtRp1126
(dp1127
g66
(dp1128
g74
I4
ssg75
g1122
sg68
(lp1129
S"<Values at 0x2a3cbd8: {'verbose': False, 'ip': '127.0.0.1', 'with_scheduler': False, 'ips': [], 'shutdown_timeout': 5, 'taskbar': False, 'port': 8000, 'maxthreads': None, 'softcron': False, 'server_name': 'adri-EasyNote', 'bpython': False, 'nogui': False, 'pid_filename': 'httpserver.pid', 'extcron': False, 'runcron': False, 'run_system_tests': False, 'test': None, 'folder': '/home/adrian/web2py', 'config': '', 'minthreads': None, 'winservice': '', 'shell': None, 'run': '', 'log_filename': 'httpserver.log', 'debuglevel': 30, 'args': [''], 'socket_timeout': 5, 'ssl_ca_certificate': None, 'scheduler': None, 'profiler_filename': None, 'ssl_private_key': '', 'scheduler_groups': None, 'password': 'cygnuscloud2012', 'request_queue_size': 5, 'ssl_certificate': '', 'cronjob': False, 'numthreads': None, 'quiet': False, 'interfaces': None, 'import_models': False, 'timeout': 10, 'plain': False, 'nobanner': False}>"
p1130
asbasbasbag61
(g77
g63
NtRp1131
(dp1132
g66
(dp1133
sg75
g1036
sg68
(lp1134
g61
(g82
g63
NtRp1135
(dp1136
g66
(dp1137
g86
g87
ssg75
g1131
sg68
(lp1138
S'db_sessions'
p1139
asbag61
(g82
g63
NtRp1140
(dp1141
g66
(dp1142
g93
g94
ssg75
g1131
sg68
(lp1143
S':'
asbag61
(g82
g63
NtRp1144
(dp1145
g66
(dp1146
sg75
g1131
sg68
(lp1147
g61
(g62
g63
NtRp1148
(dp1149
g66
(dp1150
g74
I4
ssg75
g1144
sg68
(lp1151
S'set([])'
p1152
asbasbasbag61
(g77
g63
NtRp1153
(dp1154
g66
(dp1155
sg75
g1036
sg68
(lp1156
g61
(g82
g63
NtRp1157
(dp1158
g66
(dp1159
g86
g87
ssg75
g1153
sg68
(lp1160
S'debugging'
p1161
asbag61
(g82
g63
NtRp1162
(dp1163
g66
(dp1164
g93
g94
ssg75
g1153
sg68
(lp1165
S':'
asbag61
(g82
g63
NtRp1166
(dp1167
g66
(dp1168
sg75
g1153
sg68
(lp1169
g61
(g62
g63
NtRp1170
(dp1171
g66
(dp1172
g74
I4
ssg75
g1166
sg68
(lp1173
g104
asbasbasbag61
(g77
g63
NtRp1174
(dp1175
g66
(dp1176
sg75
g1036
sg68
(lp1177
g61
(g82
g63
NtRp1178
(dp1179
g66
(dp1180
g86
g87
ssg75
g1174
sg68
(lp1181
S'gluon_parent'
p1182
asbag61
(g82
g63
NtRp1183
(dp1184
g66
(dp1185
g93
g94
ssg75
g1174
sg68
(lp1186
S':'
asbag61
(g82
g63
NtRp1187
(dp1188
g66
(dp1189
sg75
g1174
sg68
(lp1190
g61
(g62
g63
NtRp1191
(dp1192
g66
(dp1193
g74
I4
ssg75
g1187
sg68
(lp1194
S'/home/adrian/web2py'
p1195
asbasbasbag61
(g77
g63
NtRp1196
(dp1197
g66
(dp1198
sg75
g1036
sg68
(lp1199
g61
(g82
g63
NtRp1200
(dp1201
g66
(dp1202
g86
g87
ssg75
g1196
sg68
(lp1203
S'http_accept'
p1204
asbag61
(g82
g63
NtRp1205
(dp1206
g66
(dp1207
g93
g94
ssg75
g1196
sg68
(lp1208
S':'
asbag61
(g82
g63
NtRp1209
(dp1210
g66
(dp1211
sg75
g1196
sg68
(lp1212
g61
(g62
g63
NtRp1213
(dp1214
g66
(dp1215
g74
I4
ssg75
g1209
sg68
(lp1216
S'text/html,application/xhtml+xml,application/xml;q=0.9,*/*;q=0.8'
p1217
asbasbasbag61
(g77
g63
NtRp1218
(dp1219
g66
(dp1220
sg75
g1036
sg68
(lp1221
g61
(g82
g63
NtRp1222
(dp1223
g66
(dp1224
g86
g87
ssg75
g1218
sg68
(lp1225
S'http_accept_charset'
p1226
asbag61
(g82
g63
NtRp1227
(dp1228
g66
(dp1229
g93
g94
ssg75
g1218
sg68
(lp1230
S':'
asbag61
(g82
g63
NtRp1231
(dp1232
g66
(dp1233
sg75
g1218
sg68
(lp1234
g61
(g62
g63
NtRp1235
(dp1236
g66
(dp1237
g74
I4
ssg75
g1231
sg68
(lp1238
S'ISO-8859-1,utf-8;q=0.7,*;q=0.3'
p1239
asbasbasbag61
(g77
g63
NtRp1240
(dp1241
g66
(dp1242
sg75
g1036
sg68
(lp1243
g61
(g82
g63
NtRp1244
(dp1245
g66
(dp1246
g86
g87
ssg75
g1240
sg68
(lp1247
S'http_accept_encoding'
p1248
asbag61
(g82
g63
NtRp1249
(dp1250
g66
(dp1251
g93
g94
ssg75
g1240
sg68
(lp1252
S':'
asbag61
(g82
g63
NtRp1253
(dp1254
g66
(dp1255
sg75
g1240
sg68
(lp1256
g61
(g62
g63
NtRp1257
(dp1258
g66
(dp1259
g74
I4
ssg75
g1253
sg68
(lp1260
S'gzip,deflate,sdch'
p1261
asbasbasbag61
(g77
g63
NtRp1262
(dp1263
g66
(dp1264
sg75
g1036
sg68
(lp1265
g61
(g82
g63
NtRp1266
(dp1267
g66
(dp1268
g86
g87
ssg75
g1262
sg68
(lp1269
S'http_accept_language'
p1270
asbag61
(g82
g63
NtRp1271
(dp1272
g66
(dp1273
g93
g94
ssg75
g1262
sg68
(lp1274
S':'
asbag61
(g82
g63
NtRp1275
(dp1276
g66
(dp1277
sg75
g1262
sg68
(lp1278
g61
(g62
g63
NtRp1279
(dp1280
g66
(dp1281
g74
I4
ssg75
g1275
sg68
(lp1282
S'es-ES,es;q=0.8'
p1283
asbasbasbag61
(g77
g63
NtRp1284
(dp1285
g66
(dp1286
sg75
g1036
sg68
(lp1287
g61
(g82
g63
NtRp1288
(dp1289
g66
(dp1290
g86
g87
ssg75
g1284
sg68
(lp1291
S'http_cache_control'
p1292
asbag61
(g82
g63
NtRp1293
(dp1294
g66
(dp1295
g93
g94
ssg75
g1284
sg68
(lp1296
S':'
asbag61
(g82
g63
NtRp1297
(dp1298
g66
(dp1299
sg75
g1284
sg68
(lp1300
g61
(g62
g63
NtRp1301
(dp1302
g66
(dp1303
g74
I4
ssg75
g1297
sg68
(lp1304
S'max-age=0'
p1305
asbasbasbag61
(g77
g63
NtRp1306
(dp1307
g66
(dp1308
sg75
g1036
sg68
(lp1309
g61
(g82
g63
NtRp1310
(dp1311
g66
(dp1312
g86
g87
ssg75
g1306
sg68
(lp1313
S'http_connection'
p1314
asbag61
(g82
g63
NtRp1315
(dp1316
g66
(dp1317
g93
g94
ssg75
g1306
sg68
(lp1318
S':'
asbag61
(g82
g63
NtRp1319
(dp1320
g66
(dp1321
sg75
g1306
sg68
(lp1322
g61
(g62
g63
NtRp1323
(dp1324
g66
(dp1325
g74
I4
ssg75
g1319
sg68
(lp1326
S'keep-alive'
p1327
asbasbasbag61
(g77
g63
NtRp1328
(dp1329
g66
(dp1330
sg75
g1036
sg68
(lp1331
g61
(g82
g63
NtRp1332
(dp1333
g66
(dp1334
g86
g87
ssg75
g1328
sg68
(lp1335
S'http_cookie'
p1336
asbag61
(g82
g63
NtRp1337
(dp1338
g66
(dp1339
g93
g94
ssg75
g1328
sg68
(lp1340
S':'
asbag61
(g82
g63
NtRp1341
(dp1342
g66
(dp1343
sg75
g1328
sg68
(lp1344
g61
(g62
g63
NtRp1345
(dp1346
g66
(dp1347
g74
I4
ssg75
g1341
sg68
(lp1348
S'kaej_unique_user=1; session_id_welcome=127.0.0.1-ebfdc699-9472-4804-814f-75e37bc25576; session_id_cygnuscloud=127.0.0.1-c587975d-3dc0-4e19-8fd9-70fb7b0fbde9; session_id_admin=127.0.0.1-41da04db-390e-412d-bcee-51806220151f'
p1349
asbasbasbag61
(g77
g63
NtRp1350
(dp1351
g66
(dp1352
sg75
g1036
sg68
(lp1353
g61
(g82
g63
NtRp1354
(dp1355
g66
(dp1356
g86
g87
ssg75
g1350
sg68
(lp1357
S'http_host'
p1358
asbag61
(g82
g63
NtRp1359
(dp1360
g66
(dp1361
g93
g94
ssg75
g1350
sg68
(lp1362
S':'
asbag61
(g82
g63
NtRp1363
(dp1364
g66
(dp1365
sg75
g1350
sg68
(lp1366
g61
(g62
g63
NtRp1367
(dp1368
g66
(dp1369
g74
I4
ssg75
g1363
sg68
(lp1370
S'127.0.0.1:8000'
p1371
asbasbasbag61
(g77
g63
NtRp1372
(dp1373
g66
(dp1374
sg75
g1036
sg68
(lp1375
g61
(g82
g63
NtRp1376
(dp1377
g66
(dp1378
g86
g87
ssg75
g1372
sg68
(lp1379
S'http_user_agent'
p1380
asbag61
(g82
g63
NtRp1381
(dp1382
g66
(dp1383
g93
g94
ssg75
g1372
sg68
(lp1384
S':'
asbag61
(g82
g63
NtRp1385
(dp1386
g66
(dp1387
sg75
g1372
sg68
(lp1388
g61
(g62
g63
NtRp1389
(dp1390
g66
(dp1391
g74
I4
ssg75
g1385
sg68
(lp1392
S'Mozilla/5.0 (X11; Linux x86_64) AppleWebKit/537.11 (KHTML, like Gecko) Chrome/23.0.1271.64 Safari/537.11'
p1393
asbasbasbag61
(g77
g63
NtRp1394
(dp1395
g66
(dp1396
sg75
g1036
sg68
(lp1397
g61
(g82
g63
NtRp1398
(dp1399
g66
(dp1400
g86
g87
ssg75
g1394
sg68
(lp1401
S'is_jython'
p1402
asbag61
(g82
g63
NtRp1403
(dp1404
g66
(dp1405
g93
g94
ssg75
g1394
sg68
(lp1406
S':'
asbag61
(g82
g63
NtRp1407
(dp1408
g66
(dp1409
sg75
g1394
sg68
(lp1410
g61
(g62
g63
NtRp1411
(dp1412
g66
(dp1413
g74
I4
ssg75
g1407
sg68
(lp1414
g104
asbasbasbag61
(g77
g63
NtRp1415
(dp1416
g66
(dp1417
sg75
g1036
sg68
(lp1418
g61
(g82
g63
NtRp1419
(dp1420
g66
(dp1421
g86
g87
ssg75
g1415
sg68
(lp1422
S'is_pypy'
p1423
asbag61
(g82
g63
NtRp1424
(dp1425
g66
(dp1426
g93
g94
ssg75
g1415
sg68
(lp1427
S':'
asbag61
(g82
g63
NtRp1428
(dp1429
g66
(dp1430
sg75
g1415
sg68
(lp1431
g61
(g62
g63
NtRp1432
(dp1433
g66
(dp1434
g74
I4
ssg75
g1428
sg68
(lp1435
g104
asbasbasbag61
(g77
g63
NtRp1436
(dp1437
g66
(dp1438
sg75
g1036
sg68
(lp1439
g61
(g82
g63
NtRp1440
(dp1441
g66
(dp1442
g86
g87
ssg75
g1436
sg68
(lp1443
S'path_info'
p1444
asbag61
(g82
g63
NtRp1445
(dp1446
g66
(dp1447
g93
g94
ssg75
g1436
sg68
(lp1448
S':'
asbag61
(g82
g63
NtRp1449
(dp1450
g66
(dp1451
sg75
g1436
sg68
(lp1452
g61
(g62
g63
NtRp1453
(dp1454
g66
(dp1455
g74
I4
ssg75
g1449
sg68
(lp1456
S'/CygnusCloud/main/login'
p1457
asbasbasbag61
(g77
g63
NtRp1458
(dp1459
g66
(dp1460
sg75
g1036
sg68
(lp1461
g61
(g82
g63
NtRp1462
(dp1463
g66
(dp1464
g86
g87
ssg75
g1458
sg68
(lp1465
S'query_string'
p1466
asbag61
(g82
g63
NtRp1467
(dp1468
g66
(dp1469
g93
g94
ssg75
g1458
sg68
(lp1470
S':'
asbag61
(g82
g63
NtRp1471
(dp1472
g66
(dp1473
sg75
g1458
sg68
(lp1474
g61
(g62
g63
NtRp1475
(dp1476
g66
(dp1477
g74
I4
ssg75
g1471
sg68
(lp1478
S''
asbasbasbag61
(g77
g63
NtRp1479
(dp1480
g66
(dp1481
sg75
g1036
sg68
(lp1482
g61
(g82
g63
NtRp1483
(dp1484
g66
(dp1485
g86
g87
ssg75
g1479
sg68
(lp1486
S'remote_addr'
p1487
asbag61
(g82
g63
NtRp1488
(dp1489
g66
(dp1490
g93
g94
ssg75
g1479
sg68
(lp1491
S':'
asbag61
(g82
g63
NtRp1492
(dp1493
g66
(dp1494
sg75
g1479
sg68
(lp1495
g61
(g62
g63
NtRp1496
(dp1497
g66
(dp1498
g74
I4
ssg75
g1492
sg68
(lp1499
g216
asbasbasbag61
(g77
g63
NtRp1500
(dp1501
g66
(dp1502
sg75
g1036
sg68
(lp1503
g61
(g82
g63
NtRp1504
(dp1505
g66
(dp1506
g86
g87
ssg75
g1500
sg68
(lp1507
S'remote_port'
p1508
asbag61
(g82
g63
NtRp1509
(dp1510
g66
(dp1511
g93
g94
ssg75
g1500
sg68
(lp1512
S':'
asbag61
(g82
g63
NtRp1513
(dp1514
g66
(dp1515
sg75
g1500
sg68
(lp1516
g61
(g62
g63
NtRp1517
(dp1518
g66
(dp1519
g74
I4
ssg75
g1513
sg68
(lp1520
S'34479'
p1521
asbasbasbag61
(g77
g63
NtRp1522
(dp1523
g66
(dp1524
sg75
g1036
sg68
(lp1525
g61
(g82
g63
NtRp1526
(dp1527
g66
(dp1528
g86
g87
ssg75
g1522
sg68
(lp1529
S'request_method'
p1530
asbag61
(g82
g63
NtRp1531
(dp1532
g66
(dp1533
g93
g94
ssg75
g1522
sg68
(lp1534
S':'
asbag61
(g82
g63
NtRp1535
(dp1536
g66
(dp1537
sg75
g1522
sg68
(lp1538
g61
(g62
g63
NtRp1539
(dp1540
g66
(dp1541
g74
I4
ssg75
g1535
sg68
(lp1542
S'GET'
p1543
asbasbasbag61
(g77
g63
NtRp1544
(dp1545
g66
(dp1546
sg75
g1036
sg68
(lp1547
g61
(g82
g63
NtRp1548
(dp1549
g66
(dp1550
g86
g87
ssg75
g1544
sg68
(lp1551
S'request_uri'
p1552
asbag61
(g82
g63
NtRp1553
(dp1554
g66
(dp1555
g93
g94
ssg75
g1544
sg68
(lp1556
S':'
asbag61
(g82
g63
NtRp1557
(dp1558
g66
(dp1559
sg75
g1544
sg68
(lp1560
g61
(g62
g63
NtRp1561
(dp1562
g66
(dp1563
g74
I4
ssg75
g1557
sg68
(lp1564
g1457
asbasbasbag61
(g77
g63
NtRp1565
(dp1566
g66
(dp1567
sg75
g1036
sg68
(lp1568
g61
(g82
g63
NtRp1569
(dp1570
g66
(dp1571
g86
g87
ssg75
g1565
sg68
(lp1572
S'script_name'
p1573
asbag61
(g82
g63
NtRp1574
(dp1575
g66
(dp1576
g93
g94
ssg75
g1565
sg68
(lp1577
S':'
asbag61
(g82
g63
NtRp1578
(dp1579
g66
(dp1580
sg75
g1565
sg68
(lp1581
g61
(g62
g63
NtRp1582
(dp1583
g66
(dp1584
g74
I4
ssg75
g1578
sg68
(lp1585
S''
asbasbasbag61
(g77
g63
NtRp1586
(dp1587
g66
(dp1588
sg75
g1036
sg68
(lp1589
g61
(g82
g63
NtRp1590
(dp1591
g66
(dp1592
g86
g87
ssg75
g1586
sg68
(lp1593
S'server_name'
p1594
asbag61
(g82
g63
NtRp1595
(dp1596
g66
(dp1597
g93
g94
ssg75
g1586
sg68
(lp1598
S':'
asbag61
(g82
g63
NtRp1599
(dp1600
g66
(dp1601
sg75
g1586
sg68
(lp1602
g61
(g62
g63
NtRp1603
(dp1604
g66
(dp1605
g74
I4
ssg75
g1599
sg68
(lp1606
S'adri-EasyNote'
p1607
asbasbasbag61
(g77
g63
NtRp1608
(dp1609
g66
(dp1610
sg75
g1036
sg68
(lp1611
g61
(g82
g63
NtRp1612
(dp1613
g66
(dp1614
g86
g87
ssg75
g1608
sg68
(lp1615
S'server_port'
p1616
asbag61
(g82
g63
NtRp1617
(dp1618
g66
(dp1619
g93
g94
ssg75
g1608
sg68
(lp1620
S':'
asbag61
(g82
g63
NtRp1621
(dp1622
g66
(dp1623
sg75
g1608
sg68
(lp1624
g61
(g62
g63
NtRp1625
(dp1626
g66
(dp1627
g74
I4
ssg75
g1621
sg68
(lp1628
S'8000'
p1629
asbasbasbag61
(g77
g63
NtRp1630
(dp1631
g66
(dp1632
sg75
g1036
sg68
(lp1633
g61
(g82
g63
NtRp1634
(dp1635
g66
(dp1636
g86
g87
ssg75
g1630
sg68
(lp1637
S'server_protocol'
p1638
asbag61
(g82
g63
NtRp1639
(dp1640
g66
(dp1641
g93
g94
ssg75
g1630
sg68
(lp1642
S':'
asbag61
(g82
g63
NtRp1643
(dp1644
g66
(dp1645
sg75
g1630
sg68
(lp1646
g61
(g62
g63
NtRp1647
(dp1648
g66
(dp1649
g74
I4
ssg75
g1643
sg68
(lp1650
S'HTTP/1.1'
p1651
asbasbasbag61
(g77
g63
NtRp1652
(dp1653
g66
(dp1654
sg75
g1036
sg68
(lp1655
g61
(g82
g63
NtRp1656
(dp1657
g66
(dp1658
g86
g87
ssg75
g1652
sg68
(lp1659
S'server_software'
p1660
asbag61
(g82
g63
NtRp1661
(dp1662
g66
(dp1663
g93
g94
ssg75
g1652
sg68
(lp1664
S':'
asbag61
(g82
g63
NtRp1665
(dp1666
g66
(dp1667
sg75
g1652
sg68
(lp1668
g61
(g62
g63
NtRp1669
(dp1670
g66
(dp1671
g74
I4
ssg75
g1665
sg68
(lp1672
S'Rocket 1.2.6'
p1673
asbasbasbag61
(g77
g63
NtRp1674
(dp1675
g66
(dp1676
sg75
g1036
sg68
(lp1677
g61
(g82
g63
NtRp1678
(dp1679
g66
(dp1680
g86
g87
ssg75
g1674
sg68
(lp1681
S'web2py_path'
p1682
asbag61
(g82
g63
NtRp1683
(dp1684
g66
(dp1685
g93
g94
ssg75
g1674
sg68
(lp1686
S':'
asbag61
(g82
g63
NtRp1687
(dp1688
g66
(dp1689
sg75
g1674
sg68
(lp1690
g61
(g62
g63
NtRp1691
(dp1692
g66
(dp1693
g74
I4
ssg75
g1687
sg68
(lp1694
g1083
asbasbasbag61
(g77
g63
NtRp1695
(dp1696
g66
(dp1697
sg75
g1036
sg68
(lp1698
g61
(g82
g63
NtRp1699
(dp1700
g66
(dp1701
g86
g87
ssg75
g1695
sg68
(lp1702
S'web2py_version'
p1703
asbag61
(g82
g63
NtRp1704
(dp1705
g66
(dp1706
g93
g94
ssg75
g1695
sg68
(lp1707
S':'
asbag61
(g82
g63
NtRp1708
(dp1709
g66
(dp1710
sg75
g1695
sg68
(lp1711
g61
(g62
g63
NtRp1712
(dp1713
g66
(dp1714
g74
I4
ssg75
g1708
sg68
(lp1715
g61
(g70
g63
NtRp1716
(dp1717
g66
(dp1718
g74
I3
ssg75
Nsg68
(lp1719
g61
(g77
g63
NtRp1720
(dp1721
g66
(dp1722
sg75
g1716
sg68
(lp1723
g61
(g82
g63
NtRp1724
(dp1725
g66
(dp1726
sg75
g1720
sg68
(lp1727
g61
(g62
g63
NtRp1728
(dp1729
g66
(dp1730
g74
I3
ssg75
g1724
sg68
(lp1731
S'2'
asbasbasbag61
(g77
g63
NtRp1732
(dp1733
g66
(dp1734
sg75
g1716
sg68
(lp1735
g61
(g82
g63
NtRp1736
(dp1737
g66
(dp1738
sg75
g1732
sg68
(lp1739
g61
(g62
g63
NtRp1740
(dp1741
g66
(dp1742
g74
I3
ssg75
g1736
sg68
(lp1743
S'3'
asbasbasbag61
(g77
g63
NtRp1744
(dp1745
g66
(dp1746
sg75
g1716
sg68
(lp1747
g61
(g82
g63
NtRp1748
(dp1749
g66
(dp1750
sg75
g1744
sg68
(lp1751
g61
(g62
g63
NtRp1752
(dp1753
g66
(dp1754
g74
I3
ssg75
g1748
sg68
(lp1755
S'2'
asbasbasbag61
(g77
g63
NtRp1756
(dp1757
g66
(dp1758
sg75
g1716
sg68
(lp1759
g61
(g82
g63
NtRp1760
(dp1761
g66
(dp1762
sg75
g1756
sg68
(lp1763
g61
(g62
g63
NtRp1764
(dp1765
g66
(dp1766
g74
I3
ssg75
g1760
sg68
(lp1767
S'datetime.datetime(2012, 12, 17, 15, 3, 30)'
p1768
asbasbasbag61
(g77
g63
NtRp1769
(dp1770
g66
(dp1771
sg75
g1716
sg68
(lp1772
g61
(g82
g63
NtRp1773
(dp1774
g66
(dp1775
sg75
g1769
sg68
(lp1776
g61
(g62
g63
NtRp1777
(dp1778
g66
(dp1779
g74
I3
ssg75
g1773
sg68
(lp1780
S'stable'
p1781
asbasbasbasbasbasbasbag61
(g77
g63
NtRp1782
(dp1783
g66
(dp1784
sg75
g1036
sg68
(lp1785
g61
(g82
g63
NtRp1786
(dp1787
g66
(dp1788
g86
g87
ssg75
g1782
sg68
(lp1789
S'wsgi_errors'
p1790
asbag61
(g82
g63
NtRp1791
(dp1792
g66
(dp1793
g93
g94
ssg75
g1782
sg68
(lp1794
S':'
asbag61
(g82
g63
NtRp1795
(dp1796
g66
(dp1797
sg75
g1782
sg68
(lp1798
g61
(g62
g63
NtRp1799
(dp1800
g66
(dp1801
g74
I4
ssg75
g1795
sg68
(lp1802
S"<open file '<stderr>', mode 'w' at 0x7f6b9bad0270>"
p1803
asbasbasbag61
(g77
g63
NtRp1804
(dp1805
g66
(dp1806
sg75
g1036
sg68
(lp1807
g61
(g82
g63
NtRp1808
(dp1809
g66
(dp1810
g86
g87
ssg75
g1804
sg68
(lp1811
S'wsgi_file_wrapper'
p1812
asbag61
(g82
g63
NtRp1813
(dp1814
g66
(dp1815
g93
g94
ssg75
g1804
sg68
(lp1816
S':'
asbag61
(g82
g63
NtRp1817
(dp1818
g66
(dp1819
sg75
g1804
sg68
(lp1820
g61
(g62
g63
NtRp1821
(dp1822
g66
(dp1823
g74
I4
ssg75
g1817
sg68
(lp1824
S'<class wsgiref.util.FileWrapper at 0x2970db8>'
p1825
asbasbasbag61
(g77
g63
NtRp1826
(dp1827
g66
(dp1828
sg75
g1036
sg68
(lp1829
g61
(g82
g63
NtRp1830
(dp1831
g66
(dp1832
g86
g87
ssg75
g1826
sg68
(lp1833
S'wsgi_input'
p1834
asbag61
(g82
g63
NtRp1835
(dp1836
g66
(dp1837
g93
g94
ssg75
g1826
sg68
(lp1838
S':'
asbag61
(g82
g63
NtRp1839
(dp1840
g66
(dp1841
sg75
g1826
sg68
(lp1842
g61
(g62
g63
NtRp1843
(dp1844
g66
(dp1845
g74
I4
ssg75
g1839
sg68
(lp1846
S'<socket._fileobject object at 0x2aa6e50>'
p1847
asbasbasbag61
(g77
g63
NtRp1848
(dp1849
g66
(dp1850
sg75
g1036
sg68
(lp1851
g61
(g82
g63
NtRp1852
(dp1853
g66
(dp1854
g86
g87
ssg75
g1848
sg68
(lp1855
S'wsgi_multiprocess'
p1856
asbag61
(g82
g63
NtRp1857
(dp1858
g66
(dp1859
g93
g94
ssg75
g1848
sg68
(lp1860
S':'
asbag61
(g82
g63
NtRp1861
(dp1862
g66
(dp1863
sg75
g1848
sg68
(lp1864
g61
(g62
g63
NtRp1865
(dp1866
g66
(dp1867
g74
I4
ssg75
g1861
sg68
(lp1868
g104
asbasbasbag61
(g77
g63
NtRp1869
(dp1870
g66
(dp1871
sg75
g1036
sg68
(lp1872
g61
(g82
g63
NtRp1873
(dp1874
g66
(dp1875
g86
g87
ssg75
g1869
sg68
(lp1876
S'wsgi_multithread'
p1877
asbag61
(g82
g63
NtRp1878
(dp1879
g66
(dp1880
g93
g94
ssg75
g1869
sg68
(lp1881
S':'
asbag61
(g82
g63
NtRp1882
(dp1883
g66
(dp1884
sg75
g1869
sg68
(lp1885
g61
(g62
g63
NtRp1886
(dp1887
g66
(dp1888
g74
I4
ssg75
g1882
sg68
(lp1889
S'True'
p1890
asbasbasbag61
(g77
g63
NtRp1891
(dp1892
g66
(dp1893
sg75
g1036
sg68
(lp1894
g61
(g82
g63
NtRp1895
(dp1896
g66
(dp1897
g86
g87
ssg75
g1891
sg68
(lp1898
S'wsgi_run_once'
p1899
asbag61
(g82
g63
NtRp1900
(dp1901
g66
(dp1902
g93
g94
ssg75
g1891
sg68
(lp1903
S':'
asbag61
(g82
g63
NtRp1904
(dp1905
g66
(dp1906
sg75
g1891
sg68
(lp1907
g61
(g62
g63
NtRp1908
(dp1909
g66
(dp1910
g74
I4
ssg75
g1904
sg68
(lp1911
g104
asbasbasbag61
(g77
g63
NtRp1912
(dp1913
g66
(dp1914
sg75
g1036
sg68
(lp1915
g61
(g82
g63
NtRp1916
(dp1917
g66
(dp1918
g86
g87
ssg75
g1912
sg68
(lp1919
S'wsgi_url_scheme'
p1920
asbag61
(g82
g63
NtRp1921
(dp1922
g66
(dp1923
g93
g94
ssg75
g1912
sg68
(lp1924
S':'
asbag61
(g82
g63
NtRp1925
(dp1926
g66
(dp1927
sg75
g1912
sg68
(lp1928
g61
(g62
g63
NtRp1929
(dp1930
g66
(dp1931
g74
I4
ssg75
g1925
sg68
(lp1932
S'http'
p1933
asbasbasbag61
(g77
g63
NtRp1934
(dp1935
g66
(dp1936
sg75
g1036
sg68
(lp1937
g61
(g82
g63
NtRp1938
(dp1939
g66
(dp1940
g86
g87
ssg75
g1934
sg68
(lp1941
S'wsgi_version'
p1942
asbag61
(g82
g63
NtRp1943
(dp1944
g66
(dp1945
g93
g94
ssg75
g1934
sg68
(lp1946
S':'
asbag61
(g82
g63
NtRp1947
(dp1948
g66
(dp1949
sg75
g1934
sg68
(lp1950
g61
(g62
g63
NtRp1951
(dp1952
g66
(dp1953
g74
I4
ssg75
g1947
sg68
(lp1954
g61
(g70
g63
NtRp1955
(dp1956
g66
(dp1957
g74
I3
ssg75
Nsg68
(lp1958
g61
(g77
g63
NtRp1959
(dp1960
g66
(dp1961
sg75
g1955
sg68
(lp1962
g61
(g82
g63
NtRp1963
(dp1964
g66
(dp1965
sg75
g1959
sg68
(lp1966
g61
(g62
g63
NtRp1967
(dp1968
g66
(dp1969
g74
I3
ssg75
g1963
sg68
(lp1970
S'1'
asbasbasbag61
(g77
g63
NtRp1971
(dp1972
g66
(dp1973
sg75
g1955
sg68
(lp1974
g61
(g82
g63
NtRp1975
(dp1976
g66
(dp1977
sg75
g1971
sg68
(lp1978
g61
(g62
g63
NtRp1979
(dp1980
g66
(dp1981
g74
I3
ssg75
g1975
sg68
(lp1982
S'0'
asbasbasbasbasbasbasbasbasbasbasbag61
(g77
g63
NtRp1983
(dp1984
g66
(dp1985
sg75
g71
sg68
(lp1986
g61
(g82
g63
NtRp1987
(dp1988
g66
(dp1989
g86
g87
ssg75
g1983
sg68
(lp1990
S'extension'
p1991
asbag61
(g82
g63
NtRp1992
(dp1993
g66
(dp1994
g93
g94
ssg75
g1983
sg68
(lp1995
S':'
asbag61
(g82
g63
NtRp1996
(dp1997
g66
(dp1998
sg75
g1983
sg68
(lp1999
g61
(g62
g63
NtRp2000
(dp2001
g66
(dp2002
g74
I5
ssg75
g1996
sg68
(lp2003
S'html'
p2004
asbasbasbag61
(g77
g63
NtRp2005
(dp2006
g66
(dp2007
sg75
g71
sg68
(lp2008
g61
(g82
g63
NtRp2009
(dp2010
g66
(dp2011
g86
g87
ssg75
g2005
sg68
(lp2012
S'folder'
p2013
asbag61
(g82
g63
NtRp2014
(dp2015
g66
(dp2016
g93
g94
ssg75
g2005
sg68
(lp2017
S':'
asbag61
(g82
g63
NtRp2018
(dp2019
g66
(dp2020
sg75
g2005
sg68
(lp2021
g61
(g62
g63
NtRp2022
(dp2023
g66
(dp2024
g74
I5
ssg75
g2018
sg68
(lp2025
S'/home/adrian/web2py/applications/CygnusCloud/'
p2026
asbasbasbag61
(g77
g63
NtRp2027
(dp2028
g66
(dp2029
sg75
g71
sg68
(lp2030
g61
(g82
g63
NtRp2031
(dp2032
g66
(dp2033
g86
g87
ssg75
g2027
sg68
(lp2034
S'function'
p2035
asbag61
(g82
g63
NtRp2036
(dp2037
g66
(dp2038
g93
g94
ssg75
g2027
sg68
(lp2039
S':'
asbag61
(g82
g63
NtRp2040
(dp2041
g66
(dp2042
sg75
g2027
sg68
(lp2043
g61
(g62
g63
NtRp2044
(dp2045
g66
(dp2046
g74
I5
ssg75
g2040
sg68
(lp2047
S'login'
p2048
asbasbasbag61
(g77
g63
NtRp2049
(dp2050
g66
(dp2051
sg75
g71
sg68
(lp2052
g61
(g82
g63
NtRp2053
(dp2054
g66
(dp2055
g86
g87
ssg75
g2049
sg68
(lp2056
S'get_vars'
p2057
asbag61
(g82
g63
NtRp2058
(dp2059
g66
(dp2060
g93
g94
ssg75
g2049
sg68
(lp2061
S':'
asbag61
(g82
g63
NtRp2062
(dp2063
g66
(dp2064
sg75
g2049
sg68
(lp2065
g61
(g62
g63
NtRp2066
(dp2067
g66
(dp2068
g74
I5
ssg75
g2062
sg68
(lp2069
g61
(g70
g63
NtRp2070
(dp2071
g66
(dp2072
g74
I4
ssg75
Nsg68
(lp2073
sbasbasbasbag61
(g77
g63
NtRp2074
(dp2075
g66
(dp2076
sg75
g71
sg68
(lp2077
g61
(g82
g63
NtRp2078
(dp2079
g66
(dp2080
g86
g87
ssg75
g2074
sg68
(lp2081
S'global_settings'
p2082
asbag61
(g82
g63
NtRp2083
(dp2084
g66
(dp2085
g93
g94
ssg75
g2074
sg68
(lp2086
S':'
asbag61
(g82
g63
NtRp2087
(dp2088
g66
(dp2089
sg75
g2074
sg68
(lp2090
g61
(g62
g63
NtRp2091
(dp2092
g66
(dp2093
g74
I5
ssg75
g2087
sg68
(lp2094
g61
(g70
g63
NtRp2095
(dp2096
g66
(dp2097
g74
I4
ssg75
Nsg68
(lp2098
g61
(g77
g63
NtRp2099
(dp2100
g66
(dp2101
sg75
g2095
sg68
(lp2102
g61
(g82
g63
NtRp2103
(dp2104
g66
(dp2105
g86
g87
ssg75
g2099
sg68
(lp2106
g1048
asbag61
(g82
g63
NtRp2107
(dp2108
g66
(dp2109
g93
g94
ssg75
g2099
sg68
(lp2110
S':'
asbag61
(g82
g63
NtRp2111
(dp2112
g66
(dp2113
sg75
g2099
sg68
(lp2114
g61
(g62
g63
NtRp2115
(dp2116
g66
(dp2117
g74
I4
ssg75
g2111
sg68
(lp2118
S"set(['/home/adrian/web2py/applications/CygnusCloud/'])"
p2119
asbasbasbag61
(g77
g63
NtRp2120
(dp2121
g66
(dp2122
sg75
g2095
sg68
(lp2123
g61
(g82
g63
NtRp2124
(dp2125
g66
(dp2126
g86
g87
ssg75
g2120
sg68
(lp2127
g1070
asbag61
(g82
g63
NtRp2128
(dp2129
g66
(dp2130
g93
g94
ssg75
g2120
sg68
(lp2131
S':'
asbag61
(g82
g63
NtRp2132
(dp2133
g66
(dp2134
sg75
g2120
sg68
(lp2135
g61
(g62
g63
NtRp2136
(dp2137
g66
(dp2138
g74
I4
ssg75
g2132
sg68
(lp2139
g1083
asbasbasbag61
(g77
g63
NtRp2140
(dp2141
g66
(dp2142
sg75
g2095
sg68
(lp2143
g61
(g82
g63
NtRp2144
(dp2145
g66
(dp2146
g86
g87
ssg75
g2140
sg68
(lp2147
g1092
asbag61
(g82
g63
NtRp2148
(dp2149
g66
(dp2150
g93
g94
ssg75
g2140
sg68
(lp2151
S':'
asbag61
(g82
g63
NtRp2152
(dp2153
g66
(dp2154
sg75
g2140
sg68
(lp2155
g61
(g62
g63
NtRp2156
(dp2157
g66
(dp2158
g74
I4
ssg75
g2152
sg68
(lp2159
g61
(g70
g63
NtRp2160
(dp2161
g66
(dp2162
g74
I3
ssg75
Nsg68
(lp2163
sbasbasbasbag61
(g77
g63
NtRp2164
(dp2165
g66
(dp2166
sg75
g2095
sg68
(lp2167
g61
(g82
g63
NtRp2168
(dp2169
g66
(dp2170
g86
g87
ssg75
g2164
sg68
(lp2171
g1117
asbag61
(g82
g63
NtRp2172
(dp2173
g66
(dp2174
g93
g94
ssg75
g2164
sg68
(lp2175
S':'
asbag61
(g82
g63
NtRp2176
(dp2177
g66
(dp2178
sg75
g2164
sg68
(lp2179
g61
(g62
g63
NtRp2180
(dp2181
g66
(dp2182
g74
I4
ssg75
g2176
sg68
(lp2183
S"<Values at 0x2a3cbd8: {'verbose': False, 'ip': '127.0.0.1', 'with_scheduler': False, 'ips': [], 'shutdown_timeout': 5, 'taskbar': False, 'port': 8000, 'maxthreads': None, 'softcron': False, 'server_name': 'adri-EasyNote', 'bpython': False, 'nogui': False, 'pid_filename': 'httpserver.pid', 'extcron': False, 'runcron': False, 'run_system_tests': False, 'test': None, 'folder': '/home/adrian/web2py', 'config': '', 'minthreads': None, 'winservice': '', 'shell': None, 'run': '', 'log_filename': 'httpserver.log', 'debuglevel': 30, 'args': [''], 'socket_timeout': 5, 'ssl_ca_certificate': None, 'scheduler': None, 'profiler_filename': None, 'ssl_private_key': '', 'scheduler_groups': None, 'password': 'cygnuscloud2012', 'request_queue_size': 5, 'ssl_certificate': '', 'cronjob': False, 'numthreads': None, 'quiet': False, 'interfaces': None, 'import_models': False, 'timeout': 10, 'plain': False, 'nobanner': False}>"
p2184
asbasbasbag61
(g77
g63
NtRp2185
(dp2186
g66
(dp2187
sg75
g2095
sg68
(lp2188
g61
(g82
g63
NtRp2189
(dp2190
g66
(dp2191
g86
g87
ssg75
g2185
sg68
(lp2192
g1139
asbag61
(g82
g63
NtRp2193
(dp2194
g66
(dp2195
g93
g94
ssg75
g2185
sg68
(lp2196
S':'
asbag61
(g82
g63
NtRp2197
(dp2198
g66
(dp2199
sg75
g2185
sg68
(lp2200
g61
(g62
g63
NtRp2201
(dp2202
g66
(dp2203
g74
I4
ssg75
g2197
sg68
(lp2204
S'set([])'
p2205
asbasbasbag61
(g77
g63
NtRp2206
(dp2207
g66
(dp2208
sg75
g2095
sg68
(lp2209
g61
(g82
g63
NtRp2210
(dp2211
g66
(dp2212
g86
g87
ssg75
g2206
sg68
(lp2213
g1161
asbag61
(g82
g63
NtRp2214
(dp2215
g66
(dp2216
g93
g94
ssg75
g2206
sg68
(lp2217
S':'
asbag61
(g82
g63
NtRp2218
(dp2219
g66
(dp2220
sg75
g2206
sg68
(lp2221
g61
(g62
g63
NtRp2222
(dp2223
g66
(dp2224
g74
I4
ssg75
g2218
sg68
(lp2225
g104
asbasbasbag61
(g77
g63
NtRp2226
(dp2227
g66
(dp2228
sg75
g2095
sg68
(lp2229
g61
(g82
g63
NtRp2230
(dp2231
g66
(dp2232
g86
g87
ssg75
g2226
sg68
(lp2233
g1182
asbag61
(g82
g63
NtRp2234
(dp2235
g66
(dp2236
g93
g94
ssg75
g2226
sg68
(lp2237
S':'
asbag61
(g82
g63
NtRp2238
(dp2239
g66
(dp2240
sg75
g2226
sg68
(lp2241
g61
(g62
g63
NtRp2242
(dp2243
g66
(dp2244
g74
I4
ssg75
g2238
sg68
(lp2245
g1195
asbasbasbag61
(g77
g63
NtRp2246
(dp2247
g66
(dp2248
sg75
g2095
sg68
(lp2249
g61
(g82
g63
NtRp2250
(dp2251
g66
(dp2252
g86
g87
ssg75
g2246
sg68
(lp2253
g1402
asbag61
(g82
g63
NtRp2254
(dp2255
g66
(dp2256
g93
g94
ssg75
g2246
sg68
(lp2257
S':'
asbag61
(g82
g63
NtRp2258
(dp2259
g66
(dp2260
sg75
g2246
sg68
(lp2261
g61
(g62
g63
NtRp2262
(dp2263
g66
(dp2264
g74
I4
ssg75
g2258
sg68
(lp2265
g104
asbasbasbag61
(g77
g63
NtRp2266
(dp2267
g66
(dp2268
sg75
g2095
sg68
(lp2269
g61
(g82
g63
NtRp2270
(dp2271
g66
(dp2272
g86
g87
ssg75
g2266
sg68
(lp2273
g1423
asbag61
(g82
g63
NtRp2274
(dp2275
g66
(dp2276
g93
g94
ssg75
g2266
sg68
(lp2277
S':'
asbag61
(g82
g63
NtRp2278
(dp2279
g66
(dp2280
sg75
g2266
sg68
(lp2281
g61
(g62
g63
NtRp2282
(dp2283
g66
(dp2284
g74
I4
ssg75
g2278
sg68
(lp2285
g104
asbasbasbag61
(g77
g63
NtRp2286
(dp2287
g66
(dp2288
sg75
g2095
sg68
(lp2289
g61
(g82
g63
NtRp2290
(dp2291
g66
(dp2292
g86
g87
ssg75
g2286
sg68
(lp2293
S'local_hosts'
p2294
asbag61
(g82
g63
NtRp2295
(dp2296
g66
(dp2297
g93
g94
ssg75
g2286
sg68
(lp2298
S':'
asbag61
(g82
g63
NtRp2299
(dp2300
g66
(dp2301
sg75
g2286
sg68
(lp2302
g61
(g62
g63
NtRp2303
(dp2304
g66
(dp2305
g74
I4
ssg75
g2299
sg68
(lp2306
g61
(g70
g63
NtRp2307
(dp2308
g66
(dp2309
g74
I3
ssg75
Nsg68
(lp2310
g61
(g77
g63
NtRp2311
(dp2312
g66
(dp2313
sg75
g2307
sg68
(lp2314
g61
(g82
g63
NtRp2315
(dp2316
g66
(dp2317
sg75
g2311
sg68
(lp2318
g61
(g62
g63
NtRp2319
(dp2320
g66
(dp2321
g74
I3
ssg75
g2315
sg68
(lp2322
S'adri-EasyNote'
p2323
asbasbasbag61
(g77
g63
NtRp2324
(dp2325
g66
(dp2326
sg75
g2307
sg68
(lp2327
g61
(g82
g63
NtRp2328
(dp2329
g66
(dp2330
sg75
g2324
sg68
(lp2331
g61
(g62
g63
NtRp2332
(dp2333
g66
(dp2334
g74
I3
ssg75
g2328
sg68
(lp2335
S'::1'
p2336
asbasbasbag61
(g77
g63
NtRp2337
(dp2338
g66
(dp2339
sg75
g2307
sg68
(lp2340
g61
(g82
g63
NtRp2341
(dp2342
g66
(dp2343
sg75
g2337
sg68
(lp2344
g61
(g62
g63
NtRp2345
(dp2346
g66
(dp2347
g74
I3
ssg75
g2341
sg68
(lp2348
S'127.0.1.1'
p2349
asbasbasbag61
(g77
g63
NtRp2350
(dp2351
g66
(dp2352
sg75
g2307
sg68
(lp2353
g61
(g82
g63
NtRp2354
(dp2355
g66
(dp2356
sg75
g2350
sg68
(lp2357
g61
(g62
g63
NtRp2358
(dp2359
g66
(dp2360
g74
I3
ssg75
g2354
sg68
(lp2361
S'::ffff:127.0.0.1'
p2362
asbasbasbag61
(g77
g63
NtRp2363
(dp2364
g66
(dp2365
sg75
g2307
sg68
(lp2366
g61
(g82
g63
NtRp2367
(dp2368
g66
(dp2369
sg75
g2363
sg68
(lp2370
g61
(g62
g63
NtRp2371
(dp2372
g66
(dp2373
g74
I3
ssg75
g2367
sg68
(lp2374
S'127.0.0.1'
p2375
asbasbasbasbasbasbasbag61
(g77
g63
NtRp2376
(dp2377
g66
(dp2378
sg75
g2095
sg68
(lp2379
g61
(g82
g63
NtRp2380
(dp2381
g66
(dp2382
g86
g87
ssg75
g2376
sg68
(lp2383
g1703
asbag61
(g82
g63
NtRp2384
(dp2385
g66
(dp2386
g93
g94
ssg75
g2376
sg68
(lp2387
S':'
asbag61
(g82
g63
NtRp2388
(dp2389
g66
(dp2390
sg75
g2376
sg68
(lp2391
g61
(g62
g63
NtRp2392
(dp2393
g66
(dp2394
g74
I4
ssg75
g2388
sg68
(lp2395
g61
(g70
g63
NtRp2396
(dp2397
g66
(dp2398
g74
I3
ssg75
Nsg68
(lp2399
g61
(g77
g63
NtRp2400
(dp2401
g66
(dp2402
sg75
g2396
sg68
(lp2403
g61
(g82
g63
NtRp2404
(dp2405
g66
(dp2406
sg75
g2400
sg68
(lp2407
g61
(g62
g63
NtRp2408
(dp2409
g66
(dp2410
g74
I3
ssg75
g2404
sg68
(lp2411
S'2'
asbasbasbag61
(g77
g63
NtRp2412
(dp2413
g66
(dp2414
sg75
g2396
sg68
(lp2415
g61
(g82
g63
NtRp2416
(dp2417
g66
(dp2418
sg75
g2412
sg68
(lp2419
g61
(g62
g63
NtRp2420
(dp2421
g66
(dp2422
g74
I3
ssg75
g2416
sg68
(lp2423
S'3'
asbasbasbag61
(g77
g63
NtRp2424
(dp2425
g66
(dp2426
sg75
g2396
sg68
(lp2427
g61
(g82
g63
NtRp2428
(dp2429
g66
(dp2430
sg75
g2424
sg68
(lp2431
g61
(g62
g63
NtRp2432
(dp2433
g66
(dp2434
g74
I3
ssg75
g2428
sg68
(lp2435
S'2'
asbasbasbag61
(g77
g63
NtRp2436
(dp2437
g66
(dp2438
sg75
g2396
sg68
(lp2439
g61
(g82
g63
NtRp2440
(dp2441
g66
(dp2442
sg75
g2436
sg68
(lp2443
g61
(g62
g63
NtRp2444
(dp2445
g66
(dp2446
g74
I3
ssg75
g2440
sg68
(lp2447
S'datetime.datetime(2012, 12, 17, 15, 3, 30)'
p2448
asbasbasbag61
(g77
g63
NtRp2449
(dp2450
g66
(dp2451
sg75
g2396
sg68
(lp2452
g61
(g82
g63
NtRp2453
(dp2454
g66
(dp2455
sg75
g2449
sg68
(lp2456
g61
(g62
g63
NtRp2457
(dp2458
g66
(dp2459
g74
I3
ssg75
g2453
sg68
(lp2460
g1781
asbasbasbasbasbasbasbasbasbasbasbag61
(g77
g63
NtRp2461
(dp2462
g66
(dp2463
sg75
g71
sg68
(lp2464
g61
(g82
g63
NtRp2465
(dp2466
g66
(dp2467
g86
g87
ssg75
g2461
sg68
(lp2468
S'is_https'
p2469
asbag61
(g82
g63
NtRp2470
(dp2471
g66
(dp2472
g93
g94
ssg75
g2461
sg68
(lp2473
S':'
asbag61
(g82
g63
NtRp2474
(dp2475
g66
(dp2476
sg75
g2461
sg68
(lp2477
g61
(g62
g63
NtRp2478
(dp2479
g66
(dp2480
g74
I5
ssg75
g2474
sg68
(lp2481
g104
asbasbasbag61
(g77
g63
NtRp2482
(dp2483
g66
(dp2484
sg75
g71
sg68
(lp2485
g61
(g82
g63
NtRp2486
(dp2487
g66
(dp2488
g86
g87
ssg75
g2482
sg68
(lp2489
S'is_local'
p2490
asbag61
(g82
g63
NtRp2491
(dp2492
g66
(dp2493
g93
g94
ssg75
g2482
sg68
(lp2494
S':'
asbag61
(g82
g63
NtRp2495
(dp2496
g66
(dp2497
sg75
g2482
sg68
(lp2498
g61
(g62
g63
NtRp2499
(dp2500
g66
(dp2501
g74
I5
ssg75
g2495
sg68
(lp2502
g1890
asbasbasbag61
(g77
g63
NtRp2503
(dp2504
g66
(dp2505
sg75
g71
sg68
(lp2506
g61
(g82
g63
NtRp2507
(dp2508
g66
(dp2509
g86
g87
ssg75
g2503
sg68
(lp2510
S'is_restful'
p2511
asbag61
(g82
g63
NtRp2512
(dp2513
g66
(dp2514
g93
g94
ssg75
g2503
sg68
(lp2515
S':'
asbag61
(g82
g63
NtRp2516
(dp2517
g66
(dp2518
sg75
g2503
sg68
(lp2519
g61
(g62
g63
NtRp2520
(dp2521
g66
(dp2522
g74
I5
ssg75
g2516
sg68
(lp2523
g104
asbasbasbag61
(g77
g63
NtRp2524
(dp2525
g66
(dp2526
sg75
g71
sg68
(lp2527
g61
(g82
g63
NtRp2528
(dp2529
g66
(dp2530
g86
g87
ssg75
g2524
sg68
(lp2531
S'now'
p2532
asbag61
(g82
g63
NtRp2533
(dp2534
g66
(dp2535
g93
g94
ssg75
g2524
sg68
(lp2536
S':'
asbag61
(g82
g63
NtRp2537
(dp2538
g66
(dp2539
sg75
g2524
sg68
(lp2540
g61
(g62
g63
NtRp2541
(dp2542
g66
(dp2543
g74
I5
ssg75
g2537
sg68
(lp2544
S'datetime.datetime(2013, 2, 17, 19, 15, 54, 123305)'
p2545
asbasbasbag61
(g77
g63
NtRp2546
(dp2547
g66
(dp2548
sg75
g71
sg68
(lp2549
g61
(g82
g63
NtRp2550
(dp2551
g66
(dp2552
g86
g87
ssg75
g2546
sg68
(lp2553
S'post_vars'
p2554
asbag61
(g82
g63
NtRp2555
(dp2556
g66
(dp2557
g93
g94
ssg75
g2546
sg68
(lp2558
S':'
asbag61
(g82
g63
NtRp2559
(dp2560
g66
(dp2561
sg75
g2546
sg68
(lp2562
g61
(g62
g63
NtRp2563
(dp2564
g66
(dp2565
g74
I5
ssg75
g2559
sg68
(lp2566
g61
(g70
g63
NtRp2567
(dp2568
g66
(dp2569
g74
I4
ssg75
Nsg68
(lp2570
sbasbasbasbag61
(g77
g63
NtRp2571
(dp2572
g66
(dp2573
sg75
g71
sg68
(lp2574
g61
(g82
g63
NtRp2575
(dp2576
g66
(dp2577
g86
g87
ssg75
g2571
sg68
(lp2578
S'raw_args'
p2579
asbag61
(g82
g63
NtRp2580
(dp2581
g66
(dp2582
g93
g94
ssg75
g2571
sg68
(lp2583
S':'
asbag61
(g82
g63
NtRp2584
(dp2585
g66
(dp2586
sg75
g2571
sg68
(lp2587
g61
(g62
g63
NtRp2588
(dp2589
g66
(dp2590
g74
I5
ssg75
g2584
sg68
(lp2591
S''
asbasbasbag61
(g77
g63
NtRp2592
(dp2593
g66
(dp2594
sg75
g71
sg68
(lp2595
g61
(g82
g63
NtRp2596
(dp2597
g66
(dp2598
g86
g87
ssg75
g2592
sg68
(lp2599
S'raw_extension'
p2600
asbag61
(g82
g63
NtRp2601
(dp2602
g66
(dp2603
g93
g94
ssg75
g2592
sg68
(lp2604
S':'
asbag61
(g82
g63
NtRp2605
(dp2606
g66
(dp2607
sg75
g2592
sg68
(lp2608
g61
(g62
g63
NtRp2609
(dp2610
g66
(dp2611
g74
I5
ssg75
g2605
sg68
(lp2612
S'None'
p2613
asbasbasbag61
(g77
g63
NtRp2614
(dp2615
g66
(dp2616
sg75
g71
sg68
(lp2617
g61
(g82
g63
NtRp2618
(dp2619
g66
(dp2620
g86
g87
ssg75
g2614
sg68
(lp2621
S'url'
p2622
asbag61
(g82
g63
NtRp2623
(dp2624
g66
(dp2625
g93
g94
ssg75
g2614
sg68
(lp2626
S':'
asbag61
(g82
g63
NtRp2627
(dp2628
g66
(dp2629
sg75
g2614
sg68
(lp2630
g61
(g62
g63
NtRp2631
(dp2632
g66
(dp2633
g74
I5
ssg75
g2627
sg68
(lp2634
g1457
asbasbasbag61
(g77
g63
NtRp2635
(dp2636
g66
(dp2637
sg75
g71
sg68
(lp2638
g61
(g82
g63
NtRp2639
(dp2640
g66
(dp2641
g86
g87
ssg75
g2635
sg68
(lp2642
S'utcnow'
p2643
asbag61
(g82
g63
NtRp2644
(dp2645
g66
(dp2646
g93
g94
ssg75
g2635
sg68
(lp2647
S':'
asbag61
(g82
g63
NtRp2648
(dp2649
g66
(dp2650
sg75
g2635
sg68
(lp2651
g61
(g62
g63
NtRp2652
(dp2653
g66
(dp2654
g74
I5
ssg75
g2648
sg68
(lp2655
S'datetime.datetime(2013, 2, 17, 18, 15, 54, 123343)'
p2656
asbasbasbag61
(g77
g63
NtRp2657
(dp2658
g66
(dp2659
sg75
g71
sg68
(lp2660
g61
(g82
g63
NtRp2661
(dp2662
g66
(dp2663
g86
g87
ssg75
g2657
sg68
(lp2664
S'uuid'
p2665
asbag61
(g82
g63
NtRp2666
(dp2667
g66
(dp2668
g93
g94
ssg75
g2657
sg68
(lp2669
S':'
asbag61
(g82
g63
NtRp2670
(dp2671
g66
(dp2672
sg75
g2657
sg68
(lp2673
g61
(g62
g63
NtRp2674
(dp2675
g66
(dp2676
g74
I5
ssg75
g2670
sg68
(lp2677
S'CygnusCloud/127.0.0.1.2013-02-17.19-15-54.c75585c4-5217-4364-8755-5e9413b822f5'
p2678
asbasbasbag61
(g77
g63
NtRp2679
(dp2680
g66
(dp2681
sg75
g71
sg68
(lp2682
g61
(g82
g63
NtRp2683
(dp2684
g66
(dp2685
g86
g87
ssg75
g2679
sg68
(lp2686
S'vars'
p2687
asbag61
(g82
g63
NtRp2688
(dp2689
g66
(dp2690
g93
g94
ssg75
g2679
sg68
(lp2691
S':'
asbag61
(g82
g63
NtRp2692
(dp2693
g66
(dp2694
sg75
g2679
sg68
(lp2695
g61
(g62
g63
NtRp2696
(dp2697
g66
(dp2698
g74
I5
ssg75
g2692
sg68
(lp2699
g61
(g70
g63
NtRp2700
(dp2701
g66
(dp2702
g74
I4
ssg75
Nsg68
(lp2703
sbasbasbasbag61
(g77
g63
NtRp2704
(dp2705
g66
(dp2706
sg75
g71
sg68
(lp2707
g61
(g82
g63
NtRp2708
(dp2709
g66
(dp2710
g86
g87
ssg75
g2704
sg68
(lp2711
S'wsgi'
p2712
asbag61
(g82
g63
NtRp2713
(dp2714
g66
(dp2715
g93
g94
ssg75
g2704
sg68
(lp2716
S':'
asbag61
(g82
g63
NtRp2717
(dp2718
g66
(dp2719
sg75
g2704
sg68
(lp2720
g61
(g62
g63
NtRp2721
(dp2722
g66
(dp2723
g74
I5
ssg75
g2717
sg68
(lp2724
g61
(g70
g63
NtRp2725
(dp2726
g66
(dp2727
g74
I4
ssg75
Nsg68
(lp2728
g61
(g77
g63
NtRp2729
(dp2730
g66
(dp2731
sg75
g2725
sg68
(lp2732
g61
(g82
g63
NtRp2733
(dp2734
g66
(dp2735
g86
g87
ssg75
g2729
sg68
(lp2736
S'environ'
p2737
asbag61
(g82
g63
NtRp2738
(dp2739
g66
(dp2740
g93
g94
ssg75
g2729
sg68
(lp2741
S':'
asbag61
(g82
g63
NtRp2742
(dp2743
g66
(dp2744
sg75
g2729
sg68
(lp2745
g61
(g62
g63
NtRp2746
(dp2747
g66
(dp2748
g74
I4
ssg75
g2742
sg68
(lp2749
g61
(g70
g63
NtRp2750
(dp2751
g66
(dp2752
g74
I3
ssg75
Nsg68
(lp2753
g61
(g77
g63
NtRp2754
(dp2755
g66
(dp2756
sg75
g2750
sg68
(lp2757
g61
(g82
g63
NtRp2758
(dp2759
g66
(dp2760
g86
g87
ssg75
g2754
sg68
(lp2761
S'HTTP_ACCEPT'
p2762
asbag61
(g82
g63
NtRp2763
(dp2764
g66
(dp2765
g93
g94
ssg75
g2754
sg68
(lp2766
S':'
asbag61
(g82
g63
NtRp2767
(dp2768
g66
(dp2769
sg75
g2754
sg68
(lp2770
g61
(g62
g63
NtRp2771
(dp2772
g66
(dp2773
g74
I3
ssg75
g2767
sg68
(lp2774
g1217
asbasbasbag61
(g77
g63
NtRp2775
(dp2776
g66
(dp2777
sg75
g2750
sg68
(lp2778
g61
(g82
g63
NtRp2779
(dp2780
g66
(dp2781
g86
g87
ssg75
g2775
sg68
(lp2782
S'HTTP_ACCEPT_CHARSET'
p2783
asbag61
(g82
g63
NtRp2784
(dp2785
g66
(dp2786
g93
g94
ssg75
g2775
sg68
(lp2787
S':'
asbag61
(g82
g63
NtRp2788
(dp2789
g66
(dp2790
sg75
g2775
sg68
(lp2791
g61
(g62
g63
NtRp2792
(dp2793
g66
(dp2794
g74
I3
ssg75
g2788
sg68
(lp2795
g1239
asbasbasbag61
(g77
g63
NtRp2796
(dp2797
g66
(dp2798
sg75
g2750
sg68
(lp2799
g61
(g82
g63
NtRp2800
(dp2801
g66
(dp2802
g86
g87
ssg75
g2796
sg68
(lp2803
S'HTTP_ACCEPT_ENCODING'
p2804
asbag61
(g82
g63
NtRp2805
(dp2806
g66
(dp2807
g93
g94
ssg75
g2796
sg68
(lp2808
S':'
asbag61
(g82
g63
NtRp2809
(dp2810
g66
(dp2811
sg75
g2796
sg68
(lp2812
g61
(g62
g63
NtRp2813
(dp2814
g66
(dp2815
g74
I3
ssg75
g2809
sg68
(lp2816
g1261
asbasbasbag61
(g77
g63
NtRp2817
(dp2818
g66
(dp2819
sg75
g2750
sg68
(lp2820
g61
(g82
g63
NtRp2821
(dp2822
g66
(dp2823
g86
g87
ssg75
g2817
sg68
(lp2824
S'HTTP_ACCEPT_LANGUAGE'
p2825
asbag61
(g82
g63
NtRp2826
(dp2827
g66
(dp2828
g93
g94
ssg75
g2817
sg68
(lp2829
S':'
asbag61
(g82
g63
NtRp2830
(dp2831
g66
(dp2832
sg75
g2817
sg68
(lp2833
g61
(g62
g63
NtRp2834
(dp2835
g66
(dp2836
g74
I3
ssg75
g2830
sg68
(lp2837
g1283
asbasbasbag61
(g77
g63
NtRp2838
(dp2839
g66
(dp2840
sg75
g2750
sg68
(lp2841
g61
(g82
g63
NtRp2842
(dp2843
g66
(dp2844
g86
g87
ssg75
g2838
sg68
(lp2845
S'HTTP_CACHE_CONTROL'
p2846
asbag61
(g82
g63
NtRp2847
(dp2848
g66
(dp2849
g93
g94
ssg75
g2838
sg68
(lp2850
S':'
asbag61
(g82
g63
NtRp2851
(dp2852
g66
(dp2853
sg75
g2838
sg68
(lp2854
g61
(g62
g63
NtRp2855
(dp2856
g66
(dp2857
g74
I3
ssg75
g2851
sg68
(lp2858
g1305
asbasbasbag61
(g77
g63
NtRp2859
(dp2860
g66
(dp2861
sg75
g2750
sg68
(lp2862
g61
(g82
g63
NtRp2863
(dp2864
g66
(dp2865
g86
g87
ssg75
g2859
sg68
(lp2866
S'HTTP_CONNECTION'
p2867
asbag61
(g82
g63
NtRp2868
(dp2869
g66
(dp2870
g93
g94
ssg75
g2859
sg68
(lp2871
S':'
asbag61
(g82
g63
NtRp2872
(dp2873
g66
(dp2874
sg75
g2859
sg68
(lp2875
g61
(g62
g63
NtRp2876
(dp2877
g66
(dp2878
g74
I3
ssg75
g2872
sg68
(lp2879
g1327
asbasbasbag61
(g77
g63
NtRp2880
(dp2881
g66
(dp2882
sg75
g2750
sg68
(lp2883
g61
(g82
g63
NtRp2884
(dp2885
g66
(dp2886
g86
g87
ssg75
g2880
sg68
(lp2887
S'HTTP_COOKIE'
p2888
asbag61
(g82
g63
NtRp2889
(dp2890
g66
(dp2891
g93
g94
ssg75
g2880
sg68
(lp2892
S':'
asbag61
(g82
g63
NtRp2893
(dp2894
g66
(dp2895
sg75
g2880
sg68
(lp2896
g61
(g62
g63
NtRp2897
(dp2898
g66
(dp2899
g74
I3
ssg75
g2893
sg68
(lp2900
g1349
asbasbasbag61
(g77
g63
NtRp2901
(dp2902
g66
(dp2903
sg75
g2750
sg68
(lp2904
g61
(g82
g63
NtRp2905
(dp2906
g66
(dp2907
g86
g87
ssg75
g2901
sg68
(lp2908
S'HTTP_HOST'
p2909
asbag61
(g82
g63
NtRp2910
(dp2911
g66
(dp2912
g93
g94
ssg75
g2901
sg68
(lp2913
S':'
asbag61
(g82
g63
NtRp2914
(dp2915
g66
(dp2916
sg75
g2901
sg68
(lp2917
g61
(g62
g63
NtRp2918
(dp2919
g66
(dp2920
g74
I3
ssg75
g2914
sg68
(lp2921
g1371
asbasbasbag61
(g77
g63
NtRp2922
(dp2923
g66
(dp2924
sg75
g2750
sg68
(lp2925
g61
(g82
g63
NtRp2926
(dp2927
g66
(dp2928
g86
g87
ssg75
g2922
sg68
(lp2929
S'HTTP_USER_AGENT'
p2930
asbag61
(g82
g63
NtRp2931
(dp2932
g66
(dp2933
g93
g94
ssg75
g2922
sg68
(lp2934
S':'
asbag61
(g82
g63
NtRp2935
(dp2936
g66
(dp2937
sg75
g2922
sg68
(lp2938
g61
(g62
g63
NtRp2939
(dp2940
g66
(dp2941
g74
I3
ssg75
g2935
sg68
(lp2942
g1393
asbasbasbag61
(g77
g63
NtRp2943
(dp2944
g66
(dp2945
sg75
g2750
sg68
(lp2946
g61
(g82
g63
NtRp2947
(dp2948
g66
(dp2949
g86
g87
ssg75
g2943
sg68
(lp2950
S'PATH_INFO'
p2951
asbag61
(g82
g63
NtRp2952
(dp2953
g66
(dp2954
g93
g94
ssg75
g2943
sg68
(lp2955
S':'
asbag61
(g82
g63
NtRp2956
(dp2957
g66
(dp2958
sg75
g2943
sg68
(lp2959
g61
(g62
g63
NtRp2960
(dp2961
g66
(dp2962
g74
I3
ssg75
g2956
sg68
(lp2963
g1457
asbasbasbag61
(g77
g63
NtRp2964
(dp2965
g66
(dp2966
sg75
g2750
sg68
(lp2967
g61
(g82
g63
NtRp2968
(dp2969
g66
(dp2970
g86
g87
ssg75
g2964
sg68
(lp2971
S'QUERY_STRING'
p2972
asbag61
(g82
g63
NtRp2973
(dp2974
g66
(dp2975
g93
g94
ssg75
g2964
sg68
(lp2976
S':'
asbag61
(g82
g63
NtRp2977
(dp2978
g66
(dp2979
sg75
g2964
sg68
(lp2980
g61
(g62
g63
NtRp2981
(dp2982
g66
(dp2983
g74
I3
ssg75
g2977
sg68
(lp2984
S''
asbasbasbag61
(g77
g63
NtRp2985
(dp2986
g66
(dp2987
sg75
g2750
sg68
(lp2988
g61
(g82
g63
NtRp2989
(dp2990
g66
(dp2991
g86
g87
ssg75
g2985
sg68
(lp2992
S'REMOTE_ADDR'
p2993
asbag61
(g82
g63
NtRp2994
(dp2995
g66
(dp2996
g93
g94
ssg75
g2985
sg68
(lp2997
S':'
asbag61
(g82
g63
NtRp2998
(dp2999
g66
(dp3000
sg75
g2985
sg68
(lp3001
g61
(g62
g63
NtRp3002
(dp3003
g66
(dp3004
g74
I3
ssg75
g2998
sg68
(lp3005
g216
asbasbasbag61
(g77
g63
NtRp3006
(dp3007
g66
(dp3008
sg75
g2750
sg68
(lp3009
g61
(g82
g63
NtRp3010
(dp3011
g66
(dp3012
g86
g87
ssg75
g3006
sg68
(lp3013
S'REMOTE_PORT'
p3014
asbag61
(g82
g63
NtRp3015
(dp3016
g66
(dp3017
g93
g94
ssg75
g3006
sg68
(lp3018
S':'
asbag61
(g82
g63
NtRp3019
(dp3020
g66
(dp3021
sg75
g3006
sg68
(lp3022
g61
(g62
g63
NtRp3023
(dp3024
g66
(dp3025
g74
I3
ssg75
g3019
sg68
(lp3026
g1521
asbasbasbag61
(g77
g63
NtRp3027
(dp3028
g66
(dp3029
sg75
g2750
sg68
(lp3030
g61
(g82
g63
NtRp3031
(dp3032
g66
(dp3033
g86
g87
ssg75
g3027
sg68
(lp3034
S'REQUEST_METHOD'
p3035
asbag61
(g82
g63
NtRp3036
(dp3037
g66
(dp3038
g93
g94
ssg75
g3027
sg68
(lp3039
S':'
asbag61
(g82
g63
NtRp3040
(dp3041
g66
(dp3042
sg75
g3027
sg68
(lp3043
g61
(g62
g63
NtRp3044
(dp3045
g66
(dp3046
g74
I3
ssg75
g3040
sg68
(lp3047
g1543
asbasbasbag61
(g77
g63
NtRp3048
(dp3049
g66
(dp3050
sg75
g2750
sg68
(lp3051
g61
(g82
g63
NtRp3052
(dp3053
g66
(dp3054
g86
g87
ssg75
g3048
sg68
(lp3055
S'REQUEST_URI'
p3056
asbag61
(g82
g63
NtRp3057
(dp3058
g66
(dp3059
g93
g94
ssg75
g3048
sg68
(lp3060
S':'
asbag61
(g82
g63
NtRp3061
(dp3062
g66
(dp3063
sg75
g3048
sg68
(lp3064
g61
(g62
g63
NtRp3065
(dp3066
g66
(dp3067
g74
I3
ssg75
g3061
sg68
(lp3068
g1457
asbasbasbag61
(g77
g63
NtRp3069
(dp3070
g66
(dp3071
sg75
g2750
sg68
(lp3072
g61
(g82
g63
NtRp3073
(dp3074
g66
(dp3075
g86
g87
ssg75
g3069
sg68
(lp3076
S'SCRIPT_NAME'
p3077
asbag61
(g82
g63
NtRp3078
(dp3079
g66
(dp3080
g93
g94
ssg75
g3069
sg68
(lp3081
S':'
asbag61
(g82
g63
NtRp3082
(dp3083
g66
(dp3084
sg75
g3069
sg68
(lp3085
g61
(g62
g63
NtRp3086
(dp3087
g66
(dp3088
g74
I3
ssg75
g3082
sg68
(lp3089
S''
asbasbasbag61
(g77
g63
NtRp3090
(dp3091
g66
(dp3092
sg75
g2750
sg68
(lp3093
g61
(g82
g63
NtRp3094
(dp3095
g66
(dp3096
g86
g87
ssg75
g3090
sg68
(lp3097
S'SERVER_NAME'
p3098
asbag61
(g82
g63
NtRp3099
(dp3100
g66
(dp3101
g93
g94
ssg75
g3090
sg68
(lp3102
S':'
asbag61
(g82
g63
NtRp3103
(dp3104
g66
(dp3105
sg75
g3090
sg68
(lp3106
g61
(g62
g63
NtRp3107
(dp3108
g66
(dp3109
g74
I3
ssg75
g3103
sg68
(lp3110
g1607
asbasbasbag61
(g77
g63
NtRp3111
(dp3112
g66
(dp3113
sg75
g2750
sg68
(lp3114
g61
(g82
g63
NtRp3115
(dp3116
g66
(dp3117
g86
g87
ssg75
g3111
sg68
(lp3118
S'SERVER_PORT'
p3119
asbag61
(g82
g63
NtRp3120
(dp3121
g66
(dp3122
g93
g94
ssg75
g3111
sg68
(lp3123
S':'
asbag61
(g82
g63
NtRp3124
(dp3125
g66
(dp3126
sg75
g3111
sg68
(lp3127
g61
(g62
g63
NtRp3128
(dp3129
g66
(dp3130
g74
I3
ssg75
g3124
sg68
(lp3131
g1629
asbasbasbag61
(g77
g63
NtRp3132
(dp3133
g66
(dp3134
sg75
g2750
sg68
(lp3135
g61
(g82
g63
NtRp3136
(dp3137
g66
(dp3138
g86
g87
ssg75
g3132
sg68
(lp3139
S'SERVER_PROTOCOL'
p3140
asbag61
(g82
g63
NtRp3141
(dp3142
g66
(dp3143
g93
g94
ssg75
g3132
sg68
(lp3144
S':'
asbag61
(g82
g63
NtRp3145
(dp3146
g66
(dp3147
sg75
g3132
sg68
(lp3148
g61
(g62
g63
NtRp3149
(dp3150
g66
(dp3151
g74
I3
ssg75
g3145
sg68
(lp3152
g1651
asbasbasbag61
(g77
g63
NtRp3153
(dp3154
g66
(dp3155
sg75
g2750
sg68
(lp3156
g61
(g82
g63
NtRp3157
(dp3158
g66
(dp3159
g86
g87
ssg75
g3153
sg68
(lp3160
S'SERVER_SOFTWARE'
p3161
asbag61
(g82
g63
NtRp3162
(dp3163
g66
(dp3164
g93
g94
ssg75
g3153
sg68
(lp3165
S':'
asbag61
(g82
g63
NtRp3166
(dp3167
g66
(dp3168
sg75
g3153
sg68
(lp3169
g61
(g62
g63
NtRp3170
(dp3171
g66
(dp3172
g74
I3
ssg75
g3166
sg68
(lp3173
g1673
asbasbasbag61
(g77
g63
NtRp3174
(dp3175
g66
(dp3176
sg75
g2750
sg68
(lp3177
g61
(g82
g63
NtRp3178
(dp3179
g66
(dp3180
g86
g87
ssg75
g3174
sg68
(lp3181
S'wsgi.errors'
p3182
asbag61
(g82
g63
NtRp3183
(dp3184
g66
(dp3185
g93
g94
ssg75
g3174
sg68
(lp3186
S':'
asbag61
(g82
g63
NtRp3187
(dp3188
g66
(dp3189
sg75
g3174
sg68
(lp3190
g61
(g62
g63
NtRp3191
(dp3192
g66
(dp3193
g74
I3
ssg75
g3187
sg68
(lp3194
S"<open file '<stderr>', mode 'w' at 0x7f6b9bad0270>"
p3195
asbasbasbag61
(g77
g63
NtRp3196
(dp3197
g66
(dp3198
sg75
g2750
sg68
(lp3199
g61
(g82
g63
NtRp3200
(dp3201
g66
(dp3202
g86
g87
ssg75
g3196
sg68
(lp3203
S'wsgi.file_wrapper'
p3204
asbag61
(g82
g63
NtRp3205
(dp3206
g66
(dp3207
g93
g94
ssg75
g3196
sg68
(lp3208
S':'
asbag61
(g82
g63
NtRp3209
(dp3210
g66
(dp3211
sg75
g3196
sg68
(lp3212
g61
(g62
g63
NtRp3213
(dp3214
g66
(dp3215
g74
I3
ssg75
g3209
sg68
(lp3216
S'<class wsgiref.util.FileWrapper at 0x2970db8>'
p3217
asbasbasbag61
(g77
g63
NtRp3218
(dp3219
g66
(dp3220
sg75
g2750
sg68
(lp3221
g61
(g82
g63
NtRp3222
(dp3223
g66
(dp3224
g86
g87
ssg75
g3218
sg68
(lp3225
S'wsgi.input'
p3226
asbag61
(g82
g63
NtRp3227
(dp3228
g66
(dp3229
g93
g94
ssg75
g3218
sg68
(lp3230
S':'
asbag61
(g82
g63
NtRp3231
(dp3232
g66
(dp3233
sg75
g3218
sg68
(lp3234
g61
(g62
g63
NtRp3235
(dp3236
g66
(dp3237
g74
I3
ssg75
g3231
sg68
(lp3238
S'<cStringIO.StringO object at 0x2aba960>'
p3239
asbasbasbag61
(g77
g63
NtRp3240
(dp3241
g66
(dp3242
sg75
g2750
sg68
(lp3243
g61
(g82
g63
NtRp3244
(dp3245
g66
(dp3246
g86
g87
ssg75
g3240
sg68
(lp3247
S'wsgi.multiprocess'
p3248
asbag61
(g82
g63
NtRp3249
(dp3250
g66
(dp3251
g93
g94
ssg75
g3240
sg68
(lp3252
S':'
asbag61
(g82
g63
NtRp3253
(dp3254
g66
(dp3255
sg75
g3240
sg68
(lp3256
g61
(g62
g63
NtRp3257
(dp3258
g66
(dp3259
g74
I3
ssg75
g3253
sg68
(lp3260
g104
asbasbasbag61
(g77
g63
NtRp3261
(dp3262
g66
(dp3263
sg75
g2750
sg68
(lp3264
g61
(g82
g63
NtRp3265
(dp3266
g66
(dp3267
g86
g87
ssg75
g3261
sg68
(lp3268
S'wsgi.multithread'
p3269
asbag61
(g82
g63
NtRp3270
(dp3271
g66
(dp3272
g93
g94
ssg75
g3261
sg68
(lp3273
S':'
asbag61
(g82
g63
NtRp3274
(dp3275
g66
(dp3276
sg75
g3261
sg68
(lp3277
g61
(g62
g63
NtRp3278
(dp3279
g66
(dp3280
g74
I3
ssg75
g3274
sg68
(lp3281
g1890
asbasbasbag61
(g77
g63
NtRp3282
(dp3283
g66
(dp3284
sg75
g2750
sg68
(lp3285
g61
(g82
g63
NtRp3286
(dp3287
g66
(dp3288
g86
g87
ssg75
g3282
sg68
(lp3289
S'wsgi.run_once'
p3290
asbag61
(g82
g63
NtRp3291
(dp3292
g66
(dp3293
g93
g94
ssg75
g3282
sg68
(lp3294
S':'
asbag61
(g82
g63
NtRp3295
(dp3296
g66
(dp3297
sg75
g3282
sg68
(lp3298
g61
(g62
g63
NtRp3299
(dp3300
g66
(dp3301
g74
I3
ssg75
g3295
sg68
(lp3302
g104
asbasbasbag61
(g77
g63
NtRp3303
(dp3304
g66
(dp3305
sg75
g2750
sg68
(lp3306
g61
(g82
g63
NtRp3307
(dp3308
g66
(dp3309
g86
g87
ssg75
g3303
sg68
(lp3310
S'wsgi.url_scheme'
p3311
asbag61
(g82
g63
NtRp3312
(dp3313
g66
(dp3314
g93
g94
ssg75
g3303
sg68
(lp3315
S':'
asbag61
(g82
g63
NtRp3316
(dp3317
g66
(dp3318
sg75
g3303
sg68
(lp3319
g61
(g62
g63
NtRp3320
(dp3321
g66
(dp3322
g74
I3
ssg75
g3316
sg68
(lp3323
g1933
asbasbasbag61
(g77
g63
NtRp3324
(dp3325
g66
(dp3326
sg75
g2750
sg68
(lp3327
g61
(g82
g63
NtRp3328
(dp3329
g66
(dp3330
g86
g87
ssg75
g3324
sg68
(lp3331
S'wsgi.version'
p3332
asbag61
(g82
g63
NtRp3333
(dp3334
g66
(dp3335
g93
g94
ssg75
g3324
sg68
(lp3336
S':'
asbag61
(g82
g63
NtRp3337
(dp3338
g66
(dp3339
sg75
g3324
sg68
(lp3340
g61
(g62
g63
NtRp3341
(dp3342
g66
(dp3343
g74
I3
ssg75
g3337
sg68
(lp3344
S'1'
asbasbasbasbasbasbasbasbasbasbasbasbasbsS'frames'
p3345
(lp3346
(dp3347
S'file'
p3348
S'/home/adrian/web2py/gluon/restricted.py'
p3349
sS'dump'
p3350
(dp3351
S'environment'
p3352
S"{'A': <class 'gluon.html.A'>, 'Auth': <class 'gluon.tools.Auth'>, 'B': <class 'gluon.html.B'>, 'BEAUTIFY': <class 'gluon.html.BEAUTIFY'>, 'BODY': <class 'gluon.html.BODY'>, 'BR': <class 'gluon.html.BR'>, 'BUTTON': <class 'gluon.html.BUTTON'>, 'CAT': <class 'gluon.html.CAT'>, 'CENTER': <class 'gluon.html.CENTER'>, 'CLEANUP': <class 'gluon.validators.CLEANUP'>, ...}"
p3353
sS'ccode'
p3354
S'<code object <module> at 0x2b6dc30, file "/home/...y/applications/CygnusCloud/models/db.py", line 2>'
p3355
ssS'lnum'
p3356
I212
sS'lines'
p3357
(dp3358
I207
S'    try:'
p3359
sI208
S'        if isinstance(code, types.CodeType):'
p3360
sI209
S'            ccode = code'
p3361
sI210
S'        else:'
p3362
sI211
S'            ccode = compile2(code, layer)'
p3363
sI212
S'        exec ccode in environment'
p3364
sI213
S'    except HTTP:'
p3365
sI214
S'        raise'
p3366
sI215
S'    except RestrictedError:'
p3367
sI216
S'        # do not encapsulate (obfuscate) the original RestrictedError'
p3368
ssS'call'
p3369
S"(code='# -*- coding: utf-8 -*-\\nfrom configuration impor...or principal\\nconnector = Singleton.getInstance()\\n', environment={'A': <class 'gluon.html.A'>, 'Auth': <class 'gluon.tools.Auth'>, 'B': <class 'gluon.html.B'>, 'BEAUTIFY': <class 'gluon.html.BEAUTIFY'>, 'BODY': <class 'gluon.html.BODY'>, 'BR': <class 'gluon.html.BR'>, 'BUTTON': <class 'gluon.html.BUTTON'>, 'CAT': <class 'gluon.html.CAT'>, 'CENTER': <class 'gluon.html.CENTER'>, 'CLEANUP': <class 'gluon.validators.CLEANUP'>, ...}, layer='/home/adrian/web2py/applications/CygnusCloud/models/db.py')"
p3370
sS'func'
p3371
S'restricted'
p3372
sa(dp3373
g3348
S'/home/adrian/web2py/applications/CygnusCloud/models/db.py'
p3374
sg3350
(dp3375
S'connector'
p3376
S'undefined'
p3377
sS'Singleton.getInstance'
p3378
S'<function getInstance>'
p3379
sS'Singleton'
p3380
S"<class 'applications.CygnusCloud.modules.serverConnector.singletonServerConnector.Singleton'>"
p3381
ssg3356
I64
sg3357
(dp3382
I64
S'connector = Singleton.getInstance()'
p3383
sI55
S''
sI56
S"userDB.define_table('VMByGroup',"
p3384
sI57
S"   Field('VMId','integer','reference Images'),"
p3385
sI58
S"   Field('cod','integer','reference UserGroup'),"
p3386
sI59
S"   Field('curseGroup',length=1 ),"
p3387
sI60
S"   primarykey=['cod','curseGroup','VMId'],migrate= True)"
p3388
sI61
S''
sI62
S''
sI63
S'#Establecemos la conexi\xc3\xb3n con el servidor principal'
p3389
ssg3369
S'()'
p3390
sg3371
S'<module>'
p3391
sa(dp3392
g3348
S'/home/adrian/web2py/applications/CygnusCloud/modules/serverConnector/singletonServerConnector.py'
p3393
sg3350
(dp3394
S'builtinFalse'
p3395
g104
sS'staticConnector.connectToClusterServer'
p3396
S'<bound method ClusterServerConnector.connectToCl...erServerConnector.ClusterServerConnector object>>'
p3397
sS'global serverIp'
p3398
S"'127.0.0.1'"
p3399
sS'global certificatesPath'
p3400
S"'applications/CygnusCloud/static/Certificates'"
p3401
sS'staticConnector'
p3402
S'<applications.CygnusCloud.modules.clusterServer....terServerConnector.ClusterServerConnector object>'
p3403
sS'global serverPort'
p3404
S'9000'
p3405
sS'global statusInterval'
p3406
S'5'
ssg3356
I16
sg3357
(dp3407
I8
S'\tstaticConnector = None # None la primera vez. Despu\xc3\xa9s, no'
p3408
sI9
S''
sI10
S'\t@staticmethod'
p3409
sI11
S'\tdef getInstance():'
p3410
sI12
S'\t\tif (Singleton.staticConnector == None) :'
p3411
sI13
S'\t\t\t# El atributo est\xc3\xa1tico no est\xc3\xa1 inicializado => lo inicializamos'
p3412
sI14
S'\t\t\tstaticConnector = ClusterServerConnector(GenericWebCallback())'
p3413
sI15
S'\t\t\tstaticConnector.connectToDatabase(rootPassword,dbStatusName,dbStatusPath, webUserName, webUserPass,updateUserName, updateUserPass)'
p3414
sI16
S'\t\t\tstaticConnector.connectToClusterServer(certificatesPath,False,serverIp ,serverPort, statusInterval)'
p3415
sI17
S'\t\treturn staticConnector'
p3416
ssg3369
S'()'
p3417
sg3371
S'getInstance'
p3418
sa(dp3419
g3348
S'/home/adrian/web2py/applications/CygnusCloud/modules/clusterServer/connector/clusterServerConnector.py'
p3420
sg3350
(dp3421
S'clusterServerListenningPort'
p3422
S'9000'
p3423
sS'self'
p3424
S'<applications.CygnusCloud.modules.clusterServer....terServerConnector.ClusterServerConnector object>'
p3425
sS'self.__manager'
p3426
g3377
sS'callback'
p3427
S'<applications.CygnusCloud.modules.clusterServer....Connector._ClusterServerConnectorCallback object>'
p3428
sS'clusterServerIP'
p3429
S"'127.0.0.1'"
p3430
sS'builtinTrue'
p3431
g1890
ssg3356
I169
sg3357
(dp3432
I164
S'        self.__manager.startNetworkService()'
p3433
sI165
S'        callback = _ClusterServerConnectorCallback(self)'
p3434
sI166
S'        # Connect to the main server'
p3435
sI167
S'        self.__clusterServerIP = clusterServerIP'
p3436
sI168
S'        self.__clusterServerPort = clusterServerListenningPort'
p3437
sI169
S'        self.__manager.connectTo(clusterServerIP, clusterServerListenningPort, 5, callback, True)'
p3438
sI170
S'        while (not self.__manager.isConnectionReady(clusterServerIP, clusterServerListenningPort)) :'
p3439
sI171
S'            sleep(0.1)'
p3440
sI172
S'        # Create the packet handler'
p3441
sI173
S'        self.__pHandler = ClusterServerPacketHandler(self.__manager)'
p3442
ssg3369
S"(self=<applications.CygnusCloud.modules.clusterServer....terServerConnector.ClusterServerConnector object>, certificatePath='applications/CygnusCloud/static/Certificates', createReactorThread=False, clusterServerIP='127.0.0.1', clusterServerListenningPort=9000, statusDBUpdateInterval=5)"
p3443
sg3371
S'connectToClusterServer'
p3444
sa(dp3445
g3348
S'/home/adrian/web2py/applications/CygnusCloud/modules/network/networkManager.py'
p3446
sg3350
(dp3447
S'builtinstr'
p3448
S"<type 'str'>"
p3449
sS'global NetworkManagerException'
p3450
S"<class 'applications.CygnusCloud.modules.network.exceptions.networkManager.NetworkManagerException'>"
p3451
sS'host'
p3452
S"'127.0.0.1'"
p3453
sS'port'
p3454
S'9000'
p3455
ssg3356
I164
sg3357
(dp3456
I160
S'        while factory.isDisconnected() and time <= timeout:'
p3457
sI161
S'            sleep(0.01)'
p3458
sI162
S'            time += 0.01'
p3459
sI163
S'        if factory.isDisconnected() :'
p3460
sI164
S'            raise NetworkManagerException("The host " + host + ":" + str(port) +" seems to be unreachable")'
p3461
sI165
S'        # Create the new connection'
p3462
sI166
S'        connection = _NetworkConnection(False, host, port, factory, queue, thread, callbackObject)'
p3463
sI167
S'        # Add the new connection to the connection pool'
p3464
sI168
S'        self.__connectionPool[(host, port)] = connection'
p3465
sI159
S'        time = 0'
p3466
ssg3369
S"(self=<applications.CygnusCloud.modules.network.networkManager.NetworkManager instance>, host='127.0.0.1', port=9000, timeout=5, callbackObject=<applications.CygnusCloud.modules.clusterServer....Connector._ClusterServerConnectorCallback object>, useSSL=True)"
p3467
sg3371
S'connectTo'
p3468
sasS'pyver'
p3469
S'Python 2.7.3: /usr/bin/python'
p3470
sS'session'
p3471
g61
(g62
g63
NtRp3472
(dp3473
g66
(dp3474
sg68
(lp3475
g61
(g70
g63
NtRp3476
(dp3477
g66
(dp3478
g74
I5
ssg75
Nsg68
(lp3479
sbasbsS'etype'
p3480
S"<class 'applications.CygnusCloud.modules.network.exceptions.networkManager.NetworkManagerException'>"
p3481
sS'date'
p3482
S'Sun Feb 17 19:15:59 2013'
p3483
sS'response'
p3484
g61
(g62
g63
NtRp3485
(dp3486
g66
(dp3487
sg68
(lp3488
g61
(g70
g63
NtRp3489
(dp3490
g66
(dp3491
g74
I5
ssg75
Nsg68
(lp3492
g61
(g77
g63
NtRp3493
(dp3494
g66
(dp3495
sg75
g3489
sg68
(lp3496
g61
(g82
g63
NtRp3497
(dp3498
g66
(dp3499
g86
g87
ssg75
g3493
sg68
(lp3500
g159
asbag61
(g82
g63
NtRp3501
(dp3502
g66
(dp3503
g93
g94
ssg75
g3493
sg68
(lp3504
S':'
asbag61
(g82
g63
NtRp3505
(dp3506
g66
(dp3507
sg75
g3493
sg68
(lp3508
g61
(g62
g63
NtRp3509
(dp3510
g66
(dp3511
g74
I5
ssg75
g3505
sg68
(lp3512
S'<cStringIO.StringO object at 0x2aba5a8>'
p3513
asbasbasbag61
(g77
g63
NtRp3514
(dp3515
g66
(dp3516
sg75
g3489
sg68
(lp3517
g61
(g82
g63
NtRp3518
(dp3519
g66
(dp3520
g86
g87
ssg75
g3514
sg68
(lp3521
g247
asbag61
(g82
g63
NtRp3522
(dp3523
g66
(dp3524
g93
g94
ssg75
g3514
sg68
(lp3525
S':'
asbag61
(g82
g63
NtRp3526
(dp3527
g66
(dp3528
sg75
g3514
sg68
(lp3529
g61
(g62
g63
NtRp3530
(dp3531
g66
(dp3532
g74
I5
ssg75
g3526
sg68
(lp3533
g61
(g70
g63
NtRp3534
(dp3535
g66
(dp3536
g74
I4
ssg75
Nsg68
(lp3537
g61
(g77
g63
NtRp3538
(dp3539
g66
(dp3540
sg75
g3534
sg68
(lp3541
g61
(g82
g63
NtRp3542
(dp3543
g66
(dp3544
g86
g87
ssg75
g3538
sg68
(lp3545
S'session_id_cygnuscloud'
p3546
asbag61
(g82
g63
NtRp3547
(dp3548
g66
(dp3549
g93
g94
ssg75
g3538
sg68
(lp3550
S':'
asbag61
(g82
g63
NtRp3551
(dp3552
g66
(dp3553
sg75
g3538
sg68
(lp3554
g61
(g62
g63
NtRp3555
(dp3556
g66
(dp3557
g74
I4
ssg75
g3551
sg68
(lp3558
g664
ag61
(g70
g63
NtRp3559
(dp3560
g66
(dp3561
g74
I3
ssg75
Nsg68
(lp3562
g61
(g77
g63
NtRp3563
(dp3564
g66
(dp3565
sg75
g3559
sg68
(lp3566
g61
(g82
g63
NtRp3567
(dp3568
g66
(dp3569
g86
g87
ssg75
g3563
sg68
(lp3570
g297
asbag61
(g82
g63
NtRp3571
(dp3572
g66
(dp3573
g93
g94
ssg75
g3563
sg68
(lp3574
S':'
asbag61
(g82
g63
NtRp3575
(dp3576
g66
(dp3577
sg75
g3563
sg68
(lp3578
g61
(g62
g63
NtRp3579
(dp3580
g66
(dp3581
g74
I3
ssg75
g3575
sg68
(lp3582
S''
asbasbasbag61
(g77
g63
NtRp3583
(dp3584
g66
(dp3585
sg75
g3559
sg68
(lp3586
g61
(g82
g63
NtRp3587
(dp3588
g66
(dp3589
g86
g87
ssg75
g3583
sg68
(lp3590
g318
asbag61
(g82
g63
NtRp3591
(dp3592
g66
(dp3593
g93
g94
ssg75
g3583
sg68
(lp3594
S':'
asbag61
(g82
g63
NtRp3595
(dp3596
g66
(dp3597
sg75
g3583
sg68
(lp3598
g61
(g62
g63
NtRp3599
(dp3600
g66
(dp3601
g74
I3
ssg75
g3595
sg68
(lp3602
S''
asbasbasbag61
(g77
g63
NtRp3603
(dp3604
g66
(dp3605
sg75
g3559
sg68
(lp3606
g61
(g82
g63
NtRp3607
(dp3608
g66
(dp3609
g86
g87
ssg75
g3603
sg68
(lp3610
g339
asbag61
(g82
g63
NtRp3611
(dp3612
g66
(dp3613
g93
g94
ssg75
g3603
sg68
(lp3614
S':'
asbag61
(g82
g63
NtRp3615
(dp3616
g66
(dp3617
sg75
g3603
sg68
(lp3618
g61
(g62
g63
NtRp3619
(dp3620
g66
(dp3621
g74
I3
ssg75
g3615
sg68
(lp3622
S''
asbasbasbag61
(g77
g63
NtRp3623
(dp3624
g66
(dp3625
sg75
g3559
sg68
(lp3626
g61
(g82
g63
NtRp3627
(dp3628
g66
(dp3629
g86
g87
ssg75
g3623
sg68
(lp3630
g360
asbag61
(g82
g63
NtRp3631
(dp3632
g66
(dp3633
g93
g94
ssg75
g3623
sg68
(lp3634
S':'
asbag61
(g82
g63
NtRp3635
(dp3636
g66
(dp3637
sg75
g3623
sg68
(lp3638
g61
(g62
g63
NtRp3639
(dp3640
g66
(dp3641
g74
I3
ssg75
g3635
sg68
(lp3642
S''
asbasbasbag61
(g77
g63
NtRp3643
(dp3644
g66
(dp3645
sg75
g3559
sg68
(lp3646
g61
(g82
g63
NtRp3647
(dp3648
g66
(dp3649
g86
g87
ssg75
g3643
sg68
(lp3650
g381
asbag61
(g82
g63
NtRp3651
(dp3652
g66
(dp3653
g93
g94
ssg75
g3643
sg68
(lp3654
S':'
asbag61
(g82
g63
NtRp3655
(dp3656
g66
(dp3657
sg75
g3643
sg68
(lp3658
g61
(g62
g63
NtRp3659
(dp3660
g66
(dp3661
g74
I3
ssg75
g3655
sg68
(lp3662
S''
asbasbasbag61
(g77
g63
NtRp3663
(dp3664
g66
(dp3665
sg75
g3559
sg68
(lp3666
g61
(g82
g63
NtRp3667
(dp3668
g66
(dp3669
g86
g87
ssg75
g3663
sg68
(lp3670
g402
asbag61
(g82
g63
NtRp3671
(dp3672
g66
(dp3673
g93
g94
ssg75
g3663
sg68
(lp3674
S':'
asbag61
(g82
g63
NtRp3675
(dp3676
g66
(dp3677
sg75
g3663
sg68
(lp3678
g61
(g62
g63
NtRp3679
(dp3680
g66
(dp3681
g74
I3
ssg75
g3675
sg68
(lp3682
S'/'
asbasbasbag61
(g77
g63
NtRp3683
(dp3684
g66
(dp3685
sg75
g3559
sg68
(lp3686
g61
(g82
g63
NtRp3687
(dp3688
g66
(dp3689
g86
g87
ssg75
g3683
sg68
(lp3690
g423
asbag61
(g82
g63
NtRp3691
(dp3692
g66
(dp3693
g93
g94
ssg75
g3683
sg68
(lp3694
S':'
asbag61
(g82
g63
NtRp3695
(dp3696
g66
(dp3697
sg75
g3683
sg68
(lp3698
g61
(g62
g63
NtRp3699
(dp3700
g66
(dp3701
g74
I3
ssg75
g3695
sg68
(lp3702
S''
asbasbasbag61
(g77
g63
NtRp3703
(dp3704
g66
(dp3705
sg75
g3559
sg68
(lp3706
g61
(g82
g63
NtRp3707
(dp3708
g66
(dp3709
g86
g87
ssg75
g3703
sg68
(lp3710
g444
asbag61
(g82
g63
NtRp3711
(dp3712
g66
(dp3713
g93
g94
ssg75
g3703
sg68
(lp3714
S':'
asbag61
(g82
g63
NtRp3715
(dp3716
g66
(dp3717
sg75
g3703
sg68
(lp3718
g61
(g62
g63
NtRp3719
(dp3720
g66
(dp3721
g74
I3
ssg75
g3715
sg68
(lp3722
S''
asbasbasbasbasbasbasbasbasbasbasbag61
(g77
g63
NtRp3723
(dp3724
g66
(dp3725
sg75
g3489
sg68
(lp3726
g61
(g82
g63
NtRp3727
(dp3728
g66
(dp3729
g86
g87
ssg75
g3723
sg68
(lp3730
S'delimiters'
p3731
asbag61
(g82
g63
NtRp3732
(dp3733
g66
(dp3734
g93
g94
ssg75
g3723
sg68
(lp3735
S':'
asbag61
(g82
g63
NtRp3736
(dp3737
g66
(dp3738
sg75
g3723
sg68
(lp3739
g61
(g62
g63
NtRp3740
(dp3741
g66
(dp3742
g74
I5
ssg75
g3736
sg68
(lp3743
g61
(g70
g63
NtRp3744
(dp3745
g66
(dp3746
g74
I4
ssg75
Nsg68
(lp3747
g61
(g77
g63
NtRp3748
(dp3749
g66
(dp3750
sg75
g3744
sg68
(lp3751
g61
(g82
g63
NtRp3752
(dp3753
g66
(dp3754
sg75
g3748
sg68
(lp3755
g61
(g62
g63
NtRp3756
(dp3757
g66
(dp3758
g74
I4
ssg75
g3752
sg68
(lp3759
S'{{'
p3760
asbasbasbag61
(g77
g63
NtRp3761
(dp3762
g66
(dp3763
sg75
g3744
sg68
(lp3764
g61
(g82
g63
NtRp3765
(dp3766
g66
(dp3767
sg75
g3761
sg68
(lp3768
g61
(g62
g63
NtRp3769
(dp3770
g66
(dp3771
g74
I4
ssg75
g3765
sg68
(lp3772
S'}}'
p3773
asbasbasbasbasbasbasbag61
(g77
g63
NtRp3774
(dp3775
g66
(dp3776
sg75
g3489
sg68
(lp3777
g61
(g82
g63
NtRp3778
(dp3779
g66
(dp3780
g86
g87
ssg75
g3774
sg68
(lp3781
S'files'
p3782
asbag61
(g82
g63
NtRp3783
(dp3784
g66
(dp3785
g93
g94
ssg75
g3774
sg68
(lp3786
S':'
asbag61
(g82
g63
NtRp3787
(dp3788
g66
(dp3789
sg75
g3774
sg68
(lp3790
g61
(g62
g63
NtRp3791
(dp3792
g66
(dp3793
g74
I5
ssg75
g3787
sg68
(lp3794
g61
(g70
g63
NtRp3795
(dp3796
g66
(dp3797
g74
I4
ssg75
Nsg68
(lp3798
sbasbasbasbag61
(g77
g63
NtRp3799
(dp3800
g66
(dp3801
sg75
g3489
sg68
(lp3802
g61
(g82
g63
NtRp3803
(dp3804
g66
(dp3805
g86
g87
ssg75
g3799
sg68
(lp3806
S'flash'
p3807
asbag61
(g82
g63
NtRp3808
(dp3809
g66
(dp3810
g93
g94
ssg75
g3799
sg68
(lp3811
S':'
asbag61
(g82
g63
NtRp3812
(dp3813
g66
(dp3814
sg75
g3799
sg68
(lp3815
g61
(g62
g63
NtRp3816
(dp3817
g66
(dp3818
g74
I5
ssg75
g3812
sg68
(lp3819
S''
asbasbasbag61
(g77
g63
NtRp3820
(dp3821
g66
(dp3822
sg75
g3489
sg68
(lp3823
g61
(g82
g63
NtRp3824
(dp3825
g66
(dp3826
g86
g87
ssg75
g3820
sg68
(lp3827
S'generic_patterns'
p3828
asbag61
(g82
g63
NtRp3829
(dp3830
g66
(dp3831
g93
g94
ssg75
g3820
sg68
(lp3832
S':'
asbag61
(g82
g63
NtRp3833
(dp3834
g66
(dp3835
sg75
g3820
sg68
(lp3836
g61
(g62
g63
NtRp3837
(dp3838
g66
(dp3839
g74
I5
ssg75
g3833
sg68
(lp3840
g61
(g70
g63
NtRp3841
(dp3842
g66
(dp3843
g74
I4
ssg75
Nsg68
(lp3844
sbasbasbasbag61
(g77
g63
NtRp3845
(dp3846
g66
(dp3847
sg75
g3489
sg68
(lp3848
g61
(g82
g63
NtRp3849
(dp3850
g66
(dp3851
g86
g87
ssg75
g3845
sg68
(lp3852
S'headers'
p3853
asbag61
(g82
g63
NtRp3854
(dp3855
g66
(dp3856
g93
g94
ssg75
g3845
sg68
(lp3857
S':'
asbag61
(g82
g63
NtRp3858
(dp3859
g66
(dp3860
sg75
g3845
sg68
(lp3861
g61
(g62
g63
NtRp3862
(dp3863
g66
(dp3864
g74
I5
ssg75
g3858
sg68
(lp3865
g61
(g70
g63
NtRp3866
(dp3867
g66
(dp3868
g74
I4
ssg75
Nsg68
(lp3869
g61
(g77
g63
NtRp3870
(dp3871
g66
(dp3872
sg75
g3866
sg68
(lp3873
g61
(g82
g63
NtRp3874
(dp3875
g66
(dp3876
g86
g87
ssg75
g3870
sg68
(lp3877
S'X-Powered-By'
p3878
asbag61
(g82
g63
NtRp3879
(dp3880
g66
(dp3881
g93
g94
ssg75
g3870
sg68
(lp3882
S':'
asbag61
(g82
g63
NtRp3883
(dp3884
g66
(dp3885
sg75
g3870
sg68
(lp3886
g61
(g62
g63
NtRp3887
(dp3888
g66
(dp3889
g74
I4
ssg75
g3883
sg68
(lp3890
S'web2py'
p3891
asbasbasbasbasbasbasbag61
(g77
g63
NtRp3892
(dp3893
g66
(dp3894
sg75
g3489
sg68
(lp3895
g61
(g82
g63
NtRp3896
(dp3897
g66
(dp3898
g86
g87
ssg75
g3892
sg68
(lp3899
S'menu'
p3900
asbag61
(g82
g63
NtRp3901
(dp3902
g66
(dp3903
g93
g94
ssg75
g3892
sg68
(lp3904
S':'
asbag61
(g82
g63
NtRp3905
(dp3906
g66
(dp3907
sg75
g3892
sg68
(lp3908
g61
(g62
g63
NtRp3909
(dp3910
g66
(dp3911
g74
I5
ssg75
g3905
sg68
(lp3912
g61
(g70
g63
NtRp3913
(dp3914
g66
(dp3915
g74
I4
ssg75
Nsg68
(lp3916
sbasbasbasbag61
(g77
g63
NtRp3917
(dp3918
g66
(dp3919
sg75
g3489
sg68
(lp3920
g61
(g82
g63
NtRp3921
(dp3922
g66
(dp3923
g86
g87
ssg75
g3917
sg68
(lp3924
S'meta'
p3925
asbag61
(g82
g63
NtRp3926
(dp3927
g66
(dp3928
g93
g94
ssg75
g3917
sg68
(lp3929
S':'
asbag61
(g82
g63
NtRp3930
(dp3931
g66
(dp3932
sg75
g3917
sg68
(lp3933
g61
(g62
g63
NtRp3934
(dp3935
g66
(dp3936
g74
I5
ssg75
g3930
sg68
(lp3937
g61
(g70
g63
NtRp3938
(dp3939
g66
(dp3940
g74
I4
ssg75
Nsg68
(lp3941
sbasbasbasbag61
(g77
g63
NtRp3942
(dp3943
g66
(dp3944
sg75
g3489
sg68
(lp3945
g61
(g82
g63
NtRp3946
(dp3947
g66
(dp3948
g86
g87
ssg75
g3942
sg68
(lp3949
S'models_to_run'
p3950
asbag61
(g82
g63
NtRp3951
(dp3952
g66
(dp3953
g93
g94
ssg75
g3942
sg68
(lp3954
S':'
asbag61
(g82
g63
NtRp3955
(dp3956
g66
(dp3957
sg75
g3942
sg68
(lp3958
g61
(g62
g63
NtRp3959
(dp3960
g66
(dp3961
g74
I5
ssg75
g3955
sg68
(lp3962
g61
(g70
g63
NtRp3963
(dp3964
g66
(dp3965
g74
I4
ssg75
Nsg68
(lp3966
g61
(g77
g63
NtRp3967
(dp3968
g66
(dp3969
sg75
g3963
sg68
(lp3970
g61
(g82
g63
NtRp3971
(dp3972
g66
(dp3973
sg75
g3967
sg68
(lp3974
g61
(g62
g63
NtRp3975
(dp3976
g66
(dp3977
g74
I4
ssg75
g3971
sg68
(lp3978
S'^\\w+\\.py$'
p3979
asbasbasbag61
(g77
g63
NtRp3980
(dp3981
g66
(dp3982
sg75
g3963
sg68
(lp3983
g61
(g82
g63
NtRp3984
(dp3985
g66
(dp3986
sg75
g3980
sg68
(lp3987
g61
(g62
g63
NtRp3988
(dp3989
g66
(dp3990
g74
I4
ssg75
g3984
sg68
(lp3991
S'^main/\\w+\\.py$'
p3992
asbasbasbag61
(g77
g63
NtRp3993
(dp3994
g66
(dp3995
sg75
g3963
sg68
(lp3996
g61
(g82
g63
NtRp3997
(dp3998
g66
(dp3999
sg75
g3993
sg68
(lp4000
g61
(g62
g63
NtRp4001
(dp4002
g66
(dp4003
g74
I4
ssg75
g3997
sg68
(lp4004
S'^main/login/\\w+\\.py$'
p4005
asbasbasbasbasbasbasbag61
(g77
g63
NtRp4006
(dp4007
g66
(dp4008
sg75
g3489
sg68
(lp4009
g61
(g82
g63
NtRp4010
(dp4011
g66
(dp4012
g86
g87
ssg75
g4006
sg68
(lp4013
S'postprocessing'
p4014
asbag61
(g82
g63
NtRp4015
(dp4016
g66
(dp4017
g93
g94
ssg75
g4006
sg68
(lp4018
S':'
asbag61
(g82
g63
NtRp4019
(dp4020
g66
(dp4021
sg75
g4006
sg68
(lp4022
g61
(g62
g63
NtRp4023
(dp4024
g66
(dp4025
g74
I5
ssg75
g4019
sg68
(lp4026
g61
(g70
g63
NtRp4027
(dp4028
g66
(dp4029
g74
I4
ssg75
Nsg68
(lp4030
sbasbasbasbag61
(g77
g63
NtRp4031
(dp4032
g66
(dp4033
sg75
g3489
sg68
(lp4034
g61
(g82
g63
NtRp4035
(dp4036
g66
(dp4037
g86
g87
ssg75
g4031
sg68
(lp4038
S'session_cookie_expires'
p4039
asbag61
(g82
g63
NtRp4040
(dp4041
g66
(dp4042
g93
g94
ssg75
g4031
sg68
(lp4043
S':'
asbag61
(g82
g63
NtRp4044
(dp4045
g66
(dp4046
sg75
g4031
sg68
(lp4047
g61
(g62
g63
NtRp4048
(dp4049
g66
(dp4050
g74
I5
ssg75
g4044
sg68
(lp4051
S'None'
p4052
asbasbasbag61
(g77
g63
NtRp4053
(dp4054
g66
(dp4055
sg75
g3489
sg68
(lp4056
g61
(g82
g63
NtRp4057
(dp4058
g66
(dp4059
g86
g87
ssg75
g4053
sg68
(lp4060
S'session_data_name'
p4061
asbag61
(g82
g63
NtRp4062
(dp4063
g66
(dp4064
g93
g94
ssg75
g4053
sg68
(lp4065
S':'
asbag61
(g82
g63
NtRp4066
(dp4067
g66
(dp4068
sg75
g4053
sg68
(lp4069
g61
(g62
g63
NtRp4070
(dp4071
g66
(dp4072
g74
I5
ssg75
g4066
sg68
(lp4073
S'session_data_cygnuscloud'
p4074
asbasbasbag61
(g77
g63
NtRp4075
(dp4076
g66
(dp4077
sg75
g3489
sg68
(lp4078
g61
(g82
g63
NtRp4079
(dp4080
g66
(dp4081
g86
g87
ssg75
g4075
sg68
(lp4082
S'session_file'
p4083
asbag61
(g82
g63
NtRp4084
(dp4085
g66
(dp4086
g93
g94
ssg75
g4075
sg68
(lp4087
S':'
asbag61
(g82
g63
NtRp4088
(dp4089
g66
(dp4090
sg75
g4075
sg68
(lp4091
g61
(g62
g63
NtRp4092
(dp4093
g66
(dp4094
g74
I5
ssg75
g4088
sg68
(lp4095
S"<open file '/home/adrian/web2py/applications/CygnusCloud/sessions/127.0.0.1-c587975d-3dc0-4e19-8fd9-70fb7b0fbde9', mode 'rb+' at 0x2a86540>"
p4096
asbasbasbag61
(g77
g63
NtRp4097
(dp4098
g66
(dp4099
sg75
g3489
sg68
(lp4100
g61
(g82
g63
NtRp4101
(dp4102
g66
(dp4103
g86
g87
ssg75
g4097
sg68
(lp4104
S'session_filename'
p4105
asbag61
(g82
g63
NtRp4106
(dp4107
g66
(dp4108
g93
g94
ssg75
g4097
sg68
(lp4109
S':'
asbag61
(g82
g63
NtRp4110
(dp4111
g66
(dp4112
sg75
g4097
sg68
(lp4113
g61
(g62
g63
NtRp4114
(dp4115
g66
(dp4116
g74
I5
ssg75
g4110
sg68
(lp4117
S'/home/adrian/web2py/applications/CygnusCloud/sessions/127.0.0.1-c587975d-3dc0-4e19-8fd9-70fb7b0fbde9'
p4118
asbasbasbag61
(g77
g63
NtRp4119
(dp4120
g66
(dp4121
sg75
g3489
sg68
(lp4122
g61
(g82
g63
NtRp4123
(dp4124
g66
(dp4125
g86
g87
ssg75
g4119
sg68
(lp4126
S'session_id'
p4127
asbag61
(g82
g63
NtRp4128
(dp4129
g66
(dp4130
g93
g94
ssg75
g4119
sg68
(lp4131
S':'
asbag61
(g82
g63
NtRp4132
(dp4133
g66
(dp4134
sg75
g4119
sg68
(lp4135
g61
(g62
g63
NtRp4136
(dp4137
g66
(dp4138
g74
I5
ssg75
g4132
sg68
(lp4139
g664
asbasbasbag61
(g77
g63
NtRp4140
(dp4141
g66
(dp4142
sg75
g3489
sg68
(lp4143
g61
(g82
g63
NtRp4144
(dp4145
g66
(dp4146
g86
g87
ssg75
g4140
sg68
(lp4147
S'session_id_name'
p4148
asbag61
(g82
g63
NtRp4149
(dp4150
g66
(dp4151
g93
g94
ssg75
g4140
sg68
(lp4152
S':'
asbag61
(g82
g63
NtRp4153
(dp4154
g66
(dp4155
sg75
g4140
sg68
(lp4156
g61
(g62
g63
NtRp4157
(dp4158
g66
(dp4159
g74
I5
ssg75
g4153
sg68
(lp4160
g3546
asbasbasbag61
(g77
g63
NtRp4161
(dp4162
g66
(dp4163
sg75
g3489
sg68
(lp4164
g61
(g82
g63
NtRp4165
(dp4166
g66
(dp4167
g86
g87
ssg75
g4161
sg68
(lp4168
S'session_locked'
p4169
asbag61
(g82
g63
NtRp4170
(dp4171
g66
(dp4172
g93
g94
ssg75
g4161
sg68
(lp4173
S':'
asbag61
(g82
g63
NtRp4174
(dp4175
g66
(dp4176
sg75
g4161
sg68
(lp4177
g61
(g62
g63
NtRp4178
(dp4179
g66
(dp4180
g74
I5
ssg75
g4174
sg68
(lp4181
g1890
asbasbasbag61
(g77
g63
NtRp4182
(dp4183
g66
(dp4184
sg75
g3489
sg68
(lp4185
g61
(g82
g63
NtRp4186
(dp4187
g66
(dp4188
g86
g87
ssg75
g4182
sg68
(lp4189
S'session_new'
p4190
asbag61
(g82
g63
NtRp4191
(dp4192
g66
(dp4193
g93
g94
ssg75
g4182
sg68
(lp4194
S':'
asbag61
(g82
g63
NtRp4195
(dp4196
g66
(dp4197
sg75
g4182
sg68
(lp4198
g61
(g62
g63
NtRp4199
(dp4200
g66
(dp4201
g74
I5
ssg75
g4195
sg68
(lp4202
g104
asbasbasbag61
(g77
g63
NtRp4203
(dp4204
g66
(dp4205
sg75
g3489
sg68
(lp4206
g61
(g82
g63
NtRp4207
(dp4208
g66
(dp4209
g86
g87
ssg75
g4203
sg68
(lp4210
S'session_storage_type'
p4211
asbag61
(g82
g63
NtRp4212
(dp4213
g66
(dp4214
g93
g94
ssg75
g4203
sg68
(lp4215
S':'
asbag61
(g82
g63
NtRp4216
(dp4217
g66
(dp4218
sg75
g4203
sg68
(lp4219
g61
(g62
g63
NtRp4220
(dp4221
g66
(dp4222
g74
I5
ssg75
g4216
sg68
(lp4223
g3348
asbasbasbag61
(g77
g63
NtRp4224
(dp4225
g66
(dp4226
sg75
g3489
sg68
(lp4227
g61
(g82
g63
NtRp4228
(dp4229
g66
(dp4230
g86
g87
ssg75
g4224
sg68
(lp4231
S'status'
p4232
asbag61
(g82
g63
NtRp4233
(dp4234
g66
(dp4235
g93
g94
ssg75
g4224
sg68
(lp4236
S':'
asbag61
(g82
g63
NtRp4237
(dp4238
g66
(dp4239
sg75
g4224
sg68
(lp4240
g61
(g62
g63
NtRp4241
(dp4242
g66
(dp4243
g74
I5
ssg75
g4237
sg68
(lp4244
S'200'
p4245
asbasbasbag61
(g77
g63
NtRp4246
(dp4247
g66
(dp4248
sg75
g3489
sg68
(lp4249
g61
(g82
g63
NtRp4250
(dp4251
g66
(dp4252
g86
g87
ssg75
g4246
sg68
(lp4253
S'view'
p4254
asbag61
(g82
g63
NtRp4255
(dp4256
g66
(dp4257
g93
g94
ssg75
g4246
sg68
(lp4258
S':'
asbag61
(g82
g63
NtRp4259
(dp4260
g66
(dp4261
sg75
g4246
sg68
(lp4262
g61
(g62
g63
NtRp4263
(dp4264
g66
(dp4265
g74
I5
ssg75
g4259
sg68
(lp4266
S'main/login.html'
p4267
asbasbasbasbasbsS'locals'
p4268
(dp4269
S'endpoint'
p4270
S'<twisted.internet.endpoints.SSL4ClientEndpoint object>'
p4271
sS'thread'
p4272
S'<_IncomingDataThread(Incoming data processing thread, initial daemon)>'
p4273
sS'self'
p4274
S'<applications.CygnusCloud.modules.network.networkManager.NetworkManager instance>'
p4275
sS'factory'
p4276
S'<applications.CygnusCloud.modules.network.twiste...n.protocols._CygnusCloudProtocolFactory instance>'
p4277
sS'certificatePath'
p4278
S"'applications/CygnusCloud/static/Certificates/server.crt'"
p4279
sS'queue'
p4280
S'<applications.CygnusCloud.modules.ccutils.multit...orityQueue.GenericThreadSafePriorityQueue object>'
p4281
sS'host'
p4282
S"'127.0.0.1'"
p4283
sS'useSSL'
p4284
g1890
sS'timeout'
p4285
S'5'
sS'time'
p4286
S'5.009999999999938'
p4287
sS'port'
p4288
S'9000'
p4289
sS'callbackObject'
p4290
S'<applications.CygnusCloud.modules.clusterServer....Connector._ClusterServerConnectorCallback object>'
p4291
sS'keyPath'
p4292
S"'applications/CygnusCloud/static/Certificates/server.key'"
p4293
sssS'traceback'
p4294
S'Traceback (most recent call last):\n  File "/home/adrian/web2py/gluon/restricted.py", line 212, in restricted\n    exec ccode in environment\n  File "/home/adrian/web2py/applications/CygnusCloud/models/db.py", line 64, in <module>\n    connector = Singleton.getInstance()\n  File "applications/CygnusCloud/modules/serverConnector/singletonServerConnector.py", line 16, in getInstance\n    staticConnector.connectToClusterServer(certificatesPath,False,serverIp ,serverPort, statusInterval)\n  File "applications/CygnusCloud/modules/clusterServer/connector/clusterServerConnector.py", line 169, in connectToClusterServer\n    self.__manager.connectTo(clusterServerIP, clusterServerListenningPort, 5, callback, True)\n  File "applications/CygnusCloud/modules/network/networkManager.py", line 164, in connectTo\n    raise NetworkManagerException("The host " + host + ":" + str(port) +" seems to be unreachable")\nNetworkManagerException: The host 127.0.0.1:9000 seems to be unreachable\n'
p4295
s.