(dp1
S'output'
p2
S"<type 'exceptions.SyntaxError'> <input/> tags cannot have components"
p3
sS'layer'
p4
S'/home/adrian/web2py/applications/CygnusCloud/controllers/main.py'
p5
sS'code'
p6
S"# coding: utf8\n# M\xc3\xa9todo encargado de la p\xc3\xa1gina de inicio de sesi\xc3\xb3n\ndef login(): \n    createAdressBar()\n    form=FORM(LABEL( T('Inicio de sesi\xc3\xb3n')),\n                  INPUT(T('Nombre de usuario'), requires=IS_NOT_EMPTY()),\n                  INPUT(T('Contrase\xc3\xb1a'), requires=IS_NOT_EMPTY()),\n                  INPUT(_type='submit'))\n    if form.accepts(request,session):\n        redirect(URL())\n    elif form.errors:\n        response.flash = 'form has errors'\n    else:\n        response.flash = 'please fill the form'\n    return dict(form=form)\n    \ndef createAdressBar():\n    response.menu=[['Iniciar sesi\xc3\xb3n',False,URL('login')],\n                   ['Acerca de',False,URL('login')]]\n\nresponse._vars=response._caller(login)\n"
p7
sS'snapshot'
p8
(dp9
S'exception'
p10
(dp11
S'__getslice__'
p12
S"<method-wrapper '__getslice__' of exceptions.SyntaxError object>"
p13
sS'text'
p14
S'None'
p15
sS'__str__'
p16
S"<method-wrapper '__str__' of exceptions.SyntaxError object>"
p17
sS'__reduce__'
p18
S'<built-in method __reduce__ of exceptions.SyntaxError object>'
p19
sS'__dict__'
p20
S'{}'
p21
sS'__sizeof__'
p22
S'<built-in method __sizeof__ of exceptions.SyntaxError object>'
p23
sS'__init__'
p24
S"<method-wrapper '__init__' of exceptions.SyntaxError object>"
p25
sS'__setattr__'
p26
S"<method-wrapper '__setattr__' of exceptions.SyntaxError object>"
p27
sS'__reduce_ex__'
p28
S'<built-in method __reduce_ex__ of exceptions.SyntaxError object>'
p29
sS'__new__'
p30
S'<built-in method __new__ of type object>'
p31
sS'__format__'
p32
S'<built-in method __format__ of exceptions.SyntaxError object>'
p33
sS'__class__'
p34
S"<type 'exceptions.SyntaxError'>"
p35
sS'filename'
p36
S'None'
p37
sS'lineno'
p38
S'None'
p39
sS'msg'
p40
S"'<input/> tags cannot have components'"
p41
sS'__doc__'
p42
S"'Invalid syntax.'"
p43
sS'__getitem__'
p44
S"<method-wrapper '__getitem__' of exceptions.SyntaxError object>"
p45
sS'__setstate__'
p46
S'<built-in method __setstate__ of exceptions.SyntaxError object>'
p47
sS'__getattribute__'
p48
S"<method-wrapper '__getattribute__' of exceptions.SyntaxError object>"
p49
sS'print_file_and_line'
p50
S'None'
p51
sS'args'
p52
S"('<input/> tags cannot have components',)"
p53
sS'__subclasshook__'
p54
S'<built-in method __subclasshook__ of type object>'
p55
sS'offset'
p56
S'None'
p57
sS'__unicode__'
p58
S'<built-in method __unicode__ of exceptions.SyntaxError object>'
p59
sS'__delattr__'
p60
S"<method-wrapper '__delattr__' of exceptions.SyntaxError object>"
p61
sS'__repr__'
p62
S"<method-wrapper '__repr__' of exceptions.SyntaxError object>"
p63
sS'__hash__'
p64
S"<method-wrapper '__hash__' of exceptions.SyntaxError object>"
p65
ssS'evalue'
p66
S'<input/> tags cannot have components'
p67
sS'request'
p68
ccopy_reg
_reconstructor
p69
(cgluon.html
BEAUTIFY
p70
c__builtin__
object
p71
NtRp72
(dp73
S'attributes'
p74
(dp75
sS'components'
p76
(lp77
g69
(cgluon.html
TABLE
p78
g71
NtRp79
(dp80
g74
(dp81
S'level'
p82
I5
ssS'parent'
p83
Nsg76
(lp84
g69
(cgluon.html
TR
p85
g71
NtRp86
(dp87
g74
(dp88
sg83
g79
sg76
(lp89
g69
(cgluon.html
TD
p90
g71
NtRp91
(dp92
g74
(dp93
S'_style'
p94
S'font-weight:bold;vertical-align:top'
p95
ssg83
g86
sg76
(lp96
S'ajax'
p97
asbag69
(g90
g71
NtRp98
(dp99
g74
(dp100
S'_valign'
p101
S'top'
p102
ssg83
g86
sg76
(lp103
S':'
asbag69
(g90
g71
NtRp104
(dp105
g74
(dp106
sg83
g86
sg76
(lp107
g69
(g70
g71
NtRp108
(dp109
g74
(dp110
g82
I5
ssg83
g104
sg76
(lp111
S'False'
p112
asbasbasbag69
(g85
g71
NtRp113
(dp114
g74
(dp115
sg83
g79
sg76
(lp116
g69
(g90
g71
NtRp117
(dp118
g74
(dp119
g94
g95
ssg83
g113
sg76
(lp120
S'application'
p121
asbag69
(g90
g71
NtRp122
(dp123
g74
(dp124
g101
g102
ssg83
g113
sg76
(lp125
S':'
asbag69
(g90
g71
NtRp126
(dp127
g74
(dp128
sg83
g113
sg76
(lp129
g69
(g70
g71
NtRp130
(dp131
g74
(dp132
g82
I5
ssg83
g126
sg76
(lp133
S'CygnusCloud'
p134
asbasbasbag69
(g85
g71
NtRp135
(dp136
g74
(dp137
sg83
g79
sg76
(lp138
g69
(g90
g71
NtRp139
(dp140
g74
(dp141
g94
g95
ssg83
g135
sg76
(lp142
g52
asbag69
(g90
g71
NtRp143
(dp144
g74
(dp145
g101
g102
ssg83
g135
sg76
(lp146
S':'
asbag69
(g90
g71
NtRp147
(dp148
g74
(dp149
sg83
g135
sg76
(lp150
g69
(g70
g71
NtRp151
(dp152
g74
(dp153
g82
I5
ssg83
g147
sg76
(lp154
g69
(g78
g71
NtRp155
(dp156
g74
(dp157
g82
I4
ssg83
Nsg76
(lp158
sbasbasbasbag69
(g85
g71
NtRp159
(dp160
g74
(dp161
sg83
g79
sg76
(lp162
g69
(g90
g71
NtRp163
(dp164
g74
(dp165
g94
g95
ssg83
g159
sg76
(lp166
S'body'
p167
asbag69
(g90
g71
NtRp168
(dp169
g74
(dp170
g101
g102
ssg83
g159
sg76
(lp171
S':'
asbag69
(g90
g71
NtRp172
(dp173
g74
(dp174
sg83
g159
sg76
(lp175
g69
(g70
g71
NtRp176
(dp177
g74
(dp178
g82
I5
ssg83
g172
sg76
(lp179
S'<cStringIO.StringO object at 0x7f4df85811f0>'
p180
asbasbasbag69
(g85
g71
NtRp181
(dp182
g74
(dp183
sg83
g79
sg76
(lp184
g69
(g90
g71
NtRp185
(dp186
g74
(dp187
g94
g95
ssg83
g181
sg76
(lp188
S'cid'
p189
asbag69
(g90
g71
NtRp190
(dp191
g74
(dp192
g101
g102
ssg83
g181
sg76
(lp193
S':'
asbag69
(g90
g71
NtRp194
(dp195
g74
(dp196
sg83
g181
sg76
(lp197
g69
(g70
g71
NtRp198
(dp199
g74
(dp200
g82
I5
ssg83
g194
sg76
(lp201
S'None'
p202
asbasbasbag69
(g85
g71
NtRp203
(dp204
g74
(dp205
sg83
g79
sg76
(lp206
g69
(g90
g71
NtRp207
(dp208
g74
(dp209
g94
g95
ssg83
g203
sg76
(lp210
S'client'
p211
asbag69
(g90
g71
NtRp212
(dp213
g74
(dp214
g101
g102
ssg83
g203
sg76
(lp215
S':'
asbag69
(g90
g71
NtRp216
(dp217
g74
(dp218
sg83
g203
sg76
(lp219
g69
(g70
g71
NtRp220
(dp221
g74
(dp222
g82
I5
ssg83
g216
sg76
(lp223
S'127.0.0.1'
p224
asbasbasbag69
(g85
g71
NtRp225
(dp226
g74
(dp227
sg83
g79
sg76
(lp228
g69
(g90
g71
NtRp229
(dp230
g74
(dp231
g94
g95
ssg83
g225
sg76
(lp232
S'controller'
p233
asbag69
(g90
g71
NtRp234
(dp235
g74
(dp236
g101
g102
ssg83
g225
sg76
(lp237
S':'
asbag69
(g90
g71
NtRp238
(dp239
g74
(dp240
sg83
g225
sg76
(lp241
g69
(g70
g71
NtRp242
(dp243
g74
(dp244
g82
I5
ssg83
g238
sg76
(lp245
S'main'
p246
asbasbasbag69
(g85
g71
NtRp247
(dp248
g74
(dp249
sg83
g79
sg76
(lp250
g69
(g90
g71
NtRp251
(dp252
g74
(dp253
g94
g95
ssg83
g247
sg76
(lp254
S'cookies'
p255
asbag69
(g90
g71
NtRp256
(dp257
g74
(dp258
g101
g102
ssg83
g247
sg76
(lp259
S':'
asbag69
(g90
g71
NtRp260
(dp261
g74
(dp262
sg83
g247
sg76
(lp263
g69
(g70
g71
NtRp264
(dp265
g74
(dp266
g82
I5
ssg83
g260
sg76
(lp267
g69
(g78
g71
NtRp268
(dp269
g74
(dp270
g82
I4
ssg83
Nsg76
(lp271
g69
(g85
g71
NtRp272
(dp273
g74
(dp274
sg83
g268
sg76
(lp275
g69
(g90
g71
NtRp276
(dp277
g74
(dp278
g94
g95
ssg83
g272
sg76
(lp279
S'session_id_admin'
p280
asbag69
(g90
g71
NtRp281
(dp282
g74
(dp283
g101
g102
ssg83
g272
sg76
(lp284
S':'
asbag69
(g90
g71
NtRp285
(dp286
g74
(dp287
sg83
g272
sg76
(lp288
g69
(g70
g71
NtRp289
(dp290
g74
(dp291
g82
I4
ssg83
g285
sg76
(lp292
S'127.0.0.1-adbb0582-e862-4897-bba0-660c4b8f9166'
p293
ag69
(g78
g71
NtRp294
(dp295
g74
(dp296
g82
I3
ssg83
Nsg76
(lp297
g69
(g85
g71
NtRp298
(dp299
g74
(dp300
sg83
g294
sg76
(lp301
g69
(g90
g71
NtRp302
(dp303
g74
(dp304
g94
g95
ssg83
g298
sg76
(lp305
S'comment'
p306
asbag69
(g90
g71
NtRp307
(dp308
g74
(dp309
g101
g102
ssg83
g298
sg76
(lp310
S':'
asbag69
(g90
g71
NtRp311
(dp312
g74
(dp313
sg83
g298
sg76
(lp314
g69
(g70
g71
NtRp315
(dp316
g74
(dp317
g82
I3
ssg83
g311
sg76
(lp318
S''
asbasbasbag69
(g85
g71
NtRp319
(dp320
g74
(dp321
sg83
g294
sg76
(lp322
g69
(g90
g71
NtRp323
(dp324
g74
(dp325
g94
g95
ssg83
g319
sg76
(lp326
S'domain'
p327
asbag69
(g90
g71
NtRp328
(dp329
g74
(dp330
g101
g102
ssg83
g319
sg76
(lp331
S':'
asbag69
(g90
g71
NtRp332
(dp333
g74
(dp334
sg83
g319
sg76
(lp335
g69
(g70
g71
NtRp336
(dp337
g74
(dp338
g82
I3
ssg83
g332
sg76
(lp339
S''
asbasbasbag69
(g85
g71
NtRp340
(dp341
g74
(dp342
sg83
g294
sg76
(lp343
g69
(g90
g71
NtRp344
(dp345
g74
(dp346
g94
g95
ssg83
g340
sg76
(lp347
S'expires'
p348
asbag69
(g90
g71
NtRp349
(dp350
g74
(dp351
g101
g102
ssg83
g340
sg76
(lp352
S':'
asbag69
(g90
g71
NtRp353
(dp354
g74
(dp355
sg83
g340
sg76
(lp356
g69
(g70
g71
NtRp357
(dp358
g74
(dp359
g82
I3
ssg83
g353
sg76
(lp360
S''
asbasbasbag69
(g85
g71
NtRp361
(dp362
g74
(dp363
sg83
g294
sg76
(lp364
g69
(g90
g71
NtRp365
(dp366
g74
(dp367
g94
g95
ssg83
g361
sg76
(lp368
S'httponly'
p369
asbag69
(g90
g71
NtRp370
(dp371
g74
(dp372
g101
g102
ssg83
g361
sg76
(lp373
S':'
asbag69
(g90
g71
NtRp374
(dp375
g74
(dp376
sg83
g361
sg76
(lp377
g69
(g70
g71
NtRp378
(dp379
g74
(dp380
g82
I3
ssg83
g374
sg76
(lp381
S''
asbasbasbag69
(g85
g71
NtRp382
(dp383
g74
(dp384
sg83
g294
sg76
(lp385
g69
(g90
g71
NtRp386
(dp387
g74
(dp388
g94
g95
ssg83
g382
sg76
(lp389
S'max-age'
p390
asbag69
(g90
g71
NtRp391
(dp392
g74
(dp393
g101
g102
ssg83
g382
sg76
(lp394
S':'
asbag69
(g90
g71
NtRp395
(dp396
g74
(dp397
sg83
g382
sg76
(lp398
g69
(g70
g71
NtRp399
(dp400
g74
(dp401
g82
I3
ssg83
g395
sg76
(lp402
S''
asbasbasbag69
(g85
g71
NtRp403
(dp404
g74
(dp405
sg83
g294
sg76
(lp406
g69
(g90
g71
NtRp407
(dp408
g74
(dp409
g94
g95
ssg83
g403
sg76
(lp410
S'path'
p411
asbag69
(g90
g71
NtRp412
(dp413
g74
(dp414
g101
g102
ssg83
g403
sg76
(lp415
S':'
asbag69
(g90
g71
NtRp416
(dp417
g74
(dp418
sg83
g403
sg76
(lp419
g69
(g70
g71
NtRp420
(dp421
g74
(dp422
g82
I3
ssg83
g416
sg76
(lp423
S''
asbasbasbag69
(g85
g71
NtRp424
(dp425
g74
(dp426
sg83
g294
sg76
(lp427
g69
(g90
g71
NtRp428
(dp429
g74
(dp430
g94
g95
ssg83
g424
sg76
(lp431
S'secure'
p432
asbag69
(g90
g71
NtRp433
(dp434
g74
(dp435
g101
g102
ssg83
g424
sg76
(lp436
S':'
asbag69
(g90
g71
NtRp437
(dp438
g74
(dp439
sg83
g424
sg76
(lp440
g69
(g70
g71
NtRp441
(dp442
g74
(dp443
g82
I3
ssg83
g437
sg76
(lp444
S''
asbasbasbag69
(g85
g71
NtRp445
(dp446
g74
(dp447
sg83
g294
sg76
(lp448
g69
(g90
g71
NtRp449
(dp450
g74
(dp451
g94
g95
ssg83
g445
sg76
(lp452
S'version'
p453
asbag69
(g90
g71
NtRp454
(dp455
g74
(dp456
g101
g102
ssg83
g445
sg76
(lp457
S':'
asbag69
(g90
g71
NtRp458
(dp459
g74
(dp460
sg83
g445
sg76
(lp461
g69
(g70
g71
NtRp462
(dp463
g74
(dp464
g82
I3
ssg83
g458
sg76
(lp465
S''
asbasbasbasbasbasbasbag69
(g85
g71
NtRp466
(dp467
g74
(dp468
sg83
g268
sg76
(lp469
g69
(g90
g71
NtRp470
(dp471
g74
(dp472
g94
g95
ssg83
g466
sg76
(lp473
S'session_id_cygnuscloud'
p474
asbag69
(g90
g71
NtRp475
(dp476
g74
(dp477
g101
g102
ssg83
g466
sg76
(lp478
S':'
asbag69
(g90
g71
NtRp479
(dp480
g74
(dp481
sg83
g466
sg76
(lp482
g69
(g70
g71
NtRp483
(dp484
g74
(dp485
g82
I4
ssg83
g479
sg76
(lp486
S'127.0.0.1-fd6cd013-dbd8-4eaa-8a53-43ef9e3e87c7'
p487
ag69
(g78
g71
NtRp488
(dp489
g74
(dp490
g82
I3
ssg83
Nsg76
(lp491
g69
(g85
g71
NtRp492
(dp493
g74
(dp494
sg83
g488
sg76
(lp495
g69
(g90
g71
NtRp496
(dp497
g74
(dp498
g94
g95
ssg83
g492
sg76
(lp499
g306
asbag69
(g90
g71
NtRp500
(dp501
g74
(dp502
g101
g102
ssg83
g492
sg76
(lp503
S':'
asbag69
(g90
g71
NtRp504
(dp505
g74
(dp506
sg83
g492
sg76
(lp507
g69
(g70
g71
NtRp508
(dp509
g74
(dp510
g82
I3
ssg83
g504
sg76
(lp511
S''
asbasbasbag69
(g85
g71
NtRp512
(dp513
g74
(dp514
sg83
g488
sg76
(lp515
g69
(g90
g71
NtRp516
(dp517
g74
(dp518
g94
g95
ssg83
g512
sg76
(lp519
g327
asbag69
(g90
g71
NtRp520
(dp521
g74
(dp522
g101
g102
ssg83
g512
sg76
(lp523
S':'
asbag69
(g90
g71
NtRp524
(dp525
g74
(dp526
sg83
g512
sg76
(lp527
g69
(g70
g71
NtRp528
(dp529
g74
(dp530
g82
I3
ssg83
g524
sg76
(lp531
S''
asbasbasbag69
(g85
g71
NtRp532
(dp533
g74
(dp534
sg83
g488
sg76
(lp535
g69
(g90
g71
NtRp536
(dp537
g74
(dp538
g94
g95
ssg83
g532
sg76
(lp539
g348
asbag69
(g90
g71
NtRp540
(dp541
g74
(dp542
g101
g102
ssg83
g532
sg76
(lp543
S':'
asbag69
(g90
g71
NtRp544
(dp545
g74
(dp546
sg83
g532
sg76
(lp547
g69
(g70
g71
NtRp548
(dp549
g74
(dp550
g82
I3
ssg83
g544
sg76
(lp551
S''
asbasbasbag69
(g85
g71
NtRp552
(dp553
g74
(dp554
sg83
g488
sg76
(lp555
g69
(g90
g71
NtRp556
(dp557
g74
(dp558
g94
g95
ssg83
g552
sg76
(lp559
g369
asbag69
(g90
g71
NtRp560
(dp561
g74
(dp562
g101
g102
ssg83
g552
sg76
(lp563
S':'
asbag69
(g90
g71
NtRp564
(dp565
g74
(dp566
sg83
g552
sg76
(lp567
g69
(g70
g71
NtRp568
(dp569
g74
(dp570
g82
I3
ssg83
g564
sg76
(lp571
S''
asbasbasbag69
(g85
g71
NtRp572
(dp573
g74
(dp574
sg83
g488
sg76
(lp575
g69
(g90
g71
NtRp576
(dp577
g74
(dp578
g94
g95
ssg83
g572
sg76
(lp579
g390
asbag69
(g90
g71
NtRp580
(dp581
g74
(dp582
g101
g102
ssg83
g572
sg76
(lp583
S':'
asbag69
(g90
g71
NtRp584
(dp585
g74
(dp586
sg83
g572
sg76
(lp587
g69
(g70
g71
NtRp588
(dp589
g74
(dp590
g82
I3
ssg83
g584
sg76
(lp591
S''
asbasbasbag69
(g85
g71
NtRp592
(dp593
g74
(dp594
sg83
g488
sg76
(lp595
g69
(g90
g71
NtRp596
(dp597
g74
(dp598
g94
g95
ssg83
g592
sg76
(lp599
g411
asbag69
(g90
g71
NtRp600
(dp601
g74
(dp602
g101
g102
ssg83
g592
sg76
(lp603
S':'
asbag69
(g90
g71
NtRp604
(dp605
g74
(dp606
sg83
g592
sg76
(lp607
g69
(g70
g71
NtRp608
(dp609
g74
(dp610
g82
I3
ssg83
g604
sg76
(lp611
S''
asbasbasbag69
(g85
g71
NtRp612
(dp613
g74
(dp614
sg83
g488
sg76
(lp615
g69
(g90
g71
NtRp616
(dp617
g74
(dp618
g94
g95
ssg83
g612
sg76
(lp619
g432
asbag69
(g90
g71
NtRp620
(dp621
g74
(dp622
g101
g102
ssg83
g612
sg76
(lp623
S':'
asbag69
(g90
g71
NtRp624
(dp625
g74
(dp626
sg83
g612
sg76
(lp627
g69
(g70
g71
NtRp628
(dp629
g74
(dp630
g82
I3
ssg83
g624
sg76
(lp631
S''
asbasbasbag69
(g85
g71
NtRp632
(dp633
g74
(dp634
sg83
g488
sg76
(lp635
g69
(g90
g71
NtRp636
(dp637
g74
(dp638
g94
g95
ssg83
g632
sg76
(lp639
g453
asbag69
(g90
g71
NtRp640
(dp641
g74
(dp642
g101
g102
ssg83
g632
sg76
(lp643
S':'
asbag69
(g90
g71
NtRp644
(dp645
g74
(dp646
sg83
g632
sg76
(lp647
g69
(g70
g71
NtRp648
(dp649
g74
(dp650
g82
I3
ssg83
g644
sg76
(lp651
S''
asbasbasbasbasbasbasbag69
(g85
g71
NtRp652
(dp653
g74
(dp654
sg83
g268
sg76
(lp655
g69
(g90
g71
NtRp656
(dp657
g74
(dp658
g94
g95
ssg83
g652
sg76
(lp659
S'session_id_welcome'
p660
asbag69
(g90
g71
NtRp661
(dp662
g74
(dp663
g101
g102
ssg83
g652
sg76
(lp664
S':'
asbag69
(g90
g71
NtRp665
(dp666
g74
(dp667
sg83
g652
sg76
(lp668
g69
(g70
g71
NtRp669
(dp670
g74
(dp671
g82
I4
ssg83
g665
sg76
(lp672
S'127.0.0.1-f9c13e90-2013-4846-937c-8e6571bab711'
p673
ag69
(g78
g71
NtRp674
(dp675
g74
(dp676
g82
I3
ssg83
Nsg76
(lp677
g69
(g85
g71
NtRp678
(dp679
g74
(dp680
sg83
g674
sg76
(lp681
g69
(g90
g71
NtRp682
(dp683
g74
(dp684
g94
g95
ssg83
g678
sg76
(lp685
g306
asbag69
(g90
g71
NtRp686
(dp687
g74
(dp688
g101
g102
ssg83
g678
sg76
(lp689
S':'
asbag69
(g90
g71
NtRp690
(dp691
g74
(dp692
sg83
g678
sg76
(lp693
g69
(g70
g71
NtRp694
(dp695
g74
(dp696
g82
I3
ssg83
g690
sg76
(lp697
S''
asbasbasbag69
(g85
g71
NtRp698
(dp699
g74
(dp700
sg83
g674
sg76
(lp701
g69
(g90
g71
NtRp702
(dp703
g74
(dp704
g94
g95
ssg83
g698
sg76
(lp705
g327
asbag69
(g90
g71
NtRp706
(dp707
g74
(dp708
g101
g102
ssg83
g698
sg76
(lp709
S':'
asbag69
(g90
g71
NtRp710
(dp711
g74
(dp712
sg83
g698
sg76
(lp713
g69
(g70
g71
NtRp714
(dp715
g74
(dp716
g82
I3
ssg83
g710
sg76
(lp717
S''
asbasbasbag69
(g85
g71
NtRp718
(dp719
g74
(dp720
sg83
g674
sg76
(lp721
g69
(g90
g71
NtRp722
(dp723
g74
(dp724
g94
g95
ssg83
g718
sg76
(lp725
g348
asbag69
(g90
g71
NtRp726
(dp727
g74
(dp728
g101
g102
ssg83
g718
sg76
(lp729
S':'
asbag69
(g90
g71
NtRp730
(dp731
g74
(dp732
sg83
g718
sg76
(lp733
g69
(g70
g71
NtRp734
(dp735
g74
(dp736
g82
I3
ssg83
g730
sg76
(lp737
S''
asbasbasbag69
(g85
g71
NtRp738
(dp739
g74
(dp740
sg83
g674
sg76
(lp741
g69
(g90
g71
NtRp742
(dp743
g74
(dp744
g94
g95
ssg83
g738
sg76
(lp745
g369
asbag69
(g90
g71
NtRp746
(dp747
g74
(dp748
g101
g102
ssg83
g738
sg76
(lp749
S':'
asbag69
(g90
g71
NtRp750
(dp751
g74
(dp752
sg83
g738
sg76
(lp753
g69
(g70
g71
NtRp754
(dp755
g74
(dp756
g82
I3
ssg83
g750
sg76
(lp757
S''
asbasbasbag69
(g85
g71
NtRp758
(dp759
g74
(dp760
sg83
g674
sg76
(lp761
g69
(g90
g71
NtRp762
(dp763
g74
(dp764
g94
g95
ssg83
g758
sg76
(lp765
g390
asbag69
(g90
g71
NtRp766
(dp767
g74
(dp768
g101
g102
ssg83
g758
sg76
(lp769
S':'
asbag69
(g90
g71
NtRp770
(dp771
g74
(dp772
sg83
g758
sg76
(lp773
g69
(g70
g71
NtRp774
(dp775
g74
(dp776
g82
I3
ssg83
g770
sg76
(lp777
S''
asbasbasbag69
(g85
g71
NtRp778
(dp779
g74
(dp780
sg83
g674
sg76
(lp781
g69
(g90
g71
NtRp782
(dp783
g74
(dp784
g94
g95
ssg83
g778
sg76
(lp785
g411
asbag69
(g90
g71
NtRp786
(dp787
g74
(dp788
g101
g102
ssg83
g778
sg76
(lp789
S':'
asbag69
(g90
g71
NtRp790
(dp791
g74
(dp792
sg83
g778
sg76
(lp793
g69
(g70
g71
NtRp794
(dp795
g74
(dp796
g82
I3
ssg83
g790
sg76
(lp797
S''
asbasbasbag69
(g85
g71
NtRp798
(dp799
g74
(dp800
sg83
g674
sg76
(lp801
g69
(g90
g71
NtRp802
(dp803
g74
(dp804
g94
g95
ssg83
g798
sg76
(lp805
g432
asbag69
(g90
g71
NtRp806
(dp807
g74
(dp808
g101
g102
ssg83
g798
sg76
(lp809
S':'
asbag69
(g90
g71
NtRp810
(dp811
g74
(dp812
sg83
g798
sg76
(lp813
g69
(g70
g71
NtRp814
(dp815
g74
(dp816
g82
I3
ssg83
g810
sg76
(lp817
S''
asbasbasbag69
(g85
g71
NtRp818
(dp819
g74
(dp820
sg83
g674
sg76
(lp821
g69
(g90
g71
NtRp822
(dp823
g74
(dp824
g94
g95
ssg83
g818
sg76
(lp825
g453
asbag69
(g90
g71
NtRp826
(dp827
g74
(dp828
g101
g102
ssg83
g818
sg76
(lp829
S':'
asbag69
(g90
g71
NtRp830
(dp831
g74
(dp832
sg83
g818
sg76
(lp833
g69
(g70
g71
NtRp834
(dp835
g74
(dp836
g82
I3
ssg83
g830
sg76
(lp837
S''
asbasbasbasbasbasbasbasbasbasbasbag69
(g85
g71
NtRp838
(dp839
g74
(dp840
sg83
g79
sg76
(lp841
g69
(g90
g71
NtRp842
(dp843
g74
(dp844
g94
g95
ssg83
g838
sg76
(lp845
S'env'
p846
asbag69
(g90
g71
NtRp847
(dp848
g74
(dp849
g101
g102
ssg83
g838
sg76
(lp850
S':'
asbag69
(g90
g71
NtRp851
(dp852
g74
(dp853
sg83
g838
sg76
(lp854
g69
(g70
g71
NtRp855
(dp856
g74
(dp857
g82
I5
ssg83
g851
sg76
(lp858
g69
(g78
g71
NtRp859
(dp860
g74
(dp861
g82
I4
ssg83
Nsg76
(lp862
g69
(g85
g71
NtRp863
(dp864
g74
(dp865
sg83
g859
sg76
(lp866
g69
(g90
g71
NtRp867
(dp868
g74
(dp869
g94
g95
ssg83
g863
sg76
(lp870
S'app_folders'
p871
asbag69
(g90
g71
NtRp872
(dp873
g74
(dp874
g101
g102
ssg83
g863
sg76
(lp875
S':'
asbag69
(g90
g71
NtRp876
(dp877
g74
(dp878
sg83
g863
sg76
(lp879
g69
(g70
g71
NtRp880
(dp881
g74
(dp882
g82
I4
ssg83
g876
sg76
(lp883
S"set(['/home/adrian/web2py/applications/admin/', '/home/adrian/web2py/applications/welcome/', '/home/adrian/web2py/applications/CygnusCloud/'])"
p884
asbasbasbag69
(g85
g71
NtRp885
(dp886
g74
(dp887
sg83
g859
sg76
(lp888
g69
(g90
g71
NtRp889
(dp890
g74
(dp891
g94
g95
ssg83
g885
sg76
(lp892
S'applications_parent'
p893
asbag69
(g90
g71
NtRp894
(dp895
g74
(dp896
g101
g102
ssg83
g885
sg76
(lp897
S':'
asbag69
(g90
g71
NtRp898
(dp899
g74
(dp900
sg83
g885
sg76
(lp901
g69
(g70
g71
NtRp902
(dp903
g74
(dp904
g82
I4
ssg83
g898
sg76
(lp905
S'/home/adrian/web2py'
p906
asbasbasbag69
(g85
g71
NtRp907
(dp908
g74
(dp909
sg83
g859
sg76
(lp910
g69
(g90
g71
NtRp911
(dp912
g74
(dp913
g94
g95
ssg83
g907
sg76
(lp914
S'cmd_args'
p915
asbag69
(g90
g71
NtRp916
(dp917
g74
(dp918
g101
g102
ssg83
g907
sg76
(lp919
S':'
asbag69
(g90
g71
NtRp920
(dp921
g74
(dp922
sg83
g907
sg76
(lp923
g69
(g70
g71
NtRp924
(dp925
g74
(dp926
g82
I4
ssg83
g920
sg76
(lp927
g69
(g78
g71
NtRp928
(dp929
g74
(dp930
g82
I3
ssg83
Nsg76
(lp931
sbasbasbasbag69
(g85
g71
NtRp932
(dp933
g74
(dp934
sg83
g859
sg76
(lp935
g69
(g90
g71
NtRp936
(dp937
g74
(dp938
g94
g95
ssg83
g932
sg76
(lp939
S'cmd_options'
p940
asbag69
(g90
g71
NtRp941
(dp942
g74
(dp943
g101
g102
ssg83
g932
sg76
(lp944
S':'
asbag69
(g90
g71
NtRp945
(dp946
g74
(dp947
sg83
g932
sg76
(lp948
g69
(g70
g71
NtRp949
(dp950
g74
(dp951
g82
I4
ssg83
g945
sg76
(lp952
S"<Values at 0x2ea9bd8: {'verbose': False, 'ip': '127.0.0.1', 'with_scheduler': False, 'ips': [], 'shutdown_timeout': 5, 'taskbar': False, 'port': 8000, 'maxthreads': None, 'softcron': False, 'server_name': 'adri-EasyNote', 'bpython': False, 'nogui': False, 'pid_filename': 'httpserver.pid', 'extcron': False, 'runcron': False, 'run_system_tests': False, 'test': None, 'folder': '/home/adrian/web2py', 'config': '', 'minthreads': None, 'winservice': '', 'shell': None, 'run': '', 'log_filename': 'httpserver.log', 'debuglevel': 30, 'args': [''], 'socket_timeout': 5, 'ssl_ca_certificate': None, 'scheduler': None, 'profiler_filename': None, 'ssl_private_key': '', 'scheduler_groups': None, 'password': 'cygnuscloud2012', 'request_queue_size': 5, 'ssl_certificate': '', 'cronjob': False, 'numthreads': None, 'quiet': False, 'interfaces': None, 'import_models': False, 'timeout': 10, 'plain': False, 'nobanner': False}>"
p953
asbasbasbag69
(g85
g71
NtRp954
(dp955
g74
(dp956
sg83
g859
sg76
(lp957
g69
(g90
g71
NtRp958
(dp959
g74
(dp960
g94
g95
ssg83
g954
sg76
(lp961
S'db_sessions'
p962
asbag69
(g90
g71
NtRp963
(dp964
g74
(dp965
g101
g102
ssg83
g954
sg76
(lp966
S':'
asbag69
(g90
g71
NtRp967
(dp968
g74
(dp969
sg83
g954
sg76
(lp970
g69
(g70
g71
NtRp971
(dp972
g74
(dp973
g82
I4
ssg83
g967
sg76
(lp974
S'set([])'
p975
asbasbasbag69
(g85
g71
NtRp976
(dp977
g74
(dp978
sg83
g859
sg76
(lp979
g69
(g90
g71
NtRp980
(dp981
g74
(dp982
g94
g95
ssg83
g976
sg76
(lp983
S'debugging'
p984
asbag69
(g90
g71
NtRp985
(dp986
g74
(dp987
g101
g102
ssg83
g976
sg76
(lp988
S':'
asbag69
(g90
g71
NtRp989
(dp990
g74
(dp991
sg83
g976
sg76
(lp992
g69
(g70
g71
NtRp993
(dp994
g74
(dp995
g82
I4
ssg83
g989
sg76
(lp996
g112
asbasbasbag69
(g85
g71
NtRp997
(dp998
g74
(dp999
sg83
g859
sg76
(lp1000
g69
(g90
g71
NtRp1001
(dp1002
g74
(dp1003
g94
g95
ssg83
g997
sg76
(lp1004
S'gluon_parent'
p1005
asbag69
(g90
g71
NtRp1006
(dp1007
g74
(dp1008
g101
g102
ssg83
g997
sg76
(lp1009
S':'
asbag69
(g90
g71
NtRp1010
(dp1011
g74
(dp1012
sg83
g997
sg76
(lp1013
g69
(g70
g71
NtRp1014
(dp1015
g74
(dp1016
g82
I4
ssg83
g1010
sg76
(lp1017
S'/home/adrian/web2py'
p1018
asbasbasbag69
(g85
g71
NtRp1019
(dp1020
g74
(dp1021
sg83
g859
sg76
(lp1022
g69
(g90
g71
NtRp1023
(dp1024
g74
(dp1025
g94
g95
ssg83
g1019
sg76
(lp1026
S'http_accept'
p1027
asbag69
(g90
g71
NtRp1028
(dp1029
g74
(dp1030
g101
g102
ssg83
g1019
sg76
(lp1031
S':'
asbag69
(g90
g71
NtRp1032
(dp1033
g74
(dp1034
sg83
g1019
sg76
(lp1035
g69
(g70
g71
NtRp1036
(dp1037
g74
(dp1038
g82
I4
ssg83
g1032
sg76
(lp1039
S'text/html,application/xhtml+xml,application/xml;q=0.9,*/*;q=0.8'
p1040
asbasbasbag69
(g85
g71
NtRp1041
(dp1042
g74
(dp1043
sg83
g859
sg76
(lp1044
g69
(g90
g71
NtRp1045
(dp1046
g74
(dp1047
g94
g95
ssg83
g1041
sg76
(lp1048
S'http_accept_charset'
p1049
asbag69
(g90
g71
NtRp1050
(dp1051
g74
(dp1052
g101
g102
ssg83
g1041
sg76
(lp1053
S':'
asbag69
(g90
g71
NtRp1054
(dp1055
g74
(dp1056
sg83
g1041
sg76
(lp1057
g69
(g70
g71
NtRp1058
(dp1059
g74
(dp1060
g82
I4
ssg83
g1054
sg76
(lp1061
S'ISO-8859-1,utf-8;q=0.7,*;q=0.3'
p1062
asbasbasbag69
(g85
g71
NtRp1063
(dp1064
g74
(dp1065
sg83
g859
sg76
(lp1066
g69
(g90
g71
NtRp1067
(dp1068
g74
(dp1069
g94
g95
ssg83
g1063
sg76
(lp1070
S'http_accept_encoding'
p1071
asbag69
(g90
g71
NtRp1072
(dp1073
g74
(dp1074
g101
g102
ssg83
g1063
sg76
(lp1075
S':'
asbag69
(g90
g71
NtRp1076
(dp1077
g74
(dp1078
sg83
g1063
sg76
(lp1079
g69
(g70
g71
NtRp1080
(dp1081
g74
(dp1082
g82
I4
ssg83
g1076
sg76
(lp1083
S'gzip,deflate,sdch'
p1084
asbasbasbag69
(g85
g71
NtRp1085
(dp1086
g74
(dp1087
sg83
g859
sg76
(lp1088
g69
(g90
g71
NtRp1089
(dp1090
g74
(dp1091
g94
g95
ssg83
g1085
sg76
(lp1092
S'http_accept_language'
p1093
asbag69
(g90
g71
NtRp1094
(dp1095
g74
(dp1096
g101
g102
ssg83
g1085
sg76
(lp1097
S':'
asbag69
(g90
g71
NtRp1098
(dp1099
g74
(dp1100
sg83
g1085
sg76
(lp1101
g69
(g70
g71
NtRp1102
(dp1103
g74
(dp1104
g82
I4
ssg83
g1098
sg76
(lp1105
S'es-ES,es;q=0.8'
p1106
asbasbasbag69
(g85
g71
NtRp1107
(dp1108
g74
(dp1109
sg83
g859
sg76
(lp1110
g69
(g90
g71
NtRp1111
(dp1112
g74
(dp1113
g94
g95
ssg83
g1107
sg76
(lp1114
S'http_cache_control'
p1115
asbag69
(g90
g71
NtRp1116
(dp1117
g74
(dp1118
g101
g102
ssg83
g1107
sg76
(lp1119
S':'
asbag69
(g90
g71
NtRp1120
(dp1121
g74
(dp1122
sg83
g1107
sg76
(lp1123
g69
(g70
g71
NtRp1124
(dp1125
g74
(dp1126
g82
I4
ssg83
g1120
sg76
(lp1127
S'max-age=0'
p1128
asbasbasbag69
(g85
g71
NtRp1129
(dp1130
g74
(dp1131
sg83
g859
sg76
(lp1132
g69
(g90
g71
NtRp1133
(dp1134
g74
(dp1135
g94
g95
ssg83
g1129
sg76
(lp1136
S'http_connection'
p1137
asbag69
(g90
g71
NtRp1138
(dp1139
g74
(dp1140
g101
g102
ssg83
g1129
sg76
(lp1141
S':'
asbag69
(g90
g71
NtRp1142
(dp1143
g74
(dp1144
sg83
g1129
sg76
(lp1145
g69
(g70
g71
NtRp1146
(dp1147
g74
(dp1148
g82
I4
ssg83
g1142
sg76
(lp1149
S'keep-alive'
p1150
asbasbasbag69
(g85
g71
NtRp1151
(dp1152
g74
(dp1153
sg83
g859
sg76
(lp1154
g69
(g90
g71
NtRp1155
(dp1156
g74
(dp1157
g94
g95
ssg83
g1151
sg76
(lp1158
S'http_cookie'
p1159
asbag69
(g90
g71
NtRp1160
(dp1161
g74
(dp1162
g101
g102
ssg83
g1151
sg76
(lp1163
S':'
asbag69
(g90
g71
NtRp1164
(dp1165
g74
(dp1166
sg83
g1151
sg76
(lp1167
g69
(g70
g71
NtRp1168
(dp1169
g74
(dp1170
g82
I4
ssg83
g1164
sg76
(lp1171
S'session_id_welcome=127.0.0.1-f9c13e90-2013-4846-937c-8e6571bab711; session_id_cygnuscloud=127.0.0.1-fd6cd013-dbd8-4eaa-8a53-43ef9e3e87c7; session_id_admin=127.0.0.1-adbb0582-e862-4897-bba0-660c4b8f9166'
p1172
asbasbasbag69
(g85
g71
NtRp1173
(dp1174
g74
(dp1175
sg83
g859
sg76
(lp1176
g69
(g90
g71
NtRp1177
(dp1178
g74
(dp1179
g94
g95
ssg83
g1173
sg76
(lp1180
S'http_host'
p1181
asbag69
(g90
g71
NtRp1182
(dp1183
g74
(dp1184
g101
g102
ssg83
g1173
sg76
(lp1185
S':'
asbag69
(g90
g71
NtRp1186
(dp1187
g74
(dp1188
sg83
g1173
sg76
(lp1189
g69
(g70
g71
NtRp1190
(dp1191
g74
(dp1192
g82
I4
ssg83
g1186
sg76
(lp1193
S'127.0.0.1:8000'
p1194
asbasbasbag69
(g85
g71
NtRp1195
(dp1196
g74
(dp1197
sg83
g859
sg76
(lp1198
g69
(g90
g71
NtRp1199
(dp1200
g74
(dp1201
g94
g95
ssg83
g1195
sg76
(lp1202
S'http_user_agent'
p1203
asbag69
(g90
g71
NtRp1204
(dp1205
g74
(dp1206
g101
g102
ssg83
g1195
sg76
(lp1207
S':'
asbag69
(g90
g71
NtRp1208
(dp1209
g74
(dp1210
sg83
g1195
sg76
(lp1211
g69
(g70
g71
NtRp1212
(dp1213
g74
(dp1214
g82
I4
ssg83
g1208
sg76
(lp1215
S'Mozilla/5.0 (X11; Linux x86_64) AppleWebKit/537.11 (KHTML, like Gecko) Chrome/23.0.1271.64 Safari/537.11'
p1216
asbasbasbag69
(g85
g71
NtRp1217
(dp1218
g74
(dp1219
sg83
g859
sg76
(lp1220
g69
(g90
g71
NtRp1221
(dp1222
g74
(dp1223
g94
g95
ssg83
g1217
sg76
(lp1224
S'is_jython'
p1225
asbag69
(g90
g71
NtRp1226
(dp1227
g74
(dp1228
g101
g102
ssg83
g1217
sg76
(lp1229
S':'
asbag69
(g90
g71
NtRp1230
(dp1231
g74
(dp1232
sg83
g1217
sg76
(lp1233
g69
(g70
g71
NtRp1234
(dp1235
g74
(dp1236
g82
I4
ssg83
g1230
sg76
(lp1237
g112
asbasbasbag69
(g85
g71
NtRp1238
(dp1239
g74
(dp1240
sg83
g859
sg76
(lp1241
g69
(g90
g71
NtRp1242
(dp1243
g74
(dp1244
g94
g95
ssg83
g1238
sg76
(lp1245
S'is_pypy'
p1246
asbag69
(g90
g71
NtRp1247
(dp1248
g74
(dp1249
g101
g102
ssg83
g1238
sg76
(lp1250
S':'
asbag69
(g90
g71
NtRp1251
(dp1252
g74
(dp1253
sg83
g1238
sg76
(lp1254
g69
(g70
g71
NtRp1255
(dp1256
g74
(dp1257
g82
I4
ssg83
g1251
sg76
(lp1258
g112
asbasbasbag69
(g85
g71
NtRp1259
(dp1260
g74
(dp1261
sg83
g859
sg76
(lp1262
g69
(g90
g71
NtRp1263
(dp1264
g74
(dp1265
g94
g95
ssg83
g1259
sg76
(lp1266
S'local_hosts'
p1267
asbag69
(g90
g71
NtRp1268
(dp1269
g74
(dp1270
g101
g102
ssg83
g1259
sg76
(lp1271
S':'
asbag69
(g90
g71
NtRp1272
(dp1273
g74
(dp1274
sg83
g1259
sg76
(lp1275
g69
(g70
g71
NtRp1276
(dp1277
g74
(dp1278
g82
I4
ssg83
g1272
sg76
(lp1279
g69
(g78
g71
NtRp1280
(dp1281
g74
(dp1282
g82
I3
ssg83
Nsg76
(lp1283
g69
(g85
g71
NtRp1284
(dp1285
g74
(dp1286
sg83
g1280
sg76
(lp1287
g69
(g90
g71
NtRp1288
(dp1289
g74
(dp1290
sg83
g1284
sg76
(lp1291
g69
(g70
g71
NtRp1292
(dp1293
g74
(dp1294
g82
I3
ssg83
g1288
sg76
(lp1295
S'adri-EasyNote'
p1296
asbasbasbag69
(g85
g71
NtRp1297
(dp1298
g74
(dp1299
sg83
g1280
sg76
(lp1300
g69
(g90
g71
NtRp1301
(dp1302
g74
(dp1303
sg83
g1297
sg76
(lp1304
g69
(g70
g71
NtRp1305
(dp1306
g74
(dp1307
g82
I3
ssg83
g1301
sg76
(lp1308
S'::1'
p1309
asbasbasbag69
(g85
g71
NtRp1310
(dp1311
g74
(dp1312
sg83
g1280
sg76
(lp1313
g69
(g90
g71
NtRp1314
(dp1315
g74
(dp1316
sg83
g1310
sg76
(lp1317
g69
(g70
g71
NtRp1318
(dp1319
g74
(dp1320
g82
I3
ssg83
g1314
sg76
(lp1321
S'127.0.1.1'
p1322
asbasbasbag69
(g85
g71
NtRp1323
(dp1324
g74
(dp1325
sg83
g1280
sg76
(lp1326
g69
(g90
g71
NtRp1327
(dp1328
g74
(dp1329
sg83
g1323
sg76
(lp1330
g69
(g70
g71
NtRp1331
(dp1332
g74
(dp1333
g82
I3
ssg83
g1327
sg76
(lp1334
S'::ffff:127.0.0.1'
p1335
asbasbasbag69
(g85
g71
NtRp1336
(dp1337
g74
(dp1338
sg83
g1280
sg76
(lp1339
g69
(g90
g71
NtRp1340
(dp1341
g74
(dp1342
sg83
g1336
sg76
(lp1343
g69
(g70
g71
NtRp1344
(dp1345
g74
(dp1346
g82
I3
ssg83
g1340
sg76
(lp1347
S'127.0.0.1'
p1348
asbasbasbasbasbasbasbag69
(g85
g71
NtRp1349
(dp1350
g74
(dp1351
sg83
g859
sg76
(lp1352
g69
(g90
g71
NtRp1353
(dp1354
g74
(dp1355
g94
g95
ssg83
g1349
sg76
(lp1356
S'path_info'
p1357
asbag69
(g90
g71
NtRp1358
(dp1359
g74
(dp1360
g101
g102
ssg83
g1349
sg76
(lp1361
S':'
asbag69
(g90
g71
NtRp1362
(dp1363
g74
(dp1364
sg83
g1349
sg76
(lp1365
g69
(g70
g71
NtRp1366
(dp1367
g74
(dp1368
g82
I4
ssg83
g1362
sg76
(lp1369
S'/CygnusCloud/main/login'
p1370
asbasbasbag69
(g85
g71
NtRp1371
(dp1372
g74
(dp1373
sg83
g859
sg76
(lp1374
g69
(g90
g71
NtRp1375
(dp1376
g74
(dp1377
g94
g95
ssg83
g1371
sg76
(lp1378
S'query_string'
p1379
asbag69
(g90
g71
NtRp1380
(dp1381
g74
(dp1382
g101
g102
ssg83
g1371
sg76
(lp1383
S':'
asbag69
(g90
g71
NtRp1384
(dp1385
g74
(dp1386
sg83
g1371
sg76
(lp1387
g69
(g70
g71
NtRp1388
(dp1389
g74
(dp1390
g82
I4
ssg83
g1384
sg76
(lp1391
S''
asbasbasbag69
(g85
g71
NtRp1392
(dp1393
g74
(dp1394
sg83
g859
sg76
(lp1395
g69
(g90
g71
NtRp1396
(dp1397
g74
(dp1398
g94
g95
ssg83
g1392
sg76
(lp1399
S'remote_addr'
p1400
asbag69
(g90
g71
NtRp1401
(dp1402
g74
(dp1403
g101
g102
ssg83
g1392
sg76
(lp1404
S':'
asbag69
(g90
g71
NtRp1405
(dp1406
g74
(dp1407
sg83
g1392
sg76
(lp1408
g69
(g70
g71
NtRp1409
(dp1410
g74
(dp1411
g82
I4
ssg83
g1405
sg76
(lp1412
g224
asbasbasbag69
(g85
g71
NtRp1413
(dp1414
g74
(dp1415
sg83
g859
sg76
(lp1416
g69
(g90
g71
NtRp1417
(dp1418
g74
(dp1419
g94
g95
ssg83
g1413
sg76
(lp1420
S'remote_port'
p1421
asbag69
(g90
g71
NtRp1422
(dp1423
g74
(dp1424
g101
g102
ssg83
g1413
sg76
(lp1425
S':'
asbag69
(g90
g71
NtRp1426
(dp1427
g74
(dp1428
sg83
g1413
sg76
(lp1429
g69
(g70
g71
NtRp1430
(dp1431
g74
(dp1432
g82
I4
ssg83
g1426
sg76
(lp1433
S'52445'
p1434
asbasbasbag69
(g85
g71
NtRp1435
(dp1436
g74
(dp1437
sg83
g859
sg76
(lp1438
g69
(g90
g71
NtRp1439
(dp1440
g74
(dp1441
g94
g95
ssg83
g1435
sg76
(lp1442
S'request_method'
p1443
asbag69
(g90
g71
NtRp1444
(dp1445
g74
(dp1446
g101
g102
ssg83
g1435
sg76
(lp1447
S':'
asbag69
(g90
g71
NtRp1448
(dp1449
g74
(dp1450
sg83
g1435
sg76
(lp1451
g69
(g70
g71
NtRp1452
(dp1453
g74
(dp1454
g82
I4
ssg83
g1448
sg76
(lp1455
S'GET'
p1456
asbasbasbag69
(g85
g71
NtRp1457
(dp1458
g74
(dp1459
sg83
g859
sg76
(lp1460
g69
(g90
g71
NtRp1461
(dp1462
g74
(dp1463
g94
g95
ssg83
g1457
sg76
(lp1464
S'request_uri'
p1465
asbag69
(g90
g71
NtRp1466
(dp1467
g74
(dp1468
g101
g102
ssg83
g1457
sg76
(lp1469
S':'
asbag69
(g90
g71
NtRp1470
(dp1471
g74
(dp1472
sg83
g1457
sg76
(lp1473
g69
(g70
g71
NtRp1474
(dp1475
g74
(dp1476
g82
I4
ssg83
g1470
sg76
(lp1477
g1370
asbasbasbag69
(g85
g71
NtRp1478
(dp1479
g74
(dp1480
sg83
g859
sg76
(lp1481
g69
(g90
g71
NtRp1482
(dp1483
g74
(dp1484
g94
g95
ssg83
g1478
sg76
(lp1485
S'script_name'
p1486
asbag69
(g90
g71
NtRp1487
(dp1488
g74
(dp1489
g101
g102
ssg83
g1478
sg76
(lp1490
S':'
asbag69
(g90
g71
NtRp1491
(dp1492
g74
(dp1493
sg83
g1478
sg76
(lp1494
g69
(g70
g71
NtRp1495
(dp1496
g74
(dp1497
g82
I4
ssg83
g1491
sg76
(lp1498
S''
asbasbasbag69
(g85
g71
NtRp1499
(dp1500
g74
(dp1501
sg83
g859
sg76
(lp1502
g69
(g90
g71
NtRp1503
(dp1504
g74
(dp1505
g94
g95
ssg83
g1499
sg76
(lp1506
S'server_name'
p1507
asbag69
(g90
g71
NtRp1508
(dp1509
g74
(dp1510
g101
g102
ssg83
g1499
sg76
(lp1511
S':'
asbag69
(g90
g71
NtRp1512
(dp1513
g74
(dp1514
sg83
g1499
sg76
(lp1515
g69
(g70
g71
NtRp1516
(dp1517
g74
(dp1518
g82
I4
ssg83
g1512
sg76
(lp1519
S'adri-EasyNote'
p1520
asbasbasbag69
(g85
g71
NtRp1521
(dp1522
g74
(dp1523
sg83
g859
sg76
(lp1524
g69
(g90
g71
NtRp1525
(dp1526
g74
(dp1527
g94
g95
ssg83
g1521
sg76
(lp1528
S'server_port'
p1529
asbag69
(g90
g71
NtRp1530
(dp1531
g74
(dp1532
g101
g102
ssg83
g1521
sg76
(lp1533
S':'
asbag69
(g90
g71
NtRp1534
(dp1535
g74
(dp1536
sg83
g1521
sg76
(lp1537
g69
(g70
g71
NtRp1538
(dp1539
g74
(dp1540
g82
I4
ssg83
g1534
sg76
(lp1541
S'8000'
p1542
asbasbasbag69
(g85
g71
NtRp1543
(dp1544
g74
(dp1545
sg83
g859
sg76
(lp1546
g69
(g90
g71
NtRp1547
(dp1548
g74
(dp1549
g94
g95
ssg83
g1543
sg76
(lp1550
S'server_protocol'
p1551
asbag69
(g90
g71
NtRp1552
(dp1553
g74
(dp1554
g101
g102
ssg83
g1543
sg76
(lp1555
S':'
asbag69
(g90
g71
NtRp1556
(dp1557
g74
(dp1558
sg83
g1543
sg76
(lp1559
g69
(g70
g71
NtRp1560
(dp1561
g74
(dp1562
g82
I4
ssg83
g1556
sg76
(lp1563
S'HTTP/1.1'
p1564
asbasbasbag69
(g85
g71
NtRp1565
(dp1566
g74
(dp1567
sg83
g859
sg76
(lp1568
g69
(g90
g71
NtRp1569
(dp1570
g74
(dp1571
g94
g95
ssg83
g1565
sg76
(lp1572
S'server_software'
p1573
asbag69
(g90
g71
NtRp1574
(dp1575
g74
(dp1576
g101
g102
ssg83
g1565
sg76
(lp1577
S':'
asbag69
(g90
g71
NtRp1578
(dp1579
g74
(dp1580
sg83
g1565
sg76
(lp1581
g69
(g70
g71
NtRp1582
(dp1583
g74
(dp1584
g82
I4
ssg83
g1578
sg76
(lp1585
S'Rocket 1.2.6'
p1586
asbasbasbag69
(g85
g71
NtRp1587
(dp1588
g74
(dp1589
sg83
g859
sg76
(lp1590
g69
(g90
g71
NtRp1591
(dp1592
g74
(dp1593
g94
g95
ssg83
g1587
sg76
(lp1594
S'web2py_path'
p1595
asbag69
(g90
g71
NtRp1596
(dp1597
g74
(dp1598
g101
g102
ssg83
g1587
sg76
(lp1599
S':'
asbag69
(g90
g71
NtRp1600
(dp1601
g74
(dp1602
sg83
g1587
sg76
(lp1603
g69
(g70
g71
NtRp1604
(dp1605
g74
(dp1606
g82
I4
ssg83
g1600
sg76
(lp1607
g906
asbasbasbag69
(g85
g71
NtRp1608
(dp1609
g74
(dp1610
sg83
g859
sg76
(lp1611
g69
(g90
g71
NtRp1612
(dp1613
g74
(dp1614
g94
g95
ssg83
g1608
sg76
(lp1615
S'web2py_version'
p1616
asbag69
(g90
g71
NtRp1617
(dp1618
g74
(dp1619
g101
g102
ssg83
g1608
sg76
(lp1620
S':'
asbag69
(g90
g71
NtRp1621
(dp1622
g74
(dp1623
sg83
g1608
sg76
(lp1624
g69
(g70
g71
NtRp1625
(dp1626
g74
(dp1627
g82
I4
ssg83
g1621
sg76
(lp1628
g69
(g78
g71
NtRp1629
(dp1630
g74
(dp1631
g82
I3
ssg83
Nsg76
(lp1632
g69
(g85
g71
NtRp1633
(dp1634
g74
(dp1635
sg83
g1629
sg76
(lp1636
g69
(g90
g71
NtRp1637
(dp1638
g74
(dp1639
sg83
g1633
sg76
(lp1640
g69
(g70
g71
NtRp1641
(dp1642
g74
(dp1643
g82
I3
ssg83
g1637
sg76
(lp1644
S'2'
asbasbasbag69
(g85
g71
NtRp1645
(dp1646
g74
(dp1647
sg83
g1629
sg76
(lp1648
g69
(g90
g71
NtRp1649
(dp1650
g74
(dp1651
sg83
g1645
sg76
(lp1652
g69
(g70
g71
NtRp1653
(dp1654
g74
(dp1655
g82
I3
ssg83
g1649
sg76
(lp1656
S'3'
asbasbasbag69
(g85
g71
NtRp1657
(dp1658
g74
(dp1659
sg83
g1629
sg76
(lp1660
g69
(g90
g71
NtRp1661
(dp1662
g74
(dp1663
sg83
g1657
sg76
(lp1664
g69
(g70
g71
NtRp1665
(dp1666
g74
(dp1667
g82
I3
ssg83
g1661
sg76
(lp1668
S'2'
asbasbasbag69
(g85
g71
NtRp1669
(dp1670
g74
(dp1671
sg83
g1629
sg76
(lp1672
g69
(g90
g71
NtRp1673
(dp1674
g74
(dp1675
sg83
g1669
sg76
(lp1676
g69
(g70
g71
NtRp1677
(dp1678
g74
(dp1679
g82
I3
ssg83
g1673
sg76
(lp1680
S'datetime.datetime(2012, 12, 17, 15, 3, 30)'
p1681
asbasbasbag69
(g85
g71
NtRp1682
(dp1683
g74
(dp1684
sg83
g1629
sg76
(lp1685
g69
(g90
g71
NtRp1686
(dp1687
g74
(dp1688
sg83
g1682
sg76
(lp1689
g69
(g70
g71
NtRp1690
(dp1691
g74
(dp1692
g82
I3
ssg83
g1686
sg76
(lp1693
S'stable'
p1694
asbasbasbasbasbasbasbag69
(g85
g71
NtRp1695
(dp1696
g74
(dp1697
sg83
g859
sg76
(lp1698
g69
(g90
g71
NtRp1699
(dp1700
g74
(dp1701
g94
g95
ssg83
g1695
sg76
(lp1702
S'wsgi_errors'
p1703
asbag69
(g90
g71
NtRp1704
(dp1705
g74
(dp1706
g101
g102
ssg83
g1695
sg76
(lp1707
S':'
asbag69
(g90
g71
NtRp1708
(dp1709
g74
(dp1710
sg83
g1695
sg76
(lp1711
g69
(g70
g71
NtRp1712
(dp1713
g74
(dp1714
g82
I4
ssg83
g1708
sg76
(lp1715
S"<open file '<stderr>', mode 'w' at 0x7f4e02d4f270>"
p1716
asbasbasbag69
(g85
g71
NtRp1717
(dp1718
g74
(dp1719
sg83
g859
sg76
(lp1720
g69
(g90
g71
NtRp1721
(dp1722
g74
(dp1723
g94
g95
ssg83
g1717
sg76
(lp1724
S'wsgi_file_wrapper'
p1725
asbag69
(g90
g71
NtRp1726
(dp1727
g74
(dp1728
g101
g102
ssg83
g1717
sg76
(lp1729
S':'
asbag69
(g90
g71
NtRp1730
(dp1731
g74
(dp1732
sg83
g1717
sg76
(lp1733
g69
(g70
g71
NtRp1734
(dp1735
g74
(dp1736
g82
I4
ssg83
g1730
sg76
(lp1737
S'<class wsgiref.util.FileWrapper at 0x2ddddb8>'
p1738
asbasbasbag69
(g85
g71
NtRp1739
(dp1740
g74
(dp1741
sg83
g859
sg76
(lp1742
g69
(g90
g71
NtRp1743
(dp1744
g74
(dp1745
g94
g95
ssg83
g1739
sg76
(lp1746
S'wsgi_input'
p1747
asbag69
(g90
g71
NtRp1748
(dp1749
g74
(dp1750
g101
g102
ssg83
g1739
sg76
(lp1751
S':'
asbag69
(g90
g71
NtRp1752
(dp1753
g74
(dp1754
sg83
g1739
sg76
(lp1755
g69
(g70
g71
NtRp1756
(dp1757
g74
(dp1758
g82
I4
ssg83
g1752
sg76
(lp1759
S'<socket._fileobject object at 0x7f4dcc2f9e50>'
p1760
asbasbasbag69
(g85
g71
NtRp1761
(dp1762
g74
(dp1763
sg83
g859
sg76
(lp1764
g69
(g90
g71
NtRp1765
(dp1766
g74
(dp1767
g94
g95
ssg83
g1761
sg76
(lp1768
S'wsgi_multiprocess'
p1769
asbag69
(g90
g71
NtRp1770
(dp1771
g74
(dp1772
g101
g102
ssg83
g1761
sg76
(lp1773
S':'
asbag69
(g90
g71
NtRp1774
(dp1775
g74
(dp1776
sg83
g1761
sg76
(lp1777
g69
(g70
g71
NtRp1778
(dp1779
g74
(dp1780
g82
I4
ssg83
g1774
sg76
(lp1781
g112
asbasbasbag69
(g85
g71
NtRp1782
(dp1783
g74
(dp1784
sg83
g859
sg76
(lp1785
g69
(g90
g71
NtRp1786
(dp1787
g74
(dp1788
g94
g95
ssg83
g1782
sg76
(lp1789
S'wsgi_multithread'
p1790
asbag69
(g90
g71
NtRp1791
(dp1792
g74
(dp1793
g101
g102
ssg83
g1782
sg76
(lp1794
S':'
asbag69
(g90
g71
NtRp1795
(dp1796
g74
(dp1797
sg83
g1782
sg76
(lp1798
g69
(g70
g71
NtRp1799
(dp1800
g74
(dp1801
g82
I4
ssg83
g1795
sg76
(lp1802
S'True'
p1803
asbasbasbag69
(g85
g71
NtRp1804
(dp1805
g74
(dp1806
sg83
g859
sg76
(lp1807
g69
(g90
g71
NtRp1808
(dp1809
g74
(dp1810
g94
g95
ssg83
g1804
sg76
(lp1811
S'wsgi_run_once'
p1812
asbag69
(g90
g71
NtRp1813
(dp1814
g74
(dp1815
g101
g102
ssg83
g1804
sg76
(lp1816
S':'
asbag69
(g90
g71
NtRp1817
(dp1818
g74
(dp1819
sg83
g1804
sg76
(lp1820
g69
(g70
g71
NtRp1821
(dp1822
g74
(dp1823
g82
I4
ssg83
g1817
sg76
(lp1824
g112
asbasbasbag69
(g85
g71
NtRp1825
(dp1826
g74
(dp1827
sg83
g859
sg76
(lp1828
g69
(g90
g71
NtRp1829
(dp1830
g74
(dp1831
g94
g95
ssg83
g1825
sg76
(lp1832
S'wsgi_url_scheme'
p1833
asbag69
(g90
g71
NtRp1834
(dp1835
g74
(dp1836
g101
g102
ssg83
g1825
sg76
(lp1837
S':'
asbag69
(g90
g71
NtRp1838
(dp1839
g74
(dp1840
sg83
g1825
sg76
(lp1841
g69
(g70
g71
NtRp1842
(dp1843
g74
(dp1844
g82
I4
ssg83
g1838
sg76
(lp1845
S'http'
p1846
asbasbasbag69
(g85
g71
NtRp1847
(dp1848
g74
(dp1849
sg83
g859
sg76
(lp1850
g69
(g90
g71
NtRp1851
(dp1852
g74
(dp1853
g94
g95
ssg83
g1847
sg76
(lp1854
S'wsgi_version'
p1855
asbag69
(g90
g71
NtRp1856
(dp1857
g74
(dp1858
g101
g102
ssg83
g1847
sg76
(lp1859
S':'
asbag69
(g90
g71
NtRp1860
(dp1861
g74
(dp1862
sg83
g1847
sg76
(lp1863
g69
(g70
g71
NtRp1864
(dp1865
g74
(dp1866
g82
I4
ssg83
g1860
sg76
(lp1867
g69
(g78
g71
NtRp1868
(dp1869
g74
(dp1870
g82
I3
ssg83
Nsg76
(lp1871
g69
(g85
g71
NtRp1872
(dp1873
g74
(dp1874
sg83
g1868
sg76
(lp1875
g69
(g90
g71
NtRp1876
(dp1877
g74
(dp1878
sg83
g1872
sg76
(lp1879
g69
(g70
g71
NtRp1880
(dp1881
g74
(dp1882
g82
I3
ssg83
g1876
sg76
(lp1883
S'1'
asbasbasbag69
(g85
g71
NtRp1884
(dp1885
g74
(dp1886
sg83
g1868
sg76
(lp1887
g69
(g90
g71
NtRp1888
(dp1889
g74
(dp1890
sg83
g1884
sg76
(lp1891
g69
(g70
g71
NtRp1892
(dp1893
g74
(dp1894
g82
I3
ssg83
g1888
sg76
(lp1895
S'0'
asbasbasbasbasbasbasbasbasbasbasbag69
(g85
g71
NtRp1896
(dp1897
g74
(dp1898
sg83
g79
sg76
(lp1899
g69
(g90
g71
NtRp1900
(dp1901
g74
(dp1902
g94
g95
ssg83
g1896
sg76
(lp1903
S'extension'
p1904
asbag69
(g90
g71
NtRp1905
(dp1906
g74
(dp1907
g101
g102
ssg83
g1896
sg76
(lp1908
S':'
asbag69
(g90
g71
NtRp1909
(dp1910
g74
(dp1911
sg83
g1896
sg76
(lp1912
g69
(g70
g71
NtRp1913
(dp1914
g74
(dp1915
g82
I5
ssg83
g1909
sg76
(lp1916
S'html'
p1917
asbasbasbag69
(g85
g71
NtRp1918
(dp1919
g74
(dp1920
sg83
g79
sg76
(lp1921
g69
(g90
g71
NtRp1922
(dp1923
g74
(dp1924
g94
g95
ssg83
g1918
sg76
(lp1925
S'folder'
p1926
asbag69
(g90
g71
NtRp1927
(dp1928
g74
(dp1929
g101
g102
ssg83
g1918
sg76
(lp1930
S':'
asbag69
(g90
g71
NtRp1931
(dp1932
g74
(dp1933
sg83
g1918
sg76
(lp1934
g69
(g70
g71
NtRp1935
(dp1936
g74
(dp1937
g82
I5
ssg83
g1931
sg76
(lp1938
S'/home/adrian/web2py/applications/CygnusCloud/'
p1939
asbasbasbag69
(g85
g71
NtRp1940
(dp1941
g74
(dp1942
sg83
g79
sg76
(lp1943
g69
(g90
g71
NtRp1944
(dp1945
g74
(dp1946
g94
g95
ssg83
g1940
sg76
(lp1947
S'function'
p1948
asbag69
(g90
g71
NtRp1949
(dp1950
g74
(dp1951
g101
g102
ssg83
g1940
sg76
(lp1952
S':'
asbag69
(g90
g71
NtRp1953
(dp1954
g74
(dp1955
sg83
g1940
sg76
(lp1956
g69
(g70
g71
NtRp1957
(dp1958
g74
(dp1959
g82
I5
ssg83
g1953
sg76
(lp1960
S'login'
p1961
asbasbasbag69
(g85
g71
NtRp1962
(dp1963
g74
(dp1964
sg83
g79
sg76
(lp1965
g69
(g90
g71
NtRp1966
(dp1967
g74
(dp1968
g94
g95
ssg83
g1962
sg76
(lp1969
S'get_vars'
p1970
asbag69
(g90
g71
NtRp1971
(dp1972
g74
(dp1973
g101
g102
ssg83
g1962
sg76
(lp1974
S':'
asbag69
(g90
g71
NtRp1975
(dp1976
g74
(dp1977
sg83
g1962
sg76
(lp1978
g69
(g70
g71
NtRp1979
(dp1980
g74
(dp1981
g82
I5
ssg83
g1975
sg76
(lp1982
g69
(g78
g71
NtRp1983
(dp1984
g74
(dp1985
g82
I4
ssg83
Nsg76
(lp1986
sbasbasbasbag69
(g85
g71
NtRp1987
(dp1988
g74
(dp1989
sg83
g79
sg76
(lp1990
g69
(g90
g71
NtRp1991
(dp1992
g74
(dp1993
g94
g95
ssg83
g1987
sg76
(lp1994
S'global_settings'
p1995
asbag69
(g90
g71
NtRp1996
(dp1997
g74
(dp1998
g101
g102
ssg83
g1987
sg76
(lp1999
S':'
asbag69
(g90
g71
NtRp2000
(dp2001
g74
(dp2002
sg83
g1987
sg76
(lp2003
g69
(g70
g71
NtRp2004
(dp2005
g74
(dp2006
g82
I5
ssg83
g2000
sg76
(lp2007
g69
(g78
g71
NtRp2008
(dp2009
g74
(dp2010
g82
I4
ssg83
Nsg76
(lp2011
g69
(g85
g71
NtRp2012
(dp2013
g74
(dp2014
sg83
g2008
sg76
(lp2015
g69
(g90
g71
NtRp2016
(dp2017
g74
(dp2018
g94
g95
ssg83
g2012
sg76
(lp2019
g871
asbag69
(g90
g71
NtRp2020
(dp2021
g74
(dp2022
g101
g102
ssg83
g2012
sg76
(lp2023
S':'
asbag69
(g90
g71
NtRp2024
(dp2025
g74
(dp2026
sg83
g2012
sg76
(lp2027
g69
(g70
g71
NtRp2028
(dp2029
g74
(dp2030
g82
I4
ssg83
g2024
sg76
(lp2031
S"set(['/home/adrian/web2py/applications/admin/', '/home/adrian/web2py/applications/welcome/', '/home/adrian/web2py/applications/CygnusCloud/'])"
p2032
asbasbasbag69
(g85
g71
NtRp2033
(dp2034
g74
(dp2035
sg83
g2008
sg76
(lp2036
g69
(g90
g71
NtRp2037
(dp2038
g74
(dp2039
g94
g95
ssg83
g2033
sg76
(lp2040
g893
asbag69
(g90
g71
NtRp2041
(dp2042
g74
(dp2043
g101
g102
ssg83
g2033
sg76
(lp2044
S':'
asbag69
(g90
g71
NtRp2045
(dp2046
g74
(dp2047
sg83
g2033
sg76
(lp2048
g69
(g70
g71
NtRp2049
(dp2050
g74
(dp2051
g82
I4
ssg83
g2045
sg76
(lp2052
g906
asbasbasbag69
(g85
g71
NtRp2053
(dp2054
g74
(dp2055
sg83
g2008
sg76
(lp2056
g69
(g90
g71
NtRp2057
(dp2058
g74
(dp2059
g94
g95
ssg83
g2053
sg76
(lp2060
g915
asbag69
(g90
g71
NtRp2061
(dp2062
g74
(dp2063
g101
g102
ssg83
g2053
sg76
(lp2064
S':'
asbag69
(g90
g71
NtRp2065
(dp2066
g74
(dp2067
sg83
g2053
sg76
(lp2068
g69
(g70
g71
NtRp2069
(dp2070
g74
(dp2071
g82
I4
ssg83
g2065
sg76
(lp2072
g69
(g78
g71
NtRp2073
(dp2074
g74
(dp2075
g82
I3
ssg83
Nsg76
(lp2076
sbasbasbasbag69
(g85
g71
NtRp2077
(dp2078
g74
(dp2079
sg83
g2008
sg76
(lp2080
g69
(g90
g71
NtRp2081
(dp2082
g74
(dp2083
g94
g95
ssg83
g2077
sg76
(lp2084
g940
asbag69
(g90
g71
NtRp2085
(dp2086
g74
(dp2087
g101
g102
ssg83
g2077
sg76
(lp2088
S':'
asbag69
(g90
g71
NtRp2089
(dp2090
g74
(dp2091
sg83
g2077
sg76
(lp2092
g69
(g70
g71
NtRp2093
(dp2094
g74
(dp2095
g82
I4
ssg83
g2089
sg76
(lp2096
S"<Values at 0x2ea9bd8: {'verbose': False, 'ip': '127.0.0.1', 'with_scheduler': False, 'ips': [], 'shutdown_timeout': 5, 'taskbar': False, 'port': 8000, 'maxthreads': None, 'softcron': False, 'server_name': 'adri-EasyNote', 'bpython': False, 'nogui': False, 'pid_filename': 'httpserver.pid', 'extcron': False, 'runcron': False, 'run_system_tests': False, 'test': None, 'folder': '/home/adrian/web2py', 'config': '', 'minthreads': None, 'winservice': '', 'shell': None, 'run': '', 'log_filename': 'httpserver.log', 'debuglevel': 30, 'args': [''], 'socket_timeout': 5, 'ssl_ca_certificate': None, 'scheduler': None, 'profiler_filename': None, 'ssl_private_key': '', 'scheduler_groups': None, 'password': 'cygnuscloud2012', 'request_queue_size': 5, 'ssl_certificate': '', 'cronjob': False, 'numthreads': None, 'quiet': False, 'interfaces': None, 'import_models': False, 'timeout': 10, 'plain': False, 'nobanner': False}>"
p2097
asbasbasbag69
(g85
g71
NtRp2098
(dp2099
g74
(dp2100
sg83
g2008
sg76
(lp2101
g69
(g90
g71
NtRp2102
(dp2103
g74
(dp2104
g94
g95
ssg83
g2098
sg76
(lp2105
g962
asbag69
(g90
g71
NtRp2106
(dp2107
g74
(dp2108
g101
g102
ssg83
g2098
sg76
(lp2109
S':'
asbag69
(g90
g71
NtRp2110
(dp2111
g74
(dp2112
sg83
g2098
sg76
(lp2113
g69
(g70
g71
NtRp2114
(dp2115
g74
(dp2116
g82
I4
ssg83
g2110
sg76
(lp2117
S'set([])'
p2118
asbasbasbag69
(g85
g71
NtRp2119
(dp2120
g74
(dp2121
sg83
g2008
sg76
(lp2122
g69
(g90
g71
NtRp2123
(dp2124
g74
(dp2125
g94
g95
ssg83
g2119
sg76
(lp2126
g984
asbag69
(g90
g71
NtRp2127
(dp2128
g74
(dp2129
g101
g102
ssg83
g2119
sg76
(lp2130
S':'
asbag69
(g90
g71
NtRp2131
(dp2132
g74
(dp2133
sg83
g2119
sg76
(lp2134
g69
(g70
g71
NtRp2135
(dp2136
g74
(dp2137
g82
I4
ssg83
g2131
sg76
(lp2138
g112
asbasbasbag69
(g85
g71
NtRp2139
(dp2140
g74
(dp2141
sg83
g2008
sg76
(lp2142
g69
(g90
g71
NtRp2143
(dp2144
g74
(dp2145
g94
g95
ssg83
g2139
sg76
(lp2146
g1005
asbag69
(g90
g71
NtRp2147
(dp2148
g74
(dp2149
g101
g102
ssg83
g2139
sg76
(lp2150
S':'
asbag69
(g90
g71
NtRp2151
(dp2152
g74
(dp2153
sg83
g2139
sg76
(lp2154
g69
(g70
g71
NtRp2155
(dp2156
g74
(dp2157
g82
I4
ssg83
g2151
sg76
(lp2158
g1018
asbasbasbag69
(g85
g71
NtRp2159
(dp2160
g74
(dp2161
sg83
g2008
sg76
(lp2162
g69
(g90
g71
NtRp2163
(dp2164
g74
(dp2165
g94
g95
ssg83
g2159
sg76
(lp2166
g1225
asbag69
(g90
g71
NtRp2167
(dp2168
g74
(dp2169
g101
g102
ssg83
g2159
sg76
(lp2170
S':'
asbag69
(g90
g71
NtRp2171
(dp2172
g74
(dp2173
sg83
g2159
sg76
(lp2174
g69
(g70
g71
NtRp2175
(dp2176
g74
(dp2177
g82
I4
ssg83
g2171
sg76
(lp2178
g112
asbasbasbag69
(g85
g71
NtRp2179
(dp2180
g74
(dp2181
sg83
g2008
sg76
(lp2182
g69
(g90
g71
NtRp2183
(dp2184
g74
(dp2185
g94
g95
ssg83
g2179
sg76
(lp2186
g1246
asbag69
(g90
g71
NtRp2187
(dp2188
g74
(dp2189
g101
g102
ssg83
g2179
sg76
(lp2190
S':'
asbag69
(g90
g71
NtRp2191
(dp2192
g74
(dp2193
sg83
g2179
sg76
(lp2194
g69
(g70
g71
NtRp2195
(dp2196
g74
(dp2197
g82
I4
ssg83
g2191
sg76
(lp2198
g112
asbasbasbag69
(g85
g71
NtRp2199
(dp2200
g74
(dp2201
sg83
g2008
sg76
(lp2202
g69
(g90
g71
NtRp2203
(dp2204
g74
(dp2205
g94
g95
ssg83
g2199
sg76
(lp2206
g1267
asbag69
(g90
g71
NtRp2207
(dp2208
g74
(dp2209
g101
g102
ssg83
g2199
sg76
(lp2210
S':'
asbag69
(g90
g71
NtRp2211
(dp2212
g74
(dp2213
sg83
g2199
sg76
(lp2214
g69
(g70
g71
NtRp2215
(dp2216
g74
(dp2217
g82
I4
ssg83
g2211
sg76
(lp2218
g69
(g78
g71
NtRp2219
(dp2220
g74
(dp2221
g82
I3
ssg83
Nsg76
(lp2222
g69
(g85
g71
NtRp2223
(dp2224
g74
(dp2225
sg83
g2219
sg76
(lp2226
g69
(g90
g71
NtRp2227
(dp2228
g74
(dp2229
sg83
g2223
sg76
(lp2230
g69
(g70
g71
NtRp2231
(dp2232
g74
(dp2233
g82
I3
ssg83
g2227
sg76
(lp2234
g1296
asbasbasbag69
(g85
g71
NtRp2235
(dp2236
g74
(dp2237
sg83
g2219
sg76
(lp2238
g69
(g90
g71
NtRp2239
(dp2240
g74
(dp2241
sg83
g2235
sg76
(lp2242
g69
(g70
g71
NtRp2243
(dp2244
g74
(dp2245
g82
I3
ssg83
g2239
sg76
(lp2246
g1309
asbasbasbag69
(g85
g71
NtRp2247
(dp2248
g74
(dp2249
sg83
g2219
sg76
(lp2250
g69
(g90
g71
NtRp2251
(dp2252
g74
(dp2253
sg83
g2247
sg76
(lp2254
g69
(g70
g71
NtRp2255
(dp2256
g74
(dp2257
g82
I3
ssg83
g2251
sg76
(lp2258
g1322
asbasbasbag69
(g85
g71
NtRp2259
(dp2260
g74
(dp2261
sg83
g2219
sg76
(lp2262
g69
(g90
g71
NtRp2263
(dp2264
g74
(dp2265
sg83
g2259
sg76
(lp2266
g69
(g70
g71
NtRp2267
(dp2268
g74
(dp2269
g82
I3
ssg83
g2263
sg76
(lp2270
g1335
asbasbasbag69
(g85
g71
NtRp2271
(dp2272
g74
(dp2273
sg83
g2219
sg76
(lp2274
g69
(g90
g71
NtRp2275
(dp2276
g74
(dp2277
sg83
g2271
sg76
(lp2278
g69
(g70
g71
NtRp2279
(dp2280
g74
(dp2281
g82
I3
ssg83
g2275
sg76
(lp2282
g1348
asbasbasbasbasbasbasbag69
(g85
g71
NtRp2283
(dp2284
g74
(dp2285
sg83
g2008
sg76
(lp2286
g69
(g90
g71
NtRp2287
(dp2288
g74
(dp2289
g94
g95
ssg83
g2283
sg76
(lp2290
g1616
asbag69
(g90
g71
NtRp2291
(dp2292
g74
(dp2293
g101
g102
ssg83
g2283
sg76
(lp2294
S':'
asbag69
(g90
g71
NtRp2295
(dp2296
g74
(dp2297
sg83
g2283
sg76
(lp2298
g69
(g70
g71
NtRp2299
(dp2300
g74
(dp2301
g82
I4
ssg83
g2295
sg76
(lp2302
g69
(g78
g71
NtRp2303
(dp2304
g74
(dp2305
g82
I3
ssg83
Nsg76
(lp2306
g69
(g85
g71
NtRp2307
(dp2308
g74
(dp2309
sg83
g2303
sg76
(lp2310
g69
(g90
g71
NtRp2311
(dp2312
g74
(dp2313
sg83
g2307
sg76
(lp2314
g69
(g70
g71
NtRp2315
(dp2316
g74
(dp2317
g82
I3
ssg83
g2311
sg76
(lp2318
S'2'
asbasbasbag69
(g85
g71
NtRp2319
(dp2320
g74
(dp2321
sg83
g2303
sg76
(lp2322
g69
(g90
g71
NtRp2323
(dp2324
g74
(dp2325
sg83
g2319
sg76
(lp2326
g69
(g70
g71
NtRp2327
(dp2328
g74
(dp2329
g82
I3
ssg83
g2323
sg76
(lp2330
S'3'
asbasbasbag69
(g85
g71
NtRp2331
(dp2332
g74
(dp2333
sg83
g2303
sg76
(lp2334
g69
(g90
g71
NtRp2335
(dp2336
g74
(dp2337
sg83
g2331
sg76
(lp2338
g69
(g70
g71
NtRp2339
(dp2340
g74
(dp2341
g82
I3
ssg83
g2335
sg76
(lp2342
S'2'
asbasbasbag69
(g85
g71
NtRp2343
(dp2344
g74
(dp2345
sg83
g2303
sg76
(lp2346
g69
(g90
g71
NtRp2347
(dp2348
g74
(dp2349
sg83
g2343
sg76
(lp2350
g69
(g70
g71
NtRp2351
(dp2352
g74
(dp2353
g82
I3
ssg83
g2347
sg76
(lp2354
S'datetime.datetime(2012, 12, 17, 15, 3, 30)'
p2355
asbasbasbag69
(g85
g71
NtRp2356
(dp2357
g74
(dp2358
sg83
g2303
sg76
(lp2359
g69
(g90
g71
NtRp2360
(dp2361
g74
(dp2362
sg83
g2356
sg76
(lp2363
g69
(g70
g71
NtRp2364
(dp2365
g74
(dp2366
g82
I3
ssg83
g2360
sg76
(lp2367
g1694
asbasbasbasbasbasbasbasbasbasbasbag69
(g85
g71
NtRp2368
(dp2369
g74
(dp2370
sg83
g79
sg76
(lp2371
g69
(g90
g71
NtRp2372
(dp2373
g74
(dp2374
g94
g95
ssg83
g2368
sg76
(lp2375
S'is_https'
p2376
asbag69
(g90
g71
NtRp2377
(dp2378
g74
(dp2379
g101
g102
ssg83
g2368
sg76
(lp2380
S':'
asbag69
(g90
g71
NtRp2381
(dp2382
g74
(dp2383
sg83
g2368
sg76
(lp2384
g69
(g70
g71
NtRp2385
(dp2386
g74
(dp2387
g82
I5
ssg83
g2381
sg76
(lp2388
g112
asbasbasbag69
(g85
g71
NtRp2389
(dp2390
g74
(dp2391
sg83
g79
sg76
(lp2392
g69
(g90
g71
NtRp2393
(dp2394
g74
(dp2395
g94
g95
ssg83
g2389
sg76
(lp2396
S'is_local'
p2397
asbag69
(g90
g71
NtRp2398
(dp2399
g74
(dp2400
g101
g102
ssg83
g2389
sg76
(lp2401
S':'
asbag69
(g90
g71
NtRp2402
(dp2403
g74
(dp2404
sg83
g2389
sg76
(lp2405
g69
(g70
g71
NtRp2406
(dp2407
g74
(dp2408
g82
I5
ssg83
g2402
sg76
(lp2409
g1803
asbasbasbag69
(g85
g71
NtRp2410
(dp2411
g74
(dp2412
sg83
g79
sg76
(lp2413
g69
(g90
g71
NtRp2414
(dp2415
g74
(dp2416
g94
g95
ssg83
g2410
sg76
(lp2417
S'is_restful'
p2418
asbag69
(g90
g71
NtRp2419
(dp2420
g74
(dp2421
g101
g102
ssg83
g2410
sg76
(lp2422
S':'
asbag69
(g90
g71
NtRp2423
(dp2424
g74
(dp2425
sg83
g2410
sg76
(lp2426
g69
(g70
g71
NtRp2427
(dp2428
g74
(dp2429
g82
I5
ssg83
g2423
sg76
(lp2430
g112
asbasbasbag69
(g85
g71
NtRp2431
(dp2432
g74
(dp2433
sg83
g79
sg76
(lp2434
g69
(g90
g71
NtRp2435
(dp2436
g74
(dp2437
g94
g95
ssg83
g2431
sg76
(lp2438
S'now'
p2439
asbag69
(g90
g71
NtRp2440
(dp2441
g74
(dp2442
g101
g102
ssg83
g2431
sg76
(lp2443
S':'
asbag69
(g90
g71
NtRp2444
(dp2445
g74
(dp2446
sg83
g2431
sg76
(lp2447
g69
(g70
g71
NtRp2448
(dp2449
g74
(dp2450
g82
I5
ssg83
g2444
sg76
(lp2451
S'datetime.datetime(2013, 2, 4, 13, 6, 14, 450108)'
p2452
asbasbasbag69
(g85
g71
NtRp2453
(dp2454
g74
(dp2455
sg83
g79
sg76
(lp2456
g69
(g90
g71
NtRp2457
(dp2458
g74
(dp2459
g94
g95
ssg83
g2453
sg76
(lp2460
S'post_vars'
p2461
asbag69
(g90
g71
NtRp2462
(dp2463
g74
(dp2464
g101
g102
ssg83
g2453
sg76
(lp2465
S':'
asbag69
(g90
g71
NtRp2466
(dp2467
g74
(dp2468
sg83
g2453
sg76
(lp2469
g69
(g70
g71
NtRp2470
(dp2471
g74
(dp2472
g82
I5
ssg83
g2466
sg76
(lp2473
g69
(g78
g71
NtRp2474
(dp2475
g74
(dp2476
g82
I4
ssg83
Nsg76
(lp2477
sbasbasbasbag69
(g85
g71
NtRp2478
(dp2479
g74
(dp2480
sg83
g79
sg76
(lp2481
g69
(g90
g71
NtRp2482
(dp2483
g74
(dp2484
g94
g95
ssg83
g2478
sg76
(lp2485
S'raw_args'
p2486
asbag69
(g90
g71
NtRp2487
(dp2488
g74
(dp2489
g101
g102
ssg83
g2478
sg76
(lp2490
S':'
asbag69
(g90
g71
NtRp2491
(dp2492
g74
(dp2493
sg83
g2478
sg76
(lp2494
g69
(g70
g71
NtRp2495
(dp2496
g74
(dp2497
g82
I5
ssg83
g2491
sg76
(lp2498
S''
asbasbasbag69
(g85
g71
NtRp2499
(dp2500
g74
(dp2501
sg83
g79
sg76
(lp2502
g69
(g90
g71
NtRp2503
(dp2504
g74
(dp2505
g94
g95
ssg83
g2499
sg76
(lp2506
S'raw_extension'
p2507
asbag69
(g90
g71
NtRp2508
(dp2509
g74
(dp2510
g101
g102
ssg83
g2499
sg76
(lp2511
S':'
asbag69
(g90
g71
NtRp2512
(dp2513
g74
(dp2514
sg83
g2499
sg76
(lp2515
g69
(g70
g71
NtRp2516
(dp2517
g74
(dp2518
g82
I5
ssg83
g2512
sg76
(lp2519
S'None'
p2520
asbasbasbag69
(g85
g71
NtRp2521
(dp2522
g74
(dp2523
sg83
g79
sg76
(lp2524
g69
(g90
g71
NtRp2525
(dp2526
g74
(dp2527
g94
g95
ssg83
g2521
sg76
(lp2528
S'url'
p2529
asbag69
(g90
g71
NtRp2530
(dp2531
g74
(dp2532
g101
g102
ssg83
g2521
sg76
(lp2533
S':'
asbag69
(g90
g71
NtRp2534
(dp2535
g74
(dp2536
sg83
g2521
sg76
(lp2537
g69
(g70
g71
NtRp2538
(dp2539
g74
(dp2540
g82
I5
ssg83
g2534
sg76
(lp2541
g1370
asbasbasbag69
(g85
g71
NtRp2542
(dp2543
g74
(dp2544
sg83
g79
sg76
(lp2545
g69
(g90
g71
NtRp2546
(dp2547
g74
(dp2548
g94
g95
ssg83
g2542
sg76
(lp2549
S'utcnow'
p2550
asbag69
(g90
g71
NtRp2551
(dp2552
g74
(dp2553
g101
g102
ssg83
g2542
sg76
(lp2554
S':'
asbag69
(g90
g71
NtRp2555
(dp2556
g74
(dp2557
sg83
g2542
sg76
(lp2558
g69
(g70
g71
NtRp2559
(dp2560
g74
(dp2561
g82
I5
ssg83
g2555
sg76
(lp2562
S'datetime.datetime(2013, 2, 4, 12, 6, 14, 450142)'
p2563
asbasbasbag69
(g85
g71
NtRp2564
(dp2565
g74
(dp2566
sg83
g79
sg76
(lp2567
g69
(g90
g71
NtRp2568
(dp2569
g74
(dp2570
g94
g95
ssg83
g2564
sg76
(lp2571
S'uuid'
p2572
asbag69
(g90
g71
NtRp2573
(dp2574
g74
(dp2575
g101
g102
ssg83
g2564
sg76
(lp2576
S':'
asbag69
(g90
g71
NtRp2577
(dp2578
g74
(dp2579
sg83
g2564
sg76
(lp2580
g69
(g70
g71
NtRp2581
(dp2582
g74
(dp2583
g82
I5
ssg83
g2577
sg76
(lp2584
S'CygnusCloud/127.0.0.1.2013-02-04.13-06-14.e0b45d88-1eec-4103-a22e-f99dd647419f'
p2585
asbasbasbag69
(g85
g71
NtRp2586
(dp2587
g74
(dp2588
sg83
g79
sg76
(lp2589
g69
(g90
g71
NtRp2590
(dp2591
g74
(dp2592
g94
g95
ssg83
g2586
sg76
(lp2593
S'vars'
p2594
asbag69
(g90
g71
NtRp2595
(dp2596
g74
(dp2597
g101
g102
ssg83
g2586
sg76
(lp2598
S':'
asbag69
(g90
g71
NtRp2599
(dp2600
g74
(dp2601
sg83
g2586
sg76
(lp2602
g69
(g70
g71
NtRp2603
(dp2604
g74
(dp2605
g82
I5
ssg83
g2599
sg76
(lp2606
g69
(g78
g71
NtRp2607
(dp2608
g74
(dp2609
g82
I4
ssg83
Nsg76
(lp2610
sbasbasbasbag69
(g85
g71
NtRp2611
(dp2612
g74
(dp2613
sg83
g79
sg76
(lp2614
g69
(g90
g71
NtRp2615
(dp2616
g74
(dp2617
g94
g95
ssg83
g2611
sg76
(lp2618
S'wsgi'
p2619
asbag69
(g90
g71
NtRp2620
(dp2621
g74
(dp2622
g101
g102
ssg83
g2611
sg76
(lp2623
S':'
asbag69
(g90
g71
NtRp2624
(dp2625
g74
(dp2626
sg83
g2611
sg76
(lp2627
g69
(g70
g71
NtRp2628
(dp2629
g74
(dp2630
g82
I5
ssg83
g2624
sg76
(lp2631
g69
(g78
g71
NtRp2632
(dp2633
g74
(dp2634
g82
I4
ssg83
Nsg76
(lp2635
g69
(g85
g71
NtRp2636
(dp2637
g74
(dp2638
sg83
g2632
sg76
(lp2639
g69
(g90
g71
NtRp2640
(dp2641
g74
(dp2642
g94
g95
ssg83
g2636
sg76
(lp2643
S'environ'
p2644
asbag69
(g90
g71
NtRp2645
(dp2646
g74
(dp2647
g101
g102
ssg83
g2636
sg76
(lp2648
S':'
asbag69
(g90
g71
NtRp2649
(dp2650
g74
(dp2651
sg83
g2636
sg76
(lp2652
g69
(g70
g71
NtRp2653
(dp2654
g74
(dp2655
g82
I4
ssg83
g2649
sg76
(lp2656
g69
(g78
g71
NtRp2657
(dp2658
g74
(dp2659
g82
I3
ssg83
Nsg76
(lp2660
g69
(g85
g71
NtRp2661
(dp2662
g74
(dp2663
sg83
g2657
sg76
(lp2664
g69
(g90
g71
NtRp2665
(dp2666
g74
(dp2667
g94
g95
ssg83
g2661
sg76
(lp2668
S'HTTP_ACCEPT'
p2669
asbag69
(g90
g71
NtRp2670
(dp2671
g74
(dp2672
g101
g102
ssg83
g2661
sg76
(lp2673
S':'
asbag69
(g90
g71
NtRp2674
(dp2675
g74
(dp2676
sg83
g2661
sg76
(lp2677
g69
(g70
g71
NtRp2678
(dp2679
g74
(dp2680
g82
I3
ssg83
g2674
sg76
(lp2681
g1040
asbasbasbag69
(g85
g71
NtRp2682
(dp2683
g74
(dp2684
sg83
g2657
sg76
(lp2685
g69
(g90
g71
NtRp2686
(dp2687
g74
(dp2688
g94
g95
ssg83
g2682
sg76
(lp2689
S'HTTP_ACCEPT_CHARSET'
p2690
asbag69
(g90
g71
NtRp2691
(dp2692
g74
(dp2693
g101
g102
ssg83
g2682
sg76
(lp2694
S':'
asbag69
(g90
g71
NtRp2695
(dp2696
g74
(dp2697
sg83
g2682
sg76
(lp2698
g69
(g70
g71
NtRp2699
(dp2700
g74
(dp2701
g82
I3
ssg83
g2695
sg76
(lp2702
g1062
asbasbasbag69
(g85
g71
NtRp2703
(dp2704
g74
(dp2705
sg83
g2657
sg76
(lp2706
g69
(g90
g71
NtRp2707
(dp2708
g74
(dp2709
g94
g95
ssg83
g2703
sg76
(lp2710
S'HTTP_ACCEPT_ENCODING'
p2711
asbag69
(g90
g71
NtRp2712
(dp2713
g74
(dp2714
g101
g102
ssg83
g2703
sg76
(lp2715
S':'
asbag69
(g90
g71
NtRp2716
(dp2717
g74
(dp2718
sg83
g2703
sg76
(lp2719
g69
(g70
g71
NtRp2720
(dp2721
g74
(dp2722
g82
I3
ssg83
g2716
sg76
(lp2723
g1084
asbasbasbag69
(g85
g71
NtRp2724
(dp2725
g74
(dp2726
sg83
g2657
sg76
(lp2727
g69
(g90
g71
NtRp2728
(dp2729
g74
(dp2730
g94
g95
ssg83
g2724
sg76
(lp2731
S'HTTP_ACCEPT_LANGUAGE'
p2732
asbag69
(g90
g71
NtRp2733
(dp2734
g74
(dp2735
g101
g102
ssg83
g2724
sg76
(lp2736
S':'
asbag69
(g90
g71
NtRp2737
(dp2738
g74
(dp2739
sg83
g2724
sg76
(lp2740
g69
(g70
g71
NtRp2741
(dp2742
g74
(dp2743
g82
I3
ssg83
g2737
sg76
(lp2744
g1106
asbasbasbag69
(g85
g71
NtRp2745
(dp2746
g74
(dp2747
sg83
g2657
sg76
(lp2748
g69
(g90
g71
NtRp2749
(dp2750
g74
(dp2751
g94
g95
ssg83
g2745
sg76
(lp2752
S'HTTP_CACHE_CONTROL'
p2753
asbag69
(g90
g71
NtRp2754
(dp2755
g74
(dp2756
g101
g102
ssg83
g2745
sg76
(lp2757
S':'
asbag69
(g90
g71
NtRp2758
(dp2759
g74
(dp2760
sg83
g2745
sg76
(lp2761
g69
(g70
g71
NtRp2762
(dp2763
g74
(dp2764
g82
I3
ssg83
g2758
sg76
(lp2765
g1128
asbasbasbag69
(g85
g71
NtRp2766
(dp2767
g74
(dp2768
sg83
g2657
sg76
(lp2769
g69
(g90
g71
NtRp2770
(dp2771
g74
(dp2772
g94
g95
ssg83
g2766
sg76
(lp2773
S'HTTP_CONNECTION'
p2774
asbag69
(g90
g71
NtRp2775
(dp2776
g74
(dp2777
g101
g102
ssg83
g2766
sg76
(lp2778
S':'
asbag69
(g90
g71
NtRp2779
(dp2780
g74
(dp2781
sg83
g2766
sg76
(lp2782
g69
(g70
g71
NtRp2783
(dp2784
g74
(dp2785
g82
I3
ssg83
g2779
sg76
(lp2786
g1150
asbasbasbag69
(g85
g71
NtRp2787
(dp2788
g74
(dp2789
sg83
g2657
sg76
(lp2790
g69
(g90
g71
NtRp2791
(dp2792
g74
(dp2793
g94
g95
ssg83
g2787
sg76
(lp2794
S'HTTP_COOKIE'
p2795
asbag69
(g90
g71
NtRp2796
(dp2797
g74
(dp2798
g101
g102
ssg83
g2787
sg76
(lp2799
S':'
asbag69
(g90
g71
NtRp2800
(dp2801
g74
(dp2802
sg83
g2787
sg76
(lp2803
g69
(g70
g71
NtRp2804
(dp2805
g74
(dp2806
g82
I3
ssg83
g2800
sg76
(lp2807
g1172
asbasbasbag69
(g85
g71
NtRp2808
(dp2809
g74
(dp2810
sg83
g2657
sg76
(lp2811
g69
(g90
g71
NtRp2812
(dp2813
g74
(dp2814
g94
g95
ssg83
g2808
sg76
(lp2815
S'HTTP_HOST'
p2816
asbag69
(g90
g71
NtRp2817
(dp2818
g74
(dp2819
g101
g102
ssg83
g2808
sg76
(lp2820
S':'
asbag69
(g90
g71
NtRp2821
(dp2822
g74
(dp2823
sg83
g2808
sg76
(lp2824
g69
(g70
g71
NtRp2825
(dp2826
g74
(dp2827
g82
I3
ssg83
g2821
sg76
(lp2828
g1194
asbasbasbag69
(g85
g71
NtRp2829
(dp2830
g74
(dp2831
sg83
g2657
sg76
(lp2832
g69
(g90
g71
NtRp2833
(dp2834
g74
(dp2835
g94
g95
ssg83
g2829
sg76
(lp2836
S'HTTP_USER_AGENT'
p2837
asbag69
(g90
g71
NtRp2838
(dp2839
g74
(dp2840
g101
g102
ssg83
g2829
sg76
(lp2841
S':'
asbag69
(g90
g71
NtRp2842
(dp2843
g74
(dp2844
sg83
g2829
sg76
(lp2845
g69
(g70
g71
NtRp2846
(dp2847
g74
(dp2848
g82
I3
ssg83
g2842
sg76
(lp2849
g1216
asbasbasbag69
(g85
g71
NtRp2850
(dp2851
g74
(dp2852
sg83
g2657
sg76
(lp2853
g69
(g90
g71
NtRp2854
(dp2855
g74
(dp2856
g94
g95
ssg83
g2850
sg76
(lp2857
S'PATH_INFO'
p2858
asbag69
(g90
g71
NtRp2859
(dp2860
g74
(dp2861
g101
g102
ssg83
g2850
sg76
(lp2862
S':'
asbag69
(g90
g71
NtRp2863
(dp2864
g74
(dp2865
sg83
g2850
sg76
(lp2866
g69
(g70
g71
NtRp2867
(dp2868
g74
(dp2869
g82
I3
ssg83
g2863
sg76
(lp2870
g1370
asbasbasbag69
(g85
g71
NtRp2871
(dp2872
g74
(dp2873
sg83
g2657
sg76
(lp2874
g69
(g90
g71
NtRp2875
(dp2876
g74
(dp2877
g94
g95
ssg83
g2871
sg76
(lp2878
S'QUERY_STRING'
p2879
asbag69
(g90
g71
NtRp2880
(dp2881
g74
(dp2882
g101
g102
ssg83
g2871
sg76
(lp2883
S':'
asbag69
(g90
g71
NtRp2884
(dp2885
g74
(dp2886
sg83
g2871
sg76
(lp2887
g69
(g70
g71
NtRp2888
(dp2889
g74
(dp2890
g82
I3
ssg83
g2884
sg76
(lp2891
S''
asbasbasbag69
(g85
g71
NtRp2892
(dp2893
g74
(dp2894
sg83
g2657
sg76
(lp2895
g69
(g90
g71
NtRp2896
(dp2897
g74
(dp2898
g94
g95
ssg83
g2892
sg76
(lp2899
S'REMOTE_ADDR'
p2900
asbag69
(g90
g71
NtRp2901
(dp2902
g74
(dp2903
g101
g102
ssg83
g2892
sg76
(lp2904
S':'
asbag69
(g90
g71
NtRp2905
(dp2906
g74
(dp2907
sg83
g2892
sg76
(lp2908
g69
(g70
g71
NtRp2909
(dp2910
g74
(dp2911
g82
I3
ssg83
g2905
sg76
(lp2912
g224
asbasbasbag69
(g85
g71
NtRp2913
(dp2914
g74
(dp2915
sg83
g2657
sg76
(lp2916
g69
(g90
g71
NtRp2917
(dp2918
g74
(dp2919
g94
g95
ssg83
g2913
sg76
(lp2920
S'REMOTE_PORT'
p2921
asbag69
(g90
g71
NtRp2922
(dp2923
g74
(dp2924
g101
g102
ssg83
g2913
sg76
(lp2925
S':'
asbag69
(g90
g71
NtRp2926
(dp2927
g74
(dp2928
sg83
g2913
sg76
(lp2929
g69
(g70
g71
NtRp2930
(dp2931
g74
(dp2932
g82
I3
ssg83
g2926
sg76
(lp2933
g1434
asbasbasbag69
(g85
g71
NtRp2934
(dp2935
g74
(dp2936
sg83
g2657
sg76
(lp2937
g69
(g90
g71
NtRp2938
(dp2939
g74
(dp2940
g94
g95
ssg83
g2934
sg76
(lp2941
S'REQUEST_METHOD'
p2942
asbag69
(g90
g71
NtRp2943
(dp2944
g74
(dp2945
g101
g102
ssg83
g2934
sg76
(lp2946
S':'
asbag69
(g90
g71
NtRp2947
(dp2948
g74
(dp2949
sg83
g2934
sg76
(lp2950
g69
(g70
g71
NtRp2951
(dp2952
g74
(dp2953
g82
I3
ssg83
g2947
sg76
(lp2954
g1456
asbasbasbag69
(g85
g71
NtRp2955
(dp2956
g74
(dp2957
sg83
g2657
sg76
(lp2958
g69
(g90
g71
NtRp2959
(dp2960
g74
(dp2961
g94
g95
ssg83
g2955
sg76
(lp2962
S'REQUEST_URI'
p2963
asbag69
(g90
g71
NtRp2964
(dp2965
g74
(dp2966
g101
g102
ssg83
g2955
sg76
(lp2967
S':'
asbag69
(g90
g71
NtRp2968
(dp2969
g74
(dp2970
sg83
g2955
sg76
(lp2971
g69
(g70
g71
NtRp2972
(dp2973
g74
(dp2974
g82
I3
ssg83
g2968
sg76
(lp2975
g1370
asbasbasbag69
(g85
g71
NtRp2976
(dp2977
g74
(dp2978
sg83
g2657
sg76
(lp2979
g69
(g90
g71
NtRp2980
(dp2981
g74
(dp2982
g94
g95
ssg83
g2976
sg76
(lp2983
S'SCRIPT_NAME'
p2984
asbag69
(g90
g71
NtRp2985
(dp2986
g74
(dp2987
g101
g102
ssg83
g2976
sg76
(lp2988
S':'
asbag69
(g90
g71
NtRp2989
(dp2990
g74
(dp2991
sg83
g2976
sg76
(lp2992
g69
(g70
g71
NtRp2993
(dp2994
g74
(dp2995
g82
I3
ssg83
g2989
sg76
(lp2996
S''
asbasbasbag69
(g85
g71
NtRp2997
(dp2998
g74
(dp2999
sg83
g2657
sg76
(lp3000
g69
(g90
g71
NtRp3001
(dp3002
g74
(dp3003
g94
g95
ssg83
g2997
sg76
(lp3004
S'SERVER_NAME'
p3005
asbag69
(g90
g71
NtRp3006
(dp3007
g74
(dp3008
g101
g102
ssg83
g2997
sg76
(lp3009
S':'
asbag69
(g90
g71
NtRp3010
(dp3011
g74
(dp3012
sg83
g2997
sg76
(lp3013
g69
(g70
g71
NtRp3014
(dp3015
g74
(dp3016
g82
I3
ssg83
g3010
sg76
(lp3017
g1520
asbasbasbag69
(g85
g71
NtRp3018
(dp3019
g74
(dp3020
sg83
g2657
sg76
(lp3021
g69
(g90
g71
NtRp3022
(dp3023
g74
(dp3024
g94
g95
ssg83
g3018
sg76
(lp3025
S'SERVER_PORT'
p3026
asbag69
(g90
g71
NtRp3027
(dp3028
g74
(dp3029
g101
g102
ssg83
g3018
sg76
(lp3030
S':'
asbag69
(g90
g71
NtRp3031
(dp3032
g74
(dp3033
sg83
g3018
sg76
(lp3034
g69
(g70
g71
NtRp3035
(dp3036
g74
(dp3037
g82
I3
ssg83
g3031
sg76
(lp3038
g1542
asbasbasbag69
(g85
g71
NtRp3039
(dp3040
g74
(dp3041
sg83
g2657
sg76
(lp3042
g69
(g90
g71
NtRp3043
(dp3044
g74
(dp3045
g94
g95
ssg83
g3039
sg76
(lp3046
S'SERVER_PROTOCOL'
p3047
asbag69
(g90
g71
NtRp3048
(dp3049
g74
(dp3050
g101
g102
ssg83
g3039
sg76
(lp3051
S':'
asbag69
(g90
g71
NtRp3052
(dp3053
g74
(dp3054
sg83
g3039
sg76
(lp3055
g69
(g70
g71
NtRp3056
(dp3057
g74
(dp3058
g82
I3
ssg83
g3052
sg76
(lp3059
g1564
asbasbasbag69
(g85
g71
NtRp3060
(dp3061
g74
(dp3062
sg83
g2657
sg76
(lp3063
g69
(g90
g71
NtRp3064
(dp3065
g74
(dp3066
g94
g95
ssg83
g3060
sg76
(lp3067
S'SERVER_SOFTWARE'
p3068
asbag69
(g90
g71
NtRp3069
(dp3070
g74
(dp3071
g101
g102
ssg83
g3060
sg76
(lp3072
S':'
asbag69
(g90
g71
NtRp3073
(dp3074
g74
(dp3075
sg83
g3060
sg76
(lp3076
g69
(g70
g71
NtRp3077
(dp3078
g74
(dp3079
g82
I3
ssg83
g3073
sg76
(lp3080
g1586
asbasbasbag69
(g85
g71
NtRp3081
(dp3082
g74
(dp3083
sg83
g2657
sg76
(lp3084
g69
(g90
g71
NtRp3085
(dp3086
g74
(dp3087
g94
g95
ssg83
g3081
sg76
(lp3088
S'wsgi.errors'
p3089
asbag69
(g90
g71
NtRp3090
(dp3091
g74
(dp3092
g101
g102
ssg83
g3081
sg76
(lp3093
S':'
asbag69
(g90
g71
NtRp3094
(dp3095
g74
(dp3096
sg83
g3081
sg76
(lp3097
g69
(g70
g71
NtRp3098
(dp3099
g74
(dp3100
g82
I3
ssg83
g3094
sg76
(lp3101
S"<open file '<stderr>', mode 'w' at 0x7f4e02d4f270>"
p3102
asbasbasbag69
(g85
g71
NtRp3103
(dp3104
g74
(dp3105
sg83
g2657
sg76
(lp3106
g69
(g90
g71
NtRp3107
(dp3108
g74
(dp3109
g94
g95
ssg83
g3103
sg76
(lp3110
S'wsgi.file_wrapper'
p3111
asbag69
(g90
g71
NtRp3112
(dp3113
g74
(dp3114
g101
g102
ssg83
g3103
sg76
(lp3115
S':'
asbag69
(g90
g71
NtRp3116
(dp3117
g74
(dp3118
sg83
g3103
sg76
(lp3119
g69
(g70
g71
NtRp3120
(dp3121
g74
(dp3122
g82
I3
ssg83
g3116
sg76
(lp3123
S'<class wsgiref.util.FileWrapper at 0x2ddddb8>'
p3124
asbasbasbag69
(g85
g71
NtRp3125
(dp3126
g74
(dp3127
sg83
g2657
sg76
(lp3128
g69
(g90
g71
NtRp3129
(dp3130
g74
(dp3131
g94
g95
ssg83
g3125
sg76
(lp3132
S'wsgi.input'
p3133
asbag69
(g90
g71
NtRp3134
(dp3135
g74
(dp3136
g101
g102
ssg83
g3125
sg76
(lp3137
S':'
asbag69
(g90
g71
NtRp3138
(dp3139
g74
(dp3140
sg83
g3125
sg76
(lp3141
g69
(g70
g71
NtRp3142
(dp3143
g74
(dp3144
g82
I3
ssg83
g3138
sg76
(lp3145
S'<cStringIO.StringO object at 0x7f4df85811f0>'
p3146
asbasbasbag69
(g85
g71
NtRp3147
(dp3148
g74
(dp3149
sg83
g2657
sg76
(lp3150
g69
(g90
g71
NtRp3151
(dp3152
g74
(dp3153
g94
g95
ssg83
g3147
sg76
(lp3154
S'wsgi.multiprocess'
p3155
asbag69
(g90
g71
NtRp3156
(dp3157
g74
(dp3158
g101
g102
ssg83
g3147
sg76
(lp3159
S':'
asbag69
(g90
g71
NtRp3160
(dp3161
g74
(dp3162
sg83
g3147
sg76
(lp3163
g69
(g70
g71
NtRp3164
(dp3165
g74
(dp3166
g82
I3
ssg83
g3160
sg76
(lp3167
g112
asbasbasbag69
(g85
g71
NtRp3168
(dp3169
g74
(dp3170
sg83
g2657
sg76
(lp3171
g69
(g90
g71
NtRp3172
(dp3173
g74
(dp3174
g94
g95
ssg83
g3168
sg76
(lp3175
S'wsgi.multithread'
p3176
asbag69
(g90
g71
NtRp3177
(dp3178
g74
(dp3179
g101
g102
ssg83
g3168
sg76
(lp3180
S':'
asbag69
(g90
g71
NtRp3181
(dp3182
g74
(dp3183
sg83
g3168
sg76
(lp3184
g69
(g70
g71
NtRp3185
(dp3186
g74
(dp3187
g82
I3
ssg83
g3181
sg76
(lp3188
g1803
asbasbasbag69
(g85
g71
NtRp3189
(dp3190
g74
(dp3191
sg83
g2657
sg76
(lp3192
g69
(g90
g71
NtRp3193
(dp3194
g74
(dp3195
g94
g95
ssg83
g3189
sg76
(lp3196
S'wsgi.run_once'
p3197
asbag69
(g90
g71
NtRp3198
(dp3199
g74
(dp3200
g101
g102
ssg83
g3189
sg76
(lp3201
S':'
asbag69
(g90
g71
NtRp3202
(dp3203
g74
(dp3204
sg83
g3189
sg76
(lp3205
g69
(g70
g71
NtRp3206
(dp3207
g74
(dp3208
g82
I3
ssg83
g3202
sg76
(lp3209
g112
asbasbasbag69
(g85
g71
NtRp3210
(dp3211
g74
(dp3212
sg83
g2657
sg76
(lp3213
g69
(g90
g71
NtRp3214
(dp3215
g74
(dp3216
g94
g95
ssg83
g3210
sg76
(lp3217
S'wsgi.url_scheme'
p3218
asbag69
(g90
g71
NtRp3219
(dp3220
g74
(dp3221
g101
g102
ssg83
g3210
sg76
(lp3222
S':'
asbag69
(g90
g71
NtRp3223
(dp3224
g74
(dp3225
sg83
g3210
sg76
(lp3226
g69
(g70
g71
NtRp3227
(dp3228
g74
(dp3229
g82
I3
ssg83
g3223
sg76
(lp3230
g1846
asbasbasbag69
(g85
g71
NtRp3231
(dp3232
g74
(dp3233
sg83
g2657
sg76
(lp3234
g69
(g90
g71
NtRp3235
(dp3236
g74
(dp3237
g94
g95
ssg83
g3231
sg76
(lp3238
S'wsgi.version'
p3239
asbag69
(g90
g71
NtRp3240
(dp3241
g74
(dp3242
g101
g102
ssg83
g3231
sg76
(lp3243
S':'
asbag69
(g90
g71
NtRp3244
(dp3245
g74
(dp3246
sg83
g3231
sg76
(lp3247
g69
(g70
g71
NtRp3248
(dp3249
g74
(dp3250
g82
I3
ssg83
g3244
sg76
(lp3251
S'1'
asbasbasbasbasbasbasbasbasbasbasbasbasbsS'frames'
p3252
(lp3253
(dp3254
S'file'
p3255
S'/home/adrian/web2py/gluon/restricted.py'
p3256
sS'dump'
p3257
(dp3258
S'environment'
p3259
S"{'A': <class 'gluon.html.A'>, 'Auth': <class 'gluon.tools.Auth'>, 'B': <class 'gluon.html.B'>, 'BEAUTIFY': <class 'gluon.html.BEAUTIFY'>, 'BODY': <class 'gluon.html.BODY'>, 'BR': <class 'gluon.html.BR'>, 'BUTTON': <class 'gluon.html.BUTTON'>, 'CAT': <class 'gluon.html.CAT'>, 'CENTER': <class 'gluon.html.CENTER'>, 'CLEANUP': <class 'gluon.validators.CLEANUP'>, ...}"
p3260
sS'ccode'
p3261
S'<code object <module> at 0x7f4df84956b0, file "/...cations/CygnusCloud/controllers/main.py", line 3>'
p3262
ssS'lnum'
p3263
I212
sS'lines'
p3264
(dp3265
I207
S'    try:'
p3266
sI208
S'        if isinstance(code, types.CodeType):'
p3267
sI209
S'            ccode = code'
p3268
sI210
S'        else:'
p3269
sI211
S'            ccode = compile2(code, layer)'
p3270
sI212
S'        exec ccode in environment'
p3271
sI213
S'    except HTTP:'
p3272
sI214
S'        raise'
p3273
sI215
S'    except RestrictedError:'
p3274
sI216
S'        # do not encapsulate (obfuscate) the original RestrictedError'
p3275
ssS'call'
p3276
S'(code="# coding: utf8\\n# M\\xc3\\xa9todo encargado de la p\\xc3\\xa1gina...ogin\')]]\\n\\nresponse._vars=response._caller(login)\\n", environment={\'A\': <class \'gluon.html.A\'>, \'Auth\': <class \'gluon.tools.Auth\'>, \'B\': <class \'gluon.html.B\'>, \'BEAUTIFY\': <class \'gluon.html.BEAUTIFY\'>, \'BODY\': <class \'gluon.html.BODY\'>, \'BR\': <class \'gluon.html.BR\'>, \'BUTTON\': <class \'gluon.html.BUTTON\'>, \'CAT\': <class \'gluon.html.CAT\'>, \'CENTER\': <class \'gluon.html.CENTER\'>, \'CLEANUP\': <class \'gluon.validators.CLEANUP\'>, ...}, layer=\'/home/adrian/web2py/applications/CygnusCloud/controllers/main.py\')'
p3277
sS'func'
p3278
S'restricted'
p3279
sa(dp3280
g3255
S'/home/adrian/web2py/applications/CygnusCloud/controllers/main.py'
p3281
sg3257
(dp3282
sg3263
I21
sg3264
(dp3283
I10
S'        redirect(URL())'
p3284
sI11
S'    elif form.errors:'
p3285
sI12
S"        response.flash = 'form has errors'"
p3286
sI13
S'    else:'
p3287
sI14
S"        response.flash = 'please fill the form'"
p3288
sI15
S'    return dict(form=form)'
p3289
sI16
S''
sI17
S'def createAdressBar():'
p3290
sI18
S"    response.menu=[['Iniciar sesi\xc3\xb3n',False,URL('login')],"
p3291
sI19
S"                   ['Acerca de',False,URL('login')]]"
p3292
ssg3276
S'()'
p3293
sg3278
S'<module>'
p3294
sa(dp3295
g3255
S'/home/adrian/web2py/gluon/globals.py'
p3296
sg3257
(dp3297
S'self'
p3298
S'undefined'
p3299
sS'f'
S'<function login>'
p3300
ssg3263
I193
sg3264
(dp3301
I192
S'        self._vars = None'
p3302
sI193
S'        self._caller = lambda f: f()'
p3303
sI194
S'        self._view_environment = None'
p3304
sI195
S'        self._custom_commit = None'
p3305
sI196
S'        self._custom_rollback = None'
p3306
sI197
S''
sI188
S'        self.menu = []             # used by the default view layout'
p3307
sI189
S'        self.files = []            # used by web2py_ajax.html'
p3308
sI190
S'        self.generic_patterns = []  # patterns to allow generic views'
p3309
sI191
S"        self.delimiters = ('{{', '}}')"
p3310
ssg3276
S'(f=<function login>)'
p3311
sg3278
S'<lambda>'
p3312
sa(dp3313
g3255
S'/home/adrian/web2py/applications/CygnusCloud/controllers/main.py'
p3314
sg3257
(dp3315
S'global T'
p3316
S'<gluon.languages.translator object>'
p3317
sS'requires'
p3318
g3299
sS'global INPUT'
p3319
S"<class 'gluon.html.INPUT'>"
p3320
sS'global IS_NOT_EMPTY'
p3321
S"<class 'gluon.validators.IS_NOT_EMPTY'>"
p3322
ssg3263
I6
sg3264
(dp3323
I2
S'# M\xc3\xa9todo encargado de la p\xc3\xa1gina de inicio de sesi\xc3\xb3n'
p3324
sI3
S'def login():'
p3325
sI4
S'    createAdressBar()'
p3326
sI5
S"    form=FORM(LABEL( T('Inicio de sesi\xc3\xb3n')),"
p3327
sI6
S"                  INPUT(T('Nombre de usuario'), requires=IS_NOT_EMPTY()),"
p3328
sI7
S"                  INPUT(T('Contrase\xc3\xb1a'), requires=IS_NOT_EMPTY()),"
p3329
sI8
S"                  INPUT(_type='submit'))"
p3330
sI9
S'    if form.accepts(request,session):'
p3331
sI10
S'        redirect(URL())'
p3332
sI11
S'    elif form.errors:'
p3333
ssg3276
S'()'
p3334
sg3278
S'login'
p3335
sa(dp3336
g3255
S'/home/adrian/web2py/gluon/html.py'
p3337
sg3257
(dp3338
S'self'
p3339
S'<gluon.html.INPUT object>'
p3340
sS'self.tag'
p3341
S"'input/'"
p3342
ssg3263
I681
sg3264
(dp3343
I676
S'        :raises SyntaxError: when a stand alone tag receives components'
p3344
sI677
S'        """'
p3345
sI678
S''
sI679
S"        if self.tag[-1:] == '/' and components:"
p3346
sI680
S"            raise SyntaxError('<%s> tags cannot have components'"
p3347
sI681
S'                              % self.tag)'
p3348
sI682
S'        if len(components) == 1 and isinstance(components[0], (list, tuple)):'
p3349
sI683
S'            self.components = list(components[0])'
p3350
sI684
S'        else:'
p3351
sI685
S'            self.components = list(components)'
p3352
ssg3276
S"(self=<gluon.html.INPUT object>, *components=(<lazyT 'Nombre de usuario'>,), **attributes={'requires': <gluon.validators.IS_NOT_EMPTY object>})"
p3353
sg3278
g24
sasS'pyver'
p3354
S'Python 2.7.3: /usr/bin/python'
p3355
sS'session'
p3356
g69
(g70
g71
NtRp3357
(dp3358
g74
(dp3359
sg76
(lp3360
g69
(g78
g71
NtRp3361
(dp3362
g74
(dp3363
g82
I5
ssg83
Nsg76
(lp3364
g69
(g85
g71
NtRp3365
(dp3366
g74
(dp3367
sg83
g3361
sg76
(lp3368
g69
(g90
g71
NtRp3369
(dp3370
g74
(dp3371
g94
g95
ssg83
g3365
sg76
(lp3372
S'flash'
p3373
asbag69
(g90
g71
NtRp3374
(dp3375
g74
(dp3376
g101
g102
ssg83
g3365
sg76
(lp3377
S':'
asbag69
(g90
g71
NtRp3378
(dp3379
g74
(dp3380
sg83
g3365
sg76
(lp3381
g69
(g70
g71
NtRp3382
(dp3383
g74
(dp3384
g82
I5
ssg83
g3378
sg76
(lp3385
S''
asbasbasbag69
(g85
g71
NtRp3386
(dp3387
g74
(dp3388
sg83
g3361
sg76
(lp3389
g69
(g90
g71
NtRp3390
(dp3391
g74
(dp3392
g94
g95
ssg83
g3386
sg76
(lp3393
S'plugin_multitranslate_language'
p3394
asbag69
(g90
g71
NtRp3395
(dp3396
g74
(dp3397
g101
g102
ssg83
g3386
sg76
(lp3398
S':'
asbag69
(g90
g71
NtRp3399
(dp3400
g74
(dp3401
sg83
g3386
sg76
(lp3402
g69
(g70
g71
NtRp3403
(dp3404
g74
(dp3405
g82
I5
ssg83
g3399
sg76
(lp3406
S'es'
p3407
asbasbasbasbasbsS'etype'
p3408
S"<type 'exceptions.SyntaxError'>"
p3409
sS'date'
p3410
S'Mon Feb  4 13:06:14 2013'
p3411
sS'response'
p3412
g69
(g70
g71
NtRp3413
(dp3414
g74
(dp3415
sg76
(lp3416
g69
(g78
g71
NtRp3417
(dp3418
g74
(dp3419
g82
I5
ssg83
Nsg76
(lp3420
g69
(g85
g71
NtRp3421
(dp3422
g74
(dp3423
sg83
g3417
sg76
(lp3424
g69
(g90
g71
NtRp3425
(dp3426
g74
(dp3427
g94
g95
ssg83
g3421
sg76
(lp3428
g167
asbag69
(g90
g71
NtRp3429
(dp3430
g74
(dp3431
g101
g102
ssg83
g3421
sg76
(lp3432
S':'
asbag69
(g90
g71
NtRp3433
(dp3434
g74
(dp3435
sg83
g3421
sg76
(lp3436
g69
(g70
g71
NtRp3437
(dp3438
g74
(dp3439
g82
I5
ssg83
g3433
sg76
(lp3440
S'<cStringIO.StringO object at 0x7f4de01bfce0>'
p3441
asbasbasbag69
(g85
g71
NtRp3442
(dp3443
g74
(dp3444
sg83
g3417
sg76
(lp3445
g69
(g90
g71
NtRp3446
(dp3447
g74
(dp3448
g94
g95
ssg83
g3442
sg76
(lp3449
g255
asbag69
(g90
g71
NtRp3450
(dp3451
g74
(dp3452
g101
g102
ssg83
g3442
sg76
(lp3453
S':'
asbag69
(g90
g71
NtRp3454
(dp3455
g74
(dp3456
sg83
g3442
sg76
(lp3457
g69
(g70
g71
NtRp3458
(dp3459
g74
(dp3460
g82
I5
ssg83
g3454
sg76
(lp3461
g69
(g78
g71
NtRp3462
(dp3463
g74
(dp3464
g82
I4
ssg83
Nsg76
(lp3465
g69
(g85
g71
NtRp3466
(dp3467
g74
(dp3468
sg83
g3462
sg76
(lp3469
g69
(g90
g71
NtRp3470
(dp3471
g74
(dp3472
g94
g95
ssg83
g3466
sg76
(lp3473
S'session_id_cygnuscloud'
p3474
asbag69
(g90
g71
NtRp3475
(dp3476
g74
(dp3477
g101
g102
ssg83
g3466
sg76
(lp3478
S':'
asbag69
(g90
g71
NtRp3479
(dp3480
g74
(dp3481
sg83
g3466
sg76
(lp3482
g69
(g70
g71
NtRp3483
(dp3484
g74
(dp3485
g82
I4
ssg83
g3479
sg76
(lp3486
g487
ag69
(g78
g71
NtRp3487
(dp3488
g74
(dp3489
g82
I3
ssg83
Nsg76
(lp3490
g69
(g85
g71
NtRp3491
(dp3492
g74
(dp3493
sg83
g3487
sg76
(lp3494
g69
(g90
g71
NtRp3495
(dp3496
g74
(dp3497
g94
g95
ssg83
g3491
sg76
(lp3498
g306
asbag69
(g90
g71
NtRp3499
(dp3500
g74
(dp3501
g101
g102
ssg83
g3491
sg76
(lp3502
S':'
asbag69
(g90
g71
NtRp3503
(dp3504
g74
(dp3505
sg83
g3491
sg76
(lp3506
g69
(g70
g71
NtRp3507
(dp3508
g74
(dp3509
g82
I3
ssg83
g3503
sg76
(lp3510
S''
asbasbasbag69
(g85
g71
NtRp3511
(dp3512
g74
(dp3513
sg83
g3487
sg76
(lp3514
g69
(g90
g71
NtRp3515
(dp3516
g74
(dp3517
g94
g95
ssg83
g3511
sg76
(lp3518
g327
asbag69
(g90
g71
NtRp3519
(dp3520
g74
(dp3521
g101
g102
ssg83
g3511
sg76
(lp3522
S':'
asbag69
(g90
g71
NtRp3523
(dp3524
g74
(dp3525
sg83
g3511
sg76
(lp3526
g69
(g70
g71
NtRp3527
(dp3528
g74
(dp3529
g82
I3
ssg83
g3523
sg76
(lp3530
S''
asbasbasbag69
(g85
g71
NtRp3531
(dp3532
g74
(dp3533
sg83
g3487
sg76
(lp3534
g69
(g90
g71
NtRp3535
(dp3536
g74
(dp3537
g94
g95
ssg83
g3531
sg76
(lp3538
g348
asbag69
(g90
g71
NtRp3539
(dp3540
g74
(dp3541
g101
g102
ssg83
g3531
sg76
(lp3542
S':'
asbag69
(g90
g71
NtRp3543
(dp3544
g74
(dp3545
sg83
g3531
sg76
(lp3546
g69
(g70
g71
NtRp3547
(dp3548
g74
(dp3549
g82
I3
ssg83
g3543
sg76
(lp3550
S''
asbasbasbag69
(g85
g71
NtRp3551
(dp3552
g74
(dp3553
sg83
g3487
sg76
(lp3554
g69
(g90
g71
NtRp3555
(dp3556
g74
(dp3557
g94
g95
ssg83
g3551
sg76
(lp3558
g369
asbag69
(g90
g71
NtRp3559
(dp3560
g74
(dp3561
g101
g102
ssg83
g3551
sg76
(lp3562
S':'
asbag69
(g90
g71
NtRp3563
(dp3564
g74
(dp3565
sg83
g3551
sg76
(lp3566
g69
(g70
g71
NtRp3567
(dp3568
g74
(dp3569
g82
I3
ssg83
g3563
sg76
(lp3570
S''
asbasbasbag69
(g85
g71
NtRp3571
(dp3572
g74
(dp3573
sg83
g3487
sg76
(lp3574
g69
(g90
g71
NtRp3575
(dp3576
g74
(dp3577
g94
g95
ssg83
g3571
sg76
(lp3578
g390
asbag69
(g90
g71
NtRp3579
(dp3580
g74
(dp3581
g101
g102
ssg83
g3571
sg76
(lp3582
S':'
asbag69
(g90
g71
NtRp3583
(dp3584
g74
(dp3585
sg83
g3571
sg76
(lp3586
g69
(g70
g71
NtRp3587
(dp3588
g74
(dp3589
g82
I3
ssg83
g3583
sg76
(lp3590
S''
asbasbasbag69
(g85
g71
NtRp3591
(dp3592
g74
(dp3593
sg83
g3487
sg76
(lp3594
g69
(g90
g71
NtRp3595
(dp3596
g74
(dp3597
g94
g95
ssg83
g3591
sg76
(lp3598
g411
asbag69
(g90
g71
NtRp3599
(dp3600
g74
(dp3601
g101
g102
ssg83
g3591
sg76
(lp3602
S':'
asbag69
(g90
g71
NtRp3603
(dp3604
g74
(dp3605
sg83
g3591
sg76
(lp3606
g69
(g70
g71
NtRp3607
(dp3608
g74
(dp3609
g82
I3
ssg83
g3603
sg76
(lp3610
S'/'
asbasbasbag69
(g85
g71
NtRp3611
(dp3612
g74
(dp3613
sg83
g3487
sg76
(lp3614
g69
(g90
g71
NtRp3615
(dp3616
g74
(dp3617
g94
g95
ssg83
g3611
sg76
(lp3618
g432
asbag69
(g90
g71
NtRp3619
(dp3620
g74
(dp3621
g101
g102
ssg83
g3611
sg76
(lp3622
S':'
asbag69
(g90
g71
NtRp3623
(dp3624
g74
(dp3625
sg83
g3611
sg76
(lp3626
g69
(g70
g71
NtRp3627
(dp3628
g74
(dp3629
g82
I3
ssg83
g3623
sg76
(lp3630
S''
asbasbasbag69
(g85
g71
NtRp3631
(dp3632
g74
(dp3633
sg83
g3487
sg76
(lp3634
g69
(g90
g71
NtRp3635
(dp3636
g74
(dp3637
g94
g95
ssg83
g3631
sg76
(lp3638
g453
asbag69
(g90
g71
NtRp3639
(dp3640
g74
(dp3641
g101
g102
ssg83
g3631
sg76
(lp3642
S':'
asbag69
(g90
g71
NtRp3643
(dp3644
g74
(dp3645
sg83
g3631
sg76
(lp3646
g69
(g70
g71
NtRp3647
(dp3648
g74
(dp3649
g82
I3
ssg83
g3643
sg76
(lp3650
S''
asbasbasbasbasbasbasbasbasbasbasbag69
(g85
g71
NtRp3651
(dp3652
g74
(dp3653
sg83
g3417
sg76
(lp3654
g69
(g90
g71
NtRp3655
(dp3656
g74
(dp3657
g94
g95
ssg83
g3651
sg76
(lp3658
S'delimiters'
p3659
asbag69
(g90
g71
NtRp3660
(dp3661
g74
(dp3662
g101
g102
ssg83
g3651
sg76
(lp3663
S':'
asbag69
(g90
g71
NtRp3664
(dp3665
g74
(dp3666
sg83
g3651
sg76
(lp3667
g69
(g70
g71
NtRp3668
(dp3669
g74
(dp3670
g82
I5
ssg83
g3664
sg76
(lp3671
g69
(g78
g71
NtRp3672
(dp3673
g74
(dp3674
g82
I4
ssg83
Nsg76
(lp3675
g69
(g85
g71
NtRp3676
(dp3677
g74
(dp3678
sg83
g3672
sg76
(lp3679
g69
(g90
g71
NtRp3680
(dp3681
g74
(dp3682
sg83
g3676
sg76
(lp3683
g69
(g70
g71
NtRp3684
(dp3685
g74
(dp3686
g82
I4
ssg83
g3680
sg76
(lp3687
S'{{'
p3688
asbasbasbag69
(g85
g71
NtRp3689
(dp3690
g74
(dp3691
sg83
g3672
sg76
(lp3692
g69
(g90
g71
NtRp3693
(dp3694
g74
(dp3695
sg83
g3689
sg76
(lp3696
g69
(g70
g71
NtRp3697
(dp3698
g74
(dp3699
g82
I4
ssg83
g3693
sg76
(lp3700
S'}}'
p3701
asbasbasbasbasbasbasbag69
(g85
g71
NtRp3702
(dp3703
g74
(dp3704
sg83
g3417
sg76
(lp3705
g69
(g90
g71
NtRp3706
(dp3707
g74
(dp3708
g94
g95
ssg83
g3702
sg76
(lp3709
S'files'
p3710
asbag69
(g90
g71
NtRp3711
(dp3712
g74
(dp3713
g101
g102
ssg83
g3702
sg76
(lp3714
S':'
asbag69
(g90
g71
NtRp3715
(dp3716
g74
(dp3717
sg83
g3702
sg76
(lp3718
g69
(g70
g71
NtRp3719
(dp3720
g74
(dp3721
g82
I5
ssg83
g3715
sg76
(lp3722
g69
(g78
g71
NtRp3723
(dp3724
g74
(dp3725
g82
I4
ssg83
Nsg76
(lp3726
sbasbasbasbag69
(g85
g71
NtRp3727
(dp3728
g74
(dp3729
sg83
g3417
sg76
(lp3730
g69
(g90
g71
NtRp3731
(dp3732
g74
(dp3733
g94
g95
ssg83
g3727
sg76
(lp3734
S'flash'
p3735
asbag69
(g90
g71
NtRp3736
(dp3737
g74
(dp3738
g101
g102
ssg83
g3727
sg76
(lp3739
S':'
asbag69
(g90
g71
NtRp3740
(dp3741
g74
(dp3742
sg83
g3727
sg76
(lp3743
g69
(g70
g71
NtRp3744
(dp3745
g74
(dp3746
g82
I5
ssg83
g3740
sg76
(lp3747
S''
asbasbasbag69
(g85
g71
NtRp3748
(dp3749
g74
(dp3750
sg83
g3417
sg76
(lp3751
g69
(g90
g71
NtRp3752
(dp3753
g74
(dp3754
g94
g95
ssg83
g3748
sg76
(lp3755
S'generic_patterns'
p3756
asbag69
(g90
g71
NtRp3757
(dp3758
g74
(dp3759
g101
g102
ssg83
g3748
sg76
(lp3760
S':'
asbag69
(g90
g71
NtRp3761
(dp3762
g74
(dp3763
sg83
g3748
sg76
(lp3764
g69
(g70
g71
NtRp3765
(dp3766
g74
(dp3767
g82
I5
ssg83
g3761
sg76
(lp3768
g69
(g78
g71
NtRp3769
(dp3770
g74
(dp3771
g82
I4
ssg83
Nsg76
(lp3772
sbasbasbasbag69
(g85
g71
NtRp3773
(dp3774
g74
(dp3775
sg83
g3417
sg76
(lp3776
g69
(g90
g71
NtRp3777
(dp3778
g74
(dp3779
g94
g95
ssg83
g3773
sg76
(lp3780
S'google_analytics_id'
p3781
asbag69
(g90
g71
NtRp3782
(dp3783
g74
(dp3784
g101
g102
ssg83
g3773
sg76
(lp3785
S':'
asbag69
(g90
g71
NtRp3786
(dp3787
g74
(dp3788
sg83
g3773
sg76
(lp3789
g69
(g70
g71
NtRp3790
(dp3791
g74
(dp3792
g82
I5
ssg83
g3786
sg76
(lp3793
S'None'
p3794
asbasbasbag69
(g85
g71
NtRp3795
(dp3796
g74
(dp3797
sg83
g3417
sg76
(lp3798
g69
(g90
g71
NtRp3799
(dp3800
g74
(dp3801
g94
g95
ssg83
g3795
sg76
(lp3802
S'headers'
p3803
asbag69
(g90
g71
NtRp3804
(dp3805
g74
(dp3806
g101
g102
ssg83
g3795
sg76
(lp3807
S':'
asbag69
(g90
g71
NtRp3808
(dp3809
g74
(dp3810
sg83
g3795
sg76
(lp3811
g69
(g70
g71
NtRp3812
(dp3813
g74
(dp3814
g82
I5
ssg83
g3808
sg76
(lp3815
g69
(g78
g71
NtRp3816
(dp3817
g74
(dp3818
g82
I4
ssg83
Nsg76
(lp3819
g69
(g85
g71
NtRp3820
(dp3821
g74
(dp3822
sg83
g3816
sg76
(lp3823
g69
(g90
g71
NtRp3824
(dp3825
g74
(dp3826
g94
g95
ssg83
g3820
sg76
(lp3827
S'X-Powered-By'
p3828
asbag69
(g90
g71
NtRp3829
(dp3830
g74
(dp3831
g101
g102
ssg83
g3820
sg76
(lp3832
S':'
asbag69
(g90
g71
NtRp3833
(dp3834
g74
(dp3835
sg83
g3820
sg76
(lp3836
g69
(g70
g71
NtRp3837
(dp3838
g74
(dp3839
g82
I4
ssg83
g3833
sg76
(lp3840
S'web2py'
p3841
asbasbasbasbasbasbasbag69
(g85
g71
NtRp3842
(dp3843
g74
(dp3844
sg83
g3417
sg76
(lp3845
g69
(g90
g71
NtRp3846
(dp3847
g74
(dp3848
g94
g95
ssg83
g3842
sg76
(lp3849
S'logo'
p3850
asbag69
(g90
g71
NtRp3851
(dp3852
g74
(dp3853
g101
g102
ssg83
g3842
sg76
(lp3854
S':'
asbag69
(g90
g71
NtRp3855
(dp3856
g74
(dp3857
sg83
g3842
sg76
(lp3858
g69
(g70
g71
NtRp3859
(dp3860
g74
(dp3861
g82
I5
ssg83
g3855
sg76
(lp3862
g69
(cgluon.html
A
p3863
g71
NtRp3864
(dp3865
g74
(dp3866
S'_class'
p3867
S'brand'
p3868
sS'_href'
p3869
S'http://www.web2py.com/'
p3870
ssg83
Nsg76
(lp3871
g69
(cgluon.html
B
p3872
g71
NtRp3873
(dp3874
g74
(dp3875
sg83
g3864
sg76
(lp3876
S'web'
p3877
ag69
(cgluon.html
SPAN
p3878
g71
NtRp3879
(dp3880
g74
(dp3881
sg83
g3873
sg76
(lp3882
I2
asbaS'py'
p3883
asbacgluon.html
XML_unpickle
p3884
(S's\r\x00\x00\x00&trade;&nbsp;'
tRp3885
asbasbasbasbag69
(g85
g71
NtRp3886
(dp3887
g74
(dp3888
sg83
g3417
sg76
(lp3889
g69
(g90
g71
NtRp3890
(dp3891
g74
(dp3892
g94
g95
ssg83
g3886
sg76
(lp3893
S'menu'
p3894
asbag69
(g90
g71
NtRp3895
(dp3896
g74
(dp3897
g101
g102
ssg83
g3886
sg76
(lp3898
S':'
asbag69
(g90
g71
NtRp3899
(dp3900
g74
(dp3901
sg83
g3886
sg76
(lp3902
g69
(g70
g71
NtRp3903
(dp3904
g74
(dp3905
g82
I5
ssg83
g3899
sg76
(lp3906
g69
(g78
g71
NtRp3907
(dp3908
g74
(dp3909
g82
I4
ssg83
Nsg76
(lp3910
g69
(g85
g71
NtRp3911
(dp3912
g74
(dp3913
sg83
g3907
sg76
(lp3914
g69
(g90
g71
NtRp3915
(dp3916
g74
(dp3917
sg83
g3911
sg76
(lp3918
g69
(g70
g71
NtRp3919
(dp3920
g74
(dp3921
g82
I4
ssg83
g3915
sg76
(lp3922
g69
(g78
g71
NtRp3923
(dp3924
g74
(dp3925
g82
I3
ssg83
Nsg76
(lp3926
g69
(g85
g71
NtRp3927
(dp3928
g74
(dp3929
sg83
g3923
sg76
(lp3930
g69
(g90
g71
NtRp3931
(dp3932
g74
(dp3933
sg83
g3927
sg76
(lp3934
g69
(g70
g71
NtRp3935
(dp3936
g74
(dp3937
g82
I3
ssg83
g3931
sg76
(lp3938
S'Iniciar sesi\xc3\xb3n'
p3939
asbasbasbag69
(g85
g71
NtRp3940
(dp3941
g74
(dp3942
sg83
g3923
sg76
(lp3943
g69
(g90
g71
NtRp3944
(dp3945
g74
(dp3946
sg83
g3940
sg76
(lp3947
g69
(g70
g71
NtRp3948
(dp3949
g74
(dp3950
g82
I3
ssg83
g3944
sg76
(lp3951
g112
asbasbasbag69
(g85
g71
NtRp3952
(dp3953
g74
(dp3954
sg83
g3923
sg76
(lp3955
g69
(g90
g71
NtRp3956
(dp3957
g74
(dp3958
sg83
g3952
sg76
(lp3959
g69
(g70
g71
NtRp3960
(dp3961
g74
(dp3962
g82
I3
ssg83
g3956
sg76
(lp3963
S'/CygnusCloud/main/login'
p3964
asbasbasbasbasbasbasbag69
(g85
g71
NtRp3965
(dp3966
g74
(dp3967
sg83
g3907
sg76
(lp3968
g69
(g90
g71
NtRp3969
(dp3970
g74
(dp3971
sg83
g3965
sg76
(lp3972
g69
(g70
g71
NtRp3973
(dp3974
g74
(dp3975
g82
I4
ssg83
g3969
sg76
(lp3976
g69
(g78
g71
NtRp3977
(dp3978
g74
(dp3979
g82
I3
ssg83
Nsg76
(lp3980
g69
(g85
g71
NtRp3981
(dp3982
g74
(dp3983
sg83
g3977
sg76
(lp3984
g69
(g90
g71
NtRp3985
(dp3986
g74
(dp3987
sg83
g3981
sg76
(lp3988
g69
(g70
g71
NtRp3989
(dp3990
g74
(dp3991
g82
I3
ssg83
g3985
sg76
(lp3992
S'Acerca de'
p3993
asbasbasbag69
(g85
g71
NtRp3994
(dp3995
g74
(dp3996
sg83
g3977
sg76
(lp3997
g69
(g90
g71
NtRp3998
(dp3999
g74
(dp4000
sg83
g3994
sg76
(lp4001
g69
(g70
g71
NtRp4002
(dp4003
g74
(dp4004
g82
I3
ssg83
g3998
sg76
(lp4005
g112
asbasbasbag69
(g85
g71
NtRp4006
(dp4007
g74
(dp4008
sg83
g3977
sg76
(lp4009
g69
(g90
g71
NtRp4010
(dp4011
g74
(dp4012
sg83
g4006
sg76
(lp4013
g69
(g70
g71
NtRp4014
(dp4015
g74
(dp4016
g82
I3
ssg83
g4010
sg76
(lp4017
S'/CygnusCloud/main/login'
p4018
asbasbasbasbasbasbasbasbasbasbasbag69
(g85
g71
NtRp4019
(dp4020
g74
(dp4021
sg83
g3417
sg76
(lp4022
g69
(g90
g71
NtRp4023
(dp4024
g74
(dp4025
g94
g95
ssg83
g4019
sg76
(lp4026
S'meta'
p4027
asbag69
(g90
g71
NtRp4028
(dp4029
g74
(dp4030
g101
g102
ssg83
g4019
sg76
(lp4031
S':'
asbag69
(g90
g71
NtRp4032
(dp4033
g74
(dp4034
sg83
g4019
sg76
(lp4035
g69
(g70
g71
NtRp4036
(dp4037
g74
(dp4038
g82
I5
ssg83
g4032
sg76
(lp4039
g69
(g78
g71
NtRp4040
(dp4041
g74
(dp4042
g82
I4
ssg83
Nsg76
(lp4043
g69
(g85
g71
NtRp4044
(dp4045
g74
(dp4046
sg83
g4040
sg76
(lp4047
g69
(g90
g71
NtRp4048
(dp4049
g74
(dp4050
g94
g95
ssg83
g4044
sg76
(lp4051
S'author'
p4052
asbag69
(g90
g71
NtRp4053
(dp4054
g74
(dp4055
g101
g102
ssg83
g4044
sg76
(lp4056
S':'
asbag69
(g90
g71
NtRp4057
(dp4058
g74
(dp4059
sg83
g4044
sg76
(lp4060
g69
(g70
g71
NtRp4061
(dp4062
g74
(dp4063
g82
I4
ssg83
g4057
sg76
(lp4064
S'Your Name <you@example.com>'
p4065
asbasbasbag69
(g85
g71
NtRp4066
(dp4067
g74
(dp4068
sg83
g4040
sg76
(lp4069
g69
(g90
g71
NtRp4070
(dp4071
g74
(dp4072
g94
g95
ssg83
g4066
sg76
(lp4073
S'description'
p4074
asbag69
(g90
g71
NtRp4075
(dp4076
g74
(dp4077
g101
g102
ssg83
g4066
sg76
(lp4078
S':'
asbag69
(g90
g71
NtRp4079
(dp4080
g74
(dp4081
sg83
g4066
sg76
(lp4082
g69
(g70
g71
NtRp4083
(dp4084
g74
(dp4085
g82
I4
ssg83
g4079
sg76
(lp4086
S'a cool new app'
p4087
asbasbasbag69
(g85
g71
NtRp4088
(dp4089
g74
(dp4090
sg83
g4040
sg76
(lp4091
g69
(g90
g71
NtRp4092
(dp4093
g74
(dp4094
g94
g95
ssg83
g4088
sg76
(lp4095
S'generator'
p4096
asbag69
(g90
g71
NtRp4097
(dp4098
g74
(dp4099
g101
g102
ssg83
g4088
sg76
(lp4100
S':'
asbag69
(g90
g71
NtRp4101
(dp4102
g74
(dp4103
sg83
g4088
sg76
(lp4104
g69
(g70
g71
NtRp4105
(dp4106
g74
(dp4107
g82
I4
ssg83
g4101
sg76
(lp4108
S'Web2py Web Framework'
p4109
asbasbasbag69
(g85
g71
NtRp4110
(dp4111
g74
(dp4112
sg83
g4040
sg76
(lp4113
g69
(g90
g71
NtRp4114
(dp4115
g74
(dp4116
g94
g95
ssg83
g4110
sg76
(lp4117
S'keywords'
p4118
asbag69
(g90
g71
NtRp4119
(dp4120
g74
(dp4121
g101
g102
ssg83
g4110
sg76
(lp4122
S':'
asbag69
(g90
g71
NtRp4123
(dp4124
g74
(dp4125
sg83
g4110
sg76
(lp4126
g69
(g70
g71
NtRp4127
(dp4128
g74
(dp4129
g82
I4
ssg83
g4123
sg76
(lp4130
S'web2py, python, framework'
p4131
asbasbasbasbasbasbasbag69
(g85
g71
NtRp4132
(dp4133
g74
(dp4134
sg83
g3417
sg76
(lp4135
g69
(g90
g71
NtRp4136
(dp4137
g74
(dp4138
g94
g95
ssg83
g4132
sg76
(lp4139
S'models_to_run'
p4140
asbag69
(g90
g71
NtRp4141
(dp4142
g74
(dp4143
g101
g102
ssg83
g4132
sg76
(lp4144
S':'
asbag69
(g90
g71
NtRp4145
(dp4146
g74
(dp4147
sg83
g4132
sg76
(lp4148
g69
(g70
g71
NtRp4149
(dp4150
g74
(dp4151
g82
I5
ssg83
g4145
sg76
(lp4152
g69
(g78
g71
NtRp4153
(dp4154
g74
(dp4155
g82
I4
ssg83
Nsg76
(lp4156
g69
(g85
g71
NtRp4157
(dp4158
g74
(dp4159
sg83
g4153
sg76
(lp4160
g69
(g90
g71
NtRp4161
(dp4162
g74
(dp4163
sg83
g4157
sg76
(lp4164
g69
(g70
g71
NtRp4165
(dp4166
g74
(dp4167
g82
I4
ssg83
g4161
sg76
(lp4168
S'^\\w+\\.py$'
p4169
asbasbasbag69
(g85
g71
NtRp4170
(dp4171
g74
(dp4172
sg83
g4153
sg76
(lp4173
g69
(g90
g71
NtRp4174
(dp4175
g74
(dp4176
sg83
g4170
sg76
(lp4177
g69
(g70
g71
NtRp4178
(dp4179
g74
(dp4180
g82
I4
ssg83
g4174
sg76
(lp4181
S'^main/\\w+\\.py$'
p4182
asbasbasbag69
(g85
g71
NtRp4183
(dp4184
g74
(dp4185
sg83
g4153
sg76
(lp4186
g69
(g90
g71
NtRp4187
(dp4188
g74
(dp4189
sg83
g4183
sg76
(lp4190
g69
(g70
g71
NtRp4191
(dp4192
g74
(dp4193
g82
I4
ssg83
g4187
sg76
(lp4194
S'^main/login/\\w+\\.py$'
p4195
asbasbasbasbasbasbasbag69
(g85
g71
NtRp4196
(dp4197
g74
(dp4198
sg83
g3417
sg76
(lp4199
g69
(g90
g71
NtRp4200
(dp4201
g74
(dp4202
g94
g95
ssg83
g4196
sg76
(lp4203
S'postprocessing'
p4204
asbag69
(g90
g71
NtRp4205
(dp4206
g74
(dp4207
g101
g102
ssg83
g4196
sg76
(lp4208
S':'
asbag69
(g90
g71
NtRp4209
(dp4210
g74
(dp4211
sg83
g4196
sg76
(lp4212
g69
(g70
g71
NtRp4213
(dp4214
g74
(dp4215
g82
I5
ssg83
g4209
sg76
(lp4216
g69
(g78
g71
NtRp4217
(dp4218
g74
(dp4219
g82
I4
ssg83
Nsg76
(lp4220
sbasbasbasbag69
(g85
g71
NtRp4221
(dp4222
g74
(dp4223
sg83
g3417
sg76
(lp4224
g69
(g90
g71
NtRp4225
(dp4226
g74
(dp4227
g94
g95
ssg83
g4221
sg76
(lp4228
S'session_cookie_expires'
p4229
asbag69
(g90
g71
NtRp4230
(dp4231
g74
(dp4232
g101
g102
ssg83
g4221
sg76
(lp4233
S':'
asbag69
(g90
g71
NtRp4234
(dp4235
g74
(dp4236
sg83
g4221
sg76
(lp4237
g69
(g70
g71
NtRp4238
(dp4239
g74
(dp4240
g82
I5
ssg83
g4234
sg76
(lp4241
S'None'
p4242
asbasbasbag69
(g85
g71
NtRp4243
(dp4244
g74
(dp4245
sg83
g3417
sg76
(lp4246
g69
(g90
g71
NtRp4247
(dp4248
g74
(dp4249
g94
g95
ssg83
g4243
sg76
(lp4250
S'session_data_name'
p4251
asbag69
(g90
g71
NtRp4252
(dp4253
g74
(dp4254
g101
g102
ssg83
g4243
sg76
(lp4255
S':'
asbag69
(g90
g71
NtRp4256
(dp4257
g74
(dp4258
sg83
g4243
sg76
(lp4259
g69
(g70
g71
NtRp4260
(dp4261
g74
(dp4262
g82
I5
ssg83
g4256
sg76
(lp4263
S'session_data_cygnuscloud'
p4264
asbasbasbag69
(g85
g71
NtRp4265
(dp4266
g74
(dp4267
sg83
g3417
sg76
(lp4268
g69
(g90
g71
NtRp4269
(dp4270
g74
(dp4271
g94
g95
ssg83
g4265
sg76
(lp4272
S'session_file'
p4273
asbag69
(g90
g71
NtRp4274
(dp4275
g74
(dp4276
g101
g102
ssg83
g4265
sg76
(lp4277
S':'
asbag69
(g90
g71
NtRp4278
(dp4279
g74
(dp4280
sg83
g4265
sg76
(lp4281
g69
(g70
g71
NtRp4282
(dp4283
g74
(dp4284
g82
I5
ssg83
g4278
sg76
(lp4285
S"<open file '/home/adrian/web2py/applications/CygnusCloud/sessions/127.0.0.1-fd6cd013-dbd8-4eaa-8a53-43ef9e3e87c7', mode 'rb+' at 0x7f4df81f4e40>"
p4286
asbasbasbag69
(g85
g71
NtRp4287
(dp4288
g74
(dp4289
sg83
g3417
sg76
(lp4290
g69
(g90
g71
NtRp4291
(dp4292
g74
(dp4293
g94
g95
ssg83
g4287
sg76
(lp4294
S'session_filename'
p4295
asbag69
(g90
g71
NtRp4296
(dp4297
g74
(dp4298
g101
g102
ssg83
g4287
sg76
(lp4299
S':'
asbag69
(g90
g71
NtRp4300
(dp4301
g74
(dp4302
sg83
g4287
sg76
(lp4303
g69
(g70
g71
NtRp4304
(dp4305
g74
(dp4306
g82
I5
ssg83
g4300
sg76
(lp4307
S'/home/adrian/web2py/applications/CygnusCloud/sessions/127.0.0.1-fd6cd013-dbd8-4eaa-8a53-43ef9e3e87c7'
p4308
asbasbasbag69
(g85
g71
NtRp4309
(dp4310
g74
(dp4311
sg83
g3417
sg76
(lp4312
g69
(g90
g71
NtRp4313
(dp4314
g74
(dp4315
g94
g95
ssg83
g4309
sg76
(lp4316
S'session_id'
p4317
asbag69
(g90
g71
NtRp4318
(dp4319
g74
(dp4320
g101
g102
ssg83
g4309
sg76
(lp4321
S':'
asbag69
(g90
g71
NtRp4322
(dp4323
g74
(dp4324
sg83
g4309
sg76
(lp4325
g69
(g70
g71
NtRp4326
(dp4327
g74
(dp4328
g82
I5
ssg83
g4322
sg76
(lp4329
g487
asbasbasbag69
(g85
g71
NtRp4330
(dp4331
g74
(dp4332
sg83
g3417
sg76
(lp4333
g69
(g90
g71
NtRp4334
(dp4335
g74
(dp4336
g94
g95
ssg83
g4330
sg76
(lp4337
S'session_id_name'
p4338
asbag69
(g90
g71
NtRp4339
(dp4340
g74
(dp4341
g101
g102
ssg83
g4330
sg76
(lp4342
S':'
asbag69
(g90
g71
NtRp4343
(dp4344
g74
(dp4345
sg83
g4330
sg76
(lp4346
g69
(g70
g71
NtRp4347
(dp4348
g74
(dp4349
g82
I5
ssg83
g4343
sg76
(lp4350
g3474
asbasbasbag69
(g85
g71
NtRp4351
(dp4352
g74
(dp4353
sg83
g3417
sg76
(lp4354
g69
(g90
g71
NtRp4355
(dp4356
g74
(dp4357
g94
g95
ssg83
g4351
sg76
(lp4358
S'session_locked'
p4359
asbag69
(g90
g71
NtRp4360
(dp4361
g74
(dp4362
g101
g102
ssg83
g4351
sg76
(lp4363
S':'
asbag69
(g90
g71
NtRp4364
(dp4365
g74
(dp4366
sg83
g4351
sg76
(lp4367
g69
(g70
g71
NtRp4368
(dp4369
g74
(dp4370
g82
I5
ssg83
g4364
sg76
(lp4371
g1803
asbasbasbag69
(g85
g71
NtRp4372
(dp4373
g74
(dp4374
sg83
g3417
sg76
(lp4375
g69
(g90
g71
NtRp4376
(dp4377
g74
(dp4378
g94
g95
ssg83
g4372
sg76
(lp4379
S'session_new'
p4380
asbag69
(g90
g71
NtRp4381
(dp4382
g74
(dp4383
g101
g102
ssg83
g4372
sg76
(lp4384
S':'
asbag69
(g90
g71
NtRp4385
(dp4386
g74
(dp4387
sg83
g4372
sg76
(lp4388
g69
(g70
g71
NtRp4389
(dp4390
g74
(dp4391
g82
I5
ssg83
g4385
sg76
(lp4392
g112
asbasbasbag69
(g85
g71
NtRp4393
(dp4394
g74
(dp4395
sg83
g3417
sg76
(lp4396
g69
(g90
g71
NtRp4397
(dp4398
g74
(dp4399
g94
g95
ssg83
g4393
sg76
(lp4400
S'session_storage_type'
p4401
asbag69
(g90
g71
NtRp4402
(dp4403
g74
(dp4404
g101
g102
ssg83
g4393
sg76
(lp4405
S':'
asbag69
(g90
g71
NtRp4406
(dp4407
g74
(dp4408
sg83
g4393
sg76
(lp4409
g69
(g70
g71
NtRp4410
(dp4411
g74
(dp4412
g82
I5
ssg83
g4406
sg76
(lp4413
g3255
asbasbasbag69
(g85
g71
NtRp4414
(dp4415
g74
(dp4416
sg83
g3417
sg76
(lp4417
g69
(g90
g71
NtRp4418
(dp4419
g74
(dp4420
g94
g95
ssg83
g4414
sg76
(lp4421
S'status'
p4422
asbag69
(g90
g71
NtRp4423
(dp4424
g74
(dp4425
g101
g102
ssg83
g4414
sg76
(lp4426
S':'
asbag69
(g90
g71
NtRp4427
(dp4428
g74
(dp4429
sg83
g4414
sg76
(lp4430
g69
(g70
g71
NtRp4431
(dp4432
g74
(dp4433
g82
I5
ssg83
g4427
sg76
(lp4434
S'200'
p4435
asbasbasbag69
(g85
g71
NtRp4436
(dp4437
g74
(dp4438
sg83
g3417
sg76
(lp4439
g69
(g90
g71
NtRp4440
(dp4441
g74
(dp4442
g94
g95
ssg83
g4436
sg76
(lp4443
S'subtitle'
p4444
asbag69
(g90
g71
NtRp4445
(dp4446
g74
(dp4447
g101
g102
ssg83
g4436
sg76
(lp4448
S':'
asbag69
(g90
g71
NtRp4449
(dp4450
g74
(dp4451
sg83
g4436
sg76
(lp4452
g69
(g70
g71
NtRp4453
(dp4454
g74
(dp4455
g82
I5
ssg83
g4449
sg76
(lp4456
cgluon.languages
lazyT_unpickle
p4457
(S's\t\x00\x00\x00Adaptame!'
tRp4458
asbasbasbag69
(g85
g71
NtRp4459
(dp4460
g74
(dp4461
sg83
g3417
sg76
(lp4462
g69
(g90
g71
NtRp4463
(dp4464
g74
(dp4465
g94
g95
ssg83
g4459
sg76
(lp4466
S'title'
p4467
asbag69
(g90
g71
NtRp4468
(dp4469
g74
(dp4470
g101
g102
ssg83
g4459
sg76
(lp4471
S':'
asbag69
(g90
g71
NtRp4472
(dp4473
g74
(dp4474
sg83
g4459
sg76
(lp4475
g69
(g70
g71
NtRp4476
(dp4477
g74
(dp4478
g82
I5
ssg83
g4472
sg76
(lp4479
S'Cygnuscloud'
p4480
asbasbasbag69
(g85
g71
NtRp4481
(dp4482
g74
(dp4483
sg83
g3417
sg76
(lp4484
g69
(g90
g71
NtRp4485
(dp4486
g74
(dp4487
g94
g95
ssg83
g4481
sg76
(lp4488
S'view'
p4489
asbag69
(g90
g71
NtRp4490
(dp4491
g74
(dp4492
g101
g102
ssg83
g4481
sg76
(lp4493
S':'
asbag69
(g90
g71
NtRp4494
(dp4495
g74
(dp4496
sg83
g4481
sg76
(lp4497
g69
(g70
g71
NtRp4498
(dp4499
g74
(dp4500
g82
I5
ssg83
g4494
sg76
(lp4501
S'main/login.html'
p4502
asbasbasbasbasbsS'locals'
p4503
(dp4504
g74
S"{'requires': <gluon.validators.IS_NOT_EMPTY object>}"
p4505
sS'self'
p4506
S'<gluon.html.INPUT object>'
p4507
sg76
S"(<lazyT 'Nombre de usuario'>,)"
p4508
sssS'traceback'
p4509
S'Traceback (most recent call last):\n  File "/home/adrian/web2py/gluon/restricted.py", line 212, in restricted\n    exec ccode in environment\n  File "/home/adrian/web2py/applications/CygnusCloud/controllers/main.py", line 21, in <module>\n  File "/home/adrian/web2py/gluon/globals.py", line 193, in <lambda>\n    self._caller = lambda f: f()\n  File "/home/adrian/web2py/applications/CygnusCloud/controllers/main.py", line 6, in login\n    INPUT(T(\'Nombre de usuario\'), requires=IS_NOT_EMPTY()),\n  File "/home/adrian/web2py/gluon/html.py", line 681, in __init__\n    % self.tag)\nSyntaxError: <input/> tags cannot have components\n'
p4510
s.