(dp1
S'output'
p2
S'<class \'_mysql_exceptions.ProgrammingError\'> (1146, "Table \'UserDB.auth_user\' doesn\'t exist")'
p3
sS'layer'
p4
S'/home/adrian/web2py/applications/CygnusCloud/models/db.py'
p5
sS'code'
p6
S"# -*- coding: utf-8 -*-\nfrom configuration import DBConfigurator\n\n\nconf = DBConfigurator('170590ucm')\n#conf.dropDatabase('UserDB')\nconf.createDatabase('UserDB')\nconf.addUser('CygnusCloud','cygnuscloud2012', 'UserDB')\nuserDB = DAL('mysql://CygnusCloud:cygnuscloud2012@localhost/UserDB')\n\n# Autentication\nfrom gluon.tools import Auth\nauth = Auth(userDB)\nauth.define_tables()\n      \nuserDB.define_table('ClassGroup',\n   Field('userId','integer', 'reference auth_user' ),\n   Field('cod','integer','reference UserGroup'),\n   Field('curseGroup','reference UserGroup',length=1 ),\n   primarykey=['cod','curseGroup','userId'])\n   \nuserDB.define_table('Subjects',\n   Field('code','integer'),\n   Field('name',length=15))\n   \nuserDB.define_table('UserGroup',\n   Field('yearGroup','integer', 'reference Users'),\n   Field('cod','integer','reference subjects'),\n   Field('curse','integer'),\n   Field('curseGroup', length=1),\n   primarykey=['cod','curseGroup'])\n   \nuserDB.define_table('VMByGroup',\n   Field('VMName',length=20),\n   Field('cod','integer','reference UserGroup'),\n   Field('curseGroup','reference UserGroup',length=1 ),\n   primarykey=['cod','curseGroup','VMName'])\n\n\n#Usuario de prueba\nu1 = userDB.auth_user.insert(password = userDB.auth_user.password.validate('1234')[0],\\\n                    email = 'Admin1@ucm.es',first_name='Bertoldo',last_name='Pedralbes')\n#A\xc3\xb1adimos los grupos\n#auth.add_group('Student', 'Only run virtual machines available')\n#auth.add_group('Administrator', 'All privilages available')\n\n#Enlazamos los usuarios a los grupos\n#auth.add_membership('Administrator',u1)\n"
p7
sS'snapshot'
p8
(dp9
S'exception'
p10
(dp11
S'__module__'
p12
S"'_mysql_exceptions'"
p13
sS'__getslice__'
p14
S"<method-wrapper '__getslice__' of ProgrammingError object>"
p15
sS'__str__'
p16
S"<method-wrapper '__str__' of ProgrammingError object>"
p17
sS'__reduce__'
p18
S'<built-in method __reduce__ of ProgrammingError object>'
p19
sS'__dict__'
p20
S'{}'
p21
sS'__sizeof__'
p22
S'<built-in method __sizeof__ of ProgrammingError object>'
p23
sS'__weakref__'
p24
S'None'
p25
sS'__init__'
p26
S"<method-wrapper '__init__' of ProgrammingError object>"
p27
sS'__setattr__'
p28
S"<method-wrapper '__setattr__' of ProgrammingError object>"
p29
sS'__reduce_ex__'
p30
S'<built-in method __reduce_ex__ of ProgrammingError object>'
p31
sS'__new__'
p32
S'<built-in method __new__ of type object>'
p33
sS'__format__'
p34
S'<built-in method __format__ of ProgrammingError object>'
p35
sS'__class__'
p36
S"<class '_mysql_exceptions.ProgrammingError'>"
p37
sS'__doc__'
p38
S"'Exception raised for programming errors, e.g. ta...t, wrong number\\n    of parameters specified, etc.'"
p39
sS'__getitem__'
p40
S"<method-wrapper '__getitem__' of ProgrammingError object>"
p41
sS'__setstate__'
p42
S'<built-in method __setstate__ of ProgrammingError object>'
p43
sS'__getattribute__'
p44
S"<method-wrapper '__getattribute__' of ProgrammingError object>"
p45
sS'args'
p46
S'(1146, "Table \'UserDB.auth_user\' doesn\'t exist")'
p47
sS'__subclasshook__'
p48
S'<built-in method __subclasshook__ of type object>'
p49
sS'__unicode__'
p50
S'<built-in method __unicode__ of ProgrammingError object>'
p51
sS'__delattr__'
p52
S"<method-wrapper '__delattr__' of ProgrammingError object>"
p53
sS'__repr__'
p54
S"<method-wrapper '__repr__' of ProgrammingError object>"
p55
sS'__hash__'
p56
S"<method-wrapper '__hash__' of ProgrammingError object>"
p57
ssS'evalue'
p58
S'(1146, "Table \'UserDB.auth_user\' doesn\'t exist")'
p59
sS'request'
p60
ccopy_reg
_reconstructor
p61
(cgluon.html
BEAUTIFY
p62
c__builtin__
object
p63
NtRp64
(dp65
S'attributes'
p66
(dp67
sS'components'
p68
(lp69
g61
(cgluon.html
TABLE
p70
g63
NtRp71
(dp72
g66
(dp73
S'level'
p74
I5
ssS'parent'
p75
Nsg68
(lp76
g61
(cgluon.html
TR
p77
g63
NtRp78
(dp79
g66
(dp80
sg75
g71
sg68
(lp81
g61
(cgluon.html
TD
p82
g63
NtRp83
(dp84
g66
(dp85
S'_style'
p86
S'font-weight:bold;vertical-align:top'
p87
ssg75
g78
sg68
(lp88
S'ajax'
p89
asbag61
(g82
g63
NtRp90
(dp91
g66
(dp92
S'_valign'
p93
S'top'
p94
ssg75
g78
sg68
(lp95
S':'
asbag61
(g82
g63
NtRp96
(dp97
g66
(dp98
sg75
g78
sg68
(lp99
g61
(g62
g63
NtRp100
(dp101
g66
(dp102
g74
I5
ssg75
g96
sg68
(lp103
S'False'
p104
asbasbasbag61
(g77
g63
NtRp105
(dp106
g66
(dp107
sg75
g71
sg68
(lp108
g61
(g82
g63
NtRp109
(dp110
g66
(dp111
g86
g87
ssg75
g105
sg68
(lp112
S'application'
p113
asbag61
(g82
g63
NtRp114
(dp115
g66
(dp116
g93
g94
ssg75
g105
sg68
(lp117
S':'
asbag61
(g82
g63
NtRp118
(dp119
g66
(dp120
sg75
g105
sg68
(lp121
g61
(g62
g63
NtRp122
(dp123
g66
(dp124
g74
I5
ssg75
g118
sg68
(lp125
S'CygnusCloud'
p126
asbasbasbag61
(g77
g63
NtRp127
(dp128
g66
(dp129
sg75
g71
sg68
(lp130
g61
(g82
g63
NtRp131
(dp132
g66
(dp133
g86
g87
ssg75
g127
sg68
(lp134
g46
asbag61
(g82
g63
NtRp135
(dp136
g66
(dp137
g93
g94
ssg75
g127
sg68
(lp138
S':'
asbag61
(g82
g63
NtRp139
(dp140
g66
(dp141
sg75
g127
sg68
(lp142
g61
(g62
g63
NtRp143
(dp144
g66
(dp145
g74
I5
ssg75
g139
sg68
(lp146
g61
(g70
g63
NtRp147
(dp148
g66
(dp149
g74
I4
ssg75
Nsg68
(lp150
g61
(g77
g63
NtRp151
(dp152
g66
(dp153
sg75
g147
sg68
(lp154
g61
(g82
g63
NtRp155
(dp156
g66
(dp157
sg75
g151
sg68
(lp158
g61
(g62
g63
NtRp159
(dp160
g66
(dp161
g74
I4
ssg75
g155
sg68
(lp162
S'userDB'
p163
asbasbasbag61
(g77
g63
NtRp164
(dp165
g66
(dp166
sg75
g147
sg68
(lp167
g61
(g82
g63
NtRp168
(dp169
g66
(dp170
sg75
g164
sg68
(lp171
g61
(g62
g63
NtRp172
(dp173
g66
(dp174
g74
I4
ssg75
g168
sg68
(lp175
S'auth_user'
p176
asbasbasbasbasbasbasbag61
(g77
g63
NtRp177
(dp178
g66
(dp179
sg75
g71
sg68
(lp180
g61
(g82
g63
NtRp181
(dp182
g66
(dp183
g86
g87
ssg75
g177
sg68
(lp184
S'body'
p185
asbag61
(g82
g63
NtRp186
(dp187
g66
(dp188
g93
g94
ssg75
g177
sg68
(lp189
S':'
asbag61
(g82
g63
NtRp190
(dp191
g66
(dp192
sg75
g177
sg68
(lp193
g61
(g62
g63
NtRp194
(dp195
g66
(dp196
g74
I5
ssg75
g190
sg68
(lp197
S'<cStringIO.StringO object at 0x7f1388582650>'
p198
asbasbasbag61
(g77
g63
NtRp199
(dp200
g66
(dp201
sg75
g71
sg68
(lp202
g61
(g82
g63
NtRp203
(dp204
g66
(dp205
g86
g87
ssg75
g199
sg68
(lp206
S'cid'
p207
asbag61
(g82
g63
NtRp208
(dp209
g66
(dp210
g93
g94
ssg75
g199
sg68
(lp211
S':'
asbag61
(g82
g63
NtRp212
(dp213
g66
(dp214
sg75
g199
sg68
(lp215
g61
(g62
g63
NtRp216
(dp217
g66
(dp218
g74
I5
ssg75
g212
sg68
(lp219
S'None'
p220
asbasbasbag61
(g77
g63
NtRp221
(dp222
g66
(dp223
sg75
g71
sg68
(lp224
g61
(g82
g63
NtRp225
(dp226
g66
(dp227
g86
g87
ssg75
g221
sg68
(lp228
S'client'
p229
asbag61
(g82
g63
NtRp230
(dp231
g66
(dp232
g93
g94
ssg75
g221
sg68
(lp233
S':'
asbag61
(g82
g63
NtRp234
(dp235
g66
(dp236
sg75
g221
sg68
(lp237
g61
(g62
g63
NtRp238
(dp239
g66
(dp240
g74
I5
ssg75
g234
sg68
(lp241
S'127.0.0.1'
p242
asbasbasbag61
(g77
g63
NtRp243
(dp244
g66
(dp245
sg75
g71
sg68
(lp246
g61
(g82
g63
NtRp247
(dp248
g66
(dp249
g86
g87
ssg75
g243
sg68
(lp250
S'controller'
p251
asbag61
(g82
g63
NtRp252
(dp253
g66
(dp254
g93
g94
ssg75
g243
sg68
(lp255
S':'
asbag61
(g82
g63
NtRp256
(dp257
g66
(dp258
sg75
g243
sg68
(lp259
g61
(g62
g63
NtRp260
(dp261
g66
(dp262
g74
I5
ssg75
g256
sg68
(lp263
S'appadmin'
p264
asbasbasbag61
(g77
g63
NtRp265
(dp266
g66
(dp267
sg75
g71
sg68
(lp268
g61
(g82
g63
NtRp269
(dp270
g66
(dp271
g86
g87
ssg75
g265
sg68
(lp272
S'cookies'
p273
asbag61
(g82
g63
NtRp274
(dp275
g66
(dp276
g93
g94
ssg75
g265
sg68
(lp277
S':'
asbag61
(g82
g63
NtRp278
(dp279
g66
(dp280
sg75
g265
sg68
(lp281
g61
(g62
g63
NtRp282
(dp283
g66
(dp284
g74
I5
ssg75
g278
sg68
(lp285
g61
(g70
g63
NtRp286
(dp287
g66
(dp288
g74
I4
ssg75
Nsg68
(lp289
g61
(g77
g63
NtRp290
(dp291
g66
(dp292
sg75
g286
sg68
(lp293
g61
(g82
g63
NtRp294
(dp295
g66
(dp296
g86
g87
ssg75
g290
sg68
(lp297
S'session_id_admin'
p298
asbag61
(g82
g63
NtRp299
(dp300
g66
(dp301
g93
g94
ssg75
g290
sg68
(lp302
S':'
asbag61
(g82
g63
NtRp303
(dp304
g66
(dp305
sg75
g290
sg68
(lp306
g61
(g62
g63
NtRp307
(dp308
g66
(dp309
g74
I4
ssg75
g303
sg68
(lp310
S'127.0.0.1-55f52477-473c-42b8-b923-a29e2f1fa64b'
p311
ag61
(g70
g63
NtRp312
(dp313
g66
(dp314
g74
I3
ssg75
Nsg68
(lp315
g61
(g77
g63
NtRp316
(dp317
g66
(dp318
sg75
g312
sg68
(lp319
g61
(g82
g63
NtRp320
(dp321
g66
(dp322
g86
g87
ssg75
g316
sg68
(lp323
S'comment'
p324
asbag61
(g82
g63
NtRp325
(dp326
g66
(dp327
g93
g94
ssg75
g316
sg68
(lp328
S':'
asbag61
(g82
g63
NtRp329
(dp330
g66
(dp331
sg75
g316
sg68
(lp332
g61
(g62
g63
NtRp333
(dp334
g66
(dp335
g74
I3
ssg75
g329
sg68
(lp336
S''
asbasbasbag61
(g77
g63
NtRp337
(dp338
g66
(dp339
sg75
g312
sg68
(lp340
g61
(g82
g63
NtRp341
(dp342
g66
(dp343
g86
g87
ssg75
g337
sg68
(lp344
S'domain'
p345
asbag61
(g82
g63
NtRp346
(dp347
g66
(dp348
g93
g94
ssg75
g337
sg68
(lp349
S':'
asbag61
(g82
g63
NtRp350
(dp351
g66
(dp352
sg75
g337
sg68
(lp353
g61
(g62
g63
NtRp354
(dp355
g66
(dp356
g74
I3
ssg75
g350
sg68
(lp357
S''
asbasbasbag61
(g77
g63
NtRp358
(dp359
g66
(dp360
sg75
g312
sg68
(lp361
g61
(g82
g63
NtRp362
(dp363
g66
(dp364
g86
g87
ssg75
g358
sg68
(lp365
S'expires'
p366
asbag61
(g82
g63
NtRp367
(dp368
g66
(dp369
g93
g94
ssg75
g358
sg68
(lp370
S':'
asbag61
(g82
g63
NtRp371
(dp372
g66
(dp373
sg75
g358
sg68
(lp374
g61
(g62
g63
NtRp375
(dp376
g66
(dp377
g74
I3
ssg75
g371
sg68
(lp378
S''
asbasbasbag61
(g77
g63
NtRp379
(dp380
g66
(dp381
sg75
g312
sg68
(lp382
g61
(g82
g63
NtRp383
(dp384
g66
(dp385
g86
g87
ssg75
g379
sg68
(lp386
S'httponly'
p387
asbag61
(g82
g63
NtRp388
(dp389
g66
(dp390
g93
g94
ssg75
g379
sg68
(lp391
S':'
asbag61
(g82
g63
NtRp392
(dp393
g66
(dp394
sg75
g379
sg68
(lp395
g61
(g62
g63
NtRp396
(dp397
g66
(dp398
g74
I3
ssg75
g392
sg68
(lp399
S''
asbasbasbag61
(g77
g63
NtRp400
(dp401
g66
(dp402
sg75
g312
sg68
(lp403
g61
(g82
g63
NtRp404
(dp405
g66
(dp406
g86
g87
ssg75
g400
sg68
(lp407
S'max-age'
p408
asbag61
(g82
g63
NtRp409
(dp410
g66
(dp411
g93
g94
ssg75
g400
sg68
(lp412
S':'
asbag61
(g82
g63
NtRp413
(dp414
g66
(dp415
sg75
g400
sg68
(lp416
g61
(g62
g63
NtRp417
(dp418
g66
(dp419
g74
I3
ssg75
g413
sg68
(lp420
S''
asbasbasbag61
(g77
g63
NtRp421
(dp422
g66
(dp423
sg75
g312
sg68
(lp424
g61
(g82
g63
NtRp425
(dp426
g66
(dp427
g86
g87
ssg75
g421
sg68
(lp428
S'path'
p429
asbag61
(g82
g63
NtRp430
(dp431
g66
(dp432
g93
g94
ssg75
g421
sg68
(lp433
S':'
asbag61
(g82
g63
NtRp434
(dp435
g66
(dp436
sg75
g421
sg68
(lp437
g61
(g62
g63
NtRp438
(dp439
g66
(dp440
g74
I3
ssg75
g434
sg68
(lp441
S''
asbasbasbag61
(g77
g63
NtRp442
(dp443
g66
(dp444
sg75
g312
sg68
(lp445
g61
(g82
g63
NtRp446
(dp447
g66
(dp448
g86
g87
ssg75
g442
sg68
(lp449
S'secure'
p450
asbag61
(g82
g63
NtRp451
(dp452
g66
(dp453
g93
g94
ssg75
g442
sg68
(lp454
S':'
asbag61
(g82
g63
NtRp455
(dp456
g66
(dp457
sg75
g442
sg68
(lp458
g61
(g62
g63
NtRp459
(dp460
g66
(dp461
g74
I3
ssg75
g455
sg68
(lp462
S''
asbasbasbag61
(g77
g63
NtRp463
(dp464
g66
(dp465
sg75
g312
sg68
(lp466
g61
(g82
g63
NtRp467
(dp468
g66
(dp469
g86
g87
ssg75
g463
sg68
(lp470
S'version'
p471
asbag61
(g82
g63
NtRp472
(dp473
g66
(dp474
g93
g94
ssg75
g463
sg68
(lp475
S':'
asbag61
(g82
g63
NtRp476
(dp477
g66
(dp478
sg75
g463
sg68
(lp479
g61
(g62
g63
NtRp480
(dp481
g66
(dp482
g74
I3
ssg75
g476
sg68
(lp483
S''
asbasbasbasbasbasbasbag61
(g77
g63
NtRp484
(dp485
g66
(dp486
sg75
g286
sg68
(lp487
g61
(g82
g63
NtRp488
(dp489
g66
(dp490
g86
g87
ssg75
g484
sg68
(lp491
S'session_id_cygnuscloud'
p492
asbag61
(g82
g63
NtRp493
(dp494
g66
(dp495
g93
g94
ssg75
g484
sg68
(lp496
S':'
asbag61
(g82
g63
NtRp497
(dp498
g66
(dp499
sg75
g484
sg68
(lp500
g61
(g62
g63
NtRp501
(dp502
g66
(dp503
g74
I4
ssg75
g497
sg68
(lp504
S'127.0.0.1-791acaf2-7386-46dc-b011-4810dc00037c'
p505
ag61
(g70
g63
NtRp506
(dp507
g66
(dp508
g74
I3
ssg75
Nsg68
(lp509
g61
(g77
g63
NtRp510
(dp511
g66
(dp512
sg75
g506
sg68
(lp513
g61
(g82
g63
NtRp514
(dp515
g66
(dp516
g86
g87
ssg75
g510
sg68
(lp517
g324
asbag61
(g82
g63
NtRp518
(dp519
g66
(dp520
g93
g94
ssg75
g510
sg68
(lp521
S':'
asbag61
(g82
g63
NtRp522
(dp523
g66
(dp524
sg75
g510
sg68
(lp525
g61
(g62
g63
NtRp526
(dp527
g66
(dp528
g74
I3
ssg75
g522
sg68
(lp529
S''
asbasbasbag61
(g77
g63
NtRp530
(dp531
g66
(dp532
sg75
g506
sg68
(lp533
g61
(g82
g63
NtRp534
(dp535
g66
(dp536
g86
g87
ssg75
g530
sg68
(lp537
g345
asbag61
(g82
g63
NtRp538
(dp539
g66
(dp540
g93
g94
ssg75
g530
sg68
(lp541
S':'
asbag61
(g82
g63
NtRp542
(dp543
g66
(dp544
sg75
g530
sg68
(lp545
g61
(g62
g63
NtRp546
(dp547
g66
(dp548
g74
I3
ssg75
g542
sg68
(lp549
S''
asbasbasbag61
(g77
g63
NtRp550
(dp551
g66
(dp552
sg75
g506
sg68
(lp553
g61
(g82
g63
NtRp554
(dp555
g66
(dp556
g86
g87
ssg75
g550
sg68
(lp557
g366
asbag61
(g82
g63
NtRp558
(dp559
g66
(dp560
g93
g94
ssg75
g550
sg68
(lp561
S':'
asbag61
(g82
g63
NtRp562
(dp563
g66
(dp564
sg75
g550
sg68
(lp565
g61
(g62
g63
NtRp566
(dp567
g66
(dp568
g74
I3
ssg75
g562
sg68
(lp569
S''
asbasbasbag61
(g77
g63
NtRp570
(dp571
g66
(dp572
sg75
g506
sg68
(lp573
g61
(g82
g63
NtRp574
(dp575
g66
(dp576
g86
g87
ssg75
g570
sg68
(lp577
g387
asbag61
(g82
g63
NtRp578
(dp579
g66
(dp580
g93
g94
ssg75
g570
sg68
(lp581
S':'
asbag61
(g82
g63
NtRp582
(dp583
g66
(dp584
sg75
g570
sg68
(lp585
g61
(g62
g63
NtRp586
(dp587
g66
(dp588
g74
I3
ssg75
g582
sg68
(lp589
S''
asbasbasbag61
(g77
g63
NtRp590
(dp591
g66
(dp592
sg75
g506
sg68
(lp593
g61
(g82
g63
NtRp594
(dp595
g66
(dp596
g86
g87
ssg75
g590
sg68
(lp597
g408
asbag61
(g82
g63
NtRp598
(dp599
g66
(dp600
g93
g94
ssg75
g590
sg68
(lp601
S':'
asbag61
(g82
g63
NtRp602
(dp603
g66
(dp604
sg75
g590
sg68
(lp605
g61
(g62
g63
NtRp606
(dp607
g66
(dp608
g74
I3
ssg75
g602
sg68
(lp609
S''
asbasbasbag61
(g77
g63
NtRp610
(dp611
g66
(dp612
sg75
g506
sg68
(lp613
g61
(g82
g63
NtRp614
(dp615
g66
(dp616
g86
g87
ssg75
g610
sg68
(lp617
g429
asbag61
(g82
g63
NtRp618
(dp619
g66
(dp620
g93
g94
ssg75
g610
sg68
(lp621
S':'
asbag61
(g82
g63
NtRp622
(dp623
g66
(dp624
sg75
g610
sg68
(lp625
g61
(g62
g63
NtRp626
(dp627
g66
(dp628
g74
I3
ssg75
g622
sg68
(lp629
S''
asbasbasbag61
(g77
g63
NtRp630
(dp631
g66
(dp632
sg75
g506
sg68
(lp633
g61
(g82
g63
NtRp634
(dp635
g66
(dp636
g86
g87
ssg75
g630
sg68
(lp637
g450
asbag61
(g82
g63
NtRp638
(dp639
g66
(dp640
g93
g94
ssg75
g630
sg68
(lp641
S':'
asbag61
(g82
g63
NtRp642
(dp643
g66
(dp644
sg75
g630
sg68
(lp645
g61
(g62
g63
NtRp646
(dp647
g66
(dp648
g74
I3
ssg75
g642
sg68
(lp649
S''
asbasbasbag61
(g77
g63
NtRp650
(dp651
g66
(dp652
sg75
g506
sg68
(lp653
g61
(g82
g63
NtRp654
(dp655
g66
(dp656
g86
g87
ssg75
g650
sg68
(lp657
g471
asbag61
(g82
g63
NtRp658
(dp659
g66
(dp660
g93
g94
ssg75
g650
sg68
(lp661
S':'
asbag61
(g82
g63
NtRp662
(dp663
g66
(dp664
sg75
g650
sg68
(lp665
g61
(g62
g63
NtRp666
(dp667
g66
(dp668
g74
I3
ssg75
g662
sg68
(lp669
S''
asbasbasbasbasbasbasbag61
(g77
g63
NtRp670
(dp671
g66
(dp672
sg75
g286
sg68
(lp673
g61
(g82
g63
NtRp674
(dp675
g66
(dp676
g86
g87
ssg75
g670
sg68
(lp677
S'session_id_welcome'
p678
asbag61
(g82
g63
NtRp679
(dp680
g66
(dp681
g93
g94
ssg75
g670
sg68
(lp682
S':'
asbag61
(g82
g63
NtRp683
(dp684
g66
(dp685
sg75
g670
sg68
(lp686
g61
(g62
g63
NtRp687
(dp688
g66
(dp689
g74
I4
ssg75
g683
sg68
(lp690
S'127.0.0.1-ed3399df-33a9-4506-9f65-53bddd2578f7'
p691
ag61
(g70
g63
NtRp692
(dp693
g66
(dp694
g74
I3
ssg75
Nsg68
(lp695
g61
(g77
g63
NtRp696
(dp697
g66
(dp698
sg75
g692
sg68
(lp699
g61
(g82
g63
NtRp700
(dp701
g66
(dp702
g86
g87
ssg75
g696
sg68
(lp703
g324
asbag61
(g82
g63
NtRp704
(dp705
g66
(dp706
g93
g94
ssg75
g696
sg68
(lp707
S':'
asbag61
(g82
g63
NtRp708
(dp709
g66
(dp710
sg75
g696
sg68
(lp711
g61
(g62
g63
NtRp712
(dp713
g66
(dp714
g74
I3
ssg75
g708
sg68
(lp715
S''
asbasbasbag61
(g77
g63
NtRp716
(dp717
g66
(dp718
sg75
g692
sg68
(lp719
g61
(g82
g63
NtRp720
(dp721
g66
(dp722
g86
g87
ssg75
g716
sg68
(lp723
g345
asbag61
(g82
g63
NtRp724
(dp725
g66
(dp726
g93
g94
ssg75
g716
sg68
(lp727
S':'
asbag61
(g82
g63
NtRp728
(dp729
g66
(dp730
sg75
g716
sg68
(lp731
g61
(g62
g63
NtRp732
(dp733
g66
(dp734
g74
I3
ssg75
g728
sg68
(lp735
S''
asbasbasbag61
(g77
g63
NtRp736
(dp737
g66
(dp738
sg75
g692
sg68
(lp739
g61
(g82
g63
NtRp740
(dp741
g66
(dp742
g86
g87
ssg75
g736
sg68
(lp743
g366
asbag61
(g82
g63
NtRp744
(dp745
g66
(dp746
g93
g94
ssg75
g736
sg68
(lp747
S':'
asbag61
(g82
g63
NtRp748
(dp749
g66
(dp750
sg75
g736
sg68
(lp751
g61
(g62
g63
NtRp752
(dp753
g66
(dp754
g74
I3
ssg75
g748
sg68
(lp755
S''
asbasbasbag61
(g77
g63
NtRp756
(dp757
g66
(dp758
sg75
g692
sg68
(lp759
g61
(g82
g63
NtRp760
(dp761
g66
(dp762
g86
g87
ssg75
g756
sg68
(lp763
g387
asbag61
(g82
g63
NtRp764
(dp765
g66
(dp766
g93
g94
ssg75
g756
sg68
(lp767
S':'
asbag61
(g82
g63
NtRp768
(dp769
g66
(dp770
sg75
g756
sg68
(lp771
g61
(g62
g63
NtRp772
(dp773
g66
(dp774
g74
I3
ssg75
g768
sg68
(lp775
S''
asbasbasbag61
(g77
g63
NtRp776
(dp777
g66
(dp778
sg75
g692
sg68
(lp779
g61
(g82
g63
NtRp780
(dp781
g66
(dp782
g86
g87
ssg75
g776
sg68
(lp783
g408
asbag61
(g82
g63
NtRp784
(dp785
g66
(dp786
g93
g94
ssg75
g776
sg68
(lp787
S':'
asbag61
(g82
g63
NtRp788
(dp789
g66
(dp790
sg75
g776
sg68
(lp791
g61
(g62
g63
NtRp792
(dp793
g66
(dp794
g74
I3
ssg75
g788
sg68
(lp795
S''
asbasbasbag61
(g77
g63
NtRp796
(dp797
g66
(dp798
sg75
g692
sg68
(lp799
g61
(g82
g63
NtRp800
(dp801
g66
(dp802
g86
g87
ssg75
g796
sg68
(lp803
g429
asbag61
(g82
g63
NtRp804
(dp805
g66
(dp806
g93
g94
ssg75
g796
sg68
(lp807
S':'
asbag61
(g82
g63
NtRp808
(dp809
g66
(dp810
sg75
g796
sg68
(lp811
g61
(g62
g63
NtRp812
(dp813
g66
(dp814
g74
I3
ssg75
g808
sg68
(lp815
S''
asbasbasbag61
(g77
g63
NtRp816
(dp817
g66
(dp818
sg75
g692
sg68
(lp819
g61
(g82
g63
NtRp820
(dp821
g66
(dp822
g86
g87
ssg75
g816
sg68
(lp823
g450
asbag61
(g82
g63
NtRp824
(dp825
g66
(dp826
g93
g94
ssg75
g816
sg68
(lp827
S':'
asbag61
(g82
g63
NtRp828
(dp829
g66
(dp830
sg75
g816
sg68
(lp831
g61
(g62
g63
NtRp832
(dp833
g66
(dp834
g74
I3
ssg75
g828
sg68
(lp835
S''
asbasbasbag61
(g77
g63
NtRp836
(dp837
g66
(dp838
sg75
g692
sg68
(lp839
g61
(g82
g63
NtRp840
(dp841
g66
(dp842
g86
g87
ssg75
g836
sg68
(lp843
g471
asbag61
(g82
g63
NtRp844
(dp845
g66
(dp846
g93
g94
ssg75
g836
sg68
(lp847
S':'
asbag61
(g82
g63
NtRp848
(dp849
g66
(dp850
sg75
g836
sg68
(lp851
g61
(g62
g63
NtRp852
(dp853
g66
(dp854
g74
I3
ssg75
g848
sg68
(lp855
S''
asbasbasbasbasbasbasbasbasbasbasbag61
(g77
g63
NtRp856
(dp857
g66
(dp858
sg75
g71
sg68
(lp859
g61
(g82
g63
NtRp860
(dp861
g66
(dp862
g86
g87
ssg75
g856
sg68
(lp863
S'env'
p864
asbag61
(g82
g63
NtRp865
(dp866
g66
(dp867
g93
g94
ssg75
g856
sg68
(lp868
S':'
asbag61
(g82
g63
NtRp869
(dp870
g66
(dp871
sg75
g856
sg68
(lp872
g61
(g62
g63
NtRp873
(dp874
g66
(dp875
g74
I5
ssg75
g869
sg68
(lp876
g61
(g70
g63
NtRp877
(dp878
g66
(dp879
g74
I4
ssg75
Nsg68
(lp880
g61
(g77
g63
NtRp881
(dp882
g66
(dp883
sg75
g877
sg68
(lp884
g61
(g82
g63
NtRp885
(dp886
g66
(dp887
g86
g87
ssg75
g881
sg68
(lp888
S'app_folders'
p889
asbag61
(g82
g63
NtRp890
(dp891
g66
(dp892
g93
g94
ssg75
g881
sg68
(lp893
S':'
asbag61
(g82
g63
NtRp894
(dp895
g66
(dp896
sg75
g881
sg68
(lp897
g61
(g62
g63
NtRp898
(dp899
g66
(dp900
g74
I4
ssg75
g894
sg68
(lp901
S"set(['/home/adrian/web2py/applications/admin/', '/home/adrian/web2py/applications/welcome/', '/home/adrian/web2py/applications/CygnusCloud/'])"
p902
asbasbasbag61
(g77
g63
NtRp903
(dp904
g66
(dp905
sg75
g877
sg68
(lp906
g61
(g82
g63
NtRp907
(dp908
g66
(dp909
g86
g87
ssg75
g903
sg68
(lp910
S'applications_parent'
p911
asbag61
(g82
g63
NtRp912
(dp913
g66
(dp914
g93
g94
ssg75
g903
sg68
(lp915
S':'
asbag61
(g82
g63
NtRp916
(dp917
g66
(dp918
sg75
g903
sg68
(lp919
g61
(g62
g63
NtRp920
(dp921
g66
(dp922
g74
I4
ssg75
g916
sg68
(lp923
S'/home/adrian/web2py'
p924
asbasbasbag61
(g77
g63
NtRp925
(dp926
g66
(dp927
sg75
g877
sg68
(lp928
g61
(g82
g63
NtRp929
(dp930
g66
(dp931
g86
g87
ssg75
g925
sg68
(lp932
S'cmd_args'
p933
asbag61
(g82
g63
NtRp934
(dp935
g66
(dp936
g93
g94
ssg75
g925
sg68
(lp937
S':'
asbag61
(g82
g63
NtRp938
(dp939
g66
(dp940
sg75
g925
sg68
(lp941
g61
(g62
g63
NtRp942
(dp943
g66
(dp944
g74
I4
ssg75
g938
sg68
(lp945
g61
(g70
g63
NtRp946
(dp947
g66
(dp948
g74
I3
ssg75
Nsg68
(lp949
sbasbasbasbag61
(g77
g63
NtRp950
(dp951
g66
(dp952
sg75
g877
sg68
(lp953
g61
(g82
g63
NtRp954
(dp955
g66
(dp956
g86
g87
ssg75
g950
sg68
(lp957
S'cmd_options'
p958
asbag61
(g82
g63
NtRp959
(dp960
g66
(dp961
g93
g94
ssg75
g950
sg68
(lp962
S':'
asbag61
(g82
g63
NtRp963
(dp964
g66
(dp965
sg75
g950
sg68
(lp966
g61
(g62
g63
NtRp967
(dp968
g66
(dp969
g74
I4
ssg75
g963
sg68
(lp970
S"<Values at 0x2a81bd8: {'verbose': False, 'ip': '127.0.0.1', 'with_scheduler': False, 'ips': [], 'shutdown_timeout': 5, 'taskbar': False, 'port': 8000, 'maxthreads': None, 'softcron': False, 'server_name': 'adri-EasyNote', 'bpython': False, 'nogui': False, 'pid_filename': 'httpserver.pid', 'extcron': False, 'runcron': False, 'run_system_tests': False, 'test': None, 'folder': '/home/adrian/web2py', 'config': '', 'minthreads': None, 'winservice': '', 'shell': None, 'run': '', 'log_filename': 'httpserver.log', 'debuglevel': 30, 'args': [''], 'socket_timeout': 5, 'ssl_ca_certificate': None, 'scheduler': None, 'profiler_filename': None, 'ssl_private_key': '', 'scheduler_groups': None, 'password': 'cygnuscloud2012', 'request_queue_size': 5, 'ssl_certificate': '', 'cronjob': False, 'numthreads': None, 'quiet': False, 'interfaces': None, 'import_models': False, 'timeout': 10, 'plain': False, 'nobanner': False}>"
p971
asbasbasbag61
(g77
g63
NtRp972
(dp973
g66
(dp974
sg75
g877
sg68
(lp975
g61
(g82
g63
NtRp976
(dp977
g66
(dp978
g86
g87
ssg75
g972
sg68
(lp979
S'db_sessions'
p980
asbag61
(g82
g63
NtRp981
(dp982
g66
(dp983
g93
g94
ssg75
g972
sg68
(lp984
S':'
asbag61
(g82
g63
NtRp985
(dp986
g66
(dp987
sg75
g972
sg68
(lp988
g61
(g62
g63
NtRp989
(dp990
g66
(dp991
g74
I4
ssg75
g985
sg68
(lp992
S'set([])'
p993
asbasbasbag61
(g77
g63
NtRp994
(dp995
g66
(dp996
sg75
g877
sg68
(lp997
g61
(g82
g63
NtRp998
(dp999
g66
(dp1000
g86
g87
ssg75
g994
sg68
(lp1001
S'debugging'
p1002
asbag61
(g82
g63
NtRp1003
(dp1004
g66
(dp1005
g93
g94
ssg75
g994
sg68
(lp1006
S':'
asbag61
(g82
g63
NtRp1007
(dp1008
g66
(dp1009
sg75
g994
sg68
(lp1010
g61
(g62
g63
NtRp1011
(dp1012
g66
(dp1013
g74
I4
ssg75
g1007
sg68
(lp1014
g104
asbasbasbag61
(g77
g63
NtRp1015
(dp1016
g66
(dp1017
sg75
g877
sg68
(lp1018
g61
(g82
g63
NtRp1019
(dp1020
g66
(dp1021
g86
g87
ssg75
g1015
sg68
(lp1022
S'gluon_parent'
p1023
asbag61
(g82
g63
NtRp1024
(dp1025
g66
(dp1026
g93
g94
ssg75
g1015
sg68
(lp1027
S':'
asbag61
(g82
g63
NtRp1028
(dp1029
g66
(dp1030
sg75
g1015
sg68
(lp1031
g61
(g62
g63
NtRp1032
(dp1033
g66
(dp1034
g74
I4
ssg75
g1028
sg68
(lp1035
S'/home/adrian/web2py'
p1036
asbasbasbag61
(g77
g63
NtRp1037
(dp1038
g66
(dp1039
sg75
g877
sg68
(lp1040
g61
(g82
g63
NtRp1041
(dp1042
g66
(dp1043
g86
g87
ssg75
g1037
sg68
(lp1044
S'http_accept'
p1045
asbag61
(g82
g63
NtRp1046
(dp1047
g66
(dp1048
g93
g94
ssg75
g1037
sg68
(lp1049
S':'
asbag61
(g82
g63
NtRp1050
(dp1051
g66
(dp1052
sg75
g1037
sg68
(lp1053
g61
(g62
g63
NtRp1054
(dp1055
g66
(dp1056
g74
I4
ssg75
g1050
sg68
(lp1057
S'text/html,application/xhtml+xml,application/xml;q=0.9,*/*;q=0.8'
p1058
asbasbasbag61
(g77
g63
NtRp1059
(dp1060
g66
(dp1061
sg75
g877
sg68
(lp1062
g61
(g82
g63
NtRp1063
(dp1064
g66
(dp1065
g86
g87
ssg75
g1059
sg68
(lp1066
S'http_accept_charset'
p1067
asbag61
(g82
g63
NtRp1068
(dp1069
g66
(dp1070
g93
g94
ssg75
g1059
sg68
(lp1071
S':'
asbag61
(g82
g63
NtRp1072
(dp1073
g66
(dp1074
sg75
g1059
sg68
(lp1075
g61
(g62
g63
NtRp1076
(dp1077
g66
(dp1078
g74
I4
ssg75
g1072
sg68
(lp1079
S'ISO-8859-1,utf-8;q=0.7,*;q=0.3'
p1080
asbasbasbag61
(g77
g63
NtRp1081
(dp1082
g66
(dp1083
sg75
g877
sg68
(lp1084
g61
(g82
g63
NtRp1085
(dp1086
g66
(dp1087
g86
g87
ssg75
g1081
sg68
(lp1088
S'http_accept_encoding'
p1089
asbag61
(g82
g63
NtRp1090
(dp1091
g66
(dp1092
g93
g94
ssg75
g1081
sg68
(lp1093
S':'
asbag61
(g82
g63
NtRp1094
(dp1095
g66
(dp1096
sg75
g1081
sg68
(lp1097
g61
(g62
g63
NtRp1098
(dp1099
g66
(dp1100
g74
I4
ssg75
g1094
sg68
(lp1101
S'gzip,deflate,sdch'
p1102
asbasbasbag61
(g77
g63
NtRp1103
(dp1104
g66
(dp1105
sg75
g877
sg68
(lp1106
g61
(g82
g63
NtRp1107
(dp1108
g66
(dp1109
g86
g87
ssg75
g1103
sg68
(lp1110
S'http_accept_language'
p1111
asbag61
(g82
g63
NtRp1112
(dp1113
g66
(dp1114
g93
g94
ssg75
g1103
sg68
(lp1115
S':'
asbag61
(g82
g63
NtRp1116
(dp1117
g66
(dp1118
sg75
g1103
sg68
(lp1119
g61
(g62
g63
NtRp1120
(dp1121
g66
(dp1122
g74
I4
ssg75
g1116
sg68
(lp1123
S'es-ES,es;q=0.8'
p1124
asbasbasbag61
(g77
g63
NtRp1125
(dp1126
g66
(dp1127
sg75
g877
sg68
(lp1128
g61
(g82
g63
NtRp1129
(dp1130
g66
(dp1131
g86
g87
ssg75
g1125
sg68
(lp1132
S'http_cache_control'
p1133
asbag61
(g82
g63
NtRp1134
(dp1135
g66
(dp1136
g93
g94
ssg75
g1125
sg68
(lp1137
S':'
asbag61
(g82
g63
NtRp1138
(dp1139
g66
(dp1140
sg75
g1125
sg68
(lp1141
g61
(g62
g63
NtRp1142
(dp1143
g66
(dp1144
g74
I4
ssg75
g1138
sg68
(lp1145
S'max-age=0'
p1146
asbasbasbag61
(g77
g63
NtRp1147
(dp1148
g66
(dp1149
sg75
g877
sg68
(lp1150
g61
(g82
g63
NtRp1151
(dp1152
g66
(dp1153
g86
g87
ssg75
g1147
sg68
(lp1154
S'http_connection'
p1155
asbag61
(g82
g63
NtRp1156
(dp1157
g66
(dp1158
g93
g94
ssg75
g1147
sg68
(lp1159
S':'
asbag61
(g82
g63
NtRp1160
(dp1161
g66
(dp1162
sg75
g1147
sg68
(lp1163
g61
(g62
g63
NtRp1164
(dp1165
g66
(dp1166
g74
I4
ssg75
g1160
sg68
(lp1167
S'keep-alive'
p1168
asbasbasbag61
(g77
g63
NtRp1169
(dp1170
g66
(dp1171
sg75
g877
sg68
(lp1172
g61
(g82
g63
NtRp1173
(dp1174
g66
(dp1175
g86
g87
ssg75
g1169
sg68
(lp1176
S'http_cookie'
p1177
asbag61
(g82
g63
NtRp1178
(dp1179
g66
(dp1180
g93
g94
ssg75
g1169
sg68
(lp1181
S':'
asbag61
(g82
g63
NtRp1182
(dp1183
g66
(dp1184
sg75
g1169
sg68
(lp1185
g61
(g62
g63
NtRp1186
(dp1187
g66
(dp1188
g74
I4
ssg75
g1182
sg68
(lp1189
S'session_id_welcome=127.0.0.1-ed3399df-33a9-4506-9f65-53bddd2578f7; session_id_cygnuscloud=127.0.0.1-791acaf2-7386-46dc-b011-4810dc00037c; session_id_admin=127.0.0.1-55f52477-473c-42b8-b923-a29e2f1fa64b'
p1190
asbasbasbag61
(g77
g63
NtRp1191
(dp1192
g66
(dp1193
sg75
g877
sg68
(lp1194
g61
(g82
g63
NtRp1195
(dp1196
g66
(dp1197
g86
g87
ssg75
g1191
sg68
(lp1198
S'http_host'
p1199
asbag61
(g82
g63
NtRp1200
(dp1201
g66
(dp1202
g93
g94
ssg75
g1191
sg68
(lp1203
S':'
asbag61
(g82
g63
NtRp1204
(dp1205
g66
(dp1206
sg75
g1191
sg68
(lp1207
g61
(g62
g63
NtRp1208
(dp1209
g66
(dp1210
g74
I4
ssg75
g1204
sg68
(lp1211
S'127.0.0.1:8000'
p1212
asbasbasbag61
(g77
g63
NtRp1213
(dp1214
g66
(dp1215
sg75
g877
sg68
(lp1216
g61
(g82
g63
NtRp1217
(dp1218
g66
(dp1219
g86
g87
ssg75
g1213
sg68
(lp1220
S'http_referer'
p1221
asbag61
(g82
g63
NtRp1222
(dp1223
g66
(dp1224
g93
g94
ssg75
g1213
sg68
(lp1225
S':'
asbag61
(g82
g63
NtRp1226
(dp1227
g66
(dp1228
sg75
g1213
sg68
(lp1229
g61
(g62
g63
NtRp1230
(dp1231
g66
(dp1232
g74
I4
ssg75
g1226
sg68
(lp1233
S'http://127.0.0.1:8000/CygnusCloud/appadmin/select/userDB?query=userDB.auth_user.id%3E0'
p1234
asbasbasbag61
(g77
g63
NtRp1235
(dp1236
g66
(dp1237
sg75
g877
sg68
(lp1238
g61
(g82
g63
NtRp1239
(dp1240
g66
(dp1241
g86
g87
ssg75
g1235
sg68
(lp1242
S'http_user_agent'
p1243
asbag61
(g82
g63
NtRp1244
(dp1245
g66
(dp1246
g93
g94
ssg75
g1235
sg68
(lp1247
S':'
asbag61
(g82
g63
NtRp1248
(dp1249
g66
(dp1250
sg75
g1235
sg68
(lp1251
g61
(g62
g63
NtRp1252
(dp1253
g66
(dp1254
g74
I4
ssg75
g1248
sg68
(lp1255
S'Mozilla/5.0 (X11; Linux x86_64) AppleWebKit/537.11 (KHTML, like Gecko) Chrome/23.0.1271.64 Safari/537.11'
p1256
asbasbasbag61
(g77
g63
NtRp1257
(dp1258
g66
(dp1259
sg75
g877
sg68
(lp1260
g61
(g82
g63
NtRp1261
(dp1262
g66
(dp1263
g86
g87
ssg75
g1257
sg68
(lp1264
S'is_jython'
p1265
asbag61
(g82
g63
NtRp1266
(dp1267
g66
(dp1268
g93
g94
ssg75
g1257
sg68
(lp1269
S':'
asbag61
(g82
g63
NtRp1270
(dp1271
g66
(dp1272
sg75
g1257
sg68
(lp1273
g61
(g62
g63
NtRp1274
(dp1275
g66
(dp1276
g74
I4
ssg75
g1270
sg68
(lp1277
g104
asbasbasbag61
(g77
g63
NtRp1278
(dp1279
g66
(dp1280
sg75
g877
sg68
(lp1281
g61
(g82
g63
NtRp1282
(dp1283
g66
(dp1284
g86
g87
ssg75
g1278
sg68
(lp1285
S'is_pypy'
p1286
asbag61
(g82
g63
NtRp1287
(dp1288
g66
(dp1289
g93
g94
ssg75
g1278
sg68
(lp1290
S':'
asbag61
(g82
g63
NtRp1291
(dp1292
g66
(dp1293
sg75
g1278
sg68
(lp1294
g61
(g62
g63
NtRp1295
(dp1296
g66
(dp1297
g74
I4
ssg75
g1291
sg68
(lp1298
g104
asbasbasbag61
(g77
g63
NtRp1299
(dp1300
g66
(dp1301
sg75
g877
sg68
(lp1302
g61
(g82
g63
NtRp1303
(dp1304
g66
(dp1305
g86
g87
ssg75
g1299
sg68
(lp1306
S'local_hosts'
p1307
asbag61
(g82
g63
NtRp1308
(dp1309
g66
(dp1310
g93
g94
ssg75
g1299
sg68
(lp1311
S':'
asbag61
(g82
g63
NtRp1312
(dp1313
g66
(dp1314
sg75
g1299
sg68
(lp1315
g61
(g62
g63
NtRp1316
(dp1317
g66
(dp1318
g74
I4
ssg75
g1312
sg68
(lp1319
g61
(g70
g63
NtRp1320
(dp1321
g66
(dp1322
g74
I3
ssg75
Nsg68
(lp1323
g61
(g77
g63
NtRp1324
(dp1325
g66
(dp1326
sg75
g1320
sg68
(lp1327
g61
(g82
g63
NtRp1328
(dp1329
g66
(dp1330
sg75
g1324
sg68
(lp1331
g61
(g62
g63
NtRp1332
(dp1333
g66
(dp1334
g74
I3
ssg75
g1328
sg68
(lp1335
S'adri-EasyNote'
p1336
asbasbasbag61
(g77
g63
NtRp1337
(dp1338
g66
(dp1339
sg75
g1320
sg68
(lp1340
g61
(g82
g63
NtRp1341
(dp1342
g66
(dp1343
sg75
g1337
sg68
(lp1344
g61
(g62
g63
NtRp1345
(dp1346
g66
(dp1347
g74
I3
ssg75
g1341
sg68
(lp1348
S'::1'
p1349
asbasbasbag61
(g77
g63
NtRp1350
(dp1351
g66
(dp1352
sg75
g1320
sg68
(lp1353
g61
(g82
g63
NtRp1354
(dp1355
g66
(dp1356
sg75
g1350
sg68
(lp1357
g61
(g62
g63
NtRp1358
(dp1359
g66
(dp1360
g74
I3
ssg75
g1354
sg68
(lp1361
S'127.0.1.1'
p1362
asbasbasbag61
(g77
g63
NtRp1363
(dp1364
g66
(dp1365
sg75
g1320
sg68
(lp1366
g61
(g82
g63
NtRp1367
(dp1368
g66
(dp1369
sg75
g1363
sg68
(lp1370
g61
(g62
g63
NtRp1371
(dp1372
g66
(dp1373
g74
I3
ssg75
g1367
sg68
(lp1374
S'::ffff:127.0.0.1'
p1375
asbasbasbag61
(g77
g63
NtRp1376
(dp1377
g66
(dp1378
sg75
g1320
sg68
(lp1379
g61
(g82
g63
NtRp1380
(dp1381
g66
(dp1382
sg75
g1376
sg68
(lp1383
g61
(g62
g63
NtRp1384
(dp1385
g66
(dp1386
g74
I3
ssg75
g1380
sg68
(lp1387
S'127.0.0.1'
p1388
asbasbasbasbasbasbasbag61
(g77
g63
NtRp1389
(dp1390
g66
(dp1391
sg75
g877
sg68
(lp1392
g61
(g82
g63
NtRp1393
(dp1394
g66
(dp1395
g86
g87
ssg75
g1389
sg68
(lp1396
S'path_info'
p1397
asbag61
(g82
g63
NtRp1398
(dp1399
g66
(dp1400
g93
g94
ssg75
g1389
sg68
(lp1401
S':'
asbag61
(g82
g63
NtRp1402
(dp1403
g66
(dp1404
sg75
g1389
sg68
(lp1405
g61
(g62
g63
NtRp1406
(dp1407
g66
(dp1408
g74
I4
ssg75
g1402
sg68
(lp1409
S'/CygnusCloud/appadmin/insert/userDB/auth_user'
p1410
asbasbasbag61
(g77
g63
NtRp1411
(dp1412
g66
(dp1413
sg75
g877
sg68
(lp1414
g61
(g82
g63
NtRp1415
(dp1416
g66
(dp1417
g86
g87
ssg75
g1411
sg68
(lp1418
S'query_string'
p1419
asbag61
(g82
g63
NtRp1420
(dp1421
g66
(dp1422
g93
g94
ssg75
g1411
sg68
(lp1423
S':'
asbag61
(g82
g63
NtRp1424
(dp1425
g66
(dp1426
sg75
g1411
sg68
(lp1427
g61
(g62
g63
NtRp1428
(dp1429
g66
(dp1430
g74
I4
ssg75
g1424
sg68
(lp1431
S''
asbasbasbag61
(g77
g63
NtRp1432
(dp1433
g66
(dp1434
sg75
g877
sg68
(lp1435
g61
(g82
g63
NtRp1436
(dp1437
g66
(dp1438
g86
g87
ssg75
g1432
sg68
(lp1439
S'remote_addr'
p1440
asbag61
(g82
g63
NtRp1441
(dp1442
g66
(dp1443
g93
g94
ssg75
g1432
sg68
(lp1444
S':'
asbag61
(g82
g63
NtRp1445
(dp1446
g66
(dp1447
sg75
g1432
sg68
(lp1448
g61
(g62
g63
NtRp1449
(dp1450
g66
(dp1451
g74
I4
ssg75
g1445
sg68
(lp1452
g242
asbasbasbag61
(g77
g63
NtRp1453
(dp1454
g66
(dp1455
sg75
g877
sg68
(lp1456
g61
(g82
g63
NtRp1457
(dp1458
g66
(dp1459
g86
g87
ssg75
g1453
sg68
(lp1460
S'remote_port'
p1461
asbag61
(g82
g63
NtRp1462
(dp1463
g66
(dp1464
g93
g94
ssg75
g1453
sg68
(lp1465
S':'
asbag61
(g82
g63
NtRp1466
(dp1467
g66
(dp1468
sg75
g1453
sg68
(lp1469
g61
(g62
g63
NtRp1470
(dp1471
g66
(dp1472
g74
I4
ssg75
g1466
sg68
(lp1473
S'42333'
p1474
asbasbasbag61
(g77
g63
NtRp1475
(dp1476
g66
(dp1477
sg75
g877
sg68
(lp1478
g61
(g82
g63
NtRp1479
(dp1480
g66
(dp1481
g86
g87
ssg75
g1475
sg68
(lp1482
S'request_method'
p1483
asbag61
(g82
g63
NtRp1484
(dp1485
g66
(dp1486
g93
g94
ssg75
g1475
sg68
(lp1487
S':'
asbag61
(g82
g63
NtRp1488
(dp1489
g66
(dp1490
sg75
g1475
sg68
(lp1491
g61
(g62
g63
NtRp1492
(dp1493
g66
(dp1494
g74
I4
ssg75
g1488
sg68
(lp1495
S'GET'
p1496
asbasbasbag61
(g77
g63
NtRp1497
(dp1498
g66
(dp1499
sg75
g877
sg68
(lp1500
g61
(g82
g63
NtRp1501
(dp1502
g66
(dp1503
g86
g87
ssg75
g1497
sg68
(lp1504
S'request_uri'
p1505
asbag61
(g82
g63
NtRp1506
(dp1507
g66
(dp1508
g93
g94
ssg75
g1497
sg68
(lp1509
S':'
asbag61
(g82
g63
NtRp1510
(dp1511
g66
(dp1512
sg75
g1497
sg68
(lp1513
g61
(g62
g63
NtRp1514
(dp1515
g66
(dp1516
g74
I4
ssg75
g1510
sg68
(lp1517
g1410
asbasbasbag61
(g77
g63
NtRp1518
(dp1519
g66
(dp1520
sg75
g877
sg68
(lp1521
g61
(g82
g63
NtRp1522
(dp1523
g66
(dp1524
g86
g87
ssg75
g1518
sg68
(lp1525
S'script_name'
p1526
asbag61
(g82
g63
NtRp1527
(dp1528
g66
(dp1529
g93
g94
ssg75
g1518
sg68
(lp1530
S':'
asbag61
(g82
g63
NtRp1531
(dp1532
g66
(dp1533
sg75
g1518
sg68
(lp1534
g61
(g62
g63
NtRp1535
(dp1536
g66
(dp1537
g74
I4
ssg75
g1531
sg68
(lp1538
S''
asbasbasbag61
(g77
g63
NtRp1539
(dp1540
g66
(dp1541
sg75
g877
sg68
(lp1542
g61
(g82
g63
NtRp1543
(dp1544
g66
(dp1545
g86
g87
ssg75
g1539
sg68
(lp1546
S'server_name'
p1547
asbag61
(g82
g63
NtRp1548
(dp1549
g66
(dp1550
g93
g94
ssg75
g1539
sg68
(lp1551
S':'
asbag61
(g82
g63
NtRp1552
(dp1553
g66
(dp1554
sg75
g1539
sg68
(lp1555
g61
(g62
g63
NtRp1556
(dp1557
g66
(dp1558
g74
I4
ssg75
g1552
sg68
(lp1559
S'adri-EasyNote'
p1560
asbasbasbag61
(g77
g63
NtRp1561
(dp1562
g66
(dp1563
sg75
g877
sg68
(lp1564
g61
(g82
g63
NtRp1565
(dp1566
g66
(dp1567
g86
g87
ssg75
g1561
sg68
(lp1568
S'server_port'
p1569
asbag61
(g82
g63
NtRp1570
(dp1571
g66
(dp1572
g93
g94
ssg75
g1561
sg68
(lp1573
S':'
asbag61
(g82
g63
NtRp1574
(dp1575
g66
(dp1576
sg75
g1561
sg68
(lp1577
g61
(g62
g63
NtRp1578
(dp1579
g66
(dp1580
g74
I4
ssg75
g1574
sg68
(lp1581
S'8000'
p1582
asbasbasbag61
(g77
g63
NtRp1583
(dp1584
g66
(dp1585
sg75
g877
sg68
(lp1586
g61
(g82
g63
NtRp1587
(dp1588
g66
(dp1589
g86
g87
ssg75
g1583
sg68
(lp1590
S'server_protocol'
p1591
asbag61
(g82
g63
NtRp1592
(dp1593
g66
(dp1594
g93
g94
ssg75
g1583
sg68
(lp1595
S':'
asbag61
(g82
g63
NtRp1596
(dp1597
g66
(dp1598
sg75
g1583
sg68
(lp1599
g61
(g62
g63
NtRp1600
(dp1601
g66
(dp1602
g74
I4
ssg75
g1596
sg68
(lp1603
S'HTTP/1.1'
p1604
asbasbasbag61
(g77
g63
NtRp1605
(dp1606
g66
(dp1607
sg75
g877
sg68
(lp1608
g61
(g82
g63
NtRp1609
(dp1610
g66
(dp1611
g86
g87
ssg75
g1605
sg68
(lp1612
S'server_software'
p1613
asbag61
(g82
g63
NtRp1614
(dp1615
g66
(dp1616
g93
g94
ssg75
g1605
sg68
(lp1617
S':'
asbag61
(g82
g63
NtRp1618
(dp1619
g66
(dp1620
sg75
g1605
sg68
(lp1621
g61
(g62
g63
NtRp1622
(dp1623
g66
(dp1624
g74
I4
ssg75
g1618
sg68
(lp1625
S'Rocket 1.2.6'
p1626
asbasbasbag61
(g77
g63
NtRp1627
(dp1628
g66
(dp1629
sg75
g877
sg68
(lp1630
g61
(g82
g63
NtRp1631
(dp1632
g66
(dp1633
g86
g87
ssg75
g1627
sg68
(lp1634
S'web2py_path'
p1635
asbag61
(g82
g63
NtRp1636
(dp1637
g66
(dp1638
g93
g94
ssg75
g1627
sg68
(lp1639
S':'
asbag61
(g82
g63
NtRp1640
(dp1641
g66
(dp1642
sg75
g1627
sg68
(lp1643
g61
(g62
g63
NtRp1644
(dp1645
g66
(dp1646
g74
I4
ssg75
g1640
sg68
(lp1647
g924
asbasbasbag61
(g77
g63
NtRp1648
(dp1649
g66
(dp1650
sg75
g877
sg68
(lp1651
g61
(g82
g63
NtRp1652
(dp1653
g66
(dp1654
g86
g87
ssg75
g1648
sg68
(lp1655
S'web2py_version'
p1656
asbag61
(g82
g63
NtRp1657
(dp1658
g66
(dp1659
g93
g94
ssg75
g1648
sg68
(lp1660
S':'
asbag61
(g82
g63
NtRp1661
(dp1662
g66
(dp1663
sg75
g1648
sg68
(lp1664
g61
(g62
g63
NtRp1665
(dp1666
g66
(dp1667
g74
I4
ssg75
g1661
sg68
(lp1668
g61
(g70
g63
NtRp1669
(dp1670
g66
(dp1671
g74
I3
ssg75
Nsg68
(lp1672
g61
(g77
g63
NtRp1673
(dp1674
g66
(dp1675
sg75
g1669
sg68
(lp1676
g61
(g82
g63
NtRp1677
(dp1678
g66
(dp1679
sg75
g1673
sg68
(lp1680
g61
(g62
g63
NtRp1681
(dp1682
g66
(dp1683
g74
I3
ssg75
g1677
sg68
(lp1684
S'2'
asbasbasbag61
(g77
g63
NtRp1685
(dp1686
g66
(dp1687
sg75
g1669
sg68
(lp1688
g61
(g82
g63
NtRp1689
(dp1690
g66
(dp1691
sg75
g1685
sg68
(lp1692
g61
(g62
g63
NtRp1693
(dp1694
g66
(dp1695
g74
I3
ssg75
g1689
sg68
(lp1696
S'3'
asbasbasbag61
(g77
g63
NtRp1697
(dp1698
g66
(dp1699
sg75
g1669
sg68
(lp1700
g61
(g82
g63
NtRp1701
(dp1702
g66
(dp1703
sg75
g1697
sg68
(lp1704
g61
(g62
g63
NtRp1705
(dp1706
g66
(dp1707
g74
I3
ssg75
g1701
sg68
(lp1708
S'2'
asbasbasbag61
(g77
g63
NtRp1709
(dp1710
g66
(dp1711
sg75
g1669
sg68
(lp1712
g61
(g82
g63
NtRp1713
(dp1714
g66
(dp1715
sg75
g1709
sg68
(lp1716
g61
(g62
g63
NtRp1717
(dp1718
g66
(dp1719
g74
I3
ssg75
g1713
sg68
(lp1720
S'datetime.datetime(2012, 12, 17, 15, 3, 30)'
p1721
asbasbasbag61
(g77
g63
NtRp1722
(dp1723
g66
(dp1724
sg75
g1669
sg68
(lp1725
g61
(g82
g63
NtRp1726
(dp1727
g66
(dp1728
sg75
g1722
sg68
(lp1729
g61
(g62
g63
NtRp1730
(dp1731
g66
(dp1732
g74
I3
ssg75
g1726
sg68
(lp1733
S'stable'
p1734
asbasbasbasbasbasbasbag61
(g77
g63
NtRp1735
(dp1736
g66
(dp1737
sg75
g877
sg68
(lp1738
g61
(g82
g63
NtRp1739
(dp1740
g66
(dp1741
g86
g87
ssg75
g1735
sg68
(lp1742
S'wsgi_errors'
p1743
asbag61
(g82
g63
NtRp1744
(dp1745
g66
(dp1746
g93
g94
ssg75
g1735
sg68
(lp1747
S':'
asbag61
(g82
g63
NtRp1748
(dp1749
g66
(dp1750
sg75
g1735
sg68
(lp1751
g61
(g62
g63
NtRp1752
(dp1753
g66
(dp1754
g74
I4
ssg75
g1748
sg68
(lp1755
S"<open file '<stderr>', mode 'w' at 0x7f13978c7270>"
p1756
asbasbasbag61
(g77
g63
NtRp1757
(dp1758
g66
(dp1759
sg75
g877
sg68
(lp1760
g61
(g82
g63
NtRp1761
(dp1762
g66
(dp1763
g86
g87
ssg75
g1757
sg68
(lp1764
S'wsgi_file_wrapper'
p1765
asbag61
(g82
g63
NtRp1766
(dp1767
g66
(dp1768
g93
g94
ssg75
g1757
sg68
(lp1769
S':'
asbag61
(g82
g63
NtRp1770
(dp1771
g66
(dp1772
sg75
g1757
sg68
(lp1773
g61
(g62
g63
NtRp1774
(dp1775
g66
(dp1776
g74
I4
ssg75
g1770
sg68
(lp1777
S'<class wsgiref.util.FileWrapper at 0x29b5db8>'
p1778
asbasbasbag61
(g77
g63
NtRp1779
(dp1780
g66
(dp1781
sg75
g877
sg68
(lp1782
g61
(g82
g63
NtRp1783
(dp1784
g66
(dp1785
g86
g87
ssg75
g1779
sg68
(lp1786
S'wsgi_input'
p1787
asbag61
(g82
g63
NtRp1788
(dp1789
g66
(dp1790
g93
g94
ssg75
g1779
sg68
(lp1791
S':'
asbag61
(g82
g63
NtRp1792
(dp1793
g66
(dp1794
sg75
g1779
sg68
(lp1795
g61
(g62
g63
NtRp1796
(dp1797
g66
(dp1798
g74
I4
ssg75
g1792
sg68
(lp1799
S'<socket._fileobject object at 0x7f1384431ed0>'
p1800
asbasbasbag61
(g77
g63
NtRp1801
(dp1802
g66
(dp1803
sg75
g877
sg68
(lp1804
g61
(g82
g63
NtRp1805
(dp1806
g66
(dp1807
g86
g87
ssg75
g1801
sg68
(lp1808
S'wsgi_multiprocess'
p1809
asbag61
(g82
g63
NtRp1810
(dp1811
g66
(dp1812
g93
g94
ssg75
g1801
sg68
(lp1813
S':'
asbag61
(g82
g63
NtRp1814
(dp1815
g66
(dp1816
sg75
g1801
sg68
(lp1817
g61
(g62
g63
NtRp1818
(dp1819
g66
(dp1820
g74
I4
ssg75
g1814
sg68
(lp1821
g104
asbasbasbag61
(g77
g63
NtRp1822
(dp1823
g66
(dp1824
sg75
g877
sg68
(lp1825
g61
(g82
g63
NtRp1826
(dp1827
g66
(dp1828
g86
g87
ssg75
g1822
sg68
(lp1829
S'wsgi_multithread'
p1830
asbag61
(g82
g63
NtRp1831
(dp1832
g66
(dp1833
g93
g94
ssg75
g1822
sg68
(lp1834
S':'
asbag61
(g82
g63
NtRp1835
(dp1836
g66
(dp1837
sg75
g1822
sg68
(lp1838
g61
(g62
g63
NtRp1839
(dp1840
g66
(dp1841
g74
I4
ssg75
g1835
sg68
(lp1842
S'True'
p1843
asbasbasbag61
(g77
g63
NtRp1844
(dp1845
g66
(dp1846
sg75
g877
sg68
(lp1847
g61
(g82
g63
NtRp1848
(dp1849
g66
(dp1850
g86
g87
ssg75
g1844
sg68
(lp1851
S'wsgi_run_once'
p1852
asbag61
(g82
g63
NtRp1853
(dp1854
g66
(dp1855
g93
g94
ssg75
g1844
sg68
(lp1856
S':'
asbag61
(g82
g63
NtRp1857
(dp1858
g66
(dp1859
sg75
g1844
sg68
(lp1860
g61
(g62
g63
NtRp1861
(dp1862
g66
(dp1863
g74
I4
ssg75
g1857
sg68
(lp1864
g104
asbasbasbag61
(g77
g63
NtRp1865
(dp1866
g66
(dp1867
sg75
g877
sg68
(lp1868
g61
(g82
g63
NtRp1869
(dp1870
g66
(dp1871
g86
g87
ssg75
g1865
sg68
(lp1872
S'wsgi_url_scheme'
p1873
asbag61
(g82
g63
NtRp1874
(dp1875
g66
(dp1876
g93
g94
ssg75
g1865
sg68
(lp1877
S':'
asbag61
(g82
g63
NtRp1878
(dp1879
g66
(dp1880
sg75
g1865
sg68
(lp1881
g61
(g62
g63
NtRp1882
(dp1883
g66
(dp1884
g74
I4
ssg75
g1878
sg68
(lp1885
S'http'
p1886
asbasbasbag61
(g77
g63
NtRp1887
(dp1888
g66
(dp1889
sg75
g877
sg68
(lp1890
g61
(g82
g63
NtRp1891
(dp1892
g66
(dp1893
g86
g87
ssg75
g1887
sg68
(lp1894
S'wsgi_version'
p1895
asbag61
(g82
g63
NtRp1896
(dp1897
g66
(dp1898
g93
g94
ssg75
g1887
sg68
(lp1899
S':'
asbag61
(g82
g63
NtRp1900
(dp1901
g66
(dp1902
sg75
g1887
sg68
(lp1903
g61
(g62
g63
NtRp1904
(dp1905
g66
(dp1906
g74
I4
ssg75
g1900
sg68
(lp1907
g61
(g70
g63
NtRp1908
(dp1909
g66
(dp1910
g74
I3
ssg75
Nsg68
(lp1911
g61
(g77
g63
NtRp1912
(dp1913
g66
(dp1914
sg75
g1908
sg68
(lp1915
g61
(g82
g63
NtRp1916
(dp1917
g66
(dp1918
sg75
g1912
sg68
(lp1919
g61
(g62
g63
NtRp1920
(dp1921
g66
(dp1922
g74
I3
ssg75
g1916
sg68
(lp1923
S'1'
asbasbasbag61
(g77
g63
NtRp1924
(dp1925
g66
(dp1926
sg75
g1908
sg68
(lp1927
g61
(g82
g63
NtRp1928
(dp1929
g66
(dp1930
sg75
g1924
sg68
(lp1931
g61
(g62
g63
NtRp1932
(dp1933
g66
(dp1934
g74
I3
ssg75
g1928
sg68
(lp1935
S'0'
asbasbasbasbasbasbasbasbasbasbasbag61
(g77
g63
NtRp1936
(dp1937
g66
(dp1938
sg75
g71
sg68
(lp1939
g61
(g82
g63
NtRp1940
(dp1941
g66
(dp1942
g86
g87
ssg75
g1936
sg68
(lp1943
S'extension'
p1944
asbag61
(g82
g63
NtRp1945
(dp1946
g66
(dp1947
g93
g94
ssg75
g1936
sg68
(lp1948
S':'
asbag61
(g82
g63
NtRp1949
(dp1950
g66
(dp1951
sg75
g1936
sg68
(lp1952
g61
(g62
g63
NtRp1953
(dp1954
g66
(dp1955
g74
I5
ssg75
g1949
sg68
(lp1956
S'html'
p1957
asbasbasbag61
(g77
g63
NtRp1958
(dp1959
g66
(dp1960
sg75
g71
sg68
(lp1961
g61
(g82
g63
NtRp1962
(dp1963
g66
(dp1964
g86
g87
ssg75
g1958
sg68
(lp1965
S'folder'
p1966
asbag61
(g82
g63
NtRp1967
(dp1968
g66
(dp1969
g93
g94
ssg75
g1958
sg68
(lp1970
S':'
asbag61
(g82
g63
NtRp1971
(dp1972
g66
(dp1973
sg75
g1958
sg68
(lp1974
g61
(g62
g63
NtRp1975
(dp1976
g66
(dp1977
g74
I5
ssg75
g1971
sg68
(lp1978
S'/home/adrian/web2py/applications/CygnusCloud/'
p1979
asbasbasbag61
(g77
g63
NtRp1980
(dp1981
g66
(dp1982
sg75
g71
sg68
(lp1983
g61
(g82
g63
NtRp1984
(dp1985
g66
(dp1986
g86
g87
ssg75
g1980
sg68
(lp1987
S'function'
p1988
asbag61
(g82
g63
NtRp1989
(dp1990
g66
(dp1991
g93
g94
ssg75
g1980
sg68
(lp1992
S':'
asbag61
(g82
g63
NtRp1993
(dp1994
g66
(dp1995
sg75
g1980
sg68
(lp1996
g61
(g62
g63
NtRp1997
(dp1998
g66
(dp1999
g74
I5
ssg75
g1993
sg68
(lp2000
S'insert'
p2001
asbasbasbag61
(g77
g63
NtRp2002
(dp2003
g66
(dp2004
sg75
g71
sg68
(lp2005
g61
(g82
g63
NtRp2006
(dp2007
g66
(dp2008
g86
g87
ssg75
g2002
sg68
(lp2009
S'get_vars'
p2010
asbag61
(g82
g63
NtRp2011
(dp2012
g66
(dp2013
g93
g94
ssg75
g2002
sg68
(lp2014
S':'
asbag61
(g82
g63
NtRp2015
(dp2016
g66
(dp2017
sg75
g2002
sg68
(lp2018
g61
(g62
g63
NtRp2019
(dp2020
g66
(dp2021
g74
I5
ssg75
g2015
sg68
(lp2022
g61
(g70
g63
NtRp2023
(dp2024
g66
(dp2025
g74
I4
ssg75
Nsg68
(lp2026
sbasbasbasbag61
(g77
g63
NtRp2027
(dp2028
g66
(dp2029
sg75
g71
sg68
(lp2030
g61
(g82
g63
NtRp2031
(dp2032
g66
(dp2033
g86
g87
ssg75
g2027
sg68
(lp2034
S'global_settings'
p2035
asbag61
(g82
g63
NtRp2036
(dp2037
g66
(dp2038
g93
g94
ssg75
g2027
sg68
(lp2039
S':'
asbag61
(g82
g63
NtRp2040
(dp2041
g66
(dp2042
sg75
g2027
sg68
(lp2043
g61
(g62
g63
NtRp2044
(dp2045
g66
(dp2046
g74
I5
ssg75
g2040
sg68
(lp2047
g61
(g70
g63
NtRp2048
(dp2049
g66
(dp2050
g74
I4
ssg75
Nsg68
(lp2051
g61
(g77
g63
NtRp2052
(dp2053
g66
(dp2054
sg75
g2048
sg68
(lp2055
g61
(g82
g63
NtRp2056
(dp2057
g66
(dp2058
g86
g87
ssg75
g2052
sg68
(lp2059
g889
asbag61
(g82
g63
NtRp2060
(dp2061
g66
(dp2062
g93
g94
ssg75
g2052
sg68
(lp2063
S':'
asbag61
(g82
g63
NtRp2064
(dp2065
g66
(dp2066
sg75
g2052
sg68
(lp2067
g61
(g62
g63
NtRp2068
(dp2069
g66
(dp2070
g74
I4
ssg75
g2064
sg68
(lp2071
S"set(['/home/adrian/web2py/applications/admin/', '/home/adrian/web2py/applications/welcome/', '/home/adrian/web2py/applications/CygnusCloud/'])"
p2072
asbasbasbag61
(g77
g63
NtRp2073
(dp2074
g66
(dp2075
sg75
g2048
sg68
(lp2076
g61
(g82
g63
NtRp2077
(dp2078
g66
(dp2079
g86
g87
ssg75
g2073
sg68
(lp2080
g911
asbag61
(g82
g63
NtRp2081
(dp2082
g66
(dp2083
g93
g94
ssg75
g2073
sg68
(lp2084
S':'
asbag61
(g82
g63
NtRp2085
(dp2086
g66
(dp2087
sg75
g2073
sg68
(lp2088
g61
(g62
g63
NtRp2089
(dp2090
g66
(dp2091
g74
I4
ssg75
g2085
sg68
(lp2092
g924
asbasbasbag61
(g77
g63
NtRp2093
(dp2094
g66
(dp2095
sg75
g2048
sg68
(lp2096
g61
(g82
g63
NtRp2097
(dp2098
g66
(dp2099
g86
g87
ssg75
g2093
sg68
(lp2100
g933
asbag61
(g82
g63
NtRp2101
(dp2102
g66
(dp2103
g93
g94
ssg75
g2093
sg68
(lp2104
S':'
asbag61
(g82
g63
NtRp2105
(dp2106
g66
(dp2107
sg75
g2093
sg68
(lp2108
g61
(g62
g63
NtRp2109
(dp2110
g66
(dp2111
g74
I4
ssg75
g2105
sg68
(lp2112
g61
(g70
g63
NtRp2113
(dp2114
g66
(dp2115
g74
I3
ssg75
Nsg68
(lp2116
sbasbasbasbag61
(g77
g63
NtRp2117
(dp2118
g66
(dp2119
sg75
g2048
sg68
(lp2120
g61
(g82
g63
NtRp2121
(dp2122
g66
(dp2123
g86
g87
ssg75
g2117
sg68
(lp2124
g958
asbag61
(g82
g63
NtRp2125
(dp2126
g66
(dp2127
g93
g94
ssg75
g2117
sg68
(lp2128
S':'
asbag61
(g82
g63
NtRp2129
(dp2130
g66
(dp2131
sg75
g2117
sg68
(lp2132
g61
(g62
g63
NtRp2133
(dp2134
g66
(dp2135
g74
I4
ssg75
g2129
sg68
(lp2136
S"<Values at 0x2a81bd8: {'verbose': False, 'ip': '127.0.0.1', 'with_scheduler': False, 'ips': [], 'shutdown_timeout': 5, 'taskbar': False, 'port': 8000, 'maxthreads': None, 'softcron': False, 'server_name': 'adri-EasyNote', 'bpython': False, 'nogui': False, 'pid_filename': 'httpserver.pid', 'extcron': False, 'runcron': False, 'run_system_tests': False, 'test': None, 'folder': '/home/adrian/web2py', 'config': '', 'minthreads': None, 'winservice': '', 'shell': None, 'run': '', 'log_filename': 'httpserver.log', 'debuglevel': 30, 'args': [''], 'socket_timeout': 5, 'ssl_ca_certificate': None, 'scheduler': None, 'profiler_filename': None, 'ssl_private_key': '', 'scheduler_groups': None, 'password': 'cygnuscloud2012', 'request_queue_size': 5, 'ssl_certificate': '', 'cronjob': False, 'numthreads': None, 'quiet': False, 'interfaces': None, 'import_models': False, 'timeout': 10, 'plain': False, 'nobanner': False}>"
p2137
asbasbasbag61
(g77
g63
NtRp2138
(dp2139
g66
(dp2140
sg75
g2048
sg68
(lp2141
g61
(g82
g63
NtRp2142
(dp2143
g66
(dp2144
g86
g87
ssg75
g2138
sg68
(lp2145
g980
asbag61
(g82
g63
NtRp2146
(dp2147
g66
(dp2148
g93
g94
ssg75
g2138
sg68
(lp2149
S':'
asbag61
(g82
g63
NtRp2150
(dp2151
g66
(dp2152
sg75
g2138
sg68
(lp2153
g61
(g62
g63
NtRp2154
(dp2155
g66
(dp2156
g74
I4
ssg75
g2150
sg68
(lp2157
S'set([])'
p2158
asbasbasbag61
(g77
g63
NtRp2159
(dp2160
g66
(dp2161
sg75
g2048
sg68
(lp2162
g61
(g82
g63
NtRp2163
(dp2164
g66
(dp2165
g86
g87
ssg75
g2159
sg68
(lp2166
g1002
asbag61
(g82
g63
NtRp2167
(dp2168
g66
(dp2169
g93
g94
ssg75
g2159
sg68
(lp2170
S':'
asbag61
(g82
g63
NtRp2171
(dp2172
g66
(dp2173
sg75
g2159
sg68
(lp2174
g61
(g62
g63
NtRp2175
(dp2176
g66
(dp2177
g74
I4
ssg75
g2171
sg68
(lp2178
g104
asbasbasbag61
(g77
g63
NtRp2179
(dp2180
g66
(dp2181
sg75
g2048
sg68
(lp2182
g61
(g82
g63
NtRp2183
(dp2184
g66
(dp2185
g86
g87
ssg75
g2179
sg68
(lp2186
g1023
asbag61
(g82
g63
NtRp2187
(dp2188
g66
(dp2189
g93
g94
ssg75
g2179
sg68
(lp2190
S':'
asbag61
(g82
g63
NtRp2191
(dp2192
g66
(dp2193
sg75
g2179
sg68
(lp2194
g61
(g62
g63
NtRp2195
(dp2196
g66
(dp2197
g74
I4
ssg75
g2191
sg68
(lp2198
g1036
asbasbasbag61
(g77
g63
NtRp2199
(dp2200
g66
(dp2201
sg75
g2048
sg68
(lp2202
g61
(g82
g63
NtRp2203
(dp2204
g66
(dp2205
g86
g87
ssg75
g2199
sg68
(lp2206
g1265
asbag61
(g82
g63
NtRp2207
(dp2208
g66
(dp2209
g93
g94
ssg75
g2199
sg68
(lp2210
S':'
asbag61
(g82
g63
NtRp2211
(dp2212
g66
(dp2213
sg75
g2199
sg68
(lp2214
g61
(g62
g63
NtRp2215
(dp2216
g66
(dp2217
g74
I4
ssg75
g2211
sg68
(lp2218
g104
asbasbasbag61
(g77
g63
NtRp2219
(dp2220
g66
(dp2221
sg75
g2048
sg68
(lp2222
g61
(g82
g63
NtRp2223
(dp2224
g66
(dp2225
g86
g87
ssg75
g2219
sg68
(lp2226
g1286
asbag61
(g82
g63
NtRp2227
(dp2228
g66
(dp2229
g93
g94
ssg75
g2219
sg68
(lp2230
S':'
asbag61
(g82
g63
NtRp2231
(dp2232
g66
(dp2233
sg75
g2219
sg68
(lp2234
g61
(g62
g63
NtRp2235
(dp2236
g66
(dp2237
g74
I4
ssg75
g2231
sg68
(lp2238
g104
asbasbasbag61
(g77
g63
NtRp2239
(dp2240
g66
(dp2241
sg75
g2048
sg68
(lp2242
g61
(g82
g63
NtRp2243
(dp2244
g66
(dp2245
g86
g87
ssg75
g2239
sg68
(lp2246
g1307
asbag61
(g82
g63
NtRp2247
(dp2248
g66
(dp2249
g93
g94
ssg75
g2239
sg68
(lp2250
S':'
asbag61
(g82
g63
NtRp2251
(dp2252
g66
(dp2253
sg75
g2239
sg68
(lp2254
g61
(g62
g63
NtRp2255
(dp2256
g66
(dp2257
g74
I4
ssg75
g2251
sg68
(lp2258
g61
(g70
g63
NtRp2259
(dp2260
g66
(dp2261
g74
I3
ssg75
Nsg68
(lp2262
g61
(g77
g63
NtRp2263
(dp2264
g66
(dp2265
sg75
g2259
sg68
(lp2266
g61
(g82
g63
NtRp2267
(dp2268
g66
(dp2269
sg75
g2263
sg68
(lp2270
g61
(g62
g63
NtRp2271
(dp2272
g66
(dp2273
g74
I3
ssg75
g2267
sg68
(lp2274
g1336
asbasbasbag61
(g77
g63
NtRp2275
(dp2276
g66
(dp2277
sg75
g2259
sg68
(lp2278
g61
(g82
g63
NtRp2279
(dp2280
g66
(dp2281
sg75
g2275
sg68
(lp2282
g61
(g62
g63
NtRp2283
(dp2284
g66
(dp2285
g74
I3
ssg75
g2279
sg68
(lp2286
g1349
asbasbasbag61
(g77
g63
NtRp2287
(dp2288
g66
(dp2289
sg75
g2259
sg68
(lp2290
g61
(g82
g63
NtRp2291
(dp2292
g66
(dp2293
sg75
g2287
sg68
(lp2294
g61
(g62
g63
NtRp2295
(dp2296
g66
(dp2297
g74
I3
ssg75
g2291
sg68
(lp2298
g1362
asbasbasbag61
(g77
g63
NtRp2299
(dp2300
g66
(dp2301
sg75
g2259
sg68
(lp2302
g61
(g82
g63
NtRp2303
(dp2304
g66
(dp2305
sg75
g2299
sg68
(lp2306
g61
(g62
g63
NtRp2307
(dp2308
g66
(dp2309
g74
I3
ssg75
g2303
sg68
(lp2310
g1375
asbasbasbag61
(g77
g63
NtRp2311
(dp2312
g66
(dp2313
sg75
g2259
sg68
(lp2314
g61
(g82
g63
NtRp2315
(dp2316
g66
(dp2317
sg75
g2311
sg68
(lp2318
g61
(g62
g63
NtRp2319
(dp2320
g66
(dp2321
g74
I3
ssg75
g2315
sg68
(lp2322
g1388
asbasbasbasbasbasbasbag61
(g77
g63
NtRp2323
(dp2324
g66
(dp2325
sg75
g2048
sg68
(lp2326
g61
(g82
g63
NtRp2327
(dp2328
g66
(dp2329
g86
g87
ssg75
g2323
sg68
(lp2330
g1656
asbag61
(g82
g63
NtRp2331
(dp2332
g66
(dp2333
g93
g94
ssg75
g2323
sg68
(lp2334
S':'
asbag61
(g82
g63
NtRp2335
(dp2336
g66
(dp2337
sg75
g2323
sg68
(lp2338
g61
(g62
g63
NtRp2339
(dp2340
g66
(dp2341
g74
I4
ssg75
g2335
sg68
(lp2342
g61
(g70
g63
NtRp2343
(dp2344
g66
(dp2345
g74
I3
ssg75
Nsg68
(lp2346
g61
(g77
g63
NtRp2347
(dp2348
g66
(dp2349
sg75
g2343
sg68
(lp2350
g61
(g82
g63
NtRp2351
(dp2352
g66
(dp2353
sg75
g2347
sg68
(lp2354
g61
(g62
g63
NtRp2355
(dp2356
g66
(dp2357
g74
I3
ssg75
g2351
sg68
(lp2358
S'2'
asbasbasbag61
(g77
g63
NtRp2359
(dp2360
g66
(dp2361
sg75
g2343
sg68
(lp2362
g61
(g82
g63
NtRp2363
(dp2364
g66
(dp2365
sg75
g2359
sg68
(lp2366
g61
(g62
g63
NtRp2367
(dp2368
g66
(dp2369
g74
I3
ssg75
g2363
sg68
(lp2370
S'3'
asbasbasbag61
(g77
g63
NtRp2371
(dp2372
g66
(dp2373
sg75
g2343
sg68
(lp2374
g61
(g82
g63
NtRp2375
(dp2376
g66
(dp2377
sg75
g2371
sg68
(lp2378
g61
(g62
g63
NtRp2379
(dp2380
g66
(dp2381
g74
I3
ssg75
g2375
sg68
(lp2382
S'2'
asbasbasbag61
(g77
g63
NtRp2383
(dp2384
g66
(dp2385
sg75
g2343
sg68
(lp2386
g61
(g82
g63
NtRp2387
(dp2388
g66
(dp2389
sg75
g2383
sg68
(lp2390
g61
(g62
g63
NtRp2391
(dp2392
g66
(dp2393
g74
I3
ssg75
g2387
sg68
(lp2394
S'datetime.datetime(2012, 12, 17, 15, 3, 30)'
p2395
asbasbasbag61
(g77
g63
NtRp2396
(dp2397
g66
(dp2398
sg75
g2343
sg68
(lp2399
g61
(g82
g63
NtRp2400
(dp2401
g66
(dp2402
sg75
g2396
sg68
(lp2403
g61
(g62
g63
NtRp2404
(dp2405
g66
(dp2406
g74
I3
ssg75
g2400
sg68
(lp2407
g1734
asbasbasbasbasbasbasbasbasbasbasbag61
(g77
g63
NtRp2408
(dp2409
g66
(dp2410
sg75
g71
sg68
(lp2411
g61
(g82
g63
NtRp2412
(dp2413
g66
(dp2414
g86
g87
ssg75
g2408
sg68
(lp2415
S'is_https'
p2416
asbag61
(g82
g63
NtRp2417
(dp2418
g66
(dp2419
g93
g94
ssg75
g2408
sg68
(lp2420
S':'
asbag61
(g82
g63
NtRp2421
(dp2422
g66
(dp2423
sg75
g2408
sg68
(lp2424
g61
(g62
g63
NtRp2425
(dp2426
g66
(dp2427
g74
I5
ssg75
g2421
sg68
(lp2428
g104
asbasbasbag61
(g77
g63
NtRp2429
(dp2430
g66
(dp2431
sg75
g71
sg68
(lp2432
g61
(g82
g63
NtRp2433
(dp2434
g66
(dp2435
g86
g87
ssg75
g2429
sg68
(lp2436
S'is_local'
p2437
asbag61
(g82
g63
NtRp2438
(dp2439
g66
(dp2440
g93
g94
ssg75
g2429
sg68
(lp2441
S':'
asbag61
(g82
g63
NtRp2442
(dp2443
g66
(dp2444
sg75
g2429
sg68
(lp2445
g61
(g62
g63
NtRp2446
(dp2447
g66
(dp2448
g74
I5
ssg75
g2442
sg68
(lp2449
g1843
asbasbasbag61
(g77
g63
NtRp2450
(dp2451
g66
(dp2452
sg75
g71
sg68
(lp2453
g61
(g82
g63
NtRp2454
(dp2455
g66
(dp2456
g86
g87
ssg75
g2450
sg68
(lp2457
S'is_restful'
p2458
asbag61
(g82
g63
NtRp2459
(dp2460
g66
(dp2461
g93
g94
ssg75
g2450
sg68
(lp2462
S':'
asbag61
(g82
g63
NtRp2463
(dp2464
g66
(dp2465
sg75
g2450
sg68
(lp2466
g61
(g62
g63
NtRp2467
(dp2468
g66
(dp2469
g74
I5
ssg75
g2463
sg68
(lp2470
g104
asbasbasbag61
(g77
g63
NtRp2471
(dp2472
g66
(dp2473
sg75
g71
sg68
(lp2474
g61
(g82
g63
NtRp2475
(dp2476
g66
(dp2477
g86
g87
ssg75
g2471
sg68
(lp2478
S'now'
p2479
asbag61
(g82
g63
NtRp2480
(dp2481
g66
(dp2482
g93
g94
ssg75
g2471
sg68
(lp2483
S':'
asbag61
(g82
g63
NtRp2484
(dp2485
g66
(dp2486
sg75
g2471
sg68
(lp2487
g61
(g62
g63
NtRp2488
(dp2489
g66
(dp2490
g74
I5
ssg75
g2484
sg68
(lp2491
S'datetime.datetime(2013, 2, 5, 17, 55, 22, 155469)'
p2492
asbasbasbag61
(g77
g63
NtRp2493
(dp2494
g66
(dp2495
sg75
g71
sg68
(lp2496
g61
(g82
g63
NtRp2497
(dp2498
g66
(dp2499
g86
g87
ssg75
g2493
sg68
(lp2500
S'post_vars'
p2501
asbag61
(g82
g63
NtRp2502
(dp2503
g66
(dp2504
g93
g94
ssg75
g2493
sg68
(lp2505
S':'
asbag61
(g82
g63
NtRp2506
(dp2507
g66
(dp2508
sg75
g2493
sg68
(lp2509
g61
(g62
g63
NtRp2510
(dp2511
g66
(dp2512
g74
I5
ssg75
g2506
sg68
(lp2513
g61
(g70
g63
NtRp2514
(dp2515
g66
(dp2516
g74
I4
ssg75
Nsg68
(lp2517
sbasbasbasbag61
(g77
g63
NtRp2518
(dp2519
g66
(dp2520
sg75
g71
sg68
(lp2521
g61
(g82
g63
NtRp2522
(dp2523
g66
(dp2524
g86
g87
ssg75
g2518
sg68
(lp2525
S'raw_args'
p2526
asbag61
(g82
g63
NtRp2527
(dp2528
g66
(dp2529
g93
g94
ssg75
g2518
sg68
(lp2530
S':'
asbag61
(g82
g63
NtRp2531
(dp2532
g66
(dp2533
sg75
g2518
sg68
(lp2534
g61
(g62
g63
NtRp2535
(dp2536
g66
(dp2537
g74
I5
ssg75
g2531
sg68
(lp2538
S'userDB/auth_user'
p2539
asbasbasbag61
(g77
g63
NtRp2540
(dp2541
g66
(dp2542
sg75
g71
sg68
(lp2543
g61
(g82
g63
NtRp2544
(dp2545
g66
(dp2546
g86
g87
ssg75
g2540
sg68
(lp2547
S'raw_extension'
p2548
asbag61
(g82
g63
NtRp2549
(dp2550
g66
(dp2551
g93
g94
ssg75
g2540
sg68
(lp2552
S':'
asbag61
(g82
g63
NtRp2553
(dp2554
g66
(dp2555
sg75
g2540
sg68
(lp2556
g61
(g62
g63
NtRp2557
(dp2558
g66
(dp2559
g74
I5
ssg75
g2553
sg68
(lp2560
S'None'
p2561
asbasbasbag61
(g77
g63
NtRp2562
(dp2563
g66
(dp2564
sg75
g71
sg68
(lp2565
g61
(g82
g63
NtRp2566
(dp2567
g66
(dp2568
g86
g87
ssg75
g2562
sg68
(lp2569
S'url'
p2570
asbag61
(g82
g63
NtRp2571
(dp2572
g66
(dp2573
g93
g94
ssg75
g2562
sg68
(lp2574
S':'
asbag61
(g82
g63
NtRp2575
(dp2576
g66
(dp2577
sg75
g2562
sg68
(lp2578
g61
(g62
g63
NtRp2579
(dp2580
g66
(dp2581
g74
I5
ssg75
g2575
sg68
(lp2582
g1410
asbasbasbag61
(g77
g63
NtRp2583
(dp2584
g66
(dp2585
sg75
g71
sg68
(lp2586
g61
(g82
g63
NtRp2587
(dp2588
g66
(dp2589
g86
g87
ssg75
g2583
sg68
(lp2590
S'utcnow'
p2591
asbag61
(g82
g63
NtRp2592
(dp2593
g66
(dp2594
g93
g94
ssg75
g2583
sg68
(lp2595
S':'
asbag61
(g82
g63
NtRp2596
(dp2597
g66
(dp2598
sg75
g2583
sg68
(lp2599
g61
(g62
g63
NtRp2600
(dp2601
g66
(dp2602
g74
I5
ssg75
g2596
sg68
(lp2603
S'datetime.datetime(2013, 2, 5, 16, 55, 22, 155504)'
p2604
asbasbasbag61
(g77
g63
NtRp2605
(dp2606
g66
(dp2607
sg75
g71
sg68
(lp2608
g61
(g82
g63
NtRp2609
(dp2610
g66
(dp2611
g86
g87
ssg75
g2605
sg68
(lp2612
S'uuid'
p2613
asbag61
(g82
g63
NtRp2614
(dp2615
g66
(dp2616
g93
g94
ssg75
g2605
sg68
(lp2617
S':'
asbag61
(g82
g63
NtRp2618
(dp2619
g66
(dp2620
sg75
g2605
sg68
(lp2621
g61
(g62
g63
NtRp2622
(dp2623
g66
(dp2624
g74
I5
ssg75
g2618
sg68
(lp2625
S'CygnusCloud/127.0.0.1.2013-02-05.17-55-22.af97d0c2-85c6-4cd0-9be1-8a18b134fde8'
p2626
asbasbasbag61
(g77
g63
NtRp2627
(dp2628
g66
(dp2629
sg75
g71
sg68
(lp2630
g61
(g82
g63
NtRp2631
(dp2632
g66
(dp2633
g86
g87
ssg75
g2627
sg68
(lp2634
S'vars'
p2635
asbag61
(g82
g63
NtRp2636
(dp2637
g66
(dp2638
g93
g94
ssg75
g2627
sg68
(lp2639
S':'
asbag61
(g82
g63
NtRp2640
(dp2641
g66
(dp2642
sg75
g2627
sg68
(lp2643
g61
(g62
g63
NtRp2644
(dp2645
g66
(dp2646
g74
I5
ssg75
g2640
sg68
(lp2647
g61
(g70
g63
NtRp2648
(dp2649
g66
(dp2650
g74
I4
ssg75
Nsg68
(lp2651
sbasbasbasbag61
(g77
g63
NtRp2652
(dp2653
g66
(dp2654
sg75
g71
sg68
(lp2655
g61
(g82
g63
NtRp2656
(dp2657
g66
(dp2658
g86
g87
ssg75
g2652
sg68
(lp2659
S'wsgi'
p2660
asbag61
(g82
g63
NtRp2661
(dp2662
g66
(dp2663
g93
g94
ssg75
g2652
sg68
(lp2664
S':'
asbag61
(g82
g63
NtRp2665
(dp2666
g66
(dp2667
sg75
g2652
sg68
(lp2668
g61
(g62
g63
NtRp2669
(dp2670
g66
(dp2671
g74
I5
ssg75
g2665
sg68
(lp2672
g61
(g70
g63
NtRp2673
(dp2674
g66
(dp2675
g74
I4
ssg75
Nsg68
(lp2676
g61
(g77
g63
NtRp2677
(dp2678
g66
(dp2679
sg75
g2673
sg68
(lp2680
g61
(g82
g63
NtRp2681
(dp2682
g66
(dp2683
g86
g87
ssg75
g2677
sg68
(lp2684
S'environ'
p2685
asbag61
(g82
g63
NtRp2686
(dp2687
g66
(dp2688
g93
g94
ssg75
g2677
sg68
(lp2689
S':'
asbag61
(g82
g63
NtRp2690
(dp2691
g66
(dp2692
sg75
g2677
sg68
(lp2693
g61
(g62
g63
NtRp2694
(dp2695
g66
(dp2696
g74
I4
ssg75
g2690
sg68
(lp2697
g61
(g70
g63
NtRp2698
(dp2699
g66
(dp2700
g74
I3
ssg75
Nsg68
(lp2701
g61
(g77
g63
NtRp2702
(dp2703
g66
(dp2704
sg75
g2698
sg68
(lp2705
g61
(g82
g63
NtRp2706
(dp2707
g66
(dp2708
g86
g87
ssg75
g2702
sg68
(lp2709
S'HTTP_ACCEPT'
p2710
asbag61
(g82
g63
NtRp2711
(dp2712
g66
(dp2713
g93
g94
ssg75
g2702
sg68
(lp2714
S':'
asbag61
(g82
g63
NtRp2715
(dp2716
g66
(dp2717
sg75
g2702
sg68
(lp2718
g61
(g62
g63
NtRp2719
(dp2720
g66
(dp2721
g74
I3
ssg75
g2715
sg68
(lp2722
g1058
asbasbasbag61
(g77
g63
NtRp2723
(dp2724
g66
(dp2725
sg75
g2698
sg68
(lp2726
g61
(g82
g63
NtRp2727
(dp2728
g66
(dp2729
g86
g87
ssg75
g2723
sg68
(lp2730
S'HTTP_ACCEPT_CHARSET'
p2731
asbag61
(g82
g63
NtRp2732
(dp2733
g66
(dp2734
g93
g94
ssg75
g2723
sg68
(lp2735
S':'
asbag61
(g82
g63
NtRp2736
(dp2737
g66
(dp2738
sg75
g2723
sg68
(lp2739
g61
(g62
g63
NtRp2740
(dp2741
g66
(dp2742
g74
I3
ssg75
g2736
sg68
(lp2743
g1080
asbasbasbag61
(g77
g63
NtRp2744
(dp2745
g66
(dp2746
sg75
g2698
sg68
(lp2747
g61
(g82
g63
NtRp2748
(dp2749
g66
(dp2750
g86
g87
ssg75
g2744
sg68
(lp2751
S'HTTP_ACCEPT_ENCODING'
p2752
asbag61
(g82
g63
NtRp2753
(dp2754
g66
(dp2755
g93
g94
ssg75
g2744
sg68
(lp2756
S':'
asbag61
(g82
g63
NtRp2757
(dp2758
g66
(dp2759
sg75
g2744
sg68
(lp2760
g61
(g62
g63
NtRp2761
(dp2762
g66
(dp2763
g74
I3
ssg75
g2757
sg68
(lp2764
g1102
asbasbasbag61
(g77
g63
NtRp2765
(dp2766
g66
(dp2767
sg75
g2698
sg68
(lp2768
g61
(g82
g63
NtRp2769
(dp2770
g66
(dp2771
g86
g87
ssg75
g2765
sg68
(lp2772
S'HTTP_ACCEPT_LANGUAGE'
p2773
asbag61
(g82
g63
NtRp2774
(dp2775
g66
(dp2776
g93
g94
ssg75
g2765
sg68
(lp2777
S':'
asbag61
(g82
g63
NtRp2778
(dp2779
g66
(dp2780
sg75
g2765
sg68
(lp2781
g61
(g62
g63
NtRp2782
(dp2783
g66
(dp2784
g74
I3
ssg75
g2778
sg68
(lp2785
g1124
asbasbasbag61
(g77
g63
NtRp2786
(dp2787
g66
(dp2788
sg75
g2698
sg68
(lp2789
g61
(g82
g63
NtRp2790
(dp2791
g66
(dp2792
g86
g87
ssg75
g2786
sg68
(lp2793
S'HTTP_CACHE_CONTROL'
p2794
asbag61
(g82
g63
NtRp2795
(dp2796
g66
(dp2797
g93
g94
ssg75
g2786
sg68
(lp2798
S':'
asbag61
(g82
g63
NtRp2799
(dp2800
g66
(dp2801
sg75
g2786
sg68
(lp2802
g61
(g62
g63
NtRp2803
(dp2804
g66
(dp2805
g74
I3
ssg75
g2799
sg68
(lp2806
g1146
asbasbasbag61
(g77
g63
NtRp2807
(dp2808
g66
(dp2809
sg75
g2698
sg68
(lp2810
g61
(g82
g63
NtRp2811
(dp2812
g66
(dp2813
g86
g87
ssg75
g2807
sg68
(lp2814
S'HTTP_CONNECTION'
p2815
asbag61
(g82
g63
NtRp2816
(dp2817
g66
(dp2818
g93
g94
ssg75
g2807
sg68
(lp2819
S':'
asbag61
(g82
g63
NtRp2820
(dp2821
g66
(dp2822
sg75
g2807
sg68
(lp2823
g61
(g62
g63
NtRp2824
(dp2825
g66
(dp2826
g74
I3
ssg75
g2820
sg68
(lp2827
g1168
asbasbasbag61
(g77
g63
NtRp2828
(dp2829
g66
(dp2830
sg75
g2698
sg68
(lp2831
g61
(g82
g63
NtRp2832
(dp2833
g66
(dp2834
g86
g87
ssg75
g2828
sg68
(lp2835
S'HTTP_COOKIE'
p2836
asbag61
(g82
g63
NtRp2837
(dp2838
g66
(dp2839
g93
g94
ssg75
g2828
sg68
(lp2840
S':'
asbag61
(g82
g63
NtRp2841
(dp2842
g66
(dp2843
sg75
g2828
sg68
(lp2844
g61
(g62
g63
NtRp2845
(dp2846
g66
(dp2847
g74
I3
ssg75
g2841
sg68
(lp2848
g1190
asbasbasbag61
(g77
g63
NtRp2849
(dp2850
g66
(dp2851
sg75
g2698
sg68
(lp2852
g61
(g82
g63
NtRp2853
(dp2854
g66
(dp2855
g86
g87
ssg75
g2849
sg68
(lp2856
S'HTTP_HOST'
p2857
asbag61
(g82
g63
NtRp2858
(dp2859
g66
(dp2860
g93
g94
ssg75
g2849
sg68
(lp2861
S':'
asbag61
(g82
g63
NtRp2862
(dp2863
g66
(dp2864
sg75
g2849
sg68
(lp2865
g61
(g62
g63
NtRp2866
(dp2867
g66
(dp2868
g74
I3
ssg75
g2862
sg68
(lp2869
g1212
asbasbasbag61
(g77
g63
NtRp2870
(dp2871
g66
(dp2872
sg75
g2698
sg68
(lp2873
g61
(g82
g63
NtRp2874
(dp2875
g66
(dp2876
g86
g87
ssg75
g2870
sg68
(lp2877
S'HTTP_REFERER'
p2878
asbag61
(g82
g63
NtRp2879
(dp2880
g66
(dp2881
g93
g94
ssg75
g2870
sg68
(lp2882
S':'
asbag61
(g82
g63
NtRp2883
(dp2884
g66
(dp2885
sg75
g2870
sg68
(lp2886
g61
(g62
g63
NtRp2887
(dp2888
g66
(dp2889
g74
I3
ssg75
g2883
sg68
(lp2890
g1234
asbasbasbag61
(g77
g63
NtRp2891
(dp2892
g66
(dp2893
sg75
g2698
sg68
(lp2894
g61
(g82
g63
NtRp2895
(dp2896
g66
(dp2897
g86
g87
ssg75
g2891
sg68
(lp2898
S'HTTP_USER_AGENT'
p2899
asbag61
(g82
g63
NtRp2900
(dp2901
g66
(dp2902
g93
g94
ssg75
g2891
sg68
(lp2903
S':'
asbag61
(g82
g63
NtRp2904
(dp2905
g66
(dp2906
sg75
g2891
sg68
(lp2907
g61
(g62
g63
NtRp2908
(dp2909
g66
(dp2910
g74
I3
ssg75
g2904
sg68
(lp2911
g1256
asbasbasbag61
(g77
g63
NtRp2912
(dp2913
g66
(dp2914
sg75
g2698
sg68
(lp2915
g61
(g82
g63
NtRp2916
(dp2917
g66
(dp2918
g86
g87
ssg75
g2912
sg68
(lp2919
S'PATH_INFO'
p2920
asbag61
(g82
g63
NtRp2921
(dp2922
g66
(dp2923
g93
g94
ssg75
g2912
sg68
(lp2924
S':'
asbag61
(g82
g63
NtRp2925
(dp2926
g66
(dp2927
sg75
g2912
sg68
(lp2928
g61
(g62
g63
NtRp2929
(dp2930
g66
(dp2931
g74
I3
ssg75
g2925
sg68
(lp2932
g1410
asbasbasbag61
(g77
g63
NtRp2933
(dp2934
g66
(dp2935
sg75
g2698
sg68
(lp2936
g61
(g82
g63
NtRp2937
(dp2938
g66
(dp2939
g86
g87
ssg75
g2933
sg68
(lp2940
S'QUERY_STRING'
p2941
asbag61
(g82
g63
NtRp2942
(dp2943
g66
(dp2944
g93
g94
ssg75
g2933
sg68
(lp2945
S':'
asbag61
(g82
g63
NtRp2946
(dp2947
g66
(dp2948
sg75
g2933
sg68
(lp2949
g61
(g62
g63
NtRp2950
(dp2951
g66
(dp2952
g74
I3
ssg75
g2946
sg68
(lp2953
S''
asbasbasbag61
(g77
g63
NtRp2954
(dp2955
g66
(dp2956
sg75
g2698
sg68
(lp2957
g61
(g82
g63
NtRp2958
(dp2959
g66
(dp2960
g86
g87
ssg75
g2954
sg68
(lp2961
S'REMOTE_ADDR'
p2962
asbag61
(g82
g63
NtRp2963
(dp2964
g66
(dp2965
g93
g94
ssg75
g2954
sg68
(lp2966
S':'
asbag61
(g82
g63
NtRp2967
(dp2968
g66
(dp2969
sg75
g2954
sg68
(lp2970
g61
(g62
g63
NtRp2971
(dp2972
g66
(dp2973
g74
I3
ssg75
g2967
sg68
(lp2974
g242
asbasbasbag61
(g77
g63
NtRp2975
(dp2976
g66
(dp2977
sg75
g2698
sg68
(lp2978
g61
(g82
g63
NtRp2979
(dp2980
g66
(dp2981
g86
g87
ssg75
g2975
sg68
(lp2982
S'REMOTE_PORT'
p2983
asbag61
(g82
g63
NtRp2984
(dp2985
g66
(dp2986
g93
g94
ssg75
g2975
sg68
(lp2987
S':'
asbag61
(g82
g63
NtRp2988
(dp2989
g66
(dp2990
sg75
g2975
sg68
(lp2991
g61
(g62
g63
NtRp2992
(dp2993
g66
(dp2994
g74
I3
ssg75
g2988
sg68
(lp2995
g1474
asbasbasbag61
(g77
g63
NtRp2996
(dp2997
g66
(dp2998
sg75
g2698
sg68
(lp2999
g61
(g82
g63
NtRp3000
(dp3001
g66
(dp3002
g86
g87
ssg75
g2996
sg68
(lp3003
S'REQUEST_METHOD'
p3004
asbag61
(g82
g63
NtRp3005
(dp3006
g66
(dp3007
g93
g94
ssg75
g2996
sg68
(lp3008
S':'
asbag61
(g82
g63
NtRp3009
(dp3010
g66
(dp3011
sg75
g2996
sg68
(lp3012
g61
(g62
g63
NtRp3013
(dp3014
g66
(dp3015
g74
I3
ssg75
g3009
sg68
(lp3016
g1496
asbasbasbag61
(g77
g63
NtRp3017
(dp3018
g66
(dp3019
sg75
g2698
sg68
(lp3020
g61
(g82
g63
NtRp3021
(dp3022
g66
(dp3023
g86
g87
ssg75
g3017
sg68
(lp3024
S'REQUEST_URI'
p3025
asbag61
(g82
g63
NtRp3026
(dp3027
g66
(dp3028
g93
g94
ssg75
g3017
sg68
(lp3029
S':'
asbag61
(g82
g63
NtRp3030
(dp3031
g66
(dp3032
sg75
g3017
sg68
(lp3033
g61
(g62
g63
NtRp3034
(dp3035
g66
(dp3036
g74
I3
ssg75
g3030
sg68
(lp3037
g1410
asbasbasbag61
(g77
g63
NtRp3038
(dp3039
g66
(dp3040
sg75
g2698
sg68
(lp3041
g61
(g82
g63
NtRp3042
(dp3043
g66
(dp3044
g86
g87
ssg75
g3038
sg68
(lp3045
S'SCRIPT_NAME'
p3046
asbag61
(g82
g63
NtRp3047
(dp3048
g66
(dp3049
g93
g94
ssg75
g3038
sg68
(lp3050
S':'
asbag61
(g82
g63
NtRp3051
(dp3052
g66
(dp3053
sg75
g3038
sg68
(lp3054
g61
(g62
g63
NtRp3055
(dp3056
g66
(dp3057
g74
I3
ssg75
g3051
sg68
(lp3058
S''
asbasbasbag61
(g77
g63
NtRp3059
(dp3060
g66
(dp3061
sg75
g2698
sg68
(lp3062
g61
(g82
g63
NtRp3063
(dp3064
g66
(dp3065
g86
g87
ssg75
g3059
sg68
(lp3066
S'SERVER_NAME'
p3067
asbag61
(g82
g63
NtRp3068
(dp3069
g66
(dp3070
g93
g94
ssg75
g3059
sg68
(lp3071
S':'
asbag61
(g82
g63
NtRp3072
(dp3073
g66
(dp3074
sg75
g3059
sg68
(lp3075
g61
(g62
g63
NtRp3076
(dp3077
g66
(dp3078
g74
I3
ssg75
g3072
sg68
(lp3079
g1560
asbasbasbag61
(g77
g63
NtRp3080
(dp3081
g66
(dp3082
sg75
g2698
sg68
(lp3083
g61
(g82
g63
NtRp3084
(dp3085
g66
(dp3086
g86
g87
ssg75
g3080
sg68
(lp3087
S'SERVER_PORT'
p3088
asbag61
(g82
g63
NtRp3089
(dp3090
g66
(dp3091
g93
g94
ssg75
g3080
sg68
(lp3092
S':'
asbag61
(g82
g63
NtRp3093
(dp3094
g66
(dp3095
sg75
g3080
sg68
(lp3096
g61
(g62
g63
NtRp3097
(dp3098
g66
(dp3099
g74
I3
ssg75
g3093
sg68
(lp3100
g1582
asbasbasbag61
(g77
g63
NtRp3101
(dp3102
g66
(dp3103
sg75
g2698
sg68
(lp3104
g61
(g82
g63
NtRp3105
(dp3106
g66
(dp3107
g86
g87
ssg75
g3101
sg68
(lp3108
S'SERVER_PROTOCOL'
p3109
asbag61
(g82
g63
NtRp3110
(dp3111
g66
(dp3112
g93
g94
ssg75
g3101
sg68
(lp3113
S':'
asbag61
(g82
g63
NtRp3114
(dp3115
g66
(dp3116
sg75
g3101
sg68
(lp3117
g61
(g62
g63
NtRp3118
(dp3119
g66
(dp3120
g74
I3
ssg75
g3114
sg68
(lp3121
g1604
asbasbasbag61
(g77
g63
NtRp3122
(dp3123
g66
(dp3124
sg75
g2698
sg68
(lp3125
g61
(g82
g63
NtRp3126
(dp3127
g66
(dp3128
g86
g87
ssg75
g3122
sg68
(lp3129
S'SERVER_SOFTWARE'
p3130
asbag61
(g82
g63
NtRp3131
(dp3132
g66
(dp3133
g93
g94
ssg75
g3122
sg68
(lp3134
S':'
asbag61
(g82
g63
NtRp3135
(dp3136
g66
(dp3137
sg75
g3122
sg68
(lp3138
g61
(g62
g63
NtRp3139
(dp3140
g66
(dp3141
g74
I3
ssg75
g3135
sg68
(lp3142
g1626
asbasbasbag61
(g77
g63
NtRp3143
(dp3144
g66
(dp3145
sg75
g2698
sg68
(lp3146
g61
(g82
g63
NtRp3147
(dp3148
g66
(dp3149
g86
g87
ssg75
g3143
sg68
(lp3150
S'wsgi.errors'
p3151
asbag61
(g82
g63
NtRp3152
(dp3153
g66
(dp3154
g93
g94
ssg75
g3143
sg68
(lp3155
S':'
asbag61
(g82
g63
NtRp3156
(dp3157
g66
(dp3158
sg75
g3143
sg68
(lp3159
g61
(g62
g63
NtRp3160
(dp3161
g66
(dp3162
g74
I3
ssg75
g3156
sg68
(lp3163
S"<open file '<stderr>', mode 'w' at 0x7f13978c7270>"
p3164
asbasbasbag61
(g77
g63
NtRp3165
(dp3166
g66
(dp3167
sg75
g2698
sg68
(lp3168
g61
(g82
g63
NtRp3169
(dp3170
g66
(dp3171
g86
g87
ssg75
g3165
sg68
(lp3172
S'wsgi.file_wrapper'
p3173
asbag61
(g82
g63
NtRp3174
(dp3175
g66
(dp3176
g93
g94
ssg75
g3165
sg68
(lp3177
S':'
asbag61
(g82
g63
NtRp3178
(dp3179
g66
(dp3180
sg75
g3165
sg68
(lp3181
g61
(g62
g63
NtRp3182
(dp3183
g66
(dp3184
g74
I3
ssg75
g3178
sg68
(lp3185
S'<class wsgiref.util.FileWrapper at 0x29b5db8>'
p3186
asbasbasbag61
(g77
g63
NtRp3187
(dp3188
g66
(dp3189
sg75
g2698
sg68
(lp3190
g61
(g82
g63
NtRp3191
(dp3192
g66
(dp3193
g86
g87
ssg75
g3187
sg68
(lp3194
S'wsgi.input'
p3195
asbag61
(g82
g63
NtRp3196
(dp3197
g66
(dp3198
g93
g94
ssg75
g3187
sg68
(lp3199
S':'
asbag61
(g82
g63
NtRp3200
(dp3201
g66
(dp3202
sg75
g3187
sg68
(lp3203
g61
(g62
g63
NtRp3204
(dp3205
g66
(dp3206
g74
I3
ssg75
g3200
sg68
(lp3207
S'<cStringIO.StringO object at 0x7f1388582650>'
p3208
asbasbasbag61
(g77
g63
NtRp3209
(dp3210
g66
(dp3211
sg75
g2698
sg68
(lp3212
g61
(g82
g63
NtRp3213
(dp3214
g66
(dp3215
g86
g87
ssg75
g3209
sg68
(lp3216
S'wsgi.multiprocess'
p3217
asbag61
(g82
g63
NtRp3218
(dp3219
g66
(dp3220
g93
g94
ssg75
g3209
sg68
(lp3221
S':'
asbag61
(g82
g63
NtRp3222
(dp3223
g66
(dp3224
sg75
g3209
sg68
(lp3225
g61
(g62
g63
NtRp3226
(dp3227
g66
(dp3228
g74
I3
ssg75
g3222
sg68
(lp3229
g104
asbasbasbag61
(g77
g63
NtRp3230
(dp3231
g66
(dp3232
sg75
g2698
sg68
(lp3233
g61
(g82
g63
NtRp3234
(dp3235
g66
(dp3236
g86
g87
ssg75
g3230
sg68
(lp3237
S'wsgi.multithread'
p3238
asbag61
(g82
g63
NtRp3239
(dp3240
g66
(dp3241
g93
g94
ssg75
g3230
sg68
(lp3242
S':'
asbag61
(g82
g63
NtRp3243
(dp3244
g66
(dp3245
sg75
g3230
sg68
(lp3246
g61
(g62
g63
NtRp3247
(dp3248
g66
(dp3249
g74
I3
ssg75
g3243
sg68
(lp3250
g1843
asbasbasbag61
(g77
g63
NtRp3251
(dp3252
g66
(dp3253
sg75
g2698
sg68
(lp3254
g61
(g82
g63
NtRp3255
(dp3256
g66
(dp3257
g86
g87
ssg75
g3251
sg68
(lp3258
S'wsgi.run_once'
p3259
asbag61
(g82
g63
NtRp3260
(dp3261
g66
(dp3262
g93
g94
ssg75
g3251
sg68
(lp3263
S':'
asbag61
(g82
g63
NtRp3264
(dp3265
g66
(dp3266
sg75
g3251
sg68
(lp3267
g61
(g62
g63
NtRp3268
(dp3269
g66
(dp3270
g74
I3
ssg75
g3264
sg68
(lp3271
g104
asbasbasbag61
(g77
g63
NtRp3272
(dp3273
g66
(dp3274
sg75
g2698
sg68
(lp3275
g61
(g82
g63
NtRp3276
(dp3277
g66
(dp3278
g86
g87
ssg75
g3272
sg68
(lp3279
S'wsgi.url_scheme'
p3280
asbag61
(g82
g63
NtRp3281
(dp3282
g66
(dp3283
g93
g94
ssg75
g3272
sg68
(lp3284
S':'
asbag61
(g82
g63
NtRp3285
(dp3286
g66
(dp3287
sg75
g3272
sg68
(lp3288
g61
(g62
g63
NtRp3289
(dp3290
g66
(dp3291
g74
I3
ssg75
g3285
sg68
(lp3292
g1886
asbasbasbag61
(g77
g63
NtRp3293
(dp3294
g66
(dp3295
sg75
g2698
sg68
(lp3296
g61
(g82
g63
NtRp3297
(dp3298
g66
(dp3299
g86
g87
ssg75
g3293
sg68
(lp3300
S'wsgi.version'
p3301
asbag61
(g82
g63
NtRp3302
(dp3303
g66
(dp3304
g93
g94
ssg75
g3293
sg68
(lp3305
S':'
asbag61
(g82
g63
NtRp3306
(dp3307
g66
(dp3308
sg75
g3293
sg68
(lp3309
g61
(g62
g63
NtRp3310
(dp3311
g66
(dp3312
g74
I3
ssg75
g3306
sg68
(lp3313
S'1'
asbasbasbasbasbasbasbasbasbasbasbasbasbsS'frames'
p3314
(lp3315
(dp3316
S'file'
p3317
S'/home/adrian/web2py/gluon/restricted.py'
p3318
sS'dump'
p3319
(dp3320
S'environment'
p3321
S"{'A': <class 'gluon.html.A'>, 'Auth': <class 'gluon.tools.Auth'>, 'B': <class 'gluon.html.B'>, 'BEAUTIFY': <class 'gluon.html.BEAUTIFY'>, 'BODY': <class 'gluon.html.BODY'>, 'BR': <class 'gluon.html.BR'>, 'BUTTON': <class 'gluon.html.BUTTON'>, 'CAT': <class 'gluon.html.CAT'>, 'CENTER': <class 'gluon.html.CENTER'>, 'CLEANUP': <class 'gluon.validators.CLEANUP'>, ...}"
p3322
sS'ccode'
p3323
S'<code object <module> at 0x7f13844312b0, file "/...y/applications/CygnusCloud/models/db.py", line 2>'
p3324
ssS'lnum'
p3325
I212
sS'lines'
p3326
(dp3327
I207
S'    try:'
p3328
sI208
S'        if isinstance(code, types.CodeType):'
p3329
sI209
S'            ccode = code'
p3330
sI210
S'        else:'
p3331
sI211
S'            ccode = compile2(code, layer)'
p3332
sI212
S'        exec ccode in environment'
p3333
sI213
S'    except HTTP:'
p3334
sI214
S'        raise'
p3335
sI215
S'    except RestrictedError:'
p3336
sI216
S'        # do not encapsulate (obfuscate) the original RestrictedError'
p3337
ssS'call'
p3338
S'(code="# -*- coding: utf-8 -*-\\nfrom configuration impor... grupos\\n#auth.add_membership(\'Administrator\',u1)\\n", environment={\'A\': <class \'gluon.html.A\'>, \'Auth\': <class \'gluon.tools.Auth\'>, \'B\': <class \'gluon.html.B\'>, \'BEAUTIFY\': <class \'gluon.html.BEAUTIFY\'>, \'BODY\': <class \'gluon.html.BODY\'>, \'BR\': <class \'gluon.html.BR\'>, \'BUTTON\': <class \'gluon.html.BUTTON\'>, \'CAT\': <class \'gluon.html.CAT\'>, \'CENTER\': <class \'gluon.html.CENTER\'>, \'CLEANUP\': <class \'gluon.validators.CLEANUP\'>, ...}, layer=\'/home/adrian/web2py/applications/CygnusCloud/models/db.py\')'
p3339
sS'func'
p3340
S'restricted'
p3341
sa(dp3342
g3317
S'/home/adrian/web2py/applications/CygnusCloud/models/db.py'
p3343
sg3319
(dp3344
S'first_name'
p3345
S'undefined'
p3346
sS'last_name'
p3347
g3346
sS'email'
p3348
g3346
ssg3325
I42
sg3326
(dp3349
I37
S"   primarykey=['cod','curseGroup','VMName'])"
p3350
sI38
S''
sI39
S''
sI40
S'#Usuario de prueba'
p3351
sI41
S"u1 = userDB.auth_user.insert(password = userDB.auth_user.password.validate('1234')[0],\\"
p3352
sI42
S"                    email = 'Admin1@ucm.es',first_name='Bertoldo',last_name='Pedralbes')"
p3353
sI43
S'#A\xc3\xb1adimos los grupos'
p3354
sI44
S"#auth.add_group('Student', 'Only run virtual machines available')"
p3355
sI45
S"#auth.add_group('Administrator', 'All privilages available')"
p3356
sI46
S''
ssg3338
S'()'
p3357
sg3340
S'<module>'
p3358
sa(dp3359
g3317
S'/home/adrian/web2py/gluon/dal.py'
p3360
sg3319
(dp3361
S'self._listify'
p3362
S'<bound method Table._listify of <Table auth_user...tration_key,reset_password_key,registration_id)>>'
p3363
sS'fields'
p3364
S"{'email': 'Admin1@ucm.es', 'first_name': 'Bertoldo', 'last_name': 'Pedralbes', 'password': <gluon.validators.LazyCrypt object>, 'registration_id': '', 'registration_key': '', 'reset_password_key': ''}"
p3365
sS'self'
p3366
S'<Table auth_user (id,first_name,last_name,email,...stration_key,reset_password_key,registration_id)>'
p3367
sS'ret'
p3368
g3346
sS'self._db._adapter'
p3369
S'<gluon.dal.MySQLAdapter object>'
p3370
sS'self._db._adapter.insert'
p3371
S'<bound method MySQLAdapter.insert of <gluon.dal.MySQLAdapter object>>'
p3372
sS'self._db'
p3373
S'<DAL uri="mysql://******:cygnuscloud2012@localhost/UserDB">'
p3374
ssg3325
I7918
sg3326
(dp3375
I7913
S'        return self._db._adapter._insert(self,self._listify(fields))'
p3376
sI7914
S''
sI7915
S'    def insert(self, **fields):'
p3377
sI7916
S'        self._attempt_upload(fields)'
p3378
sI7917
S'        if any(f(fields) for f in self._before_insert): return 0'
p3379
sI7918
S'        ret =  self._db._adapter.insert(self,self._listify(fields))'
p3380
sI7919
S'        if ret and self._after_insert:'
p3381
sI7920
S'            fields = Row(fields)'
p3382
sI7921
S'            [f(fields,ret) for f in self._after_insert]'
p3383
sI7922
S'        return ret'
p3384
ssg3338
S"(self=<Table auth_user (id,first_name,last_name,email,...stration_key,reset_password_key,registration_id)>, **fields={'email': 'Admin1@ucm.es', 'first_name': 'Bertoldo', 'last_name': 'Pedralbes', 'password': <gluon.validators.LazyCrypt object>, 'registration_id': '', 'registration_key': '', 'reset_password_key': ''})"
p3385
sg3340
S'insert'
p3386
sa(dp3387
g3317
S'/home/adrian/web2py/gluon/dal.py'
p3388
sg3319
(dp3389
S'e'
S'ProgrammingError(1146, "Table \'UserDB.auth_user\' doesn\'t exist")'
p3390
ssg3325
I1176
sg3326
(dp3391
I1171
S'            self.execute(query)'
p3392
sI1172
S'        except Exception:'
p3393
sI1173
S'            e = sys.exc_info()[1]'
p3394
sI1174
S'            if isinstance(e,self.integrity_error_class()):'
p3395
sI1175
S'                return None'
p3396
sI1176
S'            raise e'
p3397
sI1177
S"        if hasattr(table,'_primarykey'):"
p3398
sI1178
S'            return dict([(k[0].name, k[1]) for k in fields \\'
p3399
sI1179
S'                             if k[0].name in table._primarykey])'
p3400
sI1180
S'        id = self.lastrowid(table)'
p3401
ssg3338
S"(self=<gluon.dal.MySQLAdapter object>, table=<Table auth_user (id,first_name,last_name,email,...stration_key,reset_password_key,registration_id)>, fields=[(<gluon.dal.Field object>, 'Bertoldo'), (<gluon.dal.Field object>, 'Pedralbes'), (<gluon.dal.Field object>, ''), (<gluon.dal.Field object>, ''), (<gluon.dal.Field object>, <gluon.validators.LazyCrypt object>), (<gluon.dal.Field object>, ''), (<gluon.dal.Field object>, 'Admin1@ucm.es')])"
p3402
sg3340
g3386
sasS'pyver'
p3403
S'Python 2.7.3: /usr/bin/python'
p3404
sS'session'
p3405
g61
(g62
g63
NtRp3406
(dp3407
g66
(dp3408
sg68
(lp3409
g61
(g70
g63
NtRp3410
(dp3411
g66
(dp3412
g74
I5
ssg75
Nsg68
(lp3413
g61
(g77
g63
NtRp3414
(dp3415
g66
(dp3416
sg75
g3410
sg68
(lp3417
g61
(g82
g63
NtRp3418
(dp3419
g66
(dp3420
g86
g87
ssg75
g3414
sg68
(lp3421
S'flash'
p3422
asbag61
(g82
g63
NtRp3423
(dp3424
g66
(dp3425
g93
g94
ssg75
g3414
sg68
(lp3426
S':'
asbag61
(g82
g63
NtRp3427
(dp3428
g66
(dp3429
sg75
g3414
sg68
(lp3430
g61
(g62
g63
NtRp3431
(dp3432
g66
(dp3433
g74
I5
ssg75
g3427
sg68
(lp3434
S'None'
p3435
asbasbasbag61
(g77
g63
NtRp3436
(dp3437
g66
(dp3438
sg75
g3410
sg68
(lp3439
g61
(g82
g63
NtRp3440
(dp3441
g66
(dp3442
g86
g87
ssg75
g3436
sg68
(lp3443
S'last_orderby'
p3444
asbag61
(g82
g63
NtRp3445
(dp3446
g66
(dp3447
g93
g94
ssg75
g3436
sg68
(lp3448
S':'
asbag61
(g82
g63
NtRp3449
(dp3450
g66
(dp3451
sg75
g3436
sg68
(lp3452
g61
(g62
g63
NtRp3453
(dp3454
g66
(dp3455
g74
I5
ssg75
g3449
sg68
(lp3456
S'None'
p3457
asbasbasbag61
(g77
g63
NtRp3458
(dp3459
g66
(dp3460
sg75
g3410
sg68
(lp3461
g61
(g82
g63
NtRp3462
(dp3463
g66
(dp3464
g86
g87
ssg75
g3458
sg68
(lp3465
S'last_query'
p3466
asbag61
(g82
g63
NtRp3467
(dp3468
g66
(dp3469
g93
g94
ssg75
g3458
sg68
(lp3470
S':'
asbag61
(g82
g63
NtRp3471
(dp3472
g66
(dp3473
sg75
g3458
sg68
(lp3474
g61
(g62
g63
NtRp3475
(dp3476
g66
(dp3477
g74
I5
ssg75
g3471
sg68
(lp3478
S'userDB.auth_user.id>0'
p3479
asbasbasbasbasbsS'etype'
p3480
S"<class '_mysql_exceptions.ProgrammingError'>"
p3481
sS'date'
p3482
S'Tue Feb  5 17:55:22 2013'
p3483
sS'response'
p3484
g61
(g62
g63
NtRp3485
(dp3486
g66
(dp3487
sg68
(lp3488
g61
(g70
g63
NtRp3489
(dp3490
g66
(dp3491
g74
I5
ssg75
Nsg68
(lp3492
g61
(g77
g63
NtRp3493
(dp3494
g66
(dp3495
sg75
g3489
sg68
(lp3496
g61
(g82
g63
NtRp3497
(dp3498
g66
(dp3499
g86
g87
ssg75
g3493
sg68
(lp3500
g185
asbag61
(g82
g63
NtRp3501
(dp3502
g66
(dp3503
g93
g94
ssg75
g3493
sg68
(lp3504
S':'
asbag61
(g82
g63
NtRp3505
(dp3506
g66
(dp3507
sg75
g3493
sg68
(lp3508
g61
(g62
g63
NtRp3509
(dp3510
g66
(dp3511
g74
I5
ssg75
g3505
sg68
(lp3512
S'<cStringIO.StringO object at 0x7f137037f340>'
p3513
asbasbasbag61
(g77
g63
NtRp3514
(dp3515
g66
(dp3516
sg75
g3489
sg68
(lp3517
g61
(g82
g63
NtRp3518
(dp3519
g66
(dp3520
g86
g87
ssg75
g3514
sg68
(lp3521
g273
asbag61
(g82
g63
NtRp3522
(dp3523
g66
(dp3524
g93
g94
ssg75
g3514
sg68
(lp3525
S':'
asbag61
(g82
g63
NtRp3526
(dp3527
g66
(dp3528
sg75
g3514
sg68
(lp3529
g61
(g62
g63
NtRp3530
(dp3531
g66
(dp3532
g74
I5
ssg75
g3526
sg68
(lp3533
g61
(g70
g63
NtRp3534
(dp3535
g66
(dp3536
g74
I4
ssg75
Nsg68
(lp3537
g61
(g77
g63
NtRp3538
(dp3539
g66
(dp3540
sg75
g3534
sg68
(lp3541
g61
(g82
g63
NtRp3542
(dp3543
g66
(dp3544
g86
g87
ssg75
g3538
sg68
(lp3545
S'session_id_cygnuscloud'
p3546
asbag61
(g82
g63
NtRp3547
(dp3548
g66
(dp3549
g93
g94
ssg75
g3538
sg68
(lp3550
S':'
asbag61
(g82
g63
NtRp3551
(dp3552
g66
(dp3553
sg75
g3538
sg68
(lp3554
g61
(g62
g63
NtRp3555
(dp3556
g66
(dp3557
g74
I4
ssg75
g3551
sg68
(lp3558
g505
ag61
(g70
g63
NtRp3559
(dp3560
g66
(dp3561
g74
I3
ssg75
Nsg68
(lp3562
g61
(g77
g63
NtRp3563
(dp3564
g66
(dp3565
sg75
g3559
sg68
(lp3566
g61
(g82
g63
NtRp3567
(dp3568
g66
(dp3569
g86
g87
ssg75
g3563
sg68
(lp3570
g324
asbag61
(g82
g63
NtRp3571
(dp3572
g66
(dp3573
g93
g94
ssg75
g3563
sg68
(lp3574
S':'
asbag61
(g82
g63
NtRp3575
(dp3576
g66
(dp3577
sg75
g3563
sg68
(lp3578
g61
(g62
g63
NtRp3579
(dp3580
g66
(dp3581
g74
I3
ssg75
g3575
sg68
(lp3582
S''
asbasbasbag61
(g77
g63
NtRp3583
(dp3584
g66
(dp3585
sg75
g3559
sg68
(lp3586
g61
(g82
g63
NtRp3587
(dp3588
g66
(dp3589
g86
g87
ssg75
g3583
sg68
(lp3590
g345
asbag61
(g82
g63
NtRp3591
(dp3592
g66
(dp3593
g93
g94
ssg75
g3583
sg68
(lp3594
S':'
asbag61
(g82
g63
NtRp3595
(dp3596
g66
(dp3597
sg75
g3583
sg68
(lp3598
g61
(g62
g63
NtRp3599
(dp3600
g66
(dp3601
g74
I3
ssg75
g3595
sg68
(lp3602
S''
asbasbasbag61
(g77
g63
NtRp3603
(dp3604
g66
(dp3605
sg75
g3559
sg68
(lp3606
g61
(g82
g63
NtRp3607
(dp3608
g66
(dp3609
g86
g87
ssg75
g3603
sg68
(lp3610
g366
asbag61
(g82
g63
NtRp3611
(dp3612
g66
(dp3613
g93
g94
ssg75
g3603
sg68
(lp3614
S':'
asbag61
(g82
g63
NtRp3615
(dp3616
g66
(dp3617
sg75
g3603
sg68
(lp3618
g61
(g62
g63
NtRp3619
(dp3620
g66
(dp3621
g74
I3
ssg75
g3615
sg68
(lp3622
S''
asbasbasbag61
(g77
g63
NtRp3623
(dp3624
g66
(dp3625
sg75
g3559
sg68
(lp3626
g61
(g82
g63
NtRp3627
(dp3628
g66
(dp3629
g86
g87
ssg75
g3623
sg68
(lp3630
g387
asbag61
(g82
g63
NtRp3631
(dp3632
g66
(dp3633
g93
g94
ssg75
g3623
sg68
(lp3634
S':'
asbag61
(g82
g63
NtRp3635
(dp3636
g66
(dp3637
sg75
g3623
sg68
(lp3638
g61
(g62
g63
NtRp3639
(dp3640
g66
(dp3641
g74
I3
ssg75
g3635
sg68
(lp3642
S''
asbasbasbag61
(g77
g63
NtRp3643
(dp3644
g66
(dp3645
sg75
g3559
sg68
(lp3646
g61
(g82
g63
NtRp3647
(dp3648
g66
(dp3649
g86
g87
ssg75
g3643
sg68
(lp3650
g408
asbag61
(g82
g63
NtRp3651
(dp3652
g66
(dp3653
g93
g94
ssg75
g3643
sg68
(lp3654
S':'
asbag61
(g82
g63
NtRp3655
(dp3656
g66
(dp3657
sg75
g3643
sg68
(lp3658
g61
(g62
g63
NtRp3659
(dp3660
g66
(dp3661
g74
I3
ssg75
g3655
sg68
(lp3662
S''
asbasbasbag61
(g77
g63
NtRp3663
(dp3664
g66
(dp3665
sg75
g3559
sg68
(lp3666
g61
(g82
g63
NtRp3667
(dp3668
g66
(dp3669
g86
g87
ssg75
g3663
sg68
(lp3670
g429
asbag61
(g82
g63
NtRp3671
(dp3672
g66
(dp3673
g93
g94
ssg75
g3663
sg68
(lp3674
S':'
asbag61
(g82
g63
NtRp3675
(dp3676
g66
(dp3677
sg75
g3663
sg68
(lp3678
g61
(g62
g63
NtRp3679
(dp3680
g66
(dp3681
g74
I3
ssg75
g3675
sg68
(lp3682
S'/'
asbasbasbag61
(g77
g63
NtRp3683
(dp3684
g66
(dp3685
sg75
g3559
sg68
(lp3686
g61
(g82
g63
NtRp3687
(dp3688
g66
(dp3689
g86
g87
ssg75
g3683
sg68
(lp3690
g450
asbag61
(g82
g63
NtRp3691
(dp3692
g66
(dp3693
g93
g94
ssg75
g3683
sg68
(lp3694
S':'
asbag61
(g82
g63
NtRp3695
(dp3696
g66
(dp3697
sg75
g3683
sg68
(lp3698
g61
(g62
g63
NtRp3699
(dp3700
g66
(dp3701
g74
I3
ssg75
g3695
sg68
(lp3702
S''
asbasbasbag61
(g77
g63
NtRp3703
(dp3704
g66
(dp3705
sg75
g3559
sg68
(lp3706
g61
(g82
g63
NtRp3707
(dp3708
g66
(dp3709
g86
g87
ssg75
g3703
sg68
(lp3710
g471
asbag61
(g82
g63
NtRp3711
(dp3712
g66
(dp3713
g93
g94
ssg75
g3703
sg68
(lp3714
S':'
asbag61
(g82
g63
NtRp3715
(dp3716
g66
(dp3717
sg75
g3703
sg68
(lp3718
g61
(g62
g63
NtRp3719
(dp3720
g66
(dp3721
g74
I3
ssg75
g3715
sg68
(lp3722
S''
asbasbasbasbasbasbasbasbasbasbasbag61
(g77
g63
NtRp3723
(dp3724
g66
(dp3725
sg75
g3489
sg68
(lp3726
g61
(g82
g63
NtRp3727
(dp3728
g66
(dp3729
g86
g87
ssg75
g3723
sg68
(lp3730
S'delimiters'
p3731
asbag61
(g82
g63
NtRp3732
(dp3733
g66
(dp3734
g93
g94
ssg75
g3723
sg68
(lp3735
S':'
asbag61
(g82
g63
NtRp3736
(dp3737
g66
(dp3738
sg75
g3723
sg68
(lp3739
g61
(g62
g63
NtRp3740
(dp3741
g66
(dp3742
g74
I5
ssg75
g3736
sg68
(lp3743
g61
(g70
g63
NtRp3744
(dp3745
g66
(dp3746
g74
I4
ssg75
Nsg68
(lp3747
g61
(g77
g63
NtRp3748
(dp3749
g66
(dp3750
sg75
g3744
sg68
(lp3751
g61
(g82
g63
NtRp3752
(dp3753
g66
(dp3754
sg75
g3748
sg68
(lp3755
g61
(g62
g63
NtRp3756
(dp3757
g66
(dp3758
g74
I4
ssg75
g3752
sg68
(lp3759
S'{{'
p3760
asbasbasbag61
(g77
g63
NtRp3761
(dp3762
g66
(dp3763
sg75
g3744
sg68
(lp3764
g61
(g82
g63
NtRp3765
(dp3766
g66
(dp3767
sg75
g3761
sg68
(lp3768
g61
(g62
g63
NtRp3769
(dp3770
g66
(dp3771
g74
I4
ssg75
g3765
sg68
(lp3772
S'}}'
p3773
asbasbasbasbasbasbasbag61
(g77
g63
NtRp3774
(dp3775
g66
(dp3776
sg75
g3489
sg68
(lp3777
g61
(g82
g63
NtRp3778
(dp3779
g66
(dp3780
g86
g87
ssg75
g3774
sg68
(lp3781
S'files'
p3782
asbag61
(g82
g63
NtRp3783
(dp3784
g66
(dp3785
g93
g94
ssg75
g3774
sg68
(lp3786
S':'
asbag61
(g82
g63
NtRp3787
(dp3788
g66
(dp3789
sg75
g3774
sg68
(lp3790
g61
(g62
g63
NtRp3791
(dp3792
g66
(dp3793
g74
I5
ssg75
g3787
sg68
(lp3794
g61
(g70
g63
NtRp3795
(dp3796
g66
(dp3797
g74
I4
ssg75
Nsg68
(lp3798
sbasbasbasbag61
(g77
g63
NtRp3799
(dp3800
g66
(dp3801
sg75
g3489
sg68
(lp3802
g61
(g82
g63
NtRp3803
(dp3804
g66
(dp3805
g86
g87
ssg75
g3799
sg68
(lp3806
S'flash'
p3807
asbag61
(g82
g63
NtRp3808
(dp3809
g66
(dp3810
g93
g94
ssg75
g3799
sg68
(lp3811
S':'
asbag61
(g82
g63
NtRp3812
(dp3813
g66
(dp3814
sg75
g3799
sg68
(lp3815
g61
(g62
g63
NtRp3816
(dp3817
g66
(dp3818
g74
I5
ssg75
g3812
sg68
(lp3819
S''
asbasbasbag61
(g77
g63
NtRp3820
(dp3821
g66
(dp3822
sg75
g3489
sg68
(lp3823
g61
(g82
g63
NtRp3824
(dp3825
g66
(dp3826
g86
g87
ssg75
g3820
sg68
(lp3827
S'generic_patterns'
p3828
asbag61
(g82
g63
NtRp3829
(dp3830
g66
(dp3831
g93
g94
ssg75
g3820
sg68
(lp3832
S':'
asbag61
(g82
g63
NtRp3833
(dp3834
g66
(dp3835
sg75
g3820
sg68
(lp3836
g61
(g62
g63
NtRp3837
(dp3838
g66
(dp3839
g74
I5
ssg75
g3833
sg68
(lp3840
g61
(g70
g63
NtRp3841
(dp3842
g66
(dp3843
g74
I4
ssg75
Nsg68
(lp3844
sbasbasbasbag61
(g77
g63
NtRp3845
(dp3846
g66
(dp3847
sg75
g3489
sg68
(lp3848
g61
(g82
g63
NtRp3849
(dp3850
g66
(dp3851
g86
g87
ssg75
g3845
sg68
(lp3852
S'headers'
p3853
asbag61
(g82
g63
NtRp3854
(dp3855
g66
(dp3856
g93
g94
ssg75
g3845
sg68
(lp3857
S':'
asbag61
(g82
g63
NtRp3858
(dp3859
g66
(dp3860
sg75
g3845
sg68
(lp3861
g61
(g62
g63
NtRp3862
(dp3863
g66
(dp3864
g74
I5
ssg75
g3858
sg68
(lp3865
g61
(g70
g63
NtRp3866
(dp3867
g66
(dp3868
g74
I4
ssg75
Nsg68
(lp3869
g61
(g77
g63
NtRp3870
(dp3871
g66
(dp3872
sg75
g3866
sg68
(lp3873
g61
(g82
g63
NtRp3874
(dp3875
g66
(dp3876
g86
g87
ssg75
g3870
sg68
(lp3877
S'X-Powered-By'
p3878
asbag61
(g82
g63
NtRp3879
(dp3880
g66
(dp3881
g93
g94
ssg75
g3870
sg68
(lp3882
S':'
asbag61
(g82
g63
NtRp3883
(dp3884
g66
(dp3885
sg75
g3870
sg68
(lp3886
g61
(g62
g63
NtRp3887
(dp3888
g66
(dp3889
g74
I4
ssg75
g3883
sg68
(lp3890
S'web2py'
p3891
asbasbasbasbasbasbasbag61
(g77
g63
NtRp3892
(dp3893
g66
(dp3894
sg75
g3489
sg68
(lp3895
g61
(g82
g63
NtRp3896
(dp3897
g66
(dp3898
g86
g87
ssg75
g3892
sg68
(lp3899
S'menu'
p3900
asbag61
(g82
g63
NtRp3901
(dp3902
g66
(dp3903
g93
g94
ssg75
g3892
sg68
(lp3904
S':'
asbag61
(g82
g63
NtRp3905
(dp3906
g66
(dp3907
sg75
g3892
sg68
(lp3908
g61
(g62
g63
NtRp3909
(dp3910
g66
(dp3911
g74
I5
ssg75
g3905
sg68
(lp3912
g61
(g70
g63
NtRp3913
(dp3914
g66
(dp3915
g74
I4
ssg75
Nsg68
(lp3916
sbasbasbasbag61
(g77
g63
NtRp3917
(dp3918
g66
(dp3919
sg75
g3489
sg68
(lp3920
g61
(g82
g63
NtRp3921
(dp3922
g66
(dp3923
g86
g87
ssg75
g3917
sg68
(lp3924
S'meta'
p3925
asbag61
(g82
g63
NtRp3926
(dp3927
g66
(dp3928
g93
g94
ssg75
g3917
sg68
(lp3929
S':'
asbag61
(g82
g63
NtRp3930
(dp3931
g66
(dp3932
sg75
g3917
sg68
(lp3933
g61
(g62
g63
NtRp3934
(dp3935
g66
(dp3936
g74
I5
ssg75
g3930
sg68
(lp3937
g61
(g70
g63
NtRp3938
(dp3939
g66
(dp3940
g74
I4
ssg75
Nsg68
(lp3941
sbasbasbasbag61
(g77
g63
NtRp3942
(dp3943
g66
(dp3944
sg75
g3489
sg68
(lp3945
g61
(g82
g63
NtRp3946
(dp3947
g66
(dp3948
g86
g87
ssg75
g3942
sg68
(lp3949
S'models_to_run'
p3950
asbag61
(g82
g63
NtRp3951
(dp3952
g66
(dp3953
g93
g94
ssg75
g3942
sg68
(lp3954
S':'
asbag61
(g82
g63
NtRp3955
(dp3956
g66
(dp3957
sg75
g3942
sg68
(lp3958
g61
(g62
g63
NtRp3959
(dp3960
g66
(dp3961
g74
I5
ssg75
g3955
sg68
(lp3962
g61
(g70
g63
NtRp3963
(dp3964
g66
(dp3965
g74
I4
ssg75
Nsg68
(lp3966
g61
(g77
g63
NtRp3967
(dp3968
g66
(dp3969
sg75
g3963
sg68
(lp3970
g61
(g82
g63
NtRp3971
(dp3972
g66
(dp3973
sg75
g3967
sg68
(lp3974
g61
(g62
g63
NtRp3975
(dp3976
g66
(dp3977
g74
I4
ssg75
g3971
sg68
(lp3978
S'^\\w+\\.py$'
p3979
asbasbasbag61
(g77
g63
NtRp3980
(dp3981
g66
(dp3982
sg75
g3963
sg68
(lp3983
g61
(g82
g63
NtRp3984
(dp3985
g66
(dp3986
sg75
g3980
sg68
(lp3987
g61
(g62
g63
NtRp3988
(dp3989
g66
(dp3990
g74
I4
ssg75
g3984
sg68
(lp3991
S'^appadmin/\\w+\\.py$'
p3992
asbasbasbag61
(g77
g63
NtRp3993
(dp3994
g66
(dp3995
sg75
g3963
sg68
(lp3996
g61
(g82
g63
NtRp3997
(dp3998
g66
(dp3999
sg75
g3993
sg68
(lp4000
g61
(g62
g63
NtRp4001
(dp4002
g66
(dp4003
g74
I4
ssg75
g3997
sg68
(lp4004
S'^appadmin/insert/\\w+\\.py$'
p4005
asbasbasbasbasbasbasbag61
(g77
g63
NtRp4006
(dp4007
g66
(dp4008
sg75
g3489
sg68
(lp4009
g61
(g82
g63
NtRp4010
(dp4011
g66
(dp4012
g86
g87
ssg75
g4006
sg68
(lp4013
S'postprocessing'
p4014
asbag61
(g82
g63
NtRp4015
(dp4016
g66
(dp4017
g93
g94
ssg75
g4006
sg68
(lp4018
S':'
asbag61
(g82
g63
NtRp4019
(dp4020
g66
(dp4021
sg75
g4006
sg68
(lp4022
g61
(g62
g63
NtRp4023
(dp4024
g66
(dp4025
g74
I5
ssg75
g4019
sg68
(lp4026
g61
(g70
g63
NtRp4027
(dp4028
g66
(dp4029
g74
I4
ssg75
Nsg68
(lp4030
sbasbasbasbag61
(g77
g63
NtRp4031
(dp4032
g66
(dp4033
sg75
g3489
sg68
(lp4034
g61
(g82
g63
NtRp4035
(dp4036
g66
(dp4037
g86
g87
ssg75
g4031
sg68
(lp4038
S'session_cookie_expires'
p4039
asbag61
(g82
g63
NtRp4040
(dp4041
g66
(dp4042
g93
g94
ssg75
g4031
sg68
(lp4043
S':'
asbag61
(g82
g63
NtRp4044
(dp4045
g66
(dp4046
sg75
g4031
sg68
(lp4047
g61
(g62
g63
NtRp4048
(dp4049
g66
(dp4050
g74
I5
ssg75
g4044
sg68
(lp4051
S'None'
p4052
asbasbasbag61
(g77
g63
NtRp4053
(dp4054
g66
(dp4055
sg75
g3489
sg68
(lp4056
g61
(g82
g63
NtRp4057
(dp4058
g66
(dp4059
g86
g87
ssg75
g4053
sg68
(lp4060
S'session_data_name'
p4061
asbag61
(g82
g63
NtRp4062
(dp4063
g66
(dp4064
g93
g94
ssg75
g4053
sg68
(lp4065
S':'
asbag61
(g82
g63
NtRp4066
(dp4067
g66
(dp4068
sg75
g4053
sg68
(lp4069
g61
(g62
g63
NtRp4070
(dp4071
g66
(dp4072
g74
I5
ssg75
g4066
sg68
(lp4073
S'session_data_cygnuscloud'
p4074
asbasbasbag61
(g77
g63
NtRp4075
(dp4076
g66
(dp4077
sg75
g3489
sg68
(lp4078
g61
(g82
g63
NtRp4079
(dp4080
g66
(dp4081
g86
g87
ssg75
g4075
sg68
(lp4082
S'session_file'
p4083
asbag61
(g82
g63
NtRp4084
(dp4085
g66
(dp4086
g93
g94
ssg75
g4075
sg68
(lp4087
S':'
asbag61
(g82
g63
NtRp4088
(dp4089
g66
(dp4090
sg75
g4075
sg68
(lp4091
g61
(g62
g63
NtRp4092
(dp4093
g66
(dp4094
g74
I5
ssg75
g4088
sg68
(lp4095
S"<open file '/home/adrian/web2py/applications/CygnusCloud/sessions/127.0.0.1-791acaf2-7386-46dc-b011-4810dc00037c', mode 'rb+' at 0x7f1360885780>"
p4096
asbasbasbag61
(g77
g63
NtRp4097
(dp4098
g66
(dp4099
sg75
g3489
sg68
(lp4100
g61
(g82
g63
NtRp4101
(dp4102
g66
(dp4103
g86
g87
ssg75
g4097
sg68
(lp4104
S'session_filename'
p4105
asbag61
(g82
g63
NtRp4106
(dp4107
g66
(dp4108
g93
g94
ssg75
g4097
sg68
(lp4109
S':'
asbag61
(g82
g63
NtRp4110
(dp4111
g66
(dp4112
sg75
g4097
sg68
(lp4113
g61
(g62
g63
NtRp4114
(dp4115
g66
(dp4116
g74
I5
ssg75
g4110
sg68
(lp4117
S'/home/adrian/web2py/applications/CygnusCloud/sessions/127.0.0.1-791acaf2-7386-46dc-b011-4810dc00037c'
p4118
asbasbasbag61
(g77
g63
NtRp4119
(dp4120
g66
(dp4121
sg75
g3489
sg68
(lp4122
g61
(g82
g63
NtRp4123
(dp4124
g66
(dp4125
g86
g87
ssg75
g4119
sg68
(lp4126
S'session_id'
p4127
asbag61
(g82
g63
NtRp4128
(dp4129
g66
(dp4130
g93
g94
ssg75
g4119
sg68
(lp4131
S':'
asbag61
(g82
g63
NtRp4132
(dp4133
g66
(dp4134
sg75
g4119
sg68
(lp4135
g61
(g62
g63
NtRp4136
(dp4137
g66
(dp4138
g74
I5
ssg75
g4132
sg68
(lp4139
g505
asbasbasbag61
(g77
g63
NtRp4140
(dp4141
g66
(dp4142
sg75
g3489
sg68
(lp4143
g61
(g82
g63
NtRp4144
(dp4145
g66
(dp4146
g86
g87
ssg75
g4140
sg68
(lp4147
S'session_id_name'
p4148
asbag61
(g82
g63
NtRp4149
(dp4150
g66
(dp4151
g93
g94
ssg75
g4140
sg68
(lp4152
S':'
asbag61
(g82
g63
NtRp4153
(dp4154
g66
(dp4155
sg75
g4140
sg68
(lp4156
g61
(g62
g63
NtRp4157
(dp4158
g66
(dp4159
g74
I5
ssg75
g4153
sg68
(lp4160
g3546
asbasbasbag61
(g77
g63
NtRp4161
(dp4162
g66
(dp4163
sg75
g3489
sg68
(lp4164
g61
(g82
g63
NtRp4165
(dp4166
g66
(dp4167
g86
g87
ssg75
g4161
sg68
(lp4168
S'session_locked'
p4169
asbag61
(g82
g63
NtRp4170
(dp4171
g66
(dp4172
g93
g94
ssg75
g4161
sg68
(lp4173
S':'
asbag61
(g82
g63
NtRp4174
(dp4175
g66
(dp4176
sg75
g4161
sg68
(lp4177
g61
(g62
g63
NtRp4178
(dp4179
g66
(dp4180
g74
I5
ssg75
g4174
sg68
(lp4181
g1843
asbasbasbag61
(g77
g63
NtRp4182
(dp4183
g66
(dp4184
sg75
g3489
sg68
(lp4185
g61
(g82
g63
NtRp4186
(dp4187
g66
(dp4188
g86
g87
ssg75
g4182
sg68
(lp4189
S'session_new'
p4190
asbag61
(g82
g63
NtRp4191
(dp4192
g66
(dp4193
g93
g94
ssg75
g4182
sg68
(lp4194
S':'
asbag61
(g82
g63
NtRp4195
(dp4196
g66
(dp4197
sg75
g4182
sg68
(lp4198
g61
(g62
g63
NtRp4199
(dp4200
g66
(dp4201
g74
I5
ssg75
g4195
sg68
(lp4202
g104
asbasbasbag61
(g77
g63
NtRp4203
(dp4204
g66
(dp4205
sg75
g3489
sg68
(lp4206
g61
(g82
g63
NtRp4207
(dp4208
g66
(dp4209
g86
g87
ssg75
g4203
sg68
(lp4210
S'session_storage_type'
p4211
asbag61
(g82
g63
NtRp4212
(dp4213
g66
(dp4214
g93
g94
ssg75
g4203
sg68
(lp4215
S':'
asbag61
(g82
g63
NtRp4216
(dp4217
g66
(dp4218
sg75
g4203
sg68
(lp4219
g61
(g62
g63
NtRp4220
(dp4221
g66
(dp4222
g74
I5
ssg75
g4216
sg68
(lp4223
g3317
asbasbasbag61
(g77
g63
NtRp4224
(dp4225
g66
(dp4226
sg75
g3489
sg68
(lp4227
g61
(g82
g63
NtRp4228
(dp4229
g66
(dp4230
g86
g87
ssg75
g4224
sg68
(lp4231
S'status'
p4232
asbag61
(g82
g63
NtRp4233
(dp4234
g66
(dp4235
g93
g94
ssg75
g4224
sg68
(lp4236
S':'
asbag61
(g82
g63
NtRp4237
(dp4238
g66
(dp4239
sg75
g4224
sg68
(lp4240
g61
(g62
g63
NtRp4241
(dp4242
g66
(dp4243
g74
I5
ssg75
g4237
sg68
(lp4244
S'200'
p4245
asbasbasbag61
(g77
g63
NtRp4246
(dp4247
g66
(dp4248
sg75
g3489
sg68
(lp4249
g61
(g82
g63
NtRp4250
(dp4251
g66
(dp4252
g86
g87
ssg75
g4246
sg68
(lp4253
S'view'
p4254
asbag61
(g82
g63
NtRp4255
(dp4256
g66
(dp4257
g93
g94
ssg75
g4246
sg68
(lp4258
S':'
asbag61
(g82
g63
NtRp4259
(dp4260
g66
(dp4261
sg75
g4246
sg68
(lp4262
g61
(g62
g63
NtRp4263
(dp4264
g66
(dp4265
g74
I5
ssg75
g4259
sg68
(lp4266
S'appadmin/insert.html'
p4267
asbasbasbasbasbsS'locals'
p4268
(dp4269
S'query'
p4270
S'"INSERT INTO auth_user(first_name,last_name,regis...218e56701642fdd9d12539f62a5\',\'\',\'Admin1@ucm.es\');"'
p4271
sS'self'
p4272
S'<gluon.dal.MySQLAdapter object>'
p4273
sS'e'
S'ProgrammingError(1146, "Table \'UserDB.auth_user\' doesn\'t exist")'
p4274
sS'fields'
p4275
S"[(<gluon.dal.Field object>, 'Bertoldo'), (<gluon.dal.Field object>, 'Pedralbes'), (<gluon.dal.Field object>, ''), (<gluon.dal.Field object>, ''), (<gluon.dal.Field object>, <gluon.validators.LazyCrypt object>), (<gluon.dal.Field object>, ''), (<gluon.dal.Field object>, 'Admin1@ucm.es')]"
p4276
sS'table'
p4277
S'<Table auth_user (id,first_name,last_name,email,...stration_key,reset_password_key,registration_id)>'
p4278
sssS'traceback'
p4279
S'Traceback (most recent call last):\n  File "/home/adrian/web2py/gluon/restricted.py", line 212, in restricted\n    exec ccode in environment\n  File "/home/adrian/web2py/applications/CygnusCloud/models/db.py", line 42, in <module>\n    email = \'Admin1@ucm.es\',first_name=\'Bertoldo\',last_name=\'Pedralbes\')\n  File "/home/adrian/web2py/gluon/dal.py", line 7918, in insert\n    ret =  self._db._adapter.insert(self,self._listify(fields))\n  File "/home/adrian/web2py/gluon/dal.py", line 1176, in insert\n    raise e\nProgrammingError: (1146, "Table \'UserDB.auth_user\' doesn\'t exist")\n'
p4280
s.