(dp1
S'output'
p2
S"<type 'exceptions.AttributeError'> 'DAL' object has no attribute 'auth_user'"
p3
sS'layer'
p4
S'/home/adrian/web2py/applications/CygnusCloud/models/db.py'
p5
sS'code'
p6
S"# -*- coding: utf-8 -*-\nfrom configuration import DBConfigurator\nfrom gluon.tools import Auth\n\nconf = DBConfigurator('170590ucm')\nconf.createDatabase('UseresDB')\n#conf.addUser('CygnusCloud','cygnuscloud2012', 'UserDB')\nuserDB = DAL('mysql://CygnusCloud:cygnuscloud2012@localhost/UseresDB',migrate_enabled=True, pool_size=0)\n\n#Borramos basura\nuserDB.auth_user.drop()\nuserDB.auth_group.drop()\nuserDB.auth_membership.drop()\nuserDB.auth_event.drop()\n# Autentication\n\nauth = Auth(userDB)\nauth.define_tables(migrate = True)\n\n\nuserDB.auth_user.email.requires = IS_NOT_IN_DB(userDB, userDB.auth_user.email)\n\n\n\n\nuserDB.define_table('UserGroup',\n   Field('yearGroup','integer', 'reference Users'),\n   Field('cod','integer','reference subjects'),\n   Field('curse','integer'),\n   Field('curseGroup', length=1),\n   primarykey=['cod','curseGroup'],migrate= True)\n\nuserDB.define_table('ClassGroup',\n   Field('userId','integer', 'reference auth_user' ),\n   Field('cod','integer','reference UserGroup'),\n   Field('curseGroup','reference UserGroup',length=1 ),\n   primarykey=['cod','curseGroup','userId'],migrate= True)\n\nuserDB.define_table('Subjects',\n   Field('code','integer'),\n   Field('name',length=15),migrate= True)\n\n\n\nuserDB.define_table('VMByGroup',\n   Field('VMName',length=20),\n   Field('cod','integer','reference UserGroup'),\n   Field('curseGroup','reference UserGroup',length=1 ),\n   primarykey=['cod','curseGroup','VMName'],migrate= True)\n\n#Usuario de prueba\n#u1 = userDB.auth_user.insert(password = userDB.auth_user.password.validate('1234')[0],email = 'Admin1@ucm.es',first_name='Bertoldo',last_name='Pedralbes')\n#A\xc3\xb1adimos los grupos\nauth.add_group('Student', 'Only run virtual machines available')\n#auth.add_group('Administrator', 'All privilages available')\n#Enlazamos los usuarios a los grupos\n#auth.add_membership('Administrator',u1)\nprint userDB.tables\n"
p7
sS'snapshot'
p8
(dp9
S'exception'
p10
(dp11
S'__hash__'
p12
S"<method-wrapper '__hash__' of exceptions.AttributeError object>"
p13
sS'__setattr__'
p14
S"<method-wrapper '__setattr__' of exceptions.AttributeError object>"
p15
sS'__reduce_ex__'
p16
S'<built-in method __reduce_ex__ of exceptions.AttributeError object>'
p17
sS'__getslice__'
p18
S"<method-wrapper '__getslice__' of exceptions.AttributeError object>"
p19
sS'__getitem__'
p20
S"<method-wrapper '__getitem__' of exceptions.AttributeError object>"
p21
sS'__setstate__'
p22
S'<built-in method __setstate__ of exceptions.AttributeError object>'
p23
sS'args'
p24
S'("\'DAL\' object has no attribute \'auth_user\'",)'
p25
sS'__reduce__'
p26
S'<built-in method __reduce__ of exceptions.AttributeError object>'
p27
sS'__str__'
p28
S"<method-wrapper '__str__' of exceptions.AttributeError object>"
p29
sS'__format__'
p30
S'<built-in method __format__ of exceptions.AttributeError object>'
p31
sS'__getattribute__'
p32
S"<method-wrapper '__getattribute__' of exceptions.AttributeError object>"
p33
sS'__class__'
p34
S"<type 'exceptions.AttributeError'>"
p35
sS'__unicode__'
p36
S'<built-in method __unicode__ of exceptions.AttributeError object>'
p37
sS'__delattr__'
p38
S"<method-wrapper '__delattr__' of exceptions.AttributeError object>"
p39
sS'__subclasshook__'
p40
S'<built-in method __subclasshook__ of type object>'
p41
sS'__repr__'
p42
S"<method-wrapper '__repr__' of exceptions.AttributeError object>"
p43
sS'__dict__'
p44
S'{}'
p45
sS'__sizeof__'
p46
S'<built-in method __sizeof__ of exceptions.AttributeError object>'
p47
sS'__doc__'
p48
S"'Attribute not found.'"
p49
sS'__init__'
p50
S"<method-wrapper '__init__' of exceptions.AttributeError object>"
p51
sS'__new__'
p52
S'<built-in method __new__ of type object>'
p53
ssS'evalue'
p54
S"'DAL' object has no attribute 'auth_user'"
p55
sS'request'
p56
ccopy_reg
_reconstructor
p57
(cgluon.html
BEAUTIFY
p58
c__builtin__
object
p59
NtRp60
(dp61
S'attributes'
p62
(dp63
sS'components'
p64
(lp65
g57
(cgluon.html
TABLE
p66
g59
NtRp67
(dp68
g62
(dp69
S'level'
p70
I5
ssS'parent'
p71
Nsg64
(lp72
g57
(cgluon.html
TR
p73
g59
NtRp74
(dp75
g62
(dp76
sg71
g67
sg64
(lp77
g57
(cgluon.html
TD
p78
g59
NtRp79
(dp80
g62
(dp81
S'_style'
p82
S'font-weight:bold;vertical-align:top'
p83
ssg71
g74
sg64
(lp84
S'ajax'
p85
asbag57
(g78
g59
NtRp86
(dp87
g62
(dp88
S'_valign'
p89
S'top'
p90
ssg71
g74
sg64
(lp91
S':'
asbag57
(g78
g59
NtRp92
(dp93
g62
(dp94
sg71
g74
sg64
(lp95
g57
(g58
g59
NtRp96
(dp97
g62
(dp98
g70
I5
ssg71
g92
sg64
(lp99
S'False'
p100
asbasbasbag57
(g73
g59
NtRp101
(dp102
g62
(dp103
sg71
g67
sg64
(lp104
g57
(g78
g59
NtRp105
(dp106
g62
(dp107
g82
g83
ssg71
g101
sg64
(lp108
S'application'
p109
asbag57
(g78
g59
NtRp110
(dp111
g62
(dp112
g89
g90
ssg71
g101
sg64
(lp113
S':'
asbag57
(g78
g59
NtRp114
(dp115
g62
(dp116
sg71
g101
sg64
(lp117
g57
(g58
g59
NtRp118
(dp119
g62
(dp120
g70
I5
ssg71
g114
sg64
(lp121
S'CygnusCloud'
p122
asbasbasbag57
(g73
g59
NtRp123
(dp124
g62
(dp125
sg71
g67
sg64
(lp126
g57
(g78
g59
NtRp127
(dp128
g62
(dp129
g82
g83
ssg71
g123
sg64
(lp130
g24
asbag57
(g78
g59
NtRp131
(dp132
g62
(dp133
g89
g90
ssg71
g123
sg64
(lp134
S':'
asbag57
(g78
g59
NtRp135
(dp136
g62
(dp137
sg71
g123
sg64
(lp138
g57
(g58
g59
NtRp139
(dp140
g62
(dp141
g70
I5
ssg71
g135
sg64
(lp142
g57
(g66
g59
NtRp143
(dp144
g62
(dp145
g70
I4
ssg71
Nsg64
(lp146
sbasbasbasbag57
(g73
g59
NtRp147
(dp148
g62
(dp149
sg71
g67
sg64
(lp150
g57
(g78
g59
NtRp151
(dp152
g62
(dp153
g82
g83
ssg71
g147
sg64
(lp154
S'body'
p155
asbag57
(g78
g59
NtRp156
(dp157
g62
(dp158
g89
g90
ssg71
g147
sg64
(lp159
S':'
asbag57
(g78
g59
NtRp160
(dp161
g62
(dp162
sg71
g147
sg64
(lp163
g57
(g58
g59
NtRp164
(dp165
g62
(dp166
g70
I5
ssg71
g160
sg64
(lp167
S'<cStringIO.StringO object at 0x7f23783c3688>'
p168
asbasbasbag57
(g73
g59
NtRp169
(dp170
g62
(dp171
sg71
g67
sg64
(lp172
g57
(g78
g59
NtRp173
(dp174
g62
(dp175
g82
g83
ssg71
g169
sg64
(lp176
S'cid'
p177
asbag57
(g78
g59
NtRp178
(dp179
g62
(dp180
g89
g90
ssg71
g169
sg64
(lp181
S':'
asbag57
(g78
g59
NtRp182
(dp183
g62
(dp184
sg71
g169
sg64
(lp185
g57
(g58
g59
NtRp186
(dp187
g62
(dp188
g70
I5
ssg71
g182
sg64
(lp189
S'None'
p190
asbasbasbag57
(g73
g59
NtRp191
(dp192
g62
(dp193
sg71
g67
sg64
(lp194
g57
(g78
g59
NtRp195
(dp196
g62
(dp197
g82
g83
ssg71
g191
sg64
(lp198
S'client'
p199
asbag57
(g78
g59
NtRp200
(dp201
g62
(dp202
g89
g90
ssg71
g191
sg64
(lp203
S':'
asbag57
(g78
g59
NtRp204
(dp205
g62
(dp206
sg71
g191
sg64
(lp207
g57
(g58
g59
NtRp208
(dp209
g62
(dp210
g70
I5
ssg71
g204
sg64
(lp211
S'127.0.0.1'
p212
asbasbasbag57
(g73
g59
NtRp213
(dp214
g62
(dp215
sg71
g67
sg64
(lp216
g57
(g78
g59
NtRp217
(dp218
g62
(dp219
g82
g83
ssg71
g213
sg64
(lp220
S'controller'
p221
asbag57
(g78
g59
NtRp222
(dp223
g62
(dp224
g89
g90
ssg71
g213
sg64
(lp225
S':'
asbag57
(g78
g59
NtRp226
(dp227
g62
(dp228
sg71
g213
sg64
(lp229
g57
(g58
g59
NtRp230
(dp231
g62
(dp232
g70
I5
ssg71
g226
sg64
(lp233
S'main'
p234
asbasbasbag57
(g73
g59
NtRp235
(dp236
g62
(dp237
sg71
g67
sg64
(lp238
g57
(g78
g59
NtRp239
(dp240
g62
(dp241
g82
g83
ssg71
g235
sg64
(lp242
S'cookies'
p243
asbag57
(g78
g59
NtRp244
(dp245
g62
(dp246
g89
g90
ssg71
g235
sg64
(lp247
S':'
asbag57
(g78
g59
NtRp248
(dp249
g62
(dp250
sg71
g235
sg64
(lp251
g57
(g58
g59
NtRp252
(dp253
g62
(dp254
g70
I5
ssg71
g248
sg64
(lp255
g57
(g66
g59
NtRp256
(dp257
g62
(dp258
g70
I4
ssg71
Nsg64
(lp259
g57
(g73
g59
NtRp260
(dp261
g62
(dp262
sg71
g256
sg64
(lp263
g57
(g78
g59
NtRp264
(dp265
g62
(dp266
g82
g83
ssg71
g260
sg64
(lp267
S'session_id_admin'
p268
asbag57
(g78
g59
NtRp269
(dp270
g62
(dp271
g89
g90
ssg71
g260
sg64
(lp272
S':'
asbag57
(g78
g59
NtRp273
(dp274
g62
(dp275
sg71
g260
sg64
(lp276
g57
(g58
g59
NtRp277
(dp278
g62
(dp279
g70
I4
ssg71
g273
sg64
(lp280
S'127.0.0.1-55f52477-473c-42b8-b923-a29e2f1fa64b'
p281
ag57
(g66
g59
NtRp282
(dp283
g62
(dp284
g70
I3
ssg71
Nsg64
(lp285
g57
(g73
g59
NtRp286
(dp287
g62
(dp288
sg71
g282
sg64
(lp289
g57
(g78
g59
NtRp290
(dp291
g62
(dp292
g82
g83
ssg71
g286
sg64
(lp293
S'comment'
p294
asbag57
(g78
g59
NtRp295
(dp296
g62
(dp297
g89
g90
ssg71
g286
sg64
(lp298
S':'
asbag57
(g78
g59
NtRp299
(dp300
g62
(dp301
sg71
g286
sg64
(lp302
g57
(g58
g59
NtRp303
(dp304
g62
(dp305
g70
I3
ssg71
g299
sg64
(lp306
S''
asbasbasbag57
(g73
g59
NtRp307
(dp308
g62
(dp309
sg71
g282
sg64
(lp310
g57
(g78
g59
NtRp311
(dp312
g62
(dp313
g82
g83
ssg71
g307
sg64
(lp314
S'domain'
p315
asbag57
(g78
g59
NtRp316
(dp317
g62
(dp318
g89
g90
ssg71
g307
sg64
(lp319
S':'
asbag57
(g78
g59
NtRp320
(dp321
g62
(dp322
sg71
g307
sg64
(lp323
g57
(g58
g59
NtRp324
(dp325
g62
(dp326
g70
I3
ssg71
g320
sg64
(lp327
S''
asbasbasbag57
(g73
g59
NtRp328
(dp329
g62
(dp330
sg71
g282
sg64
(lp331
g57
(g78
g59
NtRp332
(dp333
g62
(dp334
g82
g83
ssg71
g328
sg64
(lp335
S'expires'
p336
asbag57
(g78
g59
NtRp337
(dp338
g62
(dp339
g89
g90
ssg71
g328
sg64
(lp340
S':'
asbag57
(g78
g59
NtRp341
(dp342
g62
(dp343
sg71
g328
sg64
(lp344
g57
(g58
g59
NtRp345
(dp346
g62
(dp347
g70
I3
ssg71
g341
sg64
(lp348
S''
asbasbasbag57
(g73
g59
NtRp349
(dp350
g62
(dp351
sg71
g282
sg64
(lp352
g57
(g78
g59
NtRp353
(dp354
g62
(dp355
g82
g83
ssg71
g349
sg64
(lp356
S'httponly'
p357
asbag57
(g78
g59
NtRp358
(dp359
g62
(dp360
g89
g90
ssg71
g349
sg64
(lp361
S':'
asbag57
(g78
g59
NtRp362
(dp363
g62
(dp364
sg71
g349
sg64
(lp365
g57
(g58
g59
NtRp366
(dp367
g62
(dp368
g70
I3
ssg71
g362
sg64
(lp369
S''
asbasbasbag57
(g73
g59
NtRp370
(dp371
g62
(dp372
sg71
g282
sg64
(lp373
g57
(g78
g59
NtRp374
(dp375
g62
(dp376
g82
g83
ssg71
g370
sg64
(lp377
S'max-age'
p378
asbag57
(g78
g59
NtRp379
(dp380
g62
(dp381
g89
g90
ssg71
g370
sg64
(lp382
S':'
asbag57
(g78
g59
NtRp383
(dp384
g62
(dp385
sg71
g370
sg64
(lp386
g57
(g58
g59
NtRp387
(dp388
g62
(dp389
g70
I3
ssg71
g383
sg64
(lp390
S''
asbasbasbag57
(g73
g59
NtRp391
(dp392
g62
(dp393
sg71
g282
sg64
(lp394
g57
(g78
g59
NtRp395
(dp396
g62
(dp397
g82
g83
ssg71
g391
sg64
(lp398
S'path'
p399
asbag57
(g78
g59
NtRp400
(dp401
g62
(dp402
g89
g90
ssg71
g391
sg64
(lp403
S':'
asbag57
(g78
g59
NtRp404
(dp405
g62
(dp406
sg71
g391
sg64
(lp407
g57
(g58
g59
NtRp408
(dp409
g62
(dp410
g70
I3
ssg71
g404
sg64
(lp411
S''
asbasbasbag57
(g73
g59
NtRp412
(dp413
g62
(dp414
sg71
g282
sg64
(lp415
g57
(g78
g59
NtRp416
(dp417
g62
(dp418
g82
g83
ssg71
g412
sg64
(lp419
S'secure'
p420
asbag57
(g78
g59
NtRp421
(dp422
g62
(dp423
g89
g90
ssg71
g412
sg64
(lp424
S':'
asbag57
(g78
g59
NtRp425
(dp426
g62
(dp427
sg71
g412
sg64
(lp428
g57
(g58
g59
NtRp429
(dp430
g62
(dp431
g70
I3
ssg71
g425
sg64
(lp432
S''
asbasbasbag57
(g73
g59
NtRp433
(dp434
g62
(dp435
sg71
g282
sg64
(lp436
g57
(g78
g59
NtRp437
(dp438
g62
(dp439
g82
g83
ssg71
g433
sg64
(lp440
S'version'
p441
asbag57
(g78
g59
NtRp442
(dp443
g62
(dp444
g89
g90
ssg71
g433
sg64
(lp445
S':'
asbag57
(g78
g59
NtRp446
(dp447
g62
(dp448
sg71
g433
sg64
(lp449
g57
(g58
g59
NtRp450
(dp451
g62
(dp452
g70
I3
ssg71
g446
sg64
(lp453
S''
asbasbasbasbasbasbasbag57
(g73
g59
NtRp454
(dp455
g62
(dp456
sg71
g256
sg64
(lp457
g57
(g78
g59
NtRp458
(dp459
g62
(dp460
g82
g83
ssg71
g454
sg64
(lp461
S'session_id_cygnuscloud'
p462
asbag57
(g78
g59
NtRp463
(dp464
g62
(dp465
g89
g90
ssg71
g454
sg64
(lp466
S':'
asbag57
(g78
g59
NtRp467
(dp468
g62
(dp469
sg71
g454
sg64
(lp470
g57
(g58
g59
NtRp471
(dp472
g62
(dp473
g70
I4
ssg71
g467
sg64
(lp474
S'127.0.0.1-791acaf2-7386-46dc-b011-4810dc00037c'
p475
ag57
(g66
g59
NtRp476
(dp477
g62
(dp478
g70
I3
ssg71
Nsg64
(lp479
g57
(g73
g59
NtRp480
(dp481
g62
(dp482
sg71
g476
sg64
(lp483
g57
(g78
g59
NtRp484
(dp485
g62
(dp486
g82
g83
ssg71
g480
sg64
(lp487
g294
asbag57
(g78
g59
NtRp488
(dp489
g62
(dp490
g89
g90
ssg71
g480
sg64
(lp491
S':'
asbag57
(g78
g59
NtRp492
(dp493
g62
(dp494
sg71
g480
sg64
(lp495
g57
(g58
g59
NtRp496
(dp497
g62
(dp498
g70
I3
ssg71
g492
sg64
(lp499
S''
asbasbasbag57
(g73
g59
NtRp500
(dp501
g62
(dp502
sg71
g476
sg64
(lp503
g57
(g78
g59
NtRp504
(dp505
g62
(dp506
g82
g83
ssg71
g500
sg64
(lp507
g315
asbag57
(g78
g59
NtRp508
(dp509
g62
(dp510
g89
g90
ssg71
g500
sg64
(lp511
S':'
asbag57
(g78
g59
NtRp512
(dp513
g62
(dp514
sg71
g500
sg64
(lp515
g57
(g58
g59
NtRp516
(dp517
g62
(dp518
g70
I3
ssg71
g512
sg64
(lp519
S''
asbasbasbag57
(g73
g59
NtRp520
(dp521
g62
(dp522
sg71
g476
sg64
(lp523
g57
(g78
g59
NtRp524
(dp525
g62
(dp526
g82
g83
ssg71
g520
sg64
(lp527
g336
asbag57
(g78
g59
NtRp528
(dp529
g62
(dp530
g89
g90
ssg71
g520
sg64
(lp531
S':'
asbag57
(g78
g59
NtRp532
(dp533
g62
(dp534
sg71
g520
sg64
(lp535
g57
(g58
g59
NtRp536
(dp537
g62
(dp538
g70
I3
ssg71
g532
sg64
(lp539
S''
asbasbasbag57
(g73
g59
NtRp540
(dp541
g62
(dp542
sg71
g476
sg64
(lp543
g57
(g78
g59
NtRp544
(dp545
g62
(dp546
g82
g83
ssg71
g540
sg64
(lp547
g357
asbag57
(g78
g59
NtRp548
(dp549
g62
(dp550
g89
g90
ssg71
g540
sg64
(lp551
S':'
asbag57
(g78
g59
NtRp552
(dp553
g62
(dp554
sg71
g540
sg64
(lp555
g57
(g58
g59
NtRp556
(dp557
g62
(dp558
g70
I3
ssg71
g552
sg64
(lp559
S''
asbasbasbag57
(g73
g59
NtRp560
(dp561
g62
(dp562
sg71
g476
sg64
(lp563
g57
(g78
g59
NtRp564
(dp565
g62
(dp566
g82
g83
ssg71
g560
sg64
(lp567
g378
asbag57
(g78
g59
NtRp568
(dp569
g62
(dp570
g89
g90
ssg71
g560
sg64
(lp571
S':'
asbag57
(g78
g59
NtRp572
(dp573
g62
(dp574
sg71
g560
sg64
(lp575
g57
(g58
g59
NtRp576
(dp577
g62
(dp578
g70
I3
ssg71
g572
sg64
(lp579
S''
asbasbasbag57
(g73
g59
NtRp580
(dp581
g62
(dp582
sg71
g476
sg64
(lp583
g57
(g78
g59
NtRp584
(dp585
g62
(dp586
g82
g83
ssg71
g580
sg64
(lp587
g399
asbag57
(g78
g59
NtRp588
(dp589
g62
(dp590
g89
g90
ssg71
g580
sg64
(lp591
S':'
asbag57
(g78
g59
NtRp592
(dp593
g62
(dp594
sg71
g580
sg64
(lp595
g57
(g58
g59
NtRp596
(dp597
g62
(dp598
g70
I3
ssg71
g592
sg64
(lp599
S''
asbasbasbag57
(g73
g59
NtRp600
(dp601
g62
(dp602
sg71
g476
sg64
(lp603
g57
(g78
g59
NtRp604
(dp605
g62
(dp606
g82
g83
ssg71
g600
sg64
(lp607
g420
asbag57
(g78
g59
NtRp608
(dp609
g62
(dp610
g89
g90
ssg71
g600
sg64
(lp611
S':'
asbag57
(g78
g59
NtRp612
(dp613
g62
(dp614
sg71
g600
sg64
(lp615
g57
(g58
g59
NtRp616
(dp617
g62
(dp618
g70
I3
ssg71
g612
sg64
(lp619
S''
asbasbasbag57
(g73
g59
NtRp620
(dp621
g62
(dp622
sg71
g476
sg64
(lp623
g57
(g78
g59
NtRp624
(dp625
g62
(dp626
g82
g83
ssg71
g620
sg64
(lp627
g441
asbag57
(g78
g59
NtRp628
(dp629
g62
(dp630
g89
g90
ssg71
g620
sg64
(lp631
S':'
asbag57
(g78
g59
NtRp632
(dp633
g62
(dp634
sg71
g620
sg64
(lp635
g57
(g58
g59
NtRp636
(dp637
g62
(dp638
g70
I3
ssg71
g632
sg64
(lp639
S''
asbasbasbasbasbasbasbag57
(g73
g59
NtRp640
(dp641
g62
(dp642
sg71
g256
sg64
(lp643
g57
(g78
g59
NtRp644
(dp645
g62
(dp646
g82
g83
ssg71
g640
sg64
(lp647
S'session_id_images'
p648
asbag57
(g78
g59
NtRp649
(dp650
g62
(dp651
g89
g90
ssg71
g640
sg64
(lp652
S':'
asbag57
(g78
g59
NtRp653
(dp654
g62
(dp655
sg71
g640
sg64
(lp656
g57
(g58
g59
NtRp657
(dp658
g62
(dp659
g70
I4
ssg71
g653
sg64
(lp660
S'127.0.0.1-86f6c98f-4fbb-4841-b606-44c0d90442c6'
p661
ag57
(g66
g59
NtRp662
(dp663
g62
(dp664
g70
I3
ssg71
Nsg64
(lp665
g57
(g73
g59
NtRp666
(dp667
g62
(dp668
sg71
g662
sg64
(lp669
g57
(g78
g59
NtRp670
(dp671
g62
(dp672
g82
g83
ssg71
g666
sg64
(lp673
g294
asbag57
(g78
g59
NtRp674
(dp675
g62
(dp676
g89
g90
ssg71
g666
sg64
(lp677
S':'
asbag57
(g78
g59
NtRp678
(dp679
g62
(dp680
sg71
g666
sg64
(lp681
g57
(g58
g59
NtRp682
(dp683
g62
(dp684
g70
I3
ssg71
g678
sg64
(lp685
S''
asbasbasbag57
(g73
g59
NtRp686
(dp687
g62
(dp688
sg71
g662
sg64
(lp689
g57
(g78
g59
NtRp690
(dp691
g62
(dp692
g82
g83
ssg71
g686
sg64
(lp693
g315
asbag57
(g78
g59
NtRp694
(dp695
g62
(dp696
g89
g90
ssg71
g686
sg64
(lp697
S':'
asbag57
(g78
g59
NtRp698
(dp699
g62
(dp700
sg71
g686
sg64
(lp701
g57
(g58
g59
NtRp702
(dp703
g62
(dp704
g70
I3
ssg71
g698
sg64
(lp705
S''
asbasbasbag57
(g73
g59
NtRp706
(dp707
g62
(dp708
sg71
g662
sg64
(lp709
g57
(g78
g59
NtRp710
(dp711
g62
(dp712
g82
g83
ssg71
g706
sg64
(lp713
g336
asbag57
(g78
g59
NtRp714
(dp715
g62
(dp716
g89
g90
ssg71
g706
sg64
(lp717
S':'
asbag57
(g78
g59
NtRp718
(dp719
g62
(dp720
sg71
g706
sg64
(lp721
g57
(g58
g59
NtRp722
(dp723
g62
(dp724
g70
I3
ssg71
g718
sg64
(lp725
S''
asbasbasbag57
(g73
g59
NtRp726
(dp727
g62
(dp728
sg71
g662
sg64
(lp729
g57
(g78
g59
NtRp730
(dp731
g62
(dp732
g82
g83
ssg71
g726
sg64
(lp733
g357
asbag57
(g78
g59
NtRp734
(dp735
g62
(dp736
g89
g90
ssg71
g726
sg64
(lp737
S':'
asbag57
(g78
g59
NtRp738
(dp739
g62
(dp740
sg71
g726
sg64
(lp741
g57
(g58
g59
NtRp742
(dp743
g62
(dp744
g70
I3
ssg71
g738
sg64
(lp745
S''
asbasbasbag57
(g73
g59
NtRp746
(dp747
g62
(dp748
sg71
g662
sg64
(lp749
g57
(g78
g59
NtRp750
(dp751
g62
(dp752
g82
g83
ssg71
g746
sg64
(lp753
g378
asbag57
(g78
g59
NtRp754
(dp755
g62
(dp756
g89
g90
ssg71
g746
sg64
(lp757
S':'
asbag57
(g78
g59
NtRp758
(dp759
g62
(dp760
sg71
g746
sg64
(lp761
g57
(g58
g59
NtRp762
(dp763
g62
(dp764
g70
I3
ssg71
g758
sg64
(lp765
S''
asbasbasbag57
(g73
g59
NtRp766
(dp767
g62
(dp768
sg71
g662
sg64
(lp769
g57
(g78
g59
NtRp770
(dp771
g62
(dp772
g82
g83
ssg71
g766
sg64
(lp773
g399
asbag57
(g78
g59
NtRp774
(dp775
g62
(dp776
g89
g90
ssg71
g766
sg64
(lp777
S':'
asbag57
(g78
g59
NtRp778
(dp779
g62
(dp780
sg71
g766
sg64
(lp781
g57
(g58
g59
NtRp782
(dp783
g62
(dp784
g70
I3
ssg71
g778
sg64
(lp785
S''
asbasbasbag57
(g73
g59
NtRp786
(dp787
g62
(dp788
sg71
g662
sg64
(lp789
g57
(g78
g59
NtRp790
(dp791
g62
(dp792
g82
g83
ssg71
g786
sg64
(lp793
g420
asbag57
(g78
g59
NtRp794
(dp795
g62
(dp796
g89
g90
ssg71
g786
sg64
(lp797
S':'
asbag57
(g78
g59
NtRp798
(dp799
g62
(dp800
sg71
g786
sg64
(lp801
g57
(g58
g59
NtRp802
(dp803
g62
(dp804
g70
I3
ssg71
g798
sg64
(lp805
S''
asbasbasbag57
(g73
g59
NtRp806
(dp807
g62
(dp808
sg71
g662
sg64
(lp809
g57
(g78
g59
NtRp810
(dp811
g62
(dp812
g82
g83
ssg71
g806
sg64
(lp813
g441
asbag57
(g78
g59
NtRp814
(dp815
g62
(dp816
g89
g90
ssg71
g806
sg64
(lp817
S':'
asbag57
(g78
g59
NtRp818
(dp819
g62
(dp820
sg71
g806
sg64
(lp821
g57
(g58
g59
NtRp822
(dp823
g62
(dp824
g70
I3
ssg71
g818
sg64
(lp825
S''
asbasbasbasbasbasbasbag57
(g73
g59
NtRp826
(dp827
g62
(dp828
sg71
g256
sg64
(lp829
g57
(g78
g59
NtRp830
(dp831
g62
(dp832
g82
g83
ssg71
g826
sg64
(lp833
S'session_id_mywiki'
p834
asbag57
(g78
g59
NtRp835
(dp836
g62
(dp837
g89
g90
ssg71
g826
sg64
(lp838
S':'
asbag57
(g78
g59
NtRp839
(dp840
g62
(dp841
sg71
g826
sg64
(lp842
g57
(g58
g59
NtRp843
(dp844
g62
(dp845
g70
I4
ssg71
g839
sg64
(lp846
S'127.0.0.1-5985911a-1127-4d96-9157-dcf724a3d27c'
p847
ag57
(g66
g59
NtRp848
(dp849
g62
(dp850
g70
I3
ssg71
Nsg64
(lp851
g57
(g73
g59
NtRp852
(dp853
g62
(dp854
sg71
g848
sg64
(lp855
g57
(g78
g59
NtRp856
(dp857
g62
(dp858
g82
g83
ssg71
g852
sg64
(lp859
g294
asbag57
(g78
g59
NtRp860
(dp861
g62
(dp862
g89
g90
ssg71
g852
sg64
(lp863
S':'
asbag57
(g78
g59
NtRp864
(dp865
g62
(dp866
sg71
g852
sg64
(lp867
g57
(g58
g59
NtRp868
(dp869
g62
(dp870
g70
I3
ssg71
g864
sg64
(lp871
S''
asbasbasbag57
(g73
g59
NtRp872
(dp873
g62
(dp874
sg71
g848
sg64
(lp875
g57
(g78
g59
NtRp876
(dp877
g62
(dp878
g82
g83
ssg71
g872
sg64
(lp879
g315
asbag57
(g78
g59
NtRp880
(dp881
g62
(dp882
g89
g90
ssg71
g872
sg64
(lp883
S':'
asbag57
(g78
g59
NtRp884
(dp885
g62
(dp886
sg71
g872
sg64
(lp887
g57
(g58
g59
NtRp888
(dp889
g62
(dp890
g70
I3
ssg71
g884
sg64
(lp891
S''
asbasbasbag57
(g73
g59
NtRp892
(dp893
g62
(dp894
sg71
g848
sg64
(lp895
g57
(g78
g59
NtRp896
(dp897
g62
(dp898
g82
g83
ssg71
g892
sg64
(lp899
g336
asbag57
(g78
g59
NtRp900
(dp901
g62
(dp902
g89
g90
ssg71
g892
sg64
(lp903
S':'
asbag57
(g78
g59
NtRp904
(dp905
g62
(dp906
sg71
g892
sg64
(lp907
g57
(g58
g59
NtRp908
(dp909
g62
(dp910
g70
I3
ssg71
g904
sg64
(lp911
S''
asbasbasbag57
(g73
g59
NtRp912
(dp913
g62
(dp914
sg71
g848
sg64
(lp915
g57
(g78
g59
NtRp916
(dp917
g62
(dp918
g82
g83
ssg71
g912
sg64
(lp919
g357
asbag57
(g78
g59
NtRp920
(dp921
g62
(dp922
g89
g90
ssg71
g912
sg64
(lp923
S':'
asbag57
(g78
g59
NtRp924
(dp925
g62
(dp926
sg71
g912
sg64
(lp927
g57
(g58
g59
NtRp928
(dp929
g62
(dp930
g70
I3
ssg71
g924
sg64
(lp931
S''
asbasbasbag57
(g73
g59
NtRp932
(dp933
g62
(dp934
sg71
g848
sg64
(lp935
g57
(g78
g59
NtRp936
(dp937
g62
(dp938
g82
g83
ssg71
g932
sg64
(lp939
g378
asbag57
(g78
g59
NtRp940
(dp941
g62
(dp942
g89
g90
ssg71
g932
sg64
(lp943
S':'
asbag57
(g78
g59
NtRp944
(dp945
g62
(dp946
sg71
g932
sg64
(lp947
g57
(g58
g59
NtRp948
(dp949
g62
(dp950
g70
I3
ssg71
g944
sg64
(lp951
S''
asbasbasbag57
(g73
g59
NtRp952
(dp953
g62
(dp954
sg71
g848
sg64
(lp955
g57
(g78
g59
NtRp956
(dp957
g62
(dp958
g82
g83
ssg71
g952
sg64
(lp959
g399
asbag57
(g78
g59
NtRp960
(dp961
g62
(dp962
g89
g90
ssg71
g952
sg64
(lp963
S':'
asbag57
(g78
g59
NtRp964
(dp965
g62
(dp966
sg71
g952
sg64
(lp967
g57
(g58
g59
NtRp968
(dp969
g62
(dp970
g70
I3
ssg71
g964
sg64
(lp971
S''
asbasbasbag57
(g73
g59
NtRp972
(dp973
g62
(dp974
sg71
g848
sg64
(lp975
g57
(g78
g59
NtRp976
(dp977
g62
(dp978
g82
g83
ssg71
g972
sg64
(lp979
g420
asbag57
(g78
g59
NtRp980
(dp981
g62
(dp982
g89
g90
ssg71
g972
sg64
(lp983
S':'
asbag57
(g78
g59
NtRp984
(dp985
g62
(dp986
sg71
g972
sg64
(lp987
g57
(g58
g59
NtRp988
(dp989
g62
(dp990
g70
I3
ssg71
g984
sg64
(lp991
S''
asbasbasbag57
(g73
g59
NtRp992
(dp993
g62
(dp994
sg71
g848
sg64
(lp995
g57
(g78
g59
NtRp996
(dp997
g62
(dp998
g82
g83
ssg71
g992
sg64
(lp999
g441
asbag57
(g78
g59
NtRp1000
(dp1001
g62
(dp1002
g89
g90
ssg71
g992
sg64
(lp1003
S':'
asbag57
(g78
g59
NtRp1004
(dp1005
g62
(dp1006
sg71
g992
sg64
(lp1007
g57
(g58
g59
NtRp1008
(dp1009
g62
(dp1010
g70
I3
ssg71
g1004
sg64
(lp1011
S''
asbasbasbasbasbasbasbag57
(g73
g59
NtRp1012
(dp1013
g62
(dp1014
sg71
g256
sg64
(lp1015
g57
(g78
g59
NtRp1016
(dp1017
g62
(dp1018
g82
g83
ssg71
g1012
sg64
(lp1019
S'session_id_welcome'
p1020
asbag57
(g78
g59
NtRp1021
(dp1022
g62
(dp1023
g89
g90
ssg71
g1012
sg64
(lp1024
S':'
asbag57
(g78
g59
NtRp1025
(dp1026
g62
(dp1027
sg71
g1012
sg64
(lp1028
g57
(g58
g59
NtRp1029
(dp1030
g62
(dp1031
g70
I4
ssg71
g1025
sg64
(lp1032
S'127.0.0.1-ed3399df-33a9-4506-9f65-53bddd2578f7'
p1033
ag57
(g66
g59
NtRp1034
(dp1035
g62
(dp1036
g70
I3
ssg71
Nsg64
(lp1037
g57
(g73
g59
NtRp1038
(dp1039
g62
(dp1040
sg71
g1034
sg64
(lp1041
g57
(g78
g59
NtRp1042
(dp1043
g62
(dp1044
g82
g83
ssg71
g1038
sg64
(lp1045
g294
asbag57
(g78
g59
NtRp1046
(dp1047
g62
(dp1048
g89
g90
ssg71
g1038
sg64
(lp1049
S':'
asbag57
(g78
g59
NtRp1050
(dp1051
g62
(dp1052
sg71
g1038
sg64
(lp1053
g57
(g58
g59
NtRp1054
(dp1055
g62
(dp1056
g70
I3
ssg71
g1050
sg64
(lp1057
S''
asbasbasbag57
(g73
g59
NtRp1058
(dp1059
g62
(dp1060
sg71
g1034
sg64
(lp1061
g57
(g78
g59
NtRp1062
(dp1063
g62
(dp1064
g82
g83
ssg71
g1058
sg64
(lp1065
g315
asbag57
(g78
g59
NtRp1066
(dp1067
g62
(dp1068
g89
g90
ssg71
g1058
sg64
(lp1069
S':'
asbag57
(g78
g59
NtRp1070
(dp1071
g62
(dp1072
sg71
g1058
sg64
(lp1073
g57
(g58
g59
NtRp1074
(dp1075
g62
(dp1076
g70
I3
ssg71
g1070
sg64
(lp1077
S''
asbasbasbag57
(g73
g59
NtRp1078
(dp1079
g62
(dp1080
sg71
g1034
sg64
(lp1081
g57
(g78
g59
NtRp1082
(dp1083
g62
(dp1084
g82
g83
ssg71
g1078
sg64
(lp1085
g336
asbag57
(g78
g59
NtRp1086
(dp1087
g62
(dp1088
g89
g90
ssg71
g1078
sg64
(lp1089
S':'
asbag57
(g78
g59
NtRp1090
(dp1091
g62
(dp1092
sg71
g1078
sg64
(lp1093
g57
(g58
g59
NtRp1094
(dp1095
g62
(dp1096
g70
I3
ssg71
g1090
sg64
(lp1097
S''
asbasbasbag57
(g73
g59
NtRp1098
(dp1099
g62
(dp1100
sg71
g1034
sg64
(lp1101
g57
(g78
g59
NtRp1102
(dp1103
g62
(dp1104
g82
g83
ssg71
g1098
sg64
(lp1105
g357
asbag57
(g78
g59
NtRp1106
(dp1107
g62
(dp1108
g89
g90
ssg71
g1098
sg64
(lp1109
S':'
asbag57
(g78
g59
NtRp1110
(dp1111
g62
(dp1112
sg71
g1098
sg64
(lp1113
g57
(g58
g59
NtRp1114
(dp1115
g62
(dp1116
g70
I3
ssg71
g1110
sg64
(lp1117
S''
asbasbasbag57
(g73
g59
NtRp1118
(dp1119
g62
(dp1120
sg71
g1034
sg64
(lp1121
g57
(g78
g59
NtRp1122
(dp1123
g62
(dp1124
g82
g83
ssg71
g1118
sg64
(lp1125
g378
asbag57
(g78
g59
NtRp1126
(dp1127
g62
(dp1128
g89
g90
ssg71
g1118
sg64
(lp1129
S':'
asbag57
(g78
g59
NtRp1130
(dp1131
g62
(dp1132
sg71
g1118
sg64
(lp1133
g57
(g58
g59
NtRp1134
(dp1135
g62
(dp1136
g70
I3
ssg71
g1130
sg64
(lp1137
S''
asbasbasbag57
(g73
g59
NtRp1138
(dp1139
g62
(dp1140
sg71
g1034
sg64
(lp1141
g57
(g78
g59
NtRp1142
(dp1143
g62
(dp1144
g82
g83
ssg71
g1138
sg64
(lp1145
g399
asbag57
(g78
g59
NtRp1146
(dp1147
g62
(dp1148
g89
g90
ssg71
g1138
sg64
(lp1149
S':'
asbag57
(g78
g59
NtRp1150
(dp1151
g62
(dp1152
sg71
g1138
sg64
(lp1153
g57
(g58
g59
NtRp1154
(dp1155
g62
(dp1156
g70
I3
ssg71
g1150
sg64
(lp1157
S''
asbasbasbag57
(g73
g59
NtRp1158
(dp1159
g62
(dp1160
sg71
g1034
sg64
(lp1161
g57
(g78
g59
NtRp1162
(dp1163
g62
(dp1164
g82
g83
ssg71
g1158
sg64
(lp1165
g420
asbag57
(g78
g59
NtRp1166
(dp1167
g62
(dp1168
g89
g90
ssg71
g1158
sg64
(lp1169
S':'
asbag57
(g78
g59
NtRp1170
(dp1171
g62
(dp1172
sg71
g1158
sg64
(lp1173
g57
(g58
g59
NtRp1174
(dp1175
g62
(dp1176
g70
I3
ssg71
g1170
sg64
(lp1177
S''
asbasbasbag57
(g73
g59
NtRp1178
(dp1179
g62
(dp1180
sg71
g1034
sg64
(lp1181
g57
(g78
g59
NtRp1182
(dp1183
g62
(dp1184
g82
g83
ssg71
g1178
sg64
(lp1185
g441
asbag57
(g78
g59
NtRp1186
(dp1187
g62
(dp1188
g89
g90
ssg71
g1178
sg64
(lp1189
S':'
asbag57
(g78
g59
NtRp1190
(dp1191
g62
(dp1192
sg71
g1178
sg64
(lp1193
g57
(g58
g59
NtRp1194
(dp1195
g62
(dp1196
g70
I3
ssg71
g1190
sg64
(lp1197
S''
asbasbasbasbasbasbasbasbasbasbasbag57
(g73
g59
NtRp1198
(dp1199
g62
(dp1200
sg71
g67
sg64
(lp1201
g57
(g78
g59
NtRp1202
(dp1203
g62
(dp1204
g82
g83
ssg71
g1198
sg64
(lp1205
S'env'
p1206
asbag57
(g78
g59
NtRp1207
(dp1208
g62
(dp1209
g89
g90
ssg71
g1198
sg64
(lp1210
S':'
asbag57
(g78
g59
NtRp1211
(dp1212
g62
(dp1213
sg71
g1198
sg64
(lp1214
g57
(g58
g59
NtRp1215
(dp1216
g62
(dp1217
g70
I5
ssg71
g1211
sg64
(lp1218
g57
(g66
g59
NtRp1219
(dp1220
g62
(dp1221
g70
I4
ssg71
Nsg64
(lp1222
g57
(g73
g59
NtRp1223
(dp1224
g62
(dp1225
sg71
g1219
sg64
(lp1226
g57
(g78
g59
NtRp1227
(dp1228
g62
(dp1229
g82
g83
ssg71
g1223
sg64
(lp1230
S'app_folders'
p1231
asbag57
(g78
g59
NtRp1232
(dp1233
g62
(dp1234
g89
g90
ssg71
g1223
sg64
(lp1235
S':'
asbag57
(g78
g59
NtRp1236
(dp1237
g62
(dp1238
sg71
g1223
sg64
(lp1239
g57
(g58
g59
NtRp1240
(dp1241
g62
(dp1242
g70
I4
ssg71
g1236
sg64
(lp1243
S"set(['/home/adrian/web2py/applications/admin/', '/home/adrian/web2py/applications/welcome/', '/home/adrian/web2py/applications/mywiki/', '/home/adrian/web2py/applications/images/', '/home/adrian/web2py/applications/CygnusCloud/'])"
p1244
asbasbasbag57
(g73
g59
NtRp1245
(dp1246
g62
(dp1247
sg71
g1219
sg64
(lp1248
g57
(g78
g59
NtRp1249
(dp1250
g62
(dp1251
g82
g83
ssg71
g1245
sg64
(lp1252
S'applications_parent'
p1253
asbag57
(g78
g59
NtRp1254
(dp1255
g62
(dp1256
g89
g90
ssg71
g1245
sg64
(lp1257
S':'
asbag57
(g78
g59
NtRp1258
(dp1259
g62
(dp1260
sg71
g1245
sg64
(lp1261
g57
(g58
g59
NtRp1262
(dp1263
g62
(dp1264
g70
I4
ssg71
g1258
sg64
(lp1265
S'/home/adrian/web2py'
p1266
asbasbasbag57
(g73
g59
NtRp1267
(dp1268
g62
(dp1269
sg71
g1219
sg64
(lp1270
g57
(g78
g59
NtRp1271
(dp1272
g62
(dp1273
g82
g83
ssg71
g1267
sg64
(lp1274
S'cmd_args'
p1275
asbag57
(g78
g59
NtRp1276
(dp1277
g62
(dp1278
g89
g90
ssg71
g1267
sg64
(lp1279
S':'
asbag57
(g78
g59
NtRp1280
(dp1281
g62
(dp1282
sg71
g1267
sg64
(lp1283
g57
(g58
g59
NtRp1284
(dp1285
g62
(dp1286
g70
I4
ssg71
g1280
sg64
(lp1287
g57
(g66
g59
NtRp1288
(dp1289
g62
(dp1290
g70
I3
ssg71
Nsg64
(lp1291
sbasbasbasbag57
(g73
g59
NtRp1292
(dp1293
g62
(dp1294
sg71
g1219
sg64
(lp1295
g57
(g78
g59
NtRp1296
(dp1297
g62
(dp1298
g82
g83
ssg71
g1292
sg64
(lp1299
S'cmd_options'
p1300
asbag57
(g78
g59
NtRp1301
(dp1302
g62
(dp1303
g89
g90
ssg71
g1292
sg64
(lp1304
S':'
asbag57
(g78
g59
NtRp1305
(dp1306
g62
(dp1307
sg71
g1292
sg64
(lp1308
g57
(g58
g59
NtRp1309
(dp1310
g62
(dp1311
g70
I4
ssg71
g1305
sg64
(lp1312
S"<Values at 0x172fbd8: {'verbose': False, 'ip': '127.0.0.1', 'with_scheduler': False, 'ips': [], 'shutdown_timeout': 5, 'taskbar': False, 'port': 8000, 'maxthreads': None, 'softcron': False, 'server_name': 'adri-EasyNote', 'bpython': False, 'nogui': False, 'pid_filename': 'httpserver.pid', 'extcron': False, 'runcron': False, 'run_system_tests': False, 'test': None, 'folder': '/home/adrian/web2py', 'config': '', 'minthreads': None, 'winservice': '', 'shell': None, 'run': '', 'log_filename': 'httpserver.log', 'debuglevel': 30, 'args': [''], 'socket_timeout': 5, 'ssl_ca_certificate': None, 'scheduler': None, 'profiler_filename': None, 'ssl_private_key': '', 'scheduler_groups': None, 'password': 'cygnuscloud2012', 'request_queue_size': 5, 'ssl_certificate': '', 'cronjob': False, 'numthreads': None, 'quiet': False, 'interfaces': None, 'import_models': False, 'timeout': 10, 'plain': False, 'nobanner': False}>"
p1313
asbasbasbag57
(g73
g59
NtRp1314
(dp1315
g62
(dp1316
sg71
g1219
sg64
(lp1317
g57
(g78
g59
NtRp1318
(dp1319
g62
(dp1320
g82
g83
ssg71
g1314
sg64
(lp1321
S'db_sessions'
p1322
asbag57
(g78
g59
NtRp1323
(dp1324
g62
(dp1325
g89
g90
ssg71
g1314
sg64
(lp1326
S':'
asbag57
(g78
g59
NtRp1327
(dp1328
g62
(dp1329
sg71
g1314
sg64
(lp1330
g57
(g58
g59
NtRp1331
(dp1332
g62
(dp1333
g70
I4
ssg71
g1327
sg64
(lp1334
S'set([])'
p1335
asbasbasbag57
(g73
g59
NtRp1336
(dp1337
g62
(dp1338
sg71
g1219
sg64
(lp1339
g57
(g78
g59
NtRp1340
(dp1341
g62
(dp1342
g82
g83
ssg71
g1336
sg64
(lp1343
S'debugging'
p1344
asbag57
(g78
g59
NtRp1345
(dp1346
g62
(dp1347
g89
g90
ssg71
g1336
sg64
(lp1348
S':'
asbag57
(g78
g59
NtRp1349
(dp1350
g62
(dp1351
sg71
g1336
sg64
(lp1352
g57
(g58
g59
NtRp1353
(dp1354
g62
(dp1355
g70
I4
ssg71
g1349
sg64
(lp1356
g100
asbasbasbag57
(g73
g59
NtRp1357
(dp1358
g62
(dp1359
sg71
g1219
sg64
(lp1360
g57
(g78
g59
NtRp1361
(dp1362
g62
(dp1363
g82
g83
ssg71
g1357
sg64
(lp1364
S'gluon_parent'
p1365
asbag57
(g78
g59
NtRp1366
(dp1367
g62
(dp1368
g89
g90
ssg71
g1357
sg64
(lp1369
S':'
asbag57
(g78
g59
NtRp1370
(dp1371
g62
(dp1372
sg71
g1357
sg64
(lp1373
g57
(g58
g59
NtRp1374
(dp1375
g62
(dp1376
g70
I4
ssg71
g1370
sg64
(lp1377
S'/home/adrian/web2py'
p1378
asbasbasbag57
(g73
g59
NtRp1379
(dp1380
g62
(dp1381
sg71
g1219
sg64
(lp1382
g57
(g78
g59
NtRp1383
(dp1384
g62
(dp1385
g82
g83
ssg71
g1379
sg64
(lp1386
S'http_accept'
p1387
asbag57
(g78
g59
NtRp1388
(dp1389
g62
(dp1390
g89
g90
ssg71
g1379
sg64
(lp1391
S':'
asbag57
(g78
g59
NtRp1392
(dp1393
g62
(dp1394
sg71
g1379
sg64
(lp1395
g57
(g58
g59
NtRp1396
(dp1397
g62
(dp1398
g70
I4
ssg71
g1392
sg64
(lp1399
S'text/html,application/xhtml+xml,application/xml;q=0.9,*/*;q=0.8'
p1400
asbasbasbag57
(g73
g59
NtRp1401
(dp1402
g62
(dp1403
sg71
g1219
sg64
(lp1404
g57
(g78
g59
NtRp1405
(dp1406
g62
(dp1407
g82
g83
ssg71
g1401
sg64
(lp1408
S'http_accept_charset'
p1409
asbag57
(g78
g59
NtRp1410
(dp1411
g62
(dp1412
g89
g90
ssg71
g1401
sg64
(lp1413
S':'
asbag57
(g78
g59
NtRp1414
(dp1415
g62
(dp1416
sg71
g1401
sg64
(lp1417
g57
(g58
g59
NtRp1418
(dp1419
g62
(dp1420
g70
I4
ssg71
g1414
sg64
(lp1421
S'ISO-8859-1,utf-8;q=0.7,*;q=0.3'
p1422
asbasbasbag57
(g73
g59
NtRp1423
(dp1424
g62
(dp1425
sg71
g1219
sg64
(lp1426
g57
(g78
g59
NtRp1427
(dp1428
g62
(dp1429
g82
g83
ssg71
g1423
sg64
(lp1430
S'http_accept_encoding'
p1431
asbag57
(g78
g59
NtRp1432
(dp1433
g62
(dp1434
g89
g90
ssg71
g1423
sg64
(lp1435
S':'
asbag57
(g78
g59
NtRp1436
(dp1437
g62
(dp1438
sg71
g1423
sg64
(lp1439
g57
(g58
g59
NtRp1440
(dp1441
g62
(dp1442
g70
I4
ssg71
g1436
sg64
(lp1443
S'gzip,deflate,sdch'
p1444
asbasbasbag57
(g73
g59
NtRp1445
(dp1446
g62
(dp1447
sg71
g1219
sg64
(lp1448
g57
(g78
g59
NtRp1449
(dp1450
g62
(dp1451
g82
g83
ssg71
g1445
sg64
(lp1452
S'http_accept_language'
p1453
asbag57
(g78
g59
NtRp1454
(dp1455
g62
(dp1456
g89
g90
ssg71
g1445
sg64
(lp1457
S':'
asbag57
(g78
g59
NtRp1458
(dp1459
g62
(dp1460
sg71
g1445
sg64
(lp1461
g57
(g58
g59
NtRp1462
(dp1463
g62
(dp1464
g70
I4
ssg71
g1458
sg64
(lp1465
S'es-ES,es;q=0.8'
p1466
asbasbasbag57
(g73
g59
NtRp1467
(dp1468
g62
(dp1469
sg71
g1219
sg64
(lp1470
g57
(g78
g59
NtRp1471
(dp1472
g62
(dp1473
g82
g83
ssg71
g1467
sg64
(lp1474
S'http_cache_control'
p1475
asbag57
(g78
g59
NtRp1476
(dp1477
g62
(dp1478
g89
g90
ssg71
g1467
sg64
(lp1479
S':'
asbag57
(g78
g59
NtRp1480
(dp1481
g62
(dp1482
sg71
g1467
sg64
(lp1483
g57
(g58
g59
NtRp1484
(dp1485
g62
(dp1486
g70
I4
ssg71
g1480
sg64
(lp1487
S'max-age=0'
p1488
asbasbasbag57
(g73
g59
NtRp1489
(dp1490
g62
(dp1491
sg71
g1219
sg64
(lp1492
g57
(g78
g59
NtRp1493
(dp1494
g62
(dp1495
g82
g83
ssg71
g1489
sg64
(lp1496
S'http_connection'
p1497
asbag57
(g78
g59
NtRp1498
(dp1499
g62
(dp1500
g89
g90
ssg71
g1489
sg64
(lp1501
S':'
asbag57
(g78
g59
NtRp1502
(dp1503
g62
(dp1504
sg71
g1489
sg64
(lp1505
g57
(g58
g59
NtRp1506
(dp1507
g62
(dp1508
g70
I4
ssg71
g1502
sg64
(lp1509
S'keep-alive'
p1510
asbasbasbag57
(g73
g59
NtRp1511
(dp1512
g62
(dp1513
sg71
g1219
sg64
(lp1514
g57
(g78
g59
NtRp1515
(dp1516
g62
(dp1517
g82
g83
ssg71
g1511
sg64
(lp1518
S'http_cookie'
p1519
asbag57
(g78
g59
NtRp1520
(dp1521
g62
(dp1522
g89
g90
ssg71
g1511
sg64
(lp1523
S':'
asbag57
(g78
g59
NtRp1524
(dp1525
g62
(dp1526
sg71
g1511
sg64
(lp1527
g57
(g58
g59
NtRp1528
(dp1529
g62
(dp1530
g70
I4
ssg71
g1524
sg64
(lp1531
S'session_id_welcome=127.0.0.1-ed3399df-33a9-4506-9f65-53bddd2578f7; session_id_mywiki=127.0.0.1-5985911a-1127-4d96-9157-dcf724a3d27c; session_id_images=127.0.0.1-86f6c98f-4fbb-4841-b606-44c0d90442c6; session_id_cygnuscloud=127.0.0.1-791acaf2-7386-46dc-b011-4810dc00037c; session_id_admin=127.0.0.1-55f52477-473c-42b8-b923-a29e2f1fa64b'
p1532
asbasbasbag57
(g73
g59
NtRp1533
(dp1534
g62
(dp1535
sg71
g1219
sg64
(lp1536
g57
(g78
g59
NtRp1537
(dp1538
g62
(dp1539
g82
g83
ssg71
g1533
sg64
(lp1540
S'http_host'
p1541
asbag57
(g78
g59
NtRp1542
(dp1543
g62
(dp1544
g89
g90
ssg71
g1533
sg64
(lp1545
S':'
asbag57
(g78
g59
NtRp1546
(dp1547
g62
(dp1548
sg71
g1533
sg64
(lp1549
g57
(g58
g59
NtRp1550
(dp1551
g62
(dp1552
g70
I4
ssg71
g1546
sg64
(lp1553
S'127.0.0.1:8000'
p1554
asbasbasbag57
(g73
g59
NtRp1555
(dp1556
g62
(dp1557
sg71
g1219
sg64
(lp1558
g57
(g78
g59
NtRp1559
(dp1560
g62
(dp1561
g82
g83
ssg71
g1555
sg64
(lp1562
S'http_user_agent'
p1563
asbag57
(g78
g59
NtRp1564
(dp1565
g62
(dp1566
g89
g90
ssg71
g1555
sg64
(lp1567
S':'
asbag57
(g78
g59
NtRp1568
(dp1569
g62
(dp1570
sg71
g1555
sg64
(lp1571
g57
(g58
g59
NtRp1572
(dp1573
g62
(dp1574
g70
I4
ssg71
g1568
sg64
(lp1575
S'Mozilla/5.0 (X11; Linux x86_64) AppleWebKit/537.11 (KHTML, like Gecko) Chrome/23.0.1271.64 Safari/537.11'
p1576
asbasbasbag57
(g73
g59
NtRp1577
(dp1578
g62
(dp1579
sg71
g1219
sg64
(lp1580
g57
(g78
g59
NtRp1581
(dp1582
g62
(dp1583
g82
g83
ssg71
g1577
sg64
(lp1584
S'is_jython'
p1585
asbag57
(g78
g59
NtRp1586
(dp1587
g62
(dp1588
g89
g90
ssg71
g1577
sg64
(lp1589
S':'
asbag57
(g78
g59
NtRp1590
(dp1591
g62
(dp1592
sg71
g1577
sg64
(lp1593
g57
(g58
g59
NtRp1594
(dp1595
g62
(dp1596
g70
I4
ssg71
g1590
sg64
(lp1597
g100
asbasbasbag57
(g73
g59
NtRp1598
(dp1599
g62
(dp1600
sg71
g1219
sg64
(lp1601
g57
(g78
g59
NtRp1602
(dp1603
g62
(dp1604
g82
g83
ssg71
g1598
sg64
(lp1605
S'is_pypy'
p1606
asbag57
(g78
g59
NtRp1607
(dp1608
g62
(dp1609
g89
g90
ssg71
g1598
sg64
(lp1610
S':'
asbag57
(g78
g59
NtRp1611
(dp1612
g62
(dp1613
sg71
g1598
sg64
(lp1614
g57
(g58
g59
NtRp1615
(dp1616
g62
(dp1617
g70
I4
ssg71
g1611
sg64
(lp1618
g100
asbasbasbag57
(g73
g59
NtRp1619
(dp1620
g62
(dp1621
sg71
g1219
sg64
(lp1622
g57
(g78
g59
NtRp1623
(dp1624
g62
(dp1625
g82
g83
ssg71
g1619
sg64
(lp1626
S'local_hosts'
p1627
asbag57
(g78
g59
NtRp1628
(dp1629
g62
(dp1630
g89
g90
ssg71
g1619
sg64
(lp1631
S':'
asbag57
(g78
g59
NtRp1632
(dp1633
g62
(dp1634
sg71
g1619
sg64
(lp1635
g57
(g58
g59
NtRp1636
(dp1637
g62
(dp1638
g70
I4
ssg71
g1632
sg64
(lp1639
g57
(g66
g59
NtRp1640
(dp1641
g62
(dp1642
g70
I3
ssg71
Nsg64
(lp1643
g57
(g73
g59
NtRp1644
(dp1645
g62
(dp1646
sg71
g1640
sg64
(lp1647
g57
(g78
g59
NtRp1648
(dp1649
g62
(dp1650
sg71
g1644
sg64
(lp1651
g57
(g58
g59
NtRp1652
(dp1653
g62
(dp1654
g70
I3
ssg71
g1648
sg64
(lp1655
S'adri-EasyNote'
p1656
asbasbasbag57
(g73
g59
NtRp1657
(dp1658
g62
(dp1659
sg71
g1640
sg64
(lp1660
g57
(g78
g59
NtRp1661
(dp1662
g62
(dp1663
sg71
g1657
sg64
(lp1664
g57
(g58
g59
NtRp1665
(dp1666
g62
(dp1667
g70
I3
ssg71
g1661
sg64
(lp1668
S'::1'
p1669
asbasbasbag57
(g73
g59
NtRp1670
(dp1671
g62
(dp1672
sg71
g1640
sg64
(lp1673
g57
(g78
g59
NtRp1674
(dp1675
g62
(dp1676
sg71
g1670
sg64
(lp1677
g57
(g58
g59
NtRp1678
(dp1679
g62
(dp1680
g70
I3
ssg71
g1674
sg64
(lp1681
S'127.0.1.1'
p1682
asbasbasbag57
(g73
g59
NtRp1683
(dp1684
g62
(dp1685
sg71
g1640
sg64
(lp1686
g57
(g78
g59
NtRp1687
(dp1688
g62
(dp1689
sg71
g1683
sg64
(lp1690
g57
(g58
g59
NtRp1691
(dp1692
g62
(dp1693
g70
I3
ssg71
g1687
sg64
(lp1694
S'::ffff:127.0.0.1'
p1695
asbasbasbag57
(g73
g59
NtRp1696
(dp1697
g62
(dp1698
sg71
g1640
sg64
(lp1699
g57
(g78
g59
NtRp1700
(dp1701
g62
(dp1702
sg71
g1696
sg64
(lp1703
g57
(g58
g59
NtRp1704
(dp1705
g62
(dp1706
g70
I3
ssg71
g1700
sg64
(lp1707
S'127.0.0.1'
p1708
asbasbasbasbasbasbasbag57
(g73
g59
NtRp1709
(dp1710
g62
(dp1711
sg71
g1219
sg64
(lp1712
g57
(g78
g59
NtRp1713
(dp1714
g62
(dp1715
g82
g83
ssg71
g1709
sg64
(lp1716
S'path_info'
p1717
asbag57
(g78
g59
NtRp1718
(dp1719
g62
(dp1720
g89
g90
ssg71
g1709
sg64
(lp1721
S':'
asbag57
(g78
g59
NtRp1722
(dp1723
g62
(dp1724
sg71
g1709
sg64
(lp1725
g57
(g58
g59
NtRp1726
(dp1727
g62
(dp1728
g70
I4
ssg71
g1722
sg64
(lp1729
S'/CygnusCloud/main/login'
p1730
asbasbasbag57
(g73
g59
NtRp1731
(dp1732
g62
(dp1733
sg71
g1219
sg64
(lp1734
g57
(g78
g59
NtRp1735
(dp1736
g62
(dp1737
g82
g83
ssg71
g1731
sg64
(lp1738
S'query_string'
p1739
asbag57
(g78
g59
NtRp1740
(dp1741
g62
(dp1742
g89
g90
ssg71
g1731
sg64
(lp1743
S':'
asbag57
(g78
g59
NtRp1744
(dp1745
g62
(dp1746
sg71
g1731
sg64
(lp1747
g57
(g58
g59
NtRp1748
(dp1749
g62
(dp1750
g70
I4
ssg71
g1744
sg64
(lp1751
S''
asbasbasbag57
(g73
g59
NtRp1752
(dp1753
g62
(dp1754
sg71
g1219
sg64
(lp1755
g57
(g78
g59
NtRp1756
(dp1757
g62
(dp1758
g82
g83
ssg71
g1752
sg64
(lp1759
S'remote_addr'
p1760
asbag57
(g78
g59
NtRp1761
(dp1762
g62
(dp1763
g89
g90
ssg71
g1752
sg64
(lp1764
S':'
asbag57
(g78
g59
NtRp1765
(dp1766
g62
(dp1767
sg71
g1752
sg64
(lp1768
g57
(g58
g59
NtRp1769
(dp1770
g62
(dp1771
g70
I4
ssg71
g1765
sg64
(lp1772
g212
asbasbasbag57
(g73
g59
NtRp1773
(dp1774
g62
(dp1775
sg71
g1219
sg64
(lp1776
g57
(g78
g59
NtRp1777
(dp1778
g62
(dp1779
g82
g83
ssg71
g1773
sg64
(lp1780
S'remote_port'
p1781
asbag57
(g78
g59
NtRp1782
(dp1783
g62
(dp1784
g89
g90
ssg71
g1773
sg64
(lp1785
S':'
asbag57
(g78
g59
NtRp1786
(dp1787
g62
(dp1788
sg71
g1773
sg64
(lp1789
g57
(g58
g59
NtRp1790
(dp1791
g62
(dp1792
g70
I4
ssg71
g1786
sg64
(lp1793
S'55089'
p1794
asbasbasbag57
(g73
g59
NtRp1795
(dp1796
g62
(dp1797
sg71
g1219
sg64
(lp1798
g57
(g78
g59
NtRp1799
(dp1800
g62
(dp1801
g82
g83
ssg71
g1795
sg64
(lp1802
S'request_method'
p1803
asbag57
(g78
g59
NtRp1804
(dp1805
g62
(dp1806
g89
g90
ssg71
g1795
sg64
(lp1807
S':'
asbag57
(g78
g59
NtRp1808
(dp1809
g62
(dp1810
sg71
g1795
sg64
(lp1811
g57
(g58
g59
NtRp1812
(dp1813
g62
(dp1814
g70
I4
ssg71
g1808
sg64
(lp1815
S'GET'
p1816
asbasbasbag57
(g73
g59
NtRp1817
(dp1818
g62
(dp1819
sg71
g1219
sg64
(lp1820
g57
(g78
g59
NtRp1821
(dp1822
g62
(dp1823
g82
g83
ssg71
g1817
sg64
(lp1824
S'request_uri'
p1825
asbag57
(g78
g59
NtRp1826
(dp1827
g62
(dp1828
g89
g90
ssg71
g1817
sg64
(lp1829
S':'
asbag57
(g78
g59
NtRp1830
(dp1831
g62
(dp1832
sg71
g1817
sg64
(lp1833
g57
(g58
g59
NtRp1834
(dp1835
g62
(dp1836
g70
I4
ssg71
g1830
sg64
(lp1837
g1730
asbasbasbag57
(g73
g59
NtRp1838
(dp1839
g62
(dp1840
sg71
g1219
sg64
(lp1841
g57
(g78
g59
NtRp1842
(dp1843
g62
(dp1844
g82
g83
ssg71
g1838
sg64
(lp1845
S'script_name'
p1846
asbag57
(g78
g59
NtRp1847
(dp1848
g62
(dp1849
g89
g90
ssg71
g1838
sg64
(lp1850
S':'
asbag57
(g78
g59
NtRp1851
(dp1852
g62
(dp1853
sg71
g1838
sg64
(lp1854
g57
(g58
g59
NtRp1855
(dp1856
g62
(dp1857
g70
I4
ssg71
g1851
sg64
(lp1858
S''
asbasbasbag57
(g73
g59
NtRp1859
(dp1860
g62
(dp1861
sg71
g1219
sg64
(lp1862
g57
(g78
g59
NtRp1863
(dp1864
g62
(dp1865
g82
g83
ssg71
g1859
sg64
(lp1866
S'server_name'
p1867
asbag57
(g78
g59
NtRp1868
(dp1869
g62
(dp1870
g89
g90
ssg71
g1859
sg64
(lp1871
S':'
asbag57
(g78
g59
NtRp1872
(dp1873
g62
(dp1874
sg71
g1859
sg64
(lp1875
g57
(g58
g59
NtRp1876
(dp1877
g62
(dp1878
g70
I4
ssg71
g1872
sg64
(lp1879
S'adri-EasyNote'
p1880
asbasbasbag57
(g73
g59
NtRp1881
(dp1882
g62
(dp1883
sg71
g1219
sg64
(lp1884
g57
(g78
g59
NtRp1885
(dp1886
g62
(dp1887
g82
g83
ssg71
g1881
sg64
(lp1888
S'server_port'
p1889
asbag57
(g78
g59
NtRp1890
(dp1891
g62
(dp1892
g89
g90
ssg71
g1881
sg64
(lp1893
S':'
asbag57
(g78
g59
NtRp1894
(dp1895
g62
(dp1896
sg71
g1881
sg64
(lp1897
g57
(g58
g59
NtRp1898
(dp1899
g62
(dp1900
g70
I4
ssg71
g1894
sg64
(lp1901
S'8000'
p1902
asbasbasbag57
(g73
g59
NtRp1903
(dp1904
g62
(dp1905
sg71
g1219
sg64
(lp1906
g57
(g78
g59
NtRp1907
(dp1908
g62
(dp1909
g82
g83
ssg71
g1903
sg64
(lp1910
S'server_protocol'
p1911
asbag57
(g78
g59
NtRp1912
(dp1913
g62
(dp1914
g89
g90
ssg71
g1903
sg64
(lp1915
S':'
asbag57
(g78
g59
NtRp1916
(dp1917
g62
(dp1918
sg71
g1903
sg64
(lp1919
g57
(g58
g59
NtRp1920
(dp1921
g62
(dp1922
g70
I4
ssg71
g1916
sg64
(lp1923
S'HTTP/1.1'
p1924
asbasbasbag57
(g73
g59
NtRp1925
(dp1926
g62
(dp1927
sg71
g1219
sg64
(lp1928
g57
(g78
g59
NtRp1929
(dp1930
g62
(dp1931
g82
g83
ssg71
g1925
sg64
(lp1932
S'server_software'
p1933
asbag57
(g78
g59
NtRp1934
(dp1935
g62
(dp1936
g89
g90
ssg71
g1925
sg64
(lp1937
S':'
asbag57
(g78
g59
NtRp1938
(dp1939
g62
(dp1940
sg71
g1925
sg64
(lp1941
g57
(g58
g59
NtRp1942
(dp1943
g62
(dp1944
g70
I4
ssg71
g1938
sg64
(lp1945
S'Rocket 1.2.6'
p1946
asbasbasbag57
(g73
g59
NtRp1947
(dp1948
g62
(dp1949
sg71
g1219
sg64
(lp1950
g57
(g78
g59
NtRp1951
(dp1952
g62
(dp1953
g82
g83
ssg71
g1947
sg64
(lp1954
S'web2py_path'
p1955
asbag57
(g78
g59
NtRp1956
(dp1957
g62
(dp1958
g89
g90
ssg71
g1947
sg64
(lp1959
S':'
asbag57
(g78
g59
NtRp1960
(dp1961
g62
(dp1962
sg71
g1947
sg64
(lp1963
g57
(g58
g59
NtRp1964
(dp1965
g62
(dp1966
g70
I4
ssg71
g1960
sg64
(lp1967
g1266
asbasbasbag57
(g73
g59
NtRp1968
(dp1969
g62
(dp1970
sg71
g1219
sg64
(lp1971
g57
(g78
g59
NtRp1972
(dp1973
g62
(dp1974
g82
g83
ssg71
g1968
sg64
(lp1975
S'web2py_version'
p1976
asbag57
(g78
g59
NtRp1977
(dp1978
g62
(dp1979
g89
g90
ssg71
g1968
sg64
(lp1980
S':'
asbag57
(g78
g59
NtRp1981
(dp1982
g62
(dp1983
sg71
g1968
sg64
(lp1984
g57
(g58
g59
NtRp1985
(dp1986
g62
(dp1987
g70
I4
ssg71
g1981
sg64
(lp1988
g57
(g66
g59
NtRp1989
(dp1990
g62
(dp1991
g70
I3
ssg71
Nsg64
(lp1992
g57
(g73
g59
NtRp1993
(dp1994
g62
(dp1995
sg71
g1989
sg64
(lp1996
g57
(g78
g59
NtRp1997
(dp1998
g62
(dp1999
sg71
g1993
sg64
(lp2000
g57
(g58
g59
NtRp2001
(dp2002
g62
(dp2003
g70
I3
ssg71
g1997
sg64
(lp2004
S'2'
asbasbasbag57
(g73
g59
NtRp2005
(dp2006
g62
(dp2007
sg71
g1989
sg64
(lp2008
g57
(g78
g59
NtRp2009
(dp2010
g62
(dp2011
sg71
g2005
sg64
(lp2012
g57
(g58
g59
NtRp2013
(dp2014
g62
(dp2015
g70
I3
ssg71
g2009
sg64
(lp2016
S'3'
asbasbasbag57
(g73
g59
NtRp2017
(dp2018
g62
(dp2019
sg71
g1989
sg64
(lp2020
g57
(g78
g59
NtRp2021
(dp2022
g62
(dp2023
sg71
g2017
sg64
(lp2024
g57
(g58
g59
NtRp2025
(dp2026
g62
(dp2027
g70
I3
ssg71
g2021
sg64
(lp2028
S'2'
asbasbasbag57
(g73
g59
NtRp2029
(dp2030
g62
(dp2031
sg71
g1989
sg64
(lp2032
g57
(g78
g59
NtRp2033
(dp2034
g62
(dp2035
sg71
g2029
sg64
(lp2036
g57
(g58
g59
NtRp2037
(dp2038
g62
(dp2039
g70
I3
ssg71
g2033
sg64
(lp2040
S'datetime.datetime(2012, 12, 17, 15, 3, 30)'
p2041
asbasbasbag57
(g73
g59
NtRp2042
(dp2043
g62
(dp2044
sg71
g1989
sg64
(lp2045
g57
(g78
g59
NtRp2046
(dp2047
g62
(dp2048
sg71
g2042
sg64
(lp2049
g57
(g58
g59
NtRp2050
(dp2051
g62
(dp2052
g70
I3
ssg71
g2046
sg64
(lp2053
S'stable'
p2054
asbasbasbasbasbasbasbag57
(g73
g59
NtRp2055
(dp2056
g62
(dp2057
sg71
g1219
sg64
(lp2058
g57
(g78
g59
NtRp2059
(dp2060
g62
(dp2061
g82
g83
ssg71
g2055
sg64
(lp2062
S'wsgi_errors'
p2063
asbag57
(g78
g59
NtRp2064
(dp2065
g62
(dp2066
g89
g90
ssg71
g2055
sg64
(lp2067
S':'
asbag57
(g78
g59
NtRp2068
(dp2069
g62
(dp2070
sg71
g2055
sg64
(lp2071
g57
(g58
g59
NtRp2072
(dp2073
g62
(dp2074
g70
I4
ssg71
g2068
sg64
(lp2075
S"<open file '<stderr>', mode 'w' at 0x7f239539e270>"
p2076
asbasbasbag57
(g73
g59
NtRp2077
(dp2078
g62
(dp2079
sg71
g1219
sg64
(lp2080
g57
(g78
g59
NtRp2081
(dp2082
g62
(dp2083
g82
g83
ssg71
g2077
sg64
(lp2084
S'wsgi_file_wrapper'
p2085
asbag57
(g78
g59
NtRp2086
(dp2087
g62
(dp2088
g89
g90
ssg71
g2077
sg64
(lp2089
S':'
asbag57
(g78
g59
NtRp2090
(dp2091
g62
(dp2092
sg71
g2077
sg64
(lp2093
g57
(g58
g59
NtRp2094
(dp2095
g62
(dp2096
g70
I4
ssg71
g2090
sg64
(lp2097
S'<class wsgiref.util.FileWrapper at 0x1663db8>'
p2098
asbasbasbag57
(g73
g59
NtRp2099
(dp2100
g62
(dp2101
sg71
g1219
sg64
(lp2102
g57
(g78
g59
NtRp2103
(dp2104
g62
(dp2105
g82
g83
ssg71
g2099
sg64
(lp2106
S'wsgi_input'
p2107
asbag57
(g78
g59
NtRp2108
(dp2109
g62
(dp2110
g89
g90
ssg71
g2099
sg64
(lp2111
S':'
asbag57
(g78
g59
NtRp2112
(dp2113
g62
(dp2114
sg71
g2099
sg64
(lp2115
g57
(g58
g59
NtRp2116
(dp2117
g62
(dp2118
g70
I4
ssg71
g2112
sg64
(lp2119
S'<socket._fileobject object at 0x7f23842fa150>'
p2120
asbasbasbag57
(g73
g59
NtRp2121
(dp2122
g62
(dp2123
sg71
g1219
sg64
(lp2124
g57
(g78
g59
NtRp2125
(dp2126
g62
(dp2127
g82
g83
ssg71
g2121
sg64
(lp2128
S'wsgi_multiprocess'
p2129
asbag57
(g78
g59
NtRp2130
(dp2131
g62
(dp2132
g89
g90
ssg71
g2121
sg64
(lp2133
S':'
asbag57
(g78
g59
NtRp2134
(dp2135
g62
(dp2136
sg71
g2121
sg64
(lp2137
g57
(g58
g59
NtRp2138
(dp2139
g62
(dp2140
g70
I4
ssg71
g2134
sg64
(lp2141
g100
asbasbasbag57
(g73
g59
NtRp2142
(dp2143
g62
(dp2144
sg71
g1219
sg64
(lp2145
g57
(g78
g59
NtRp2146
(dp2147
g62
(dp2148
g82
g83
ssg71
g2142
sg64
(lp2149
S'wsgi_multithread'
p2150
asbag57
(g78
g59
NtRp2151
(dp2152
g62
(dp2153
g89
g90
ssg71
g2142
sg64
(lp2154
S':'
asbag57
(g78
g59
NtRp2155
(dp2156
g62
(dp2157
sg71
g2142
sg64
(lp2158
g57
(g58
g59
NtRp2159
(dp2160
g62
(dp2161
g70
I4
ssg71
g2155
sg64
(lp2162
S'True'
p2163
asbasbasbag57
(g73
g59
NtRp2164
(dp2165
g62
(dp2166
sg71
g1219
sg64
(lp2167
g57
(g78
g59
NtRp2168
(dp2169
g62
(dp2170
g82
g83
ssg71
g2164
sg64
(lp2171
S'wsgi_run_once'
p2172
asbag57
(g78
g59
NtRp2173
(dp2174
g62
(dp2175
g89
g90
ssg71
g2164
sg64
(lp2176
S':'
asbag57
(g78
g59
NtRp2177
(dp2178
g62
(dp2179
sg71
g2164
sg64
(lp2180
g57
(g58
g59
NtRp2181
(dp2182
g62
(dp2183
g70
I4
ssg71
g2177
sg64
(lp2184
g100
asbasbasbag57
(g73
g59
NtRp2185
(dp2186
g62
(dp2187
sg71
g1219
sg64
(lp2188
g57
(g78
g59
NtRp2189
(dp2190
g62
(dp2191
g82
g83
ssg71
g2185
sg64
(lp2192
S'wsgi_url_scheme'
p2193
asbag57
(g78
g59
NtRp2194
(dp2195
g62
(dp2196
g89
g90
ssg71
g2185
sg64
(lp2197
S':'
asbag57
(g78
g59
NtRp2198
(dp2199
g62
(dp2200
sg71
g2185
sg64
(lp2201
g57
(g58
g59
NtRp2202
(dp2203
g62
(dp2204
g70
I4
ssg71
g2198
sg64
(lp2205
S'http'
p2206
asbasbasbag57
(g73
g59
NtRp2207
(dp2208
g62
(dp2209
sg71
g1219
sg64
(lp2210
g57
(g78
g59
NtRp2211
(dp2212
g62
(dp2213
g82
g83
ssg71
g2207
sg64
(lp2214
S'wsgi_version'
p2215
asbag57
(g78
g59
NtRp2216
(dp2217
g62
(dp2218
g89
g90
ssg71
g2207
sg64
(lp2219
S':'
asbag57
(g78
g59
NtRp2220
(dp2221
g62
(dp2222
sg71
g2207
sg64
(lp2223
g57
(g58
g59
NtRp2224
(dp2225
g62
(dp2226
g70
I4
ssg71
g2220
sg64
(lp2227
g57
(g66
g59
NtRp2228
(dp2229
g62
(dp2230
g70
I3
ssg71
Nsg64
(lp2231
g57
(g73
g59
NtRp2232
(dp2233
g62
(dp2234
sg71
g2228
sg64
(lp2235
g57
(g78
g59
NtRp2236
(dp2237
g62
(dp2238
sg71
g2232
sg64
(lp2239
g57
(g58
g59
NtRp2240
(dp2241
g62
(dp2242
g70
I3
ssg71
g2236
sg64
(lp2243
S'1'
asbasbasbag57
(g73
g59
NtRp2244
(dp2245
g62
(dp2246
sg71
g2228
sg64
(lp2247
g57
(g78
g59
NtRp2248
(dp2249
g62
(dp2250
sg71
g2244
sg64
(lp2251
g57
(g58
g59
NtRp2252
(dp2253
g62
(dp2254
g70
I3
ssg71
g2248
sg64
(lp2255
S'0'
asbasbasbasbasbasbasbasbasbasbasbag57
(g73
g59
NtRp2256
(dp2257
g62
(dp2258
sg71
g67
sg64
(lp2259
g57
(g78
g59
NtRp2260
(dp2261
g62
(dp2262
g82
g83
ssg71
g2256
sg64
(lp2263
S'extension'
p2264
asbag57
(g78
g59
NtRp2265
(dp2266
g62
(dp2267
g89
g90
ssg71
g2256
sg64
(lp2268
S':'
asbag57
(g78
g59
NtRp2269
(dp2270
g62
(dp2271
sg71
g2256
sg64
(lp2272
g57
(g58
g59
NtRp2273
(dp2274
g62
(dp2275
g70
I5
ssg71
g2269
sg64
(lp2276
S'html'
p2277
asbasbasbag57
(g73
g59
NtRp2278
(dp2279
g62
(dp2280
sg71
g67
sg64
(lp2281
g57
(g78
g59
NtRp2282
(dp2283
g62
(dp2284
g82
g83
ssg71
g2278
sg64
(lp2285
S'folder'
p2286
asbag57
(g78
g59
NtRp2287
(dp2288
g62
(dp2289
g89
g90
ssg71
g2278
sg64
(lp2290
S':'
asbag57
(g78
g59
NtRp2291
(dp2292
g62
(dp2293
sg71
g2278
sg64
(lp2294
g57
(g58
g59
NtRp2295
(dp2296
g62
(dp2297
g70
I5
ssg71
g2291
sg64
(lp2298
S'/home/adrian/web2py/applications/CygnusCloud/'
p2299
asbasbasbag57
(g73
g59
NtRp2300
(dp2301
g62
(dp2302
sg71
g67
sg64
(lp2303
g57
(g78
g59
NtRp2304
(dp2305
g62
(dp2306
g82
g83
ssg71
g2300
sg64
(lp2307
S'function'
p2308
asbag57
(g78
g59
NtRp2309
(dp2310
g62
(dp2311
g89
g90
ssg71
g2300
sg64
(lp2312
S':'
asbag57
(g78
g59
NtRp2313
(dp2314
g62
(dp2315
sg71
g2300
sg64
(lp2316
g57
(g58
g59
NtRp2317
(dp2318
g62
(dp2319
g70
I5
ssg71
g2313
sg64
(lp2320
S'login'
p2321
asbasbasbag57
(g73
g59
NtRp2322
(dp2323
g62
(dp2324
sg71
g67
sg64
(lp2325
g57
(g78
g59
NtRp2326
(dp2327
g62
(dp2328
g82
g83
ssg71
g2322
sg64
(lp2329
S'get_vars'
p2330
asbag57
(g78
g59
NtRp2331
(dp2332
g62
(dp2333
g89
g90
ssg71
g2322
sg64
(lp2334
S':'
asbag57
(g78
g59
NtRp2335
(dp2336
g62
(dp2337
sg71
g2322
sg64
(lp2338
g57
(g58
g59
NtRp2339
(dp2340
g62
(dp2341
g70
I5
ssg71
g2335
sg64
(lp2342
g57
(g66
g59
NtRp2343
(dp2344
g62
(dp2345
g70
I4
ssg71
Nsg64
(lp2346
sbasbasbasbag57
(g73
g59
NtRp2347
(dp2348
g62
(dp2349
sg71
g67
sg64
(lp2350
g57
(g78
g59
NtRp2351
(dp2352
g62
(dp2353
g82
g83
ssg71
g2347
sg64
(lp2354
S'global_settings'
p2355
asbag57
(g78
g59
NtRp2356
(dp2357
g62
(dp2358
g89
g90
ssg71
g2347
sg64
(lp2359
S':'
asbag57
(g78
g59
NtRp2360
(dp2361
g62
(dp2362
sg71
g2347
sg64
(lp2363
g57
(g58
g59
NtRp2364
(dp2365
g62
(dp2366
g70
I5
ssg71
g2360
sg64
(lp2367
g57
(g66
g59
NtRp2368
(dp2369
g62
(dp2370
g70
I4
ssg71
Nsg64
(lp2371
g57
(g73
g59
NtRp2372
(dp2373
g62
(dp2374
sg71
g2368
sg64
(lp2375
g57
(g78
g59
NtRp2376
(dp2377
g62
(dp2378
g82
g83
ssg71
g2372
sg64
(lp2379
g1231
asbag57
(g78
g59
NtRp2380
(dp2381
g62
(dp2382
g89
g90
ssg71
g2372
sg64
(lp2383
S':'
asbag57
(g78
g59
NtRp2384
(dp2385
g62
(dp2386
sg71
g2372
sg64
(lp2387
g57
(g58
g59
NtRp2388
(dp2389
g62
(dp2390
g70
I4
ssg71
g2384
sg64
(lp2391
S"set(['/home/adrian/web2py/applications/admin/', '/home/adrian/web2py/applications/welcome/', '/home/adrian/web2py/applications/mywiki/', '/home/adrian/web2py/applications/images/', '/home/adrian/web2py/applications/CygnusCloud/'])"
p2392
asbasbasbag57
(g73
g59
NtRp2393
(dp2394
g62
(dp2395
sg71
g2368
sg64
(lp2396
g57
(g78
g59
NtRp2397
(dp2398
g62
(dp2399
g82
g83
ssg71
g2393
sg64
(lp2400
g1253
asbag57
(g78
g59
NtRp2401
(dp2402
g62
(dp2403
g89
g90
ssg71
g2393
sg64
(lp2404
S':'
asbag57
(g78
g59
NtRp2405
(dp2406
g62
(dp2407
sg71
g2393
sg64
(lp2408
g57
(g58
g59
NtRp2409
(dp2410
g62
(dp2411
g70
I4
ssg71
g2405
sg64
(lp2412
g1266
asbasbasbag57
(g73
g59
NtRp2413
(dp2414
g62
(dp2415
sg71
g2368
sg64
(lp2416
g57
(g78
g59
NtRp2417
(dp2418
g62
(dp2419
g82
g83
ssg71
g2413
sg64
(lp2420
g1275
asbag57
(g78
g59
NtRp2421
(dp2422
g62
(dp2423
g89
g90
ssg71
g2413
sg64
(lp2424
S':'
asbag57
(g78
g59
NtRp2425
(dp2426
g62
(dp2427
sg71
g2413
sg64
(lp2428
g57
(g58
g59
NtRp2429
(dp2430
g62
(dp2431
g70
I4
ssg71
g2425
sg64
(lp2432
g57
(g66
g59
NtRp2433
(dp2434
g62
(dp2435
g70
I3
ssg71
Nsg64
(lp2436
sbasbasbasbag57
(g73
g59
NtRp2437
(dp2438
g62
(dp2439
sg71
g2368
sg64
(lp2440
g57
(g78
g59
NtRp2441
(dp2442
g62
(dp2443
g82
g83
ssg71
g2437
sg64
(lp2444
g1300
asbag57
(g78
g59
NtRp2445
(dp2446
g62
(dp2447
g89
g90
ssg71
g2437
sg64
(lp2448
S':'
asbag57
(g78
g59
NtRp2449
(dp2450
g62
(dp2451
sg71
g2437
sg64
(lp2452
g57
(g58
g59
NtRp2453
(dp2454
g62
(dp2455
g70
I4
ssg71
g2449
sg64
(lp2456
S"<Values at 0x172fbd8: {'verbose': False, 'ip': '127.0.0.1', 'with_scheduler': False, 'ips': [], 'shutdown_timeout': 5, 'taskbar': False, 'port': 8000, 'maxthreads': None, 'softcron': False, 'server_name': 'adri-EasyNote', 'bpython': False, 'nogui': False, 'pid_filename': 'httpserver.pid', 'extcron': False, 'runcron': False, 'run_system_tests': False, 'test': None, 'folder': '/home/adrian/web2py', 'config': '', 'minthreads': None, 'winservice': '', 'shell': None, 'run': '', 'log_filename': 'httpserver.log', 'debuglevel': 30, 'args': [''], 'socket_timeout': 5, 'ssl_ca_certificate': None, 'scheduler': None, 'profiler_filename': None, 'ssl_private_key': '', 'scheduler_groups': None, 'password': 'cygnuscloud2012', 'request_queue_size': 5, 'ssl_certificate': '', 'cronjob': False, 'numthreads': None, 'quiet': False, 'interfaces': None, 'import_models': False, 'timeout': 10, 'plain': False, 'nobanner': False}>"
p2457
asbasbasbag57
(g73
g59
NtRp2458
(dp2459
g62
(dp2460
sg71
g2368
sg64
(lp2461
g57
(g78
g59
NtRp2462
(dp2463
g62
(dp2464
g82
g83
ssg71
g2458
sg64
(lp2465
g1322
asbag57
(g78
g59
NtRp2466
(dp2467
g62
(dp2468
g89
g90
ssg71
g2458
sg64
(lp2469
S':'
asbag57
(g78
g59
NtRp2470
(dp2471
g62
(dp2472
sg71
g2458
sg64
(lp2473
g57
(g58
g59
NtRp2474
(dp2475
g62
(dp2476
g70
I4
ssg71
g2470
sg64
(lp2477
S'set([])'
p2478
asbasbasbag57
(g73
g59
NtRp2479
(dp2480
g62
(dp2481
sg71
g2368
sg64
(lp2482
g57
(g78
g59
NtRp2483
(dp2484
g62
(dp2485
g82
g83
ssg71
g2479
sg64
(lp2486
g1344
asbag57
(g78
g59
NtRp2487
(dp2488
g62
(dp2489
g89
g90
ssg71
g2479
sg64
(lp2490
S':'
asbag57
(g78
g59
NtRp2491
(dp2492
g62
(dp2493
sg71
g2479
sg64
(lp2494
g57
(g58
g59
NtRp2495
(dp2496
g62
(dp2497
g70
I4
ssg71
g2491
sg64
(lp2498
g100
asbasbasbag57
(g73
g59
NtRp2499
(dp2500
g62
(dp2501
sg71
g2368
sg64
(lp2502
g57
(g78
g59
NtRp2503
(dp2504
g62
(dp2505
g82
g83
ssg71
g2499
sg64
(lp2506
g1365
asbag57
(g78
g59
NtRp2507
(dp2508
g62
(dp2509
g89
g90
ssg71
g2499
sg64
(lp2510
S':'
asbag57
(g78
g59
NtRp2511
(dp2512
g62
(dp2513
sg71
g2499
sg64
(lp2514
g57
(g58
g59
NtRp2515
(dp2516
g62
(dp2517
g70
I4
ssg71
g2511
sg64
(lp2518
g1378
asbasbasbag57
(g73
g59
NtRp2519
(dp2520
g62
(dp2521
sg71
g2368
sg64
(lp2522
g57
(g78
g59
NtRp2523
(dp2524
g62
(dp2525
g82
g83
ssg71
g2519
sg64
(lp2526
g1585
asbag57
(g78
g59
NtRp2527
(dp2528
g62
(dp2529
g89
g90
ssg71
g2519
sg64
(lp2530
S':'
asbag57
(g78
g59
NtRp2531
(dp2532
g62
(dp2533
sg71
g2519
sg64
(lp2534
g57
(g58
g59
NtRp2535
(dp2536
g62
(dp2537
g70
I4
ssg71
g2531
sg64
(lp2538
g100
asbasbasbag57
(g73
g59
NtRp2539
(dp2540
g62
(dp2541
sg71
g2368
sg64
(lp2542
g57
(g78
g59
NtRp2543
(dp2544
g62
(dp2545
g82
g83
ssg71
g2539
sg64
(lp2546
g1606
asbag57
(g78
g59
NtRp2547
(dp2548
g62
(dp2549
g89
g90
ssg71
g2539
sg64
(lp2550
S':'
asbag57
(g78
g59
NtRp2551
(dp2552
g62
(dp2553
sg71
g2539
sg64
(lp2554
g57
(g58
g59
NtRp2555
(dp2556
g62
(dp2557
g70
I4
ssg71
g2551
sg64
(lp2558
g100
asbasbasbag57
(g73
g59
NtRp2559
(dp2560
g62
(dp2561
sg71
g2368
sg64
(lp2562
g57
(g78
g59
NtRp2563
(dp2564
g62
(dp2565
g82
g83
ssg71
g2559
sg64
(lp2566
g1627
asbag57
(g78
g59
NtRp2567
(dp2568
g62
(dp2569
g89
g90
ssg71
g2559
sg64
(lp2570
S':'
asbag57
(g78
g59
NtRp2571
(dp2572
g62
(dp2573
sg71
g2559
sg64
(lp2574
g57
(g58
g59
NtRp2575
(dp2576
g62
(dp2577
g70
I4
ssg71
g2571
sg64
(lp2578
g57
(g66
g59
NtRp2579
(dp2580
g62
(dp2581
g70
I3
ssg71
Nsg64
(lp2582
g57
(g73
g59
NtRp2583
(dp2584
g62
(dp2585
sg71
g2579
sg64
(lp2586
g57
(g78
g59
NtRp2587
(dp2588
g62
(dp2589
sg71
g2583
sg64
(lp2590
g57
(g58
g59
NtRp2591
(dp2592
g62
(dp2593
g70
I3
ssg71
g2587
sg64
(lp2594
g1656
asbasbasbag57
(g73
g59
NtRp2595
(dp2596
g62
(dp2597
sg71
g2579
sg64
(lp2598
g57
(g78
g59
NtRp2599
(dp2600
g62
(dp2601
sg71
g2595
sg64
(lp2602
g57
(g58
g59
NtRp2603
(dp2604
g62
(dp2605
g70
I3
ssg71
g2599
sg64
(lp2606
g1669
asbasbasbag57
(g73
g59
NtRp2607
(dp2608
g62
(dp2609
sg71
g2579
sg64
(lp2610
g57
(g78
g59
NtRp2611
(dp2612
g62
(dp2613
sg71
g2607
sg64
(lp2614
g57
(g58
g59
NtRp2615
(dp2616
g62
(dp2617
g70
I3
ssg71
g2611
sg64
(lp2618
g1682
asbasbasbag57
(g73
g59
NtRp2619
(dp2620
g62
(dp2621
sg71
g2579
sg64
(lp2622
g57
(g78
g59
NtRp2623
(dp2624
g62
(dp2625
sg71
g2619
sg64
(lp2626
g57
(g58
g59
NtRp2627
(dp2628
g62
(dp2629
g70
I3
ssg71
g2623
sg64
(lp2630
g1695
asbasbasbag57
(g73
g59
NtRp2631
(dp2632
g62
(dp2633
sg71
g2579
sg64
(lp2634
g57
(g78
g59
NtRp2635
(dp2636
g62
(dp2637
sg71
g2631
sg64
(lp2638
g57
(g58
g59
NtRp2639
(dp2640
g62
(dp2641
g70
I3
ssg71
g2635
sg64
(lp2642
g1708
asbasbasbasbasbasbasbag57
(g73
g59
NtRp2643
(dp2644
g62
(dp2645
sg71
g2368
sg64
(lp2646
g57
(g78
g59
NtRp2647
(dp2648
g62
(dp2649
g82
g83
ssg71
g2643
sg64
(lp2650
g1976
asbag57
(g78
g59
NtRp2651
(dp2652
g62
(dp2653
g89
g90
ssg71
g2643
sg64
(lp2654
S':'
asbag57
(g78
g59
NtRp2655
(dp2656
g62
(dp2657
sg71
g2643
sg64
(lp2658
g57
(g58
g59
NtRp2659
(dp2660
g62
(dp2661
g70
I4
ssg71
g2655
sg64
(lp2662
g57
(g66
g59
NtRp2663
(dp2664
g62
(dp2665
g70
I3
ssg71
Nsg64
(lp2666
g57
(g73
g59
NtRp2667
(dp2668
g62
(dp2669
sg71
g2663
sg64
(lp2670
g57
(g78
g59
NtRp2671
(dp2672
g62
(dp2673
sg71
g2667
sg64
(lp2674
g57
(g58
g59
NtRp2675
(dp2676
g62
(dp2677
g70
I3
ssg71
g2671
sg64
(lp2678
S'2'
asbasbasbag57
(g73
g59
NtRp2679
(dp2680
g62
(dp2681
sg71
g2663
sg64
(lp2682
g57
(g78
g59
NtRp2683
(dp2684
g62
(dp2685
sg71
g2679
sg64
(lp2686
g57
(g58
g59
NtRp2687
(dp2688
g62
(dp2689
g70
I3
ssg71
g2683
sg64
(lp2690
S'3'
asbasbasbag57
(g73
g59
NtRp2691
(dp2692
g62
(dp2693
sg71
g2663
sg64
(lp2694
g57
(g78
g59
NtRp2695
(dp2696
g62
(dp2697
sg71
g2691
sg64
(lp2698
g57
(g58
g59
NtRp2699
(dp2700
g62
(dp2701
g70
I3
ssg71
g2695
sg64
(lp2702
S'2'
asbasbasbag57
(g73
g59
NtRp2703
(dp2704
g62
(dp2705
sg71
g2663
sg64
(lp2706
g57
(g78
g59
NtRp2707
(dp2708
g62
(dp2709
sg71
g2703
sg64
(lp2710
g57
(g58
g59
NtRp2711
(dp2712
g62
(dp2713
g70
I3
ssg71
g2707
sg64
(lp2714
S'datetime.datetime(2012, 12, 17, 15, 3, 30)'
p2715
asbasbasbag57
(g73
g59
NtRp2716
(dp2717
g62
(dp2718
sg71
g2663
sg64
(lp2719
g57
(g78
g59
NtRp2720
(dp2721
g62
(dp2722
sg71
g2716
sg64
(lp2723
g57
(g58
g59
NtRp2724
(dp2725
g62
(dp2726
g70
I3
ssg71
g2720
sg64
(lp2727
g2054
asbasbasbasbasbasbasbasbasbasbasbag57
(g73
g59
NtRp2728
(dp2729
g62
(dp2730
sg71
g67
sg64
(lp2731
g57
(g78
g59
NtRp2732
(dp2733
g62
(dp2734
g82
g83
ssg71
g2728
sg64
(lp2735
S'is_https'
p2736
asbag57
(g78
g59
NtRp2737
(dp2738
g62
(dp2739
g89
g90
ssg71
g2728
sg64
(lp2740
S':'
asbag57
(g78
g59
NtRp2741
(dp2742
g62
(dp2743
sg71
g2728
sg64
(lp2744
g57
(g58
g59
NtRp2745
(dp2746
g62
(dp2747
g70
I5
ssg71
g2741
sg64
(lp2748
g100
asbasbasbag57
(g73
g59
NtRp2749
(dp2750
g62
(dp2751
sg71
g67
sg64
(lp2752
g57
(g78
g59
NtRp2753
(dp2754
g62
(dp2755
g82
g83
ssg71
g2749
sg64
(lp2756
S'is_local'
p2757
asbag57
(g78
g59
NtRp2758
(dp2759
g62
(dp2760
g89
g90
ssg71
g2749
sg64
(lp2761
S':'
asbag57
(g78
g59
NtRp2762
(dp2763
g62
(dp2764
sg71
g2749
sg64
(lp2765
g57
(g58
g59
NtRp2766
(dp2767
g62
(dp2768
g70
I5
ssg71
g2762
sg64
(lp2769
g2163
asbasbasbag57
(g73
g59
NtRp2770
(dp2771
g62
(dp2772
sg71
g67
sg64
(lp2773
g57
(g78
g59
NtRp2774
(dp2775
g62
(dp2776
g82
g83
ssg71
g2770
sg64
(lp2777
S'is_restful'
p2778
asbag57
(g78
g59
NtRp2779
(dp2780
g62
(dp2781
g89
g90
ssg71
g2770
sg64
(lp2782
S':'
asbag57
(g78
g59
NtRp2783
(dp2784
g62
(dp2785
sg71
g2770
sg64
(lp2786
g57
(g58
g59
NtRp2787
(dp2788
g62
(dp2789
g70
I5
ssg71
g2783
sg64
(lp2790
g100
asbasbasbag57
(g73
g59
NtRp2791
(dp2792
g62
(dp2793
sg71
g67
sg64
(lp2794
g57
(g78
g59
NtRp2795
(dp2796
g62
(dp2797
g82
g83
ssg71
g2791
sg64
(lp2798
S'now'
p2799
asbag57
(g78
g59
NtRp2800
(dp2801
g62
(dp2802
g89
g90
ssg71
g2791
sg64
(lp2803
S':'
asbag57
(g78
g59
NtRp2804
(dp2805
g62
(dp2806
sg71
g2791
sg64
(lp2807
g57
(g58
g59
NtRp2808
(dp2809
g62
(dp2810
g70
I5
ssg71
g2804
sg64
(lp2811
S'datetime.datetime(2013, 2, 6, 0, 31, 34, 165421)'
p2812
asbasbasbag57
(g73
g59
NtRp2813
(dp2814
g62
(dp2815
sg71
g67
sg64
(lp2816
g57
(g78
g59
NtRp2817
(dp2818
g62
(dp2819
g82
g83
ssg71
g2813
sg64
(lp2820
S'post_vars'
p2821
asbag57
(g78
g59
NtRp2822
(dp2823
g62
(dp2824
g89
g90
ssg71
g2813
sg64
(lp2825
S':'
asbag57
(g78
g59
NtRp2826
(dp2827
g62
(dp2828
sg71
g2813
sg64
(lp2829
g57
(g58
g59
NtRp2830
(dp2831
g62
(dp2832
g70
I5
ssg71
g2826
sg64
(lp2833
g57
(g66
g59
NtRp2834
(dp2835
g62
(dp2836
g70
I4
ssg71
Nsg64
(lp2837
sbasbasbasbag57
(g73
g59
NtRp2838
(dp2839
g62
(dp2840
sg71
g67
sg64
(lp2841
g57
(g78
g59
NtRp2842
(dp2843
g62
(dp2844
g82
g83
ssg71
g2838
sg64
(lp2845
S'raw_args'
p2846
asbag57
(g78
g59
NtRp2847
(dp2848
g62
(dp2849
g89
g90
ssg71
g2838
sg64
(lp2850
S':'
asbag57
(g78
g59
NtRp2851
(dp2852
g62
(dp2853
sg71
g2838
sg64
(lp2854
g57
(g58
g59
NtRp2855
(dp2856
g62
(dp2857
g70
I5
ssg71
g2851
sg64
(lp2858
S''
asbasbasbag57
(g73
g59
NtRp2859
(dp2860
g62
(dp2861
sg71
g67
sg64
(lp2862
g57
(g78
g59
NtRp2863
(dp2864
g62
(dp2865
g82
g83
ssg71
g2859
sg64
(lp2866
S'raw_extension'
p2867
asbag57
(g78
g59
NtRp2868
(dp2869
g62
(dp2870
g89
g90
ssg71
g2859
sg64
(lp2871
S':'
asbag57
(g78
g59
NtRp2872
(dp2873
g62
(dp2874
sg71
g2859
sg64
(lp2875
g57
(g58
g59
NtRp2876
(dp2877
g62
(dp2878
g70
I5
ssg71
g2872
sg64
(lp2879
S'None'
p2880
asbasbasbag57
(g73
g59
NtRp2881
(dp2882
g62
(dp2883
sg71
g67
sg64
(lp2884
g57
(g78
g59
NtRp2885
(dp2886
g62
(dp2887
g82
g83
ssg71
g2881
sg64
(lp2888
S'url'
p2889
asbag57
(g78
g59
NtRp2890
(dp2891
g62
(dp2892
g89
g90
ssg71
g2881
sg64
(lp2893
S':'
asbag57
(g78
g59
NtRp2894
(dp2895
g62
(dp2896
sg71
g2881
sg64
(lp2897
g57
(g58
g59
NtRp2898
(dp2899
g62
(dp2900
g70
I5
ssg71
g2894
sg64
(lp2901
g1730
asbasbasbag57
(g73
g59
NtRp2902
(dp2903
g62
(dp2904
sg71
g67
sg64
(lp2905
g57
(g78
g59
NtRp2906
(dp2907
g62
(dp2908
g82
g83
ssg71
g2902
sg64
(lp2909
S'utcnow'
p2910
asbag57
(g78
g59
NtRp2911
(dp2912
g62
(dp2913
g89
g90
ssg71
g2902
sg64
(lp2914
S':'
asbag57
(g78
g59
NtRp2915
(dp2916
g62
(dp2917
sg71
g2902
sg64
(lp2918
g57
(g58
g59
NtRp2919
(dp2920
g62
(dp2921
g70
I5
ssg71
g2915
sg64
(lp2922
S'datetime.datetime(2013, 2, 5, 23, 31, 34, 165454)'
p2923
asbasbasbag57
(g73
g59
NtRp2924
(dp2925
g62
(dp2926
sg71
g67
sg64
(lp2927
g57
(g78
g59
NtRp2928
(dp2929
g62
(dp2930
g82
g83
ssg71
g2924
sg64
(lp2931
S'uuid'
p2932
asbag57
(g78
g59
NtRp2933
(dp2934
g62
(dp2935
g89
g90
ssg71
g2924
sg64
(lp2936
S':'
asbag57
(g78
g59
NtRp2937
(dp2938
g62
(dp2939
sg71
g2924
sg64
(lp2940
g57
(g58
g59
NtRp2941
(dp2942
g62
(dp2943
g70
I5
ssg71
g2937
sg64
(lp2944
S'CygnusCloud/127.0.0.1.2013-02-06.00-31-34.c8a65b28-f8a7-4003-81a5-af54a360b26d'
p2945
asbasbasbag57
(g73
g59
NtRp2946
(dp2947
g62
(dp2948
sg71
g67
sg64
(lp2949
g57
(g78
g59
NtRp2950
(dp2951
g62
(dp2952
g82
g83
ssg71
g2946
sg64
(lp2953
S'vars'
p2954
asbag57
(g78
g59
NtRp2955
(dp2956
g62
(dp2957
g89
g90
ssg71
g2946
sg64
(lp2958
S':'
asbag57
(g78
g59
NtRp2959
(dp2960
g62
(dp2961
sg71
g2946
sg64
(lp2962
g57
(g58
g59
NtRp2963
(dp2964
g62
(dp2965
g70
I5
ssg71
g2959
sg64
(lp2966
g57
(g66
g59
NtRp2967
(dp2968
g62
(dp2969
g70
I4
ssg71
Nsg64
(lp2970
sbasbasbasbag57
(g73
g59
NtRp2971
(dp2972
g62
(dp2973
sg71
g67
sg64
(lp2974
g57
(g78
g59
NtRp2975
(dp2976
g62
(dp2977
g82
g83
ssg71
g2971
sg64
(lp2978
S'wsgi'
p2979
asbag57
(g78
g59
NtRp2980
(dp2981
g62
(dp2982
g89
g90
ssg71
g2971
sg64
(lp2983
S':'
asbag57
(g78
g59
NtRp2984
(dp2985
g62
(dp2986
sg71
g2971
sg64
(lp2987
g57
(g58
g59
NtRp2988
(dp2989
g62
(dp2990
g70
I5
ssg71
g2984
sg64
(lp2991
g57
(g66
g59
NtRp2992
(dp2993
g62
(dp2994
g70
I4
ssg71
Nsg64
(lp2995
g57
(g73
g59
NtRp2996
(dp2997
g62
(dp2998
sg71
g2992
sg64
(lp2999
g57
(g78
g59
NtRp3000
(dp3001
g62
(dp3002
g82
g83
ssg71
g2996
sg64
(lp3003
S'environ'
p3004
asbag57
(g78
g59
NtRp3005
(dp3006
g62
(dp3007
g89
g90
ssg71
g2996
sg64
(lp3008
S':'
asbag57
(g78
g59
NtRp3009
(dp3010
g62
(dp3011
sg71
g2996
sg64
(lp3012
g57
(g58
g59
NtRp3013
(dp3014
g62
(dp3015
g70
I4
ssg71
g3009
sg64
(lp3016
g57
(g66
g59
NtRp3017
(dp3018
g62
(dp3019
g70
I3
ssg71
Nsg64
(lp3020
g57
(g73
g59
NtRp3021
(dp3022
g62
(dp3023
sg71
g3017
sg64
(lp3024
g57
(g78
g59
NtRp3025
(dp3026
g62
(dp3027
g82
g83
ssg71
g3021
sg64
(lp3028
S'HTTP_ACCEPT'
p3029
asbag57
(g78
g59
NtRp3030
(dp3031
g62
(dp3032
g89
g90
ssg71
g3021
sg64
(lp3033
S':'
asbag57
(g78
g59
NtRp3034
(dp3035
g62
(dp3036
sg71
g3021
sg64
(lp3037
g57
(g58
g59
NtRp3038
(dp3039
g62
(dp3040
g70
I3
ssg71
g3034
sg64
(lp3041
g1400
asbasbasbag57
(g73
g59
NtRp3042
(dp3043
g62
(dp3044
sg71
g3017
sg64
(lp3045
g57
(g78
g59
NtRp3046
(dp3047
g62
(dp3048
g82
g83
ssg71
g3042
sg64
(lp3049
S'HTTP_ACCEPT_CHARSET'
p3050
asbag57
(g78
g59
NtRp3051
(dp3052
g62
(dp3053
g89
g90
ssg71
g3042
sg64
(lp3054
S':'
asbag57
(g78
g59
NtRp3055
(dp3056
g62
(dp3057
sg71
g3042
sg64
(lp3058
g57
(g58
g59
NtRp3059
(dp3060
g62
(dp3061
g70
I3
ssg71
g3055
sg64
(lp3062
g1422
asbasbasbag57
(g73
g59
NtRp3063
(dp3064
g62
(dp3065
sg71
g3017
sg64
(lp3066
g57
(g78
g59
NtRp3067
(dp3068
g62
(dp3069
g82
g83
ssg71
g3063
sg64
(lp3070
S'HTTP_ACCEPT_ENCODING'
p3071
asbag57
(g78
g59
NtRp3072
(dp3073
g62
(dp3074
g89
g90
ssg71
g3063
sg64
(lp3075
S':'
asbag57
(g78
g59
NtRp3076
(dp3077
g62
(dp3078
sg71
g3063
sg64
(lp3079
g57
(g58
g59
NtRp3080
(dp3081
g62
(dp3082
g70
I3
ssg71
g3076
sg64
(lp3083
g1444
asbasbasbag57
(g73
g59
NtRp3084
(dp3085
g62
(dp3086
sg71
g3017
sg64
(lp3087
g57
(g78
g59
NtRp3088
(dp3089
g62
(dp3090
g82
g83
ssg71
g3084
sg64
(lp3091
S'HTTP_ACCEPT_LANGUAGE'
p3092
asbag57
(g78
g59
NtRp3093
(dp3094
g62
(dp3095
g89
g90
ssg71
g3084
sg64
(lp3096
S':'
asbag57
(g78
g59
NtRp3097
(dp3098
g62
(dp3099
sg71
g3084
sg64
(lp3100
g57
(g58
g59
NtRp3101
(dp3102
g62
(dp3103
g70
I3
ssg71
g3097
sg64
(lp3104
g1466
asbasbasbag57
(g73
g59
NtRp3105
(dp3106
g62
(dp3107
sg71
g3017
sg64
(lp3108
g57
(g78
g59
NtRp3109
(dp3110
g62
(dp3111
g82
g83
ssg71
g3105
sg64
(lp3112
S'HTTP_CACHE_CONTROL'
p3113
asbag57
(g78
g59
NtRp3114
(dp3115
g62
(dp3116
g89
g90
ssg71
g3105
sg64
(lp3117
S':'
asbag57
(g78
g59
NtRp3118
(dp3119
g62
(dp3120
sg71
g3105
sg64
(lp3121
g57
(g58
g59
NtRp3122
(dp3123
g62
(dp3124
g70
I3
ssg71
g3118
sg64
(lp3125
g1488
asbasbasbag57
(g73
g59
NtRp3126
(dp3127
g62
(dp3128
sg71
g3017
sg64
(lp3129
g57
(g78
g59
NtRp3130
(dp3131
g62
(dp3132
g82
g83
ssg71
g3126
sg64
(lp3133
S'HTTP_CONNECTION'
p3134
asbag57
(g78
g59
NtRp3135
(dp3136
g62
(dp3137
g89
g90
ssg71
g3126
sg64
(lp3138
S':'
asbag57
(g78
g59
NtRp3139
(dp3140
g62
(dp3141
sg71
g3126
sg64
(lp3142
g57
(g58
g59
NtRp3143
(dp3144
g62
(dp3145
g70
I3
ssg71
g3139
sg64
(lp3146
g1510
asbasbasbag57
(g73
g59
NtRp3147
(dp3148
g62
(dp3149
sg71
g3017
sg64
(lp3150
g57
(g78
g59
NtRp3151
(dp3152
g62
(dp3153
g82
g83
ssg71
g3147
sg64
(lp3154
S'HTTP_COOKIE'
p3155
asbag57
(g78
g59
NtRp3156
(dp3157
g62
(dp3158
g89
g90
ssg71
g3147
sg64
(lp3159
S':'
asbag57
(g78
g59
NtRp3160
(dp3161
g62
(dp3162
sg71
g3147
sg64
(lp3163
g57
(g58
g59
NtRp3164
(dp3165
g62
(dp3166
g70
I3
ssg71
g3160
sg64
(lp3167
g1532
asbasbasbag57
(g73
g59
NtRp3168
(dp3169
g62
(dp3170
sg71
g3017
sg64
(lp3171
g57
(g78
g59
NtRp3172
(dp3173
g62
(dp3174
g82
g83
ssg71
g3168
sg64
(lp3175
S'HTTP_HOST'
p3176
asbag57
(g78
g59
NtRp3177
(dp3178
g62
(dp3179
g89
g90
ssg71
g3168
sg64
(lp3180
S':'
asbag57
(g78
g59
NtRp3181
(dp3182
g62
(dp3183
sg71
g3168
sg64
(lp3184
g57
(g58
g59
NtRp3185
(dp3186
g62
(dp3187
g70
I3
ssg71
g3181
sg64
(lp3188
g1554
asbasbasbag57
(g73
g59
NtRp3189
(dp3190
g62
(dp3191
sg71
g3017
sg64
(lp3192
g57
(g78
g59
NtRp3193
(dp3194
g62
(dp3195
g82
g83
ssg71
g3189
sg64
(lp3196
S'HTTP_USER_AGENT'
p3197
asbag57
(g78
g59
NtRp3198
(dp3199
g62
(dp3200
g89
g90
ssg71
g3189
sg64
(lp3201
S':'
asbag57
(g78
g59
NtRp3202
(dp3203
g62
(dp3204
sg71
g3189
sg64
(lp3205
g57
(g58
g59
NtRp3206
(dp3207
g62
(dp3208
g70
I3
ssg71
g3202
sg64
(lp3209
g1576
asbasbasbag57
(g73
g59
NtRp3210
(dp3211
g62
(dp3212
sg71
g3017
sg64
(lp3213
g57
(g78
g59
NtRp3214
(dp3215
g62
(dp3216
g82
g83
ssg71
g3210
sg64
(lp3217
S'PATH_INFO'
p3218
asbag57
(g78
g59
NtRp3219
(dp3220
g62
(dp3221
g89
g90
ssg71
g3210
sg64
(lp3222
S':'
asbag57
(g78
g59
NtRp3223
(dp3224
g62
(dp3225
sg71
g3210
sg64
(lp3226
g57
(g58
g59
NtRp3227
(dp3228
g62
(dp3229
g70
I3
ssg71
g3223
sg64
(lp3230
g1730
asbasbasbag57
(g73
g59
NtRp3231
(dp3232
g62
(dp3233
sg71
g3017
sg64
(lp3234
g57
(g78
g59
NtRp3235
(dp3236
g62
(dp3237
g82
g83
ssg71
g3231
sg64
(lp3238
S'QUERY_STRING'
p3239
asbag57
(g78
g59
NtRp3240
(dp3241
g62
(dp3242
g89
g90
ssg71
g3231
sg64
(lp3243
S':'
asbag57
(g78
g59
NtRp3244
(dp3245
g62
(dp3246
sg71
g3231
sg64
(lp3247
g57
(g58
g59
NtRp3248
(dp3249
g62
(dp3250
g70
I3
ssg71
g3244
sg64
(lp3251
S''
asbasbasbag57
(g73
g59
NtRp3252
(dp3253
g62
(dp3254
sg71
g3017
sg64
(lp3255
g57
(g78
g59
NtRp3256
(dp3257
g62
(dp3258
g82
g83
ssg71
g3252
sg64
(lp3259
S'REMOTE_ADDR'
p3260
asbag57
(g78
g59
NtRp3261
(dp3262
g62
(dp3263
g89
g90
ssg71
g3252
sg64
(lp3264
S':'
asbag57
(g78
g59
NtRp3265
(dp3266
g62
(dp3267
sg71
g3252
sg64
(lp3268
g57
(g58
g59
NtRp3269
(dp3270
g62
(dp3271
g70
I3
ssg71
g3265
sg64
(lp3272
g212
asbasbasbag57
(g73
g59
NtRp3273
(dp3274
g62
(dp3275
sg71
g3017
sg64
(lp3276
g57
(g78
g59
NtRp3277
(dp3278
g62
(dp3279
g82
g83
ssg71
g3273
sg64
(lp3280
S'REMOTE_PORT'
p3281
asbag57
(g78
g59
NtRp3282
(dp3283
g62
(dp3284
g89
g90
ssg71
g3273
sg64
(lp3285
S':'
asbag57
(g78
g59
NtRp3286
(dp3287
g62
(dp3288
sg71
g3273
sg64
(lp3289
g57
(g58
g59
NtRp3290
(dp3291
g62
(dp3292
g70
I3
ssg71
g3286
sg64
(lp3293
g1794
asbasbasbag57
(g73
g59
NtRp3294
(dp3295
g62
(dp3296
sg71
g3017
sg64
(lp3297
g57
(g78
g59
NtRp3298
(dp3299
g62
(dp3300
g82
g83
ssg71
g3294
sg64
(lp3301
S'REQUEST_METHOD'
p3302
asbag57
(g78
g59
NtRp3303
(dp3304
g62
(dp3305
g89
g90
ssg71
g3294
sg64
(lp3306
S':'
asbag57
(g78
g59
NtRp3307
(dp3308
g62
(dp3309
sg71
g3294
sg64
(lp3310
g57
(g58
g59
NtRp3311
(dp3312
g62
(dp3313
g70
I3
ssg71
g3307
sg64
(lp3314
g1816
asbasbasbag57
(g73
g59
NtRp3315
(dp3316
g62
(dp3317
sg71
g3017
sg64
(lp3318
g57
(g78
g59
NtRp3319
(dp3320
g62
(dp3321
g82
g83
ssg71
g3315
sg64
(lp3322
S'REQUEST_URI'
p3323
asbag57
(g78
g59
NtRp3324
(dp3325
g62
(dp3326
g89
g90
ssg71
g3315
sg64
(lp3327
S':'
asbag57
(g78
g59
NtRp3328
(dp3329
g62
(dp3330
sg71
g3315
sg64
(lp3331
g57
(g58
g59
NtRp3332
(dp3333
g62
(dp3334
g70
I3
ssg71
g3328
sg64
(lp3335
g1730
asbasbasbag57
(g73
g59
NtRp3336
(dp3337
g62
(dp3338
sg71
g3017
sg64
(lp3339
g57
(g78
g59
NtRp3340
(dp3341
g62
(dp3342
g82
g83
ssg71
g3336
sg64
(lp3343
S'SCRIPT_NAME'
p3344
asbag57
(g78
g59
NtRp3345
(dp3346
g62
(dp3347
g89
g90
ssg71
g3336
sg64
(lp3348
S':'
asbag57
(g78
g59
NtRp3349
(dp3350
g62
(dp3351
sg71
g3336
sg64
(lp3352
g57
(g58
g59
NtRp3353
(dp3354
g62
(dp3355
g70
I3
ssg71
g3349
sg64
(lp3356
S''
asbasbasbag57
(g73
g59
NtRp3357
(dp3358
g62
(dp3359
sg71
g3017
sg64
(lp3360
g57
(g78
g59
NtRp3361
(dp3362
g62
(dp3363
g82
g83
ssg71
g3357
sg64
(lp3364
S'SERVER_NAME'
p3365
asbag57
(g78
g59
NtRp3366
(dp3367
g62
(dp3368
g89
g90
ssg71
g3357
sg64
(lp3369
S':'
asbag57
(g78
g59
NtRp3370
(dp3371
g62
(dp3372
sg71
g3357
sg64
(lp3373
g57
(g58
g59
NtRp3374
(dp3375
g62
(dp3376
g70
I3
ssg71
g3370
sg64
(lp3377
g1880
asbasbasbag57
(g73
g59
NtRp3378
(dp3379
g62
(dp3380
sg71
g3017
sg64
(lp3381
g57
(g78
g59
NtRp3382
(dp3383
g62
(dp3384
g82
g83
ssg71
g3378
sg64
(lp3385
S'SERVER_PORT'
p3386
asbag57
(g78
g59
NtRp3387
(dp3388
g62
(dp3389
g89
g90
ssg71
g3378
sg64
(lp3390
S':'
asbag57
(g78
g59
NtRp3391
(dp3392
g62
(dp3393
sg71
g3378
sg64
(lp3394
g57
(g58
g59
NtRp3395
(dp3396
g62
(dp3397
g70
I3
ssg71
g3391
sg64
(lp3398
g1902
asbasbasbag57
(g73
g59
NtRp3399
(dp3400
g62
(dp3401
sg71
g3017
sg64
(lp3402
g57
(g78
g59
NtRp3403
(dp3404
g62
(dp3405
g82
g83
ssg71
g3399
sg64
(lp3406
S'SERVER_PROTOCOL'
p3407
asbag57
(g78
g59
NtRp3408
(dp3409
g62
(dp3410
g89
g90
ssg71
g3399
sg64
(lp3411
S':'
asbag57
(g78
g59
NtRp3412
(dp3413
g62
(dp3414
sg71
g3399
sg64
(lp3415
g57
(g58
g59
NtRp3416
(dp3417
g62
(dp3418
g70
I3
ssg71
g3412
sg64
(lp3419
g1924
asbasbasbag57
(g73
g59
NtRp3420
(dp3421
g62
(dp3422
sg71
g3017
sg64
(lp3423
g57
(g78
g59
NtRp3424
(dp3425
g62
(dp3426
g82
g83
ssg71
g3420
sg64
(lp3427
S'SERVER_SOFTWARE'
p3428
asbag57
(g78
g59
NtRp3429
(dp3430
g62
(dp3431
g89
g90
ssg71
g3420
sg64
(lp3432
S':'
asbag57
(g78
g59
NtRp3433
(dp3434
g62
(dp3435
sg71
g3420
sg64
(lp3436
g57
(g58
g59
NtRp3437
(dp3438
g62
(dp3439
g70
I3
ssg71
g3433
sg64
(lp3440
g1946
asbasbasbag57
(g73
g59
NtRp3441
(dp3442
g62
(dp3443
sg71
g3017
sg64
(lp3444
g57
(g78
g59
NtRp3445
(dp3446
g62
(dp3447
g82
g83
ssg71
g3441
sg64
(lp3448
S'wsgi.errors'
p3449
asbag57
(g78
g59
NtRp3450
(dp3451
g62
(dp3452
g89
g90
ssg71
g3441
sg64
(lp3453
S':'
asbag57
(g78
g59
NtRp3454
(dp3455
g62
(dp3456
sg71
g3441
sg64
(lp3457
g57
(g58
g59
NtRp3458
(dp3459
g62
(dp3460
g70
I3
ssg71
g3454
sg64
(lp3461
S"<open file '<stderr>', mode 'w' at 0x7f239539e270>"
p3462
asbasbasbag57
(g73
g59
NtRp3463
(dp3464
g62
(dp3465
sg71
g3017
sg64
(lp3466
g57
(g78
g59
NtRp3467
(dp3468
g62
(dp3469
g82
g83
ssg71
g3463
sg64
(lp3470
S'wsgi.file_wrapper'
p3471
asbag57
(g78
g59
NtRp3472
(dp3473
g62
(dp3474
g89
g90
ssg71
g3463
sg64
(lp3475
S':'
asbag57
(g78
g59
NtRp3476
(dp3477
g62
(dp3478
sg71
g3463
sg64
(lp3479
g57
(g58
g59
NtRp3480
(dp3481
g62
(dp3482
g70
I3
ssg71
g3476
sg64
(lp3483
S'<class wsgiref.util.FileWrapper at 0x1663db8>'
p3484
asbasbasbag57
(g73
g59
NtRp3485
(dp3486
g62
(dp3487
sg71
g3017
sg64
(lp3488
g57
(g78
g59
NtRp3489
(dp3490
g62
(dp3491
g82
g83
ssg71
g3485
sg64
(lp3492
S'wsgi.input'
p3493
asbag57
(g78
g59
NtRp3494
(dp3495
g62
(dp3496
g89
g90
ssg71
g3485
sg64
(lp3497
S':'
asbag57
(g78
g59
NtRp3498
(dp3499
g62
(dp3500
sg71
g3485
sg64
(lp3501
g57
(g58
g59
NtRp3502
(dp3503
g62
(dp3504
g70
I3
ssg71
g3498
sg64
(lp3505
S'<cStringIO.StringO object at 0x7f23783c3688>'
p3506
asbasbasbag57
(g73
g59
NtRp3507
(dp3508
g62
(dp3509
sg71
g3017
sg64
(lp3510
g57
(g78
g59
NtRp3511
(dp3512
g62
(dp3513
g82
g83
ssg71
g3507
sg64
(lp3514
S'wsgi.multiprocess'
p3515
asbag57
(g78
g59
NtRp3516
(dp3517
g62
(dp3518
g89
g90
ssg71
g3507
sg64
(lp3519
S':'
asbag57
(g78
g59
NtRp3520
(dp3521
g62
(dp3522
sg71
g3507
sg64
(lp3523
g57
(g58
g59
NtRp3524
(dp3525
g62
(dp3526
g70
I3
ssg71
g3520
sg64
(lp3527
g100
asbasbasbag57
(g73
g59
NtRp3528
(dp3529
g62
(dp3530
sg71
g3017
sg64
(lp3531
g57
(g78
g59
NtRp3532
(dp3533
g62
(dp3534
g82
g83
ssg71
g3528
sg64
(lp3535
S'wsgi.multithread'
p3536
asbag57
(g78
g59
NtRp3537
(dp3538
g62
(dp3539
g89
g90
ssg71
g3528
sg64
(lp3540
S':'
asbag57
(g78
g59
NtRp3541
(dp3542
g62
(dp3543
sg71
g3528
sg64
(lp3544
g57
(g58
g59
NtRp3545
(dp3546
g62
(dp3547
g70
I3
ssg71
g3541
sg64
(lp3548
g2163
asbasbasbag57
(g73
g59
NtRp3549
(dp3550
g62
(dp3551
sg71
g3017
sg64
(lp3552
g57
(g78
g59
NtRp3553
(dp3554
g62
(dp3555
g82
g83
ssg71
g3549
sg64
(lp3556
S'wsgi.run_once'
p3557
asbag57
(g78
g59
NtRp3558
(dp3559
g62
(dp3560
g89
g90
ssg71
g3549
sg64
(lp3561
S':'
asbag57
(g78
g59
NtRp3562
(dp3563
g62
(dp3564
sg71
g3549
sg64
(lp3565
g57
(g58
g59
NtRp3566
(dp3567
g62
(dp3568
g70
I3
ssg71
g3562
sg64
(lp3569
g100
asbasbasbag57
(g73
g59
NtRp3570
(dp3571
g62
(dp3572
sg71
g3017
sg64
(lp3573
g57
(g78
g59
NtRp3574
(dp3575
g62
(dp3576
g82
g83
ssg71
g3570
sg64
(lp3577
S'wsgi.url_scheme'
p3578
asbag57
(g78
g59
NtRp3579
(dp3580
g62
(dp3581
g89
g90
ssg71
g3570
sg64
(lp3582
S':'
asbag57
(g78
g59
NtRp3583
(dp3584
g62
(dp3585
sg71
g3570
sg64
(lp3586
g57
(g58
g59
NtRp3587
(dp3588
g62
(dp3589
g70
I3
ssg71
g3583
sg64
(lp3590
g2206
asbasbasbag57
(g73
g59
NtRp3591
(dp3592
g62
(dp3593
sg71
g3017
sg64
(lp3594
g57
(g78
g59
NtRp3595
(dp3596
g62
(dp3597
g82
g83
ssg71
g3591
sg64
(lp3598
S'wsgi.version'
p3599
asbag57
(g78
g59
NtRp3600
(dp3601
g62
(dp3602
g89
g90
ssg71
g3591
sg64
(lp3603
S':'
asbag57
(g78
g59
NtRp3604
(dp3605
g62
(dp3606
sg71
g3591
sg64
(lp3607
g57
(g58
g59
NtRp3608
(dp3609
g62
(dp3610
g70
I3
ssg71
g3604
sg64
(lp3611
S'1'
asbasbasbasbasbasbasbasbasbasbasbasbasbsS'frames'
p3612
(lp3613
(dp3614
S'file'
p3615
S'/home/adrian/web2py/gluon/restricted.py'
p3616
sS'dump'
p3617
(dp3618
S'environment'
p3619
S"{'A': <class 'gluon.html.A'>, 'Auth': <class 'gluon.tools.Auth'>, 'B': <class 'gluon.html.B'>, 'BEAUTIFY': <class 'gluon.html.BEAUTIFY'>, 'BODY': <class 'gluon.html.BODY'>, 'BR': <class 'gluon.html.BR'>, 'BUTTON': <class 'gluon.html.BUTTON'>, 'CAT': <class 'gluon.html.CAT'>, 'CENTER': <class 'gluon.html.CENTER'>, 'CLEANUP': <class 'gluon.validators.CLEANUP'>, ...}"
p3620
sS'ccode'
p3621
S'<code object <module> at 0x7f238c45cf30, file "/...y/applications/CygnusCloud/models/db.py", line 2>'
p3622
ssS'lnum'
p3623
I212
sS'lines'
p3624
(dp3625
I207
S'    try:'
p3626
sI208
S'        if isinstance(code, types.CodeType):'
p3627
sI209
S'            ccode = code'
p3628
sI210
S'        else:'
p3629
sI211
S'            ccode = compile2(code, layer)'
p3630
sI212
S'        exec ccode in environment'
p3631
sI213
S'    except HTTP:'
p3632
sI214
S'        raise'
p3633
sI215
S'    except RestrictedError:'
p3634
sI216
S'        # do not encapsulate (obfuscate) the original RestrictedError'
p3635
ssS'call'
p3636
S'(code="# -*- coding: utf-8 -*-\\nfrom configuration impor...mbership(\'Administrator\',u1)\\nprint userDB.tables\\n", environment={\'A\': <class \'gluon.html.A\'>, \'Auth\': <class \'gluon.tools.Auth\'>, \'B\': <class \'gluon.html.B\'>, \'BEAUTIFY\': <class \'gluon.html.BEAUTIFY\'>, \'BODY\': <class \'gluon.html.BODY\'>, \'BR\': <class \'gluon.html.BR\'>, \'BUTTON\': <class \'gluon.html.BUTTON\'>, \'CAT\': <class \'gluon.html.CAT\'>, \'CENTER\': <class \'gluon.html.CENTER\'>, \'CLEANUP\': <class \'gluon.validators.CLEANUP\'>, ...}, layer=\'/home/adrian/web2py/applications/CygnusCloud/models/db.py\')'
p3637
sS'func'
p3638
S'restricted'
p3639
sa(dp3640
g3615
S'/home/adrian/web2py/applications/CygnusCloud/models/db.py'
p3641
sg3617
(dp3642
S'userDB'
p3643
S'<DAL uri="mysql://******:cygnuscloud2012@localhost/UseresDB">'
p3644
sS'userDB.auth_user'
p3645
S'undefined'
p3646
ssg3623
I11
sg3624
(dp3647
I6
S"conf.createDatabase('UseresDB')"
p3648
sI7
S"#conf.addUser('CygnusCloud','cygnuscloud2012', 'UserDB')"
p3649
sI8
S"userDB = DAL('mysql://CygnusCloud:cygnuscloud2012@localhost/UseresDB',migrate_enabled=True, pool_size=0)"
p3650
sI9
S''
sI10
S'#Borramos basura'
p3651
sI11
S'userDB.auth_user.drop()'
p3652
sI12
S'userDB.auth_group.drop()'
p3653
sI13
S'userDB.auth_membership.drop()'
p3654
sI14
S'userDB.auth_event.drop()'
p3655
sI15
S'# Autentication'
p3656
ssg3636
S'()'
p3657
sg3638
S'<module>'
p3658
sa(dp3659
g3615
S'/home/adrian/web2py/gluon/dal.py'
p3660
sg3617
(dp3661
S'self'
p3662
S'<DAL uri="mysql://******:cygnuscloud2012@localhost/UseresDB">'
p3663
sS'global ogetattr'
p3664
S"<slot wrapper '__getattribute__' of 'object' objects>"
p3665
sS'key'
p3666
S"'auth_user'"
p3667
ssg3623
I7255
sg3624
(dp3668
I7250
S'    def __getattr__(self, key):'
p3669
sI7251
S"        if ogetattr(self,'_lazy_tables') and \\"
p3670
sI7252
S"                key in ogetattr(self,'_LAZY_TABLES'):"
p3671
sI7253
S'            tablename, fields, args = self._LAZY_TABLES.pop(key)'
p3672
sI7254
S'            return self.lazy_define_table(tablename,*fields,**args)'
p3673
sI7255
S'        return ogetattr(self, key)'
p3674
sI7256
S''
sI7257
S'    def __setitem__(self, key, value):'
p3675
sI7258
S'        osetattr(self, str(key), value)'
p3676
sI7259
S''
ssg3636
S'(self=<DAL uri="mysql://******:cygnuscloud2012@localhost/UseresDB">, key=\'auth_user\')'
p3677
sg3638
S'__getattr__'
p3678
sasS'pyver'
p3679
S'Python 2.7.3: /usr/bin/python'
p3680
sS'session'
p3681
g57
(g58
g59
NtRp3682
(dp3683
g62
(dp3684
sg64
(lp3685
g57
(g66
g59
NtRp3686
(dp3687
g62
(dp3688
g70
I5
ssg71
Nsg64
(lp3689
g57
(g73
g59
NtRp3690
(dp3691
g62
(dp3692
sg71
g3686
sg64
(lp3693
g57
(g78
g59
NtRp3694
(dp3695
g62
(dp3696
g82
g83
ssg71
g3690
sg64
(lp3697
S'auth'
p3698
asbag57
(g78
g59
NtRp3699
(dp3700
g62
(dp3701
g89
g90
ssg71
g3690
sg64
(lp3702
S':'
asbag57
(g78
g59
NtRp3703
(dp3704
g62
(dp3705
sg71
g3690
sg64
(lp3706
g57
(g58
g59
NtRp3707
(dp3708
g62
(dp3709
g70
I5
ssg71
g3703
sg64
(lp3710
g57
(g66
g59
NtRp3711
(dp3712
g62
(dp3713
g70
I4
ssg71
Nsg64
(lp3714
g57
(g73
g59
NtRp3715
(dp3716
g62
(dp3717
sg71
g3711
sg64
(lp3718
g57
(g78
g59
NtRp3719
(dp3720
g62
(dp3721
g82
g83
ssg71
g3715
sg64
(lp3722
S'expiration'
p3723
asbag57
(g78
g59
NtRp3724
(dp3725
g62
(dp3726
g89
g90
ssg71
g3715
sg64
(lp3727
S':'
asbag57
(g78
g59
NtRp3728
(dp3729
g62
(dp3730
sg71
g3715
sg64
(lp3731
g57
(g58
g59
NtRp3732
(dp3733
g62
(dp3734
g70
I4
ssg71
g3728
sg64
(lp3735
S'3600'
p3736
asbasbasbag57
(g73
g59
NtRp3737
(dp3738
g62
(dp3739
sg71
g3711
sg64
(lp3740
g57
(g78
g59
NtRp3741
(dp3742
g62
(dp3743
g82
g83
ssg71
g3737
sg64
(lp3744
S'hmac_key'
p3745
asbag57
(g78
g59
NtRp3746
(dp3747
g62
(dp3748
g89
g90
ssg71
g3737
sg64
(lp3749
S':'
asbag57
(g78
g59
NtRp3750
(dp3751
g62
(dp3752
sg71
g3737
sg64
(lp3753
g57
(g58
g59
NtRp3754
(dp3755
g62
(dp3756
g70
I4
ssg71
g3750
sg64
(lp3757
S'0cfa3105-27e2-4747-89ff-ddb2990d43d0'
p3758
asbasbasbag57
(g73
g59
NtRp3759
(dp3760
g62
(dp3761
sg71
g3711
sg64
(lp3762
g57
(g78
g59
NtRp3763
(dp3764
g62
(dp3765
g82
g83
ssg71
g3759
sg64
(lp3766
S'last_visit'
p3767
asbag57
(g78
g59
NtRp3768
(dp3769
g62
(dp3770
g89
g90
ssg71
g3759
sg64
(lp3771
S':'
asbag57
(g78
g59
NtRp3772
(dp3773
g62
(dp3774
sg71
g3759
sg64
(lp3775
g57
(g58
g59
NtRp3776
(dp3777
g62
(dp3778
g70
I4
ssg71
g3772
sg64
(lp3779
S'datetime.datetime(2013, 2, 6, 0, 25, 14, 293591)'
p3780
asbasbasbag57
(g73
g59
NtRp3781
(dp3782
g62
(dp3783
sg71
g3711
sg64
(lp3784
g57
(g78
g59
NtRp3785
(dp3786
g62
(dp3787
g82
g83
ssg71
g3781
sg64
(lp3788
S'remember'
p3789
asbag57
(g78
g59
NtRp3790
(dp3791
g62
(dp3792
g89
g90
ssg71
g3781
sg64
(lp3793
S':'
asbag57
(g78
g59
NtRp3794
(dp3795
g62
(dp3796
sg71
g3781
sg64
(lp3797
g57
(g58
g59
NtRp3798
(dp3799
g62
(dp3800
g70
I4
ssg71
g3794
sg64
(lp3801
g100
asbasbasbag57
(g73
g59
NtRp3802
(dp3803
g62
(dp3804
sg71
g3711
sg64
(lp3805
g57
(g78
g59
NtRp3806
(dp3807
g62
(dp3808
g82
g83
ssg71
g3802
sg64
(lp3809
S'user'
p3810
asbag57
(g78
g59
NtRp3811
(dp3812
g62
(dp3813
g89
g90
ssg71
g3802
sg64
(lp3814
S':'
asbag57
(g78
g59
NtRp3815
(dp3816
g62
(dp3817
sg71
g3802
sg64
(lp3818
g57
(g58
g59
NtRp3819
(dp3820
g62
(dp3821
g70
I4
ssg71
g3815
sg64
(lp3822
g57
(g66
g59
NtRp3823
(dp3824
g62
(dp3825
g70
I3
ssg71
Nsg64
(lp3826
g57
(g73
g59
NtRp3827
(dp3828
g62
(dp3829
sg71
g3823
sg64
(lp3830
g57
(g78
g59
NtRp3831
(dp3832
g62
(dp3833
g82
g83
ssg71
g3827
sg64
(lp3834
S'email'
p3835
asbag57
(g78
g59
NtRp3836
(dp3837
g62
(dp3838
g89
g90
ssg71
g3827
sg64
(lp3839
S':'
asbag57
(g78
g59
NtRp3840
(dp3841
g62
(dp3842
sg71
g3827
sg64
(lp3843
g57
(g58
g59
NtRp3844
(dp3845
g62
(dp3846
g70
I3
ssg71
g3840
sg64
(lp3847
S'Admin1@ucm.es'
p3848
asbasbasbag57
(g73
g59
NtRp3849
(dp3850
g62
(dp3851
sg71
g3823
sg64
(lp3852
g57
(g78
g59
NtRp3853
(dp3854
g62
(dp3855
g82
g83
ssg71
g3849
sg64
(lp3856
S'first_name'
p3857
asbag57
(g78
g59
NtRp3858
(dp3859
g62
(dp3860
g89
g90
ssg71
g3849
sg64
(lp3861
S':'
asbag57
(g78
g59
NtRp3862
(dp3863
g62
(dp3864
sg71
g3849
sg64
(lp3865
g57
(g58
g59
NtRp3866
(dp3867
g62
(dp3868
g70
I3
ssg71
g3862
sg64
(lp3869
S'Bertoldo'
p3870
asbasbasbag57
(g73
g59
NtRp3871
(dp3872
g62
(dp3873
sg71
g3823
sg64
(lp3874
g57
(g78
g59
NtRp3875
(dp3876
g62
(dp3877
g82
g83
ssg71
g3871
sg64
(lp3878
S'id'
p3879
asbag57
(g78
g59
NtRp3880
(dp3881
g62
(dp3882
g89
g90
ssg71
g3871
sg64
(lp3883
S':'
asbag57
(g78
g59
NtRp3884
(dp3885
g62
(dp3886
sg71
g3871
sg64
(lp3887
g57
(g58
g59
NtRp3888
(dp3889
g62
(dp3890
g70
I3
ssg71
g3884
sg64
(lp3891
S'87'
p3892
asbasbasbag57
(g73
g59
NtRp3893
(dp3894
g62
(dp3895
sg71
g3823
sg64
(lp3896
g57
(g78
g59
NtRp3897
(dp3898
g62
(dp3899
g82
g83
ssg71
g3893
sg64
(lp3900
S'last_name'
p3901
asbag57
(g78
g59
NtRp3902
(dp3903
g62
(dp3904
g89
g90
ssg71
g3893
sg64
(lp3905
S':'
asbag57
(g78
g59
NtRp3906
(dp3907
g62
(dp3908
sg71
g3893
sg64
(lp3909
g57
(g58
g59
NtRp3910
(dp3911
g62
(dp3912
g70
I3
ssg71
g3906
sg64
(lp3913
S'Pedralbes'
p3914
asbasbasbag57
(g73
g59
NtRp3915
(dp3916
g62
(dp3917
sg71
g3823
sg64
(lp3918
g57
(g78
g59
NtRp3919
(dp3920
g62
(dp3921
g82
g83
ssg71
g3915
sg64
(lp3922
S'registration_id'
p3923
asbag57
(g78
g59
NtRp3924
(dp3925
g62
(dp3926
g89
g90
ssg71
g3915
sg64
(lp3927
S':'
asbag57
(g78
g59
NtRp3928
(dp3929
g62
(dp3930
sg71
g3915
sg64
(lp3931
g57
(g58
g59
NtRp3932
(dp3933
g62
(dp3934
g70
I3
ssg71
g3928
sg64
(lp3935
S''
asbasbasbag57
(g73
g59
NtRp3936
(dp3937
g62
(dp3938
sg71
g3823
sg64
(lp3939
g57
(g78
g59
NtRp3940
(dp3941
g62
(dp3942
g82
g83
ssg71
g3936
sg64
(lp3943
S'registration_key'
p3944
asbag57
(g78
g59
NtRp3945
(dp3946
g62
(dp3947
g89
g90
ssg71
g3936
sg64
(lp3948
S':'
asbag57
(g78
g59
NtRp3949
(dp3950
g62
(dp3951
sg71
g3936
sg64
(lp3952
g57
(g58
g59
NtRp3953
(dp3954
g62
(dp3955
g70
I3
ssg71
g3949
sg64
(lp3956
S''
asbasbasbag57
(g73
g59
NtRp3957
(dp3958
g62
(dp3959
sg71
g3823
sg64
(lp3960
g57
(g78
g59
NtRp3961
(dp3962
g62
(dp3963
g82
g83
ssg71
g3957
sg64
(lp3964
S'reset_password_key'
p3965
asbag57
(g78
g59
NtRp3966
(dp3967
g62
(dp3968
g89
g90
ssg71
g3957
sg64
(lp3969
S':'
asbag57
(g78
g59
NtRp3970
(dp3971
g62
(dp3972
sg71
g3957
sg64
(lp3973
g57
(g58
g59
NtRp3974
(dp3975
g62
(dp3976
g70
I3
ssg71
g3970
sg64
(lp3977
S''
asbasbasbasbasbasbasbag57
(g73
g59
NtRp3978
(dp3979
g62
(dp3980
sg71
g3711
sg64
(lp3981
g57
(g78
g59
NtRp3982
(dp3983
g62
(dp3984
g82
g83
ssg71
g3978
sg64
(lp3985
S'user_groups'
p3986
asbag57
(g78
g59
NtRp3987
(dp3988
g62
(dp3989
g89
g90
ssg71
g3978
sg64
(lp3990
S':'
asbag57
(g78
g59
NtRp3991
(dp3992
g62
(dp3993
sg71
g3978
sg64
(lp3994
g57
(g58
g59
NtRp3995
(dp3996
g62
(dp3997
g70
I4
ssg71
g3991
sg64
(lp3998
g57
(g66
g59
NtRp3999
(dp4000
g62
(dp4001
g70
I3
ssg71
Nsg64
(lp4002
g57
(g73
g59
NtRp4003
(dp4004
g62
(dp4005
sg71
g3999
sg64
(lp4006
g57
(g78
g59
NtRp4007
(dp4008
g62
(dp4009
g82
g83
ssg71
g4003
sg64
(lp4010
S'100'
p4011
asbag57
(g78
g59
NtRp4012
(dp4013
g62
(dp4014
g89
g90
ssg71
g4003
sg64
(lp4015
S':'
asbag57
(g78
g59
NtRp4016
(dp4017
g62
(dp4018
sg71
g4003
sg64
(lp4019
g57
(g58
g59
NtRp4020
(dp4021
g62
(dp4022
g70
I3
ssg71
g4016
sg64
(lp4023
S'Administrator'
p4024
asbasbasbasbasbasbasbasbasbasbasbag57
(g73
g59
NtRp4025
(dp4026
g62
(dp4027
sg71
g3686
sg64
(lp4028
g57
(g78
g59
NtRp4029
(dp4030
g62
(dp4031
g82
g83
ssg71
g4025
sg64
(lp4032
S'flash'
p4033
asbag57
(g78
g59
NtRp4034
(dp4035
g62
(dp4036
g89
g90
ssg71
g4025
sg64
(lp4037
S':'
asbag57
(g78
g59
NtRp4038
(dp4039
g62
(dp4040
sg71
g4025
sg64
(lp4041
g57
(g58
g59
NtRp4042
(dp4043
g62
(dp4044
g70
I5
ssg71
g4038
sg64
(lp4045
S'None'
p4046
asbasbasbag57
(g73
g59
NtRp4047
(dp4048
g62
(dp4049
sg71
g3686
sg64
(lp4050
g57
(g78
g59
NtRp4051
(dp4052
g62
(dp4053
g82
g83
ssg71
g4047
sg64
(lp4054
S'last_orderby'
p4055
asbag57
(g78
g59
NtRp4056
(dp4057
g62
(dp4058
g89
g90
ssg71
g4047
sg64
(lp4059
S':'
asbag57
(g78
g59
NtRp4060
(dp4061
g62
(dp4062
sg71
g4047
sg64
(lp4063
g57
(g58
g59
NtRp4064
(dp4065
g62
(dp4066
g70
I5
ssg71
g4060
sg64
(lp4067
S'None'
p4068
asbasbasbag57
(g73
g59
NtRp4069
(dp4070
g62
(dp4071
sg71
g3686
sg64
(lp4072
g57
(g78
g59
NtRp4073
(dp4074
g62
(dp4075
g82
g83
ssg71
g4069
sg64
(lp4076
S'last_query'
p4077
asbag57
(g78
g59
NtRp4078
(dp4079
g62
(dp4080
g89
g90
ssg71
g4069
sg64
(lp4081
S':'
asbag57
(g78
g59
NtRp4082
(dp4083
g62
(dp4084
sg71
g4069
sg64
(lp4085
g57
(g58
g59
NtRp4086
(dp4087
g62
(dp4088
g70
I5
ssg71
g4082
sg64
(lp4089
S'userDB.auth_group.id>0'
p4090
asbasbasbasbasbsS'etype'
p4091
S"<type 'exceptions.AttributeError'>"
p4092
sS'date'
p4093
S'Wed Feb  6 00:31:34 2013'
p4094
sS'response'
p4095
g57
(g58
g59
NtRp4096
(dp4097
g62
(dp4098
sg64
(lp4099
g57
(g66
g59
NtRp4100
(dp4101
g62
(dp4102
g70
I5
ssg71
Nsg64
(lp4103
g57
(g73
g59
NtRp4104
(dp4105
g62
(dp4106
sg71
g4100
sg64
(lp4107
g57
(g78
g59
NtRp4108
(dp4109
g62
(dp4110
g82
g83
ssg71
g4104
sg64
(lp4111
g155
asbag57
(g78
g59
NtRp4112
(dp4113
g62
(dp4114
g89
g90
ssg71
g4104
sg64
(lp4115
S':'
asbag57
(g78
g59
NtRp4116
(dp4117
g62
(dp4118
sg71
g4104
sg64
(lp4119
g57
(g58
g59
NtRp4120
(dp4121
g62
(dp4122
g70
I5
ssg71
g4116
sg64
(lp4123
S'<cStringIO.StringO object at 0x7f23783c38b8>'
p4124
asbasbasbag57
(g73
g59
NtRp4125
(dp4126
g62
(dp4127
sg71
g4100
sg64
(lp4128
g57
(g78
g59
NtRp4129
(dp4130
g62
(dp4131
g82
g83
ssg71
g4125
sg64
(lp4132
g243
asbag57
(g78
g59
NtRp4133
(dp4134
g62
(dp4135
g89
g90
ssg71
g4125
sg64
(lp4136
S':'
asbag57
(g78
g59
NtRp4137
(dp4138
g62
(dp4139
sg71
g4125
sg64
(lp4140
g57
(g58
g59
NtRp4141
(dp4142
g62
(dp4143
g70
I5
ssg71
g4137
sg64
(lp4144
g57
(g66
g59
NtRp4145
(dp4146
g62
(dp4147
g70
I4
ssg71
Nsg64
(lp4148
g57
(g73
g59
NtRp4149
(dp4150
g62
(dp4151
sg71
g4145
sg64
(lp4152
g57
(g78
g59
NtRp4153
(dp4154
g62
(dp4155
g82
g83
ssg71
g4149
sg64
(lp4156
S'session_id_cygnuscloud'
p4157
asbag57
(g78
g59
NtRp4158
(dp4159
g62
(dp4160
g89
g90
ssg71
g4149
sg64
(lp4161
S':'
asbag57
(g78
g59
NtRp4162
(dp4163
g62
(dp4164
sg71
g4149
sg64
(lp4165
g57
(g58
g59
NtRp4166
(dp4167
g62
(dp4168
g70
I4
ssg71
g4162
sg64
(lp4169
g475
ag57
(g66
g59
NtRp4170
(dp4171
g62
(dp4172
g70
I3
ssg71
Nsg64
(lp4173
g57
(g73
g59
NtRp4174
(dp4175
g62
(dp4176
sg71
g4170
sg64
(lp4177
g57
(g78
g59
NtRp4178
(dp4179
g62
(dp4180
g82
g83
ssg71
g4174
sg64
(lp4181
g294
asbag57
(g78
g59
NtRp4182
(dp4183
g62
(dp4184
g89
g90
ssg71
g4174
sg64
(lp4185
S':'
asbag57
(g78
g59
NtRp4186
(dp4187
g62
(dp4188
sg71
g4174
sg64
(lp4189
g57
(g58
g59
NtRp4190
(dp4191
g62
(dp4192
g70
I3
ssg71
g4186
sg64
(lp4193
S''
asbasbasbag57
(g73
g59
NtRp4194
(dp4195
g62
(dp4196
sg71
g4170
sg64
(lp4197
g57
(g78
g59
NtRp4198
(dp4199
g62
(dp4200
g82
g83
ssg71
g4194
sg64
(lp4201
g315
asbag57
(g78
g59
NtRp4202
(dp4203
g62
(dp4204
g89
g90
ssg71
g4194
sg64
(lp4205
S':'
asbag57
(g78
g59
NtRp4206
(dp4207
g62
(dp4208
sg71
g4194
sg64
(lp4209
g57
(g58
g59
NtRp4210
(dp4211
g62
(dp4212
g70
I3
ssg71
g4206
sg64
(lp4213
S''
asbasbasbag57
(g73
g59
NtRp4214
(dp4215
g62
(dp4216
sg71
g4170
sg64
(lp4217
g57
(g78
g59
NtRp4218
(dp4219
g62
(dp4220
g82
g83
ssg71
g4214
sg64
(lp4221
g336
asbag57
(g78
g59
NtRp4222
(dp4223
g62
(dp4224
g89
g90
ssg71
g4214
sg64
(lp4225
S':'
asbag57
(g78
g59
NtRp4226
(dp4227
g62
(dp4228
sg71
g4214
sg64
(lp4229
g57
(g58
g59
NtRp4230
(dp4231
g62
(dp4232
g70
I3
ssg71
g4226
sg64
(lp4233
S''
asbasbasbag57
(g73
g59
NtRp4234
(dp4235
g62
(dp4236
sg71
g4170
sg64
(lp4237
g57
(g78
g59
NtRp4238
(dp4239
g62
(dp4240
g82
g83
ssg71
g4234
sg64
(lp4241
g357
asbag57
(g78
g59
NtRp4242
(dp4243
g62
(dp4244
g89
g90
ssg71
g4234
sg64
(lp4245
S':'
asbag57
(g78
g59
NtRp4246
(dp4247
g62
(dp4248
sg71
g4234
sg64
(lp4249
g57
(g58
g59
NtRp4250
(dp4251
g62
(dp4252
g70
I3
ssg71
g4246
sg64
(lp4253
S''
asbasbasbag57
(g73
g59
NtRp4254
(dp4255
g62
(dp4256
sg71
g4170
sg64
(lp4257
g57
(g78
g59
NtRp4258
(dp4259
g62
(dp4260
g82
g83
ssg71
g4254
sg64
(lp4261
g378
asbag57
(g78
g59
NtRp4262
(dp4263
g62
(dp4264
g89
g90
ssg71
g4254
sg64
(lp4265
S':'
asbag57
(g78
g59
NtRp4266
(dp4267
g62
(dp4268
sg71
g4254
sg64
(lp4269
g57
(g58
g59
NtRp4270
(dp4271
g62
(dp4272
g70
I3
ssg71
g4266
sg64
(lp4273
S''
asbasbasbag57
(g73
g59
NtRp4274
(dp4275
g62
(dp4276
sg71
g4170
sg64
(lp4277
g57
(g78
g59
NtRp4278
(dp4279
g62
(dp4280
g82
g83
ssg71
g4274
sg64
(lp4281
g399
asbag57
(g78
g59
NtRp4282
(dp4283
g62
(dp4284
g89
g90
ssg71
g4274
sg64
(lp4285
S':'
asbag57
(g78
g59
NtRp4286
(dp4287
g62
(dp4288
sg71
g4274
sg64
(lp4289
g57
(g58
g59
NtRp4290
(dp4291
g62
(dp4292
g70
I3
ssg71
g4286
sg64
(lp4293
S'/'
asbasbasbag57
(g73
g59
NtRp4294
(dp4295
g62
(dp4296
sg71
g4170
sg64
(lp4297
g57
(g78
g59
NtRp4298
(dp4299
g62
(dp4300
g82
g83
ssg71
g4294
sg64
(lp4301
g420
asbag57
(g78
g59
NtRp4302
(dp4303
g62
(dp4304
g89
g90
ssg71
g4294
sg64
(lp4305
S':'
asbag57
(g78
g59
NtRp4306
(dp4307
g62
(dp4308
sg71
g4294
sg64
(lp4309
g57
(g58
g59
NtRp4310
(dp4311
g62
(dp4312
g70
I3
ssg71
g4306
sg64
(lp4313
S''
asbasbasbag57
(g73
g59
NtRp4314
(dp4315
g62
(dp4316
sg71
g4170
sg64
(lp4317
g57
(g78
g59
NtRp4318
(dp4319
g62
(dp4320
g82
g83
ssg71
g4314
sg64
(lp4321
g441
asbag57
(g78
g59
NtRp4322
(dp4323
g62
(dp4324
g89
g90
ssg71
g4314
sg64
(lp4325
S':'
asbag57
(g78
g59
NtRp4326
(dp4327
g62
(dp4328
sg71
g4314
sg64
(lp4329
g57
(g58
g59
NtRp4330
(dp4331
g62
(dp4332
g70
I3
ssg71
g4326
sg64
(lp4333
S''
asbasbasbasbasbasbasbasbasbasbasbag57
(g73
g59
NtRp4334
(dp4335
g62
(dp4336
sg71
g4100
sg64
(lp4337
g57
(g78
g59
NtRp4338
(dp4339
g62
(dp4340
g82
g83
ssg71
g4334
sg64
(lp4341
S'delimiters'
p4342
asbag57
(g78
g59
NtRp4343
(dp4344
g62
(dp4345
g89
g90
ssg71
g4334
sg64
(lp4346
S':'
asbag57
(g78
g59
NtRp4347
(dp4348
g62
(dp4349
sg71
g4334
sg64
(lp4350
g57
(g58
g59
NtRp4351
(dp4352
g62
(dp4353
g70
I5
ssg71
g4347
sg64
(lp4354
g57
(g66
g59
NtRp4355
(dp4356
g62
(dp4357
g70
I4
ssg71
Nsg64
(lp4358
g57
(g73
g59
NtRp4359
(dp4360
g62
(dp4361
sg71
g4355
sg64
(lp4362
g57
(g78
g59
NtRp4363
(dp4364
g62
(dp4365
sg71
g4359
sg64
(lp4366
g57
(g58
g59
NtRp4367
(dp4368
g62
(dp4369
g70
I4
ssg71
g4363
sg64
(lp4370
S'{{'
p4371
asbasbasbag57
(g73
g59
NtRp4372
(dp4373
g62
(dp4374
sg71
g4355
sg64
(lp4375
g57
(g78
g59
NtRp4376
(dp4377
g62
(dp4378
sg71
g4372
sg64
(lp4379
g57
(g58
g59
NtRp4380
(dp4381
g62
(dp4382
g70
I4
ssg71
g4376
sg64
(lp4383
S'}}'
p4384
asbasbasbasbasbasbasbag57
(g73
g59
NtRp4385
(dp4386
g62
(dp4387
sg71
g4100
sg64
(lp4388
g57
(g78
g59
NtRp4389
(dp4390
g62
(dp4391
g82
g83
ssg71
g4385
sg64
(lp4392
S'files'
p4393
asbag57
(g78
g59
NtRp4394
(dp4395
g62
(dp4396
g89
g90
ssg71
g4385
sg64
(lp4397
S':'
asbag57
(g78
g59
NtRp4398
(dp4399
g62
(dp4400
sg71
g4385
sg64
(lp4401
g57
(g58
g59
NtRp4402
(dp4403
g62
(dp4404
g70
I5
ssg71
g4398
sg64
(lp4405
g57
(g66
g59
NtRp4406
(dp4407
g62
(dp4408
g70
I4
ssg71
Nsg64
(lp4409
sbasbasbasbag57
(g73
g59
NtRp4410
(dp4411
g62
(dp4412
sg71
g4100
sg64
(lp4413
g57
(g78
g59
NtRp4414
(dp4415
g62
(dp4416
g82
g83
ssg71
g4410
sg64
(lp4417
S'flash'
p4418
asbag57
(g78
g59
NtRp4419
(dp4420
g62
(dp4421
g89
g90
ssg71
g4410
sg64
(lp4422
S':'
asbag57
(g78
g59
NtRp4423
(dp4424
g62
(dp4425
sg71
g4410
sg64
(lp4426
g57
(g58
g59
NtRp4427
(dp4428
g62
(dp4429
g70
I5
ssg71
g4423
sg64
(lp4430
S''
asbasbasbag57
(g73
g59
NtRp4431
(dp4432
g62
(dp4433
sg71
g4100
sg64
(lp4434
g57
(g78
g59
NtRp4435
(dp4436
g62
(dp4437
g82
g83
ssg71
g4431
sg64
(lp4438
S'generic_patterns'
p4439
asbag57
(g78
g59
NtRp4440
(dp4441
g62
(dp4442
g89
g90
ssg71
g4431
sg64
(lp4443
S':'
asbag57
(g78
g59
NtRp4444
(dp4445
g62
(dp4446
sg71
g4431
sg64
(lp4447
g57
(g58
g59
NtRp4448
(dp4449
g62
(dp4450
g70
I5
ssg71
g4444
sg64
(lp4451
g57
(g66
g59
NtRp4452
(dp4453
g62
(dp4454
g70
I4
ssg71
Nsg64
(lp4455
sbasbasbasbag57
(g73
g59
NtRp4456
(dp4457
g62
(dp4458
sg71
g4100
sg64
(lp4459
g57
(g78
g59
NtRp4460
(dp4461
g62
(dp4462
g82
g83
ssg71
g4456
sg64
(lp4463
S'headers'
p4464
asbag57
(g78
g59
NtRp4465
(dp4466
g62
(dp4467
g89
g90
ssg71
g4456
sg64
(lp4468
S':'
asbag57
(g78
g59
NtRp4469
(dp4470
g62
(dp4471
sg71
g4456
sg64
(lp4472
g57
(g58
g59
NtRp4473
(dp4474
g62
(dp4475
g70
I5
ssg71
g4469
sg64
(lp4476
g57
(g66
g59
NtRp4477
(dp4478
g62
(dp4479
g70
I4
ssg71
Nsg64
(lp4480
g57
(g73
g59
NtRp4481
(dp4482
g62
(dp4483
sg71
g4477
sg64
(lp4484
g57
(g78
g59
NtRp4485
(dp4486
g62
(dp4487
g82
g83
ssg71
g4481
sg64
(lp4488
S'X-Powered-By'
p4489
asbag57
(g78
g59
NtRp4490
(dp4491
g62
(dp4492
g89
g90
ssg71
g4481
sg64
(lp4493
S':'
asbag57
(g78
g59
NtRp4494
(dp4495
g62
(dp4496
sg71
g4481
sg64
(lp4497
g57
(g58
g59
NtRp4498
(dp4499
g62
(dp4500
g70
I4
ssg71
g4494
sg64
(lp4501
S'web2py'
p4502
asbasbasbasbasbasbasbag57
(g73
g59
NtRp4503
(dp4504
g62
(dp4505
sg71
g4100
sg64
(lp4506
g57
(g78
g59
NtRp4507
(dp4508
g62
(dp4509
g82
g83
ssg71
g4503
sg64
(lp4510
S'menu'
p4511
asbag57
(g78
g59
NtRp4512
(dp4513
g62
(dp4514
g89
g90
ssg71
g4503
sg64
(lp4515
S':'
asbag57
(g78
g59
NtRp4516
(dp4517
g62
(dp4518
sg71
g4503
sg64
(lp4519
g57
(g58
g59
NtRp4520
(dp4521
g62
(dp4522
g70
I5
ssg71
g4516
sg64
(lp4523
g57
(g66
g59
NtRp4524
(dp4525
g62
(dp4526
g70
I4
ssg71
Nsg64
(lp4527
sbasbasbasbag57
(g73
g59
NtRp4528
(dp4529
g62
(dp4530
sg71
g4100
sg64
(lp4531
g57
(g78
g59
NtRp4532
(dp4533
g62
(dp4534
g82
g83
ssg71
g4528
sg64
(lp4535
S'meta'
p4536
asbag57
(g78
g59
NtRp4537
(dp4538
g62
(dp4539
g89
g90
ssg71
g4528
sg64
(lp4540
S':'
asbag57
(g78
g59
NtRp4541
(dp4542
g62
(dp4543
sg71
g4528
sg64
(lp4544
g57
(g58
g59
NtRp4545
(dp4546
g62
(dp4547
g70
I5
ssg71
g4541
sg64
(lp4548
g57
(g66
g59
NtRp4549
(dp4550
g62
(dp4551
g70
I4
ssg71
Nsg64
(lp4552
sbasbasbasbag57
(g73
g59
NtRp4553
(dp4554
g62
(dp4555
sg71
g4100
sg64
(lp4556
g57
(g78
g59
NtRp4557
(dp4558
g62
(dp4559
g82
g83
ssg71
g4553
sg64
(lp4560
S'models_to_run'
p4561
asbag57
(g78
g59
NtRp4562
(dp4563
g62
(dp4564
g89
g90
ssg71
g4553
sg64
(lp4565
S':'
asbag57
(g78
g59
NtRp4566
(dp4567
g62
(dp4568
sg71
g4553
sg64
(lp4569
g57
(g58
g59
NtRp4570
(dp4571
g62
(dp4572
g70
I5
ssg71
g4566
sg64
(lp4573
g57
(g66
g59
NtRp4574
(dp4575
g62
(dp4576
g70
I4
ssg71
Nsg64
(lp4577
g57
(g73
g59
NtRp4578
(dp4579
g62
(dp4580
sg71
g4574
sg64
(lp4581
g57
(g78
g59
NtRp4582
(dp4583
g62
(dp4584
sg71
g4578
sg64
(lp4585
g57
(g58
g59
NtRp4586
(dp4587
g62
(dp4588
g70
I4
ssg71
g4582
sg64
(lp4589
S'^\\w+\\.py$'
p4590
asbasbasbag57
(g73
g59
NtRp4591
(dp4592
g62
(dp4593
sg71
g4574
sg64
(lp4594
g57
(g78
g59
NtRp4595
(dp4596
g62
(dp4597
sg71
g4591
sg64
(lp4598
g57
(g58
g59
NtRp4599
(dp4600
g62
(dp4601
g70
I4
ssg71
g4595
sg64
(lp4602
S'^main/\\w+\\.py$'
p4603
asbasbasbag57
(g73
g59
NtRp4604
(dp4605
g62
(dp4606
sg71
g4574
sg64
(lp4607
g57
(g78
g59
NtRp4608
(dp4609
g62
(dp4610
sg71
g4604
sg64
(lp4611
g57
(g58
g59
NtRp4612
(dp4613
g62
(dp4614
g70
I4
ssg71
g4608
sg64
(lp4615
S'^main/login/\\w+\\.py$'
p4616
asbasbasbasbasbasbasbag57
(g73
g59
NtRp4617
(dp4618
g62
(dp4619
sg71
g4100
sg64
(lp4620
g57
(g78
g59
NtRp4621
(dp4622
g62
(dp4623
g82
g83
ssg71
g4617
sg64
(lp4624
S'postprocessing'
p4625
asbag57
(g78
g59
NtRp4626
(dp4627
g62
(dp4628
g89
g90
ssg71
g4617
sg64
(lp4629
S':'
asbag57
(g78
g59
NtRp4630
(dp4631
g62
(dp4632
sg71
g4617
sg64
(lp4633
g57
(g58
g59
NtRp4634
(dp4635
g62
(dp4636
g70
I5
ssg71
g4630
sg64
(lp4637
g57
(g66
g59
NtRp4638
(dp4639
g62
(dp4640
g70
I4
ssg71
Nsg64
(lp4641
sbasbasbasbag57
(g73
g59
NtRp4642
(dp4643
g62
(dp4644
sg71
g4100
sg64
(lp4645
g57
(g78
g59
NtRp4646
(dp4647
g62
(dp4648
g82
g83
ssg71
g4642
sg64
(lp4649
S'session_cookie_expires'
p4650
asbag57
(g78
g59
NtRp4651
(dp4652
g62
(dp4653
g89
g90
ssg71
g4642
sg64
(lp4654
S':'
asbag57
(g78
g59
NtRp4655
(dp4656
g62
(dp4657
sg71
g4642
sg64
(lp4658
g57
(g58
g59
NtRp4659
(dp4660
g62
(dp4661
g70
I5
ssg71
g4655
sg64
(lp4662
S'None'
p4663
asbasbasbag57
(g73
g59
NtRp4664
(dp4665
g62
(dp4666
sg71
g4100
sg64
(lp4667
g57
(g78
g59
NtRp4668
(dp4669
g62
(dp4670
g82
g83
ssg71
g4664
sg64
(lp4671
S'session_data_name'
p4672
asbag57
(g78
g59
NtRp4673
(dp4674
g62
(dp4675
g89
g90
ssg71
g4664
sg64
(lp4676
S':'
asbag57
(g78
g59
NtRp4677
(dp4678
g62
(dp4679
sg71
g4664
sg64
(lp4680
g57
(g58
g59
NtRp4681
(dp4682
g62
(dp4683
g70
I5
ssg71
g4677
sg64
(lp4684
S'session_data_cygnuscloud'
p4685
asbasbasbag57
(g73
g59
NtRp4686
(dp4687
g62
(dp4688
sg71
g4100
sg64
(lp4689
g57
(g78
g59
NtRp4690
(dp4691
g62
(dp4692
g82
g83
ssg71
g4686
sg64
(lp4693
S'session_file'
p4694
asbag57
(g78
g59
NtRp4695
(dp4696
g62
(dp4697
g89
g90
ssg71
g4686
sg64
(lp4698
S':'
asbag57
(g78
g59
NtRp4699
(dp4700
g62
(dp4701
sg71
g4686
sg64
(lp4702
g57
(g58
g59
NtRp4703
(dp4704
g62
(dp4705
g70
I5
ssg71
g4699
sg64
(lp4706
S"<open file '/home/adrian/web2py/applications/CygnusCloud/sessions/127.0.0.1-791acaf2-7386-46dc-b011-4810dc00037c', mode 'rb+' at 0x7f23783e3420>"
p4707
asbasbasbag57
(g73
g59
NtRp4708
(dp4709
g62
(dp4710
sg71
g4100
sg64
(lp4711
g57
(g78
g59
NtRp4712
(dp4713
g62
(dp4714
g82
g83
ssg71
g4708
sg64
(lp4715
S'session_filename'
p4716
asbag57
(g78
g59
NtRp4717
(dp4718
g62
(dp4719
g89
g90
ssg71
g4708
sg64
(lp4720
S':'
asbag57
(g78
g59
NtRp4721
(dp4722
g62
(dp4723
sg71
g4708
sg64
(lp4724
g57
(g58
g59
NtRp4725
(dp4726
g62
(dp4727
g70
I5
ssg71
g4721
sg64
(lp4728
S'/home/adrian/web2py/applications/CygnusCloud/sessions/127.0.0.1-791acaf2-7386-46dc-b011-4810dc00037c'
p4729
asbasbasbag57
(g73
g59
NtRp4730
(dp4731
g62
(dp4732
sg71
g4100
sg64
(lp4733
g57
(g78
g59
NtRp4734
(dp4735
g62
(dp4736
g82
g83
ssg71
g4730
sg64
(lp4737
S'session_id'
p4738
asbag57
(g78
g59
NtRp4739
(dp4740
g62
(dp4741
g89
g90
ssg71
g4730
sg64
(lp4742
S':'
asbag57
(g78
g59
NtRp4743
(dp4744
g62
(dp4745
sg71
g4730
sg64
(lp4746
g57
(g58
g59
NtRp4747
(dp4748
g62
(dp4749
g70
I5
ssg71
g4743
sg64
(lp4750
g475
asbasbasbag57
(g73
g59
NtRp4751
(dp4752
g62
(dp4753
sg71
g4100
sg64
(lp4754
g57
(g78
g59
NtRp4755
(dp4756
g62
(dp4757
g82
g83
ssg71
g4751
sg64
(lp4758
S'session_id_name'
p4759
asbag57
(g78
g59
NtRp4760
(dp4761
g62
(dp4762
g89
g90
ssg71
g4751
sg64
(lp4763
S':'
asbag57
(g78
g59
NtRp4764
(dp4765
g62
(dp4766
sg71
g4751
sg64
(lp4767
g57
(g58
g59
NtRp4768
(dp4769
g62
(dp4770
g70
I5
ssg71
g4764
sg64
(lp4771
g4157
asbasbasbag57
(g73
g59
NtRp4772
(dp4773
g62
(dp4774
sg71
g4100
sg64
(lp4775
g57
(g78
g59
NtRp4776
(dp4777
g62
(dp4778
g82
g83
ssg71
g4772
sg64
(lp4779
S'session_locked'
p4780
asbag57
(g78
g59
NtRp4781
(dp4782
g62
(dp4783
g89
g90
ssg71
g4772
sg64
(lp4784
S':'
asbag57
(g78
g59
NtRp4785
(dp4786
g62
(dp4787
sg71
g4772
sg64
(lp4788
g57
(g58
g59
NtRp4789
(dp4790
g62
(dp4791
g70
I5
ssg71
g4785
sg64
(lp4792
g2163
asbasbasbag57
(g73
g59
NtRp4793
(dp4794
g62
(dp4795
sg71
g4100
sg64
(lp4796
g57
(g78
g59
NtRp4797
(dp4798
g62
(dp4799
g82
g83
ssg71
g4793
sg64
(lp4800
S'session_new'
p4801
asbag57
(g78
g59
NtRp4802
(dp4803
g62
(dp4804
g89
g90
ssg71
g4793
sg64
(lp4805
S':'
asbag57
(g78
g59
NtRp4806
(dp4807
g62
(dp4808
sg71
g4793
sg64
(lp4809
g57
(g58
g59
NtRp4810
(dp4811
g62
(dp4812
g70
I5
ssg71
g4806
sg64
(lp4813
g100
asbasbasbag57
(g73
g59
NtRp4814
(dp4815
g62
(dp4816
sg71
g4100
sg64
(lp4817
g57
(g78
g59
NtRp4818
(dp4819
g62
(dp4820
g82
g83
ssg71
g4814
sg64
(lp4821
S'session_storage_type'
p4822
asbag57
(g78
g59
NtRp4823
(dp4824
g62
(dp4825
g89
g90
ssg71
g4814
sg64
(lp4826
S':'
asbag57
(g78
g59
NtRp4827
(dp4828
g62
(dp4829
sg71
g4814
sg64
(lp4830
g57
(g58
g59
NtRp4831
(dp4832
g62
(dp4833
g70
I5
ssg71
g4827
sg64
(lp4834
g3615
asbasbasbag57
(g73
g59
NtRp4835
(dp4836
g62
(dp4837
sg71
g4100
sg64
(lp4838
g57
(g78
g59
NtRp4839
(dp4840
g62
(dp4841
g82
g83
ssg71
g4835
sg64
(lp4842
S'status'
p4843
asbag57
(g78
g59
NtRp4844
(dp4845
g62
(dp4846
g89
g90
ssg71
g4835
sg64
(lp4847
S':'
asbag57
(g78
g59
NtRp4848
(dp4849
g62
(dp4850
sg71
g4835
sg64
(lp4851
g57
(g58
g59
NtRp4852
(dp4853
g62
(dp4854
g70
I5
ssg71
g4848
sg64
(lp4855
S'200'
p4856
asbasbasbag57
(g73
g59
NtRp4857
(dp4858
g62
(dp4859
sg71
g4100
sg64
(lp4860
g57
(g78
g59
NtRp4861
(dp4862
g62
(dp4863
g82
g83
ssg71
g4857
sg64
(lp4864
S'view'
p4865
asbag57
(g78
g59
NtRp4866
(dp4867
g62
(dp4868
g89
g90
ssg71
g4857
sg64
(lp4869
S':'
asbag57
(g78
g59
NtRp4870
(dp4871
g62
(dp4872
sg71
g4857
sg64
(lp4873
g57
(g58
g59
NtRp4874
(dp4875
g62
(dp4876
g70
I5
ssg71
g4870
sg64
(lp4877
S'main/login.html'
p4878
asbasbasbasbasbsS'locals'
p4879
(dp4880
S'self'
p4881
S'<DAL uri="mysql://******:cygnuscloud2012@localhost/UseresDB">'
p4882
sS'key'
p4883
S"'auth_user'"
p4884
sssS'traceback'
p4885
S'Traceback (most recent call last):\n  File "/home/adrian/web2py/gluon/restricted.py", line 212, in restricted\n    exec ccode in environment\n  File "/home/adrian/web2py/applications/CygnusCloud/models/db.py", line 11, in <module>\n    userDB.auth_user.drop()\n  File "/home/adrian/web2py/gluon/dal.py", line 7255, in __getattr__\n    return ogetattr(self, key)\nAttributeError: \'DAL\' object has no attribute \'auth_user\'\n'
p4886
s.