(dp1
S'output'
p2
S"<type 'exceptions.SyntaxError'> invalid syntax (<string>, line 1)"
p3
sS'layer'
p4
S'/home/adrian/web2py/applications/CygnusCloud/controllers/administrator.py'
p5
sS'code'
p6
S'# coding: utf8\n\n\n@auth.requires_membership(\'Administrator\')\ndef runVM():\n    createAdressBar()\n    return dict()\n    \n@auth.requires_membership(\'Administrator\')\ndef servers():\n    createAdressBar()\n    if(request.args(0) == \'add_remove_servers\'):\n        form = FORM(T(\'Servidores\'),SELECT(\'server1\',\'server 2\'))\n        return dict(form = form)\n\n      \n@auth.requires_membership(\'Administrator\')\ndef users():  \n    createAdressBar()\n    if(request.args(0) == \'add\'):\n        #Creamos el primer formulario\n        form = FORM(HR(),H2(T(\'A\xc3\xb1adir un nuevo usuario\')),DIV( T(\'Nombre: \'),BR(),INPUT(_name = \'name\')),\n                DIV( T(\'Contrase\xc3\xb1a: \'),BR(),INPUT(_name =\'password\')),\n                DIV(T(\'Grupo: \'),BR(),SELECT(_name = \'group\',*[OPTION(row.role,_value = T(str(row.role))) \n                for row in userDB().select(userDB.auth_group.role)])),HR(),CENTER(INPUT(_type=\'submit\',_name = \'add\' ,_value=T(\'A\xc3\xb1adir Usuario\'))))                \n        \n        if form.accepts(request.vars,keepvalues=True) and form.vars.add:\n            if(form.vars.name != None) and (form.vars.name != "") and (form.vars.password != None) and (form.vars.password != ""):\n                #Si el email no esta repetido\n                if(userDB(userDB.auth_user.email == form.vars.name).count() == 0):\n                    #A\xc3\xb1adimos el nuevo usuario a la base de datos\n                    userId = userDB.auth_user.insert(email = form.vars.name,password = userDB.auth_user.password.validate(form.vars.password)[0])\n                    groupId = userDB(userDB.auth_group.role == form.vars.group).select(userDB.auth_group.id)[0]\n                    userDB.auth_membership.insert(group_id = groupId, user_id = userId)\n                    \n            #redireccinamos \n            redirect(URL(c=\'administrator\',f=\'users\',args = [\'add\'],vars = dict(usersFind=request.vars.usersFind) ))\n        #Devolvemos el formulario             \n        return dict(form = form)\n        \n    elif(request.args(0) == \'associate_subjects\'):\n        #creamos el primer formulario\n        form1 = createUserSearchForm(request.args(0))\n        #Creamos el segundo formulario\n        listUsers = request.vars.usersFind or []\n        #Comprobamos si se ha tomado como una lista\n        if(isinstance(listUsers,str)):\n            listUsers = []\n            listUsers.append(request.vars.usersFind)\n        #Creamos el segundo formulario    \n        form2 = FORM(H2(T(\'A\xc3\xb1adir asignatura\')),DIV(T(\'Usuario\'),BR(),SELECT(_name = \'usersFind\', *listUsers)),\n              DIV( T(\'C\xc3\xb3digo: \'),BR(),INPUT(_name = \'code\')),DIV( T(\'Grupo de clase: \'),BR(),\n              INPUT(_name =\'classGroup\')),INPUT(_type = \'submit\',_name = \'add\',_value = T(\'A\xc3\xb1adir\')),\n              INPUT(_type="submit",_name = \'remove\',_value=T("Eliminar")))\n             \n\n\n  \n        #Devolvemos el formulario             \n        return dict(form1 = form1,form2 = form2)\n        \n    elif(request.args(0) == \'remove\'):\n        #Creamos el formulario de busqueda\n        form1 = createUserSearchForm(request.args(0))\n        #Creamos el segundo formulario\n        listUsers = request.vars.usersFind or []\n        #Comprobamos si se ha tomado como una lista\n        if(isinstance(listUsers,str)):\n            listUsers = []\n            listUsers.append(request.vars.usersFind)\n        table = createUserTable(listUsers)\n        #Creamos el formulario\n        form2 = FORM(table,CENTER(INPUT(_type = \'submit\',_name = \'remove\',  _value = T(\'Eliminar seleccionado\'))))\n        \n        if form2.accepts(request.vars,keepvalues=True) and form2.vars.remove:\n            if(form2.vars.selection != ""):\n                #Extraemos el id del usuario\n                userId = userDB(userDB.auth_user.email == listUsers[int(form2.vars.selection)]).select()[0].id\n                #Borramos su referencia en la tabla relacional\n                userDB(userDB.auth_membership.user_id == userId).delete()\n                #Borramos el usuario\n                userDB(userDB.auth_user.id == userId).delete()        \n                #redireccinamos \n                listUsers.remove(listUsers[int(form2.vars.selection)])\n                redirect(URL(c=\'administrator\',f=\'users\',args = [\'remove\'],vars = dict(usersFind=listUsers) ))\n        \n        #Devolvemos los dos formularios\n        return dict(form1 = form1,form2 = form2)\n\n        \n@auth.requires_membership(\'Administrator\')\ndef subjects():\n    createAdressBar()\n    if(request.args(0) == \'add\'):              \n        #Creamos el primer formulario\n        form = FORM(HR(),H2(T(\'A\xc3\xb1adir un nueva asignatura\')),DIV( T(\'C\xc3\xb3digo: \'),BR(),INPUT(_name = \'cod\',_size = \'30px\')),\n                DIV( T(\'Nombre: \'),BR(),INPUT(_name =\'name\')),\n                DIV( T(\'A\xc3\xb1o: \'),BR(),INPUT(_name =\'year\')),\n                DIV( T(\'Curso: \'),BR(),INPUT(_name =\'curse\')),\n                DIV( T(\'Grupo de clase: \'),BR(),INPUT(_name =\'group\')),\n                HR(),CENTER(INPUT(_type=\'submit\',_name = \'add\' ,_value=T(\'A\xc3\xb1adir\'))))                \n        \n        if form.accepts(request.vars) and form.vars.add:\n            if(len(form.vars.cod) >= 4) and (len(form.vars.name) != 0) and (len(form.vars.year) == 4) and (len(form.vars.curse) == 1) and \\\n                (len(form.vars.group) == 1):\n                #Si los valores correspondientes son enteros\n                try:\n                    #Si no existe ya ese grupo\n                    if(userDB((userDB.ClassGroup.cod == form.vars.cod) & (userDB.ClassGroup.curseGroup == form.vars.group)).count() == 0):\n                        #Si no existe la asignatura, la creamos\n                        if(userDB(userDB.Subjects.code == form.vars.cod).count() == 0):\n                            userDB.Subjects.insert(code = int(form.vars.cod),name = form.vars.name)\n                        userDB.ClassGroup.insert(yearGroup = int(form.vars.year),cod = int(form.vars.cod),curse = int(form.vars.curse),\\\n                            curseGroup = form.vars.group)\n                except ValueError:\n                          response.flash = T(\'Formato de n\xc3\xbameros erroneo\')\n            #redireccinamos \n            redirect(URL(c=\'administrator\',f=\'subjects\',args = [\'add\'],vars = dict(usersFind=request.vars.usersFind) ))\n        #Devolvemos el formulario             \n        return dict(form = form)  \n         \n    if(request.args(0) == \'remove\'): \n        #Creamos el formulario de busqueda\n        form1 = createSubjectsSearchForm(request.args(0))\n        #Creamos el segundo formulario\n        listSubjects = request.vars.subjectsFind or []\n        #Comprobamos si se ha tomado como una lista\n        \n        if((listSubjects != []) and (not isinstance(listSubjects[0],list))):\n            listSubjects = [eval(request.vars.subjectsFind)]\n            #listSubjects.append(request.vars.subjectsFind)\n        print listSubjects\n        table = createSubjectTable(listSubjects)\n        #Creamos el formulario\n        form2 = FORM(table,CENTER(INPUT(_type = \'submit\',_name = \'remove\',  _value = T(\'Eliminar seleccionado\'))))\n        \n        if form2.accepts(request.vars,keepvalues=True) and form2.vars.remove:\n            if(form2.vars.selection != ""):\n                #Borramos su referencia en la tabla relacional\n                userDB((userDB.UserGroup.cod == listSubjects[int(form2.vars.selection)].cod) & \\\n                (userDB.UserGroup.curseGroup == listSubjects[int(form2.vars.selection)].curseGroup)).delete()\n                #Borramos el grupo\n                userDB((userDB.ClassGroup.cod == listSubjects[int(form2.vars.selection)].cod) & \\\n                (userDB.ClassGroup.curseGroup == listSubjects[int(form2.vars.selection)].curseGroup)).delete()        \n                #redireccinamos \n                listSubjects.remove(listSubjects[int(form2.vars.selection)])\n                redirect(URL(c=\'administrator\',f=\'subjects\',args = [\'remove\'],vars = {\'subjectsFind\':listSubjects} ))\n        \n        #Devolvemos los dos formularios\n        return dict(form1 = form1,form2 = form2)   \n          \n    \ndef createAdressBar():\n \n    response.menu=[[SPAN(T(\'Arrancar m\xc3\xa1quina\'), _class=\'highlighted\'), False,URL(\'runVM\'),[]],\n                    [SPAN(T(\'Administrar servidores\'), _class=\'highlighted\'), False, URL(f = \'servers\',args = [\'add_remove_servers\']),[\n                        (T(\'A\xc3\xb1adir/Eliminar\'),False,URL(f = \'servers\',args = [\'add_remove_servers\']))]],\n                    [SPAN(T(\'Administrar usuarios\'), _class=\'highlighted\'), False, URL(f = \'initUsers\',args = [\'remove\']),[\n                        (T(\'Eliminar\'),False,URL(f = \'users\',args = [\'remove\'])),\n                        (T(\'A\xc3\xb1adir\'),False,URL(f = \'users\',args = [\'add\'])),\n                        (T(\'Asociar asignaturas\'),False,URL(f = \'users\',args = [\'associate_subjects\']))]],\n                    [SPAN(T(\'Administrar asignaturas\'), _class=\'highlighted\'), False, URL(f = \'subjects\',args = [\'add\']),[\n                       (T(\'A\xc3\xb1adir\'),False,URL(f = \'subjects\',args = [\'add\'])),\n                       (T(\'Eliminar\'),False,URL(f = \'subjects\',args = [\'remove\'])),\n                       (T(\'Admistrar m\xc3\xa1quinas\'),False,URL(f = \'subjects\',args = [\'addVM\']))]]]\n                       \ndef createUserSearchForm(state):        \n    listTypes = []\n    listTypes.append(OPTION(\'all\',_value = T(\'All\')))\n    for row in userDB().select(userDB.auth_group.role):\n        listTypes.append(OPTION(row.role,_value = T(str(row.role)))) \n        \n    form1 = FORM(HR(),H2(T(\'Buscar un usuario\')),DIV( T(\'Nombre: \'),BR(),INPUT(_name = \'name\')),\n           DIV(T(\'Grupo: \'),BR(),SELECT(_name = \'group\', *listTypes)),\n           INPUT(_type=\'submit\',_name = \'search\',_value=T(\'Buscar\'),_onclick=[]),HR())    \n    \n    if form1.accepts(request.vars,keepvalues=True) and form1.vars.search:\n        query = ""\n        if(form1.vars.group != \'All\'):\n            query =  (userDB.auth_group.role  ==  form1.vars.group) & (userDB.auth_group.id == userDB.auth_membership.group_id) \n            query &= userDB.auth_membership.user_id  ==  userDB.auth_user.id\n                \n        rows = userDB(query).select(userDB.auth_user.email)\n\n        #Extraemos la lista de usuarios \n        listUsersAux = [] \n        for row in rows :                  \n            if(form1.vars.name != "") and (form1.vars.name != None):\n                    if (form1.vars.name in row.email):                    \n                        listUsersAux.append(row.email)\n            else:\n                    listUsersAux.append(row.email)\n        #redireccinamos con los resultados\n        redirect(URL(c=\'administrator\',f=\'users\',args = [state],vars = dict(usersFind=listUsersAux) ))\n     \n    return form1\n    \ndef createSubjectsSearchForm(state):        \n\n        \n    form1 = FORM(HR(),H2(T(\'Buscar una asignatura\')),DIV( T(\'Codigo: \'),BR(),INPUT(_name = \'cod\')),\n           DIV(T(\'Nombre: \'),BR(),INPUT(_name = \'name\')),\n           DIV(T(\'A\xc3\xb1o: \'),BR(),INPUT(_name = \'year\')),\n           DIV(T(\'Curso: \'),BR(),INPUT(_name = \'curse\')),\n           DIV(T(\'Grupo de clase: \'),BR(),INPUT(_name = \'group\')),\n           INPUT(_type=\'submit\',_name = \'search\',_value=T(\'Buscar\'),_onclick=[]),HR())    \n    \n    if form1.accepts(request.vars,keepvalues=True) and form1.vars.search:\n        query = ""\n        tag = False\n        if(len(form1.vars.year) != 0):\n            query =  userDB.ClassGroup.yearGroup  ==  form1.vars.year\n            tag = True\n        if(len(form1.vars.curse) != 0):\n            if(tag): \n                query &=  userDB.ClassGroup.curse  ==  form1.vars.curse  \n            else:\n                query =  userDB.ClassGroup.curse  ==  form1.vars.curse\n                tag = True      \n        if(len(form1.vars.group) != 0):\n            if(tag): \n                query &=  userDB.ClassGroup.curseGroup  ==  form1.vars.group  \n            else:\n                query =  userDB.ClassGroup.curseGroup  ==  form1.vars.group\n                tag = True   \n                \n        rows = userDB(query).select(userDB.ClassGroup.cod,userDB.ClassGroup.curseGroup)\n\n        #Extraemos la lista de usuarios \n        listSubjectsAux = [] \n        for row in rows :\n            add = True                  \n            if(form1.vars.name != ""):\n                    add = form1.vars.name in userDB(row.cod == userDB.Subjects.code).select()[0].name \n            if(form1.vars.cod != "") and (add):\n                    add = form1.vars.cod in row.cod                    \n            if(add):\n                    listSubjectsAux.append(row)\n        #redireccinamos con los resultados\n        redirect(URL(c=\'administrator\',f=\'subjects\',args = [state],vars = dict(subjectsFind=listSubjectsAux) ))\n     \n    return form1\n\n\ndef createUserTable(listUsers):\n    table = TABLE(_class=\'data\', _name=\'table\')\n    table.append(TR(TH(\'S.\'),TH(T(\'Nombre\')), TH(T(\'Contrase\xc3\xb1a\')), TH(T(\'Grupo\'))))\n    i = 0\n    for l in listUsers:\n        table.append(TR(\\\n        TD(INPUT(_type=\'radio\',_name = \'selection\',_value = i)),\\\n        TD(LABEL(l)),\\\n        TD(LABEL(userDB(userDB.auth_user.email==l).select(userDB.auth_user.password)[0].password)),\\\n        TD(LABEL(userDB((userDB.auth_user.email==l) & (userDB.auth_membership.user_id == userDB.auth_user.id) \\\n         & (userDB.auth_membership.group_id == userDB.auth_group.id)).select(userDB.auth_group.role)[0].role))))\n        i = i + 1\n    pass\n    return table\n    \ndef createSubjectTable(listSubjects):\n    table = TABLE(_class=\'data\', _name=\'table\')\n    table.append(TR(TH(\'S.\'),TH(T(\'Cod-Asignatura\'),TH(T(\'Grupo\')))))\n    i = 0\n    for l in listSubjects:\n        table.append(TR(\\\n        TD(INPUT(_type=\'radio\',_name = \'selection\',_value = i)),\\\n        TD(LABEL(l.cod + \'-\' + userDB(l.cod == userDB.Subjects.code).select()[0].name)),\n        TD(LABEL(l.curseGroup))))\n        i = i + 1\n    pass\n    return table\n\nresponse._vars=response._caller(subjects)\n'
p7
sS'snapshot'
p8
(dp9
S'exception'
p10
(dp11
S'__getslice__'
p12
S"<method-wrapper '__getslice__' of exceptions.SyntaxError object>"
p13
sS'text'
p14
S'"<Row {\'cod\': 106148, \'curseGroup\': \'a\'}>"'
p15
sS'__str__'
p16
S"<method-wrapper '__str__' of exceptions.SyntaxError object>"
p17
sS'__reduce__'
p18
S'<built-in method __reduce__ of exceptions.SyntaxError object>'
p19
sS'__dict__'
p20
S'{}'
p21
sS'__sizeof__'
p22
S'<built-in method __sizeof__ of exceptions.SyntaxError object>'
p23
sS'__init__'
p24
S"<method-wrapper '__init__' of exceptions.SyntaxError object>"
p25
sS'__setattr__'
p26
S"<method-wrapper '__setattr__' of exceptions.SyntaxError object>"
p27
sS'__reduce_ex__'
p28
S'<built-in method __reduce_ex__ of exceptions.SyntaxError object>'
p29
sS'__new__'
p30
S'<built-in method __new__ of type object>'
p31
sS'__format__'
p32
S'<built-in method __format__ of exceptions.SyntaxError object>'
p33
sS'__class__'
p34
S"<type 'exceptions.SyntaxError'>"
p35
sS'filename'
p36
S"'<string>'"
p37
sS'lineno'
p38
S'1'
sS'msg'
p39
S"'invalid syntax'"
p40
sS'__doc__'
p41
S"'Invalid syntax.'"
p42
sS'__getitem__'
p43
S"<method-wrapper '__getitem__' of exceptions.SyntaxError object>"
p44
sS'__setstate__'
p45
S'<built-in method __setstate__ of exceptions.SyntaxError object>'
p46
sS'__getattribute__'
p47
S"<method-wrapper '__getattribute__' of exceptions.SyntaxError object>"
p48
sS'print_file_and_line'
p49
S'None'
p50
sS'args'
p51
S'(\'invalid syntax\', (\'<string>\', 1, 1, "<Row {\'cod\': 106148, \'curseGroup\': \'a\'}>"))'
p52
sS'__subclasshook__'
p53
S'<built-in method __subclasshook__ of type object>'
p54
sS'offset'
p55
S'1'
sS'__unicode__'
p56
S'<built-in method __unicode__ of exceptions.SyntaxError object>'
p57
sS'__delattr__'
p58
S"<method-wrapper '__delattr__' of exceptions.SyntaxError object>"
p59
sS'__repr__'
p60
S"<method-wrapper '__repr__' of exceptions.SyntaxError object>"
p61
sS'__hash__'
p62
S"<method-wrapper '__hash__' of exceptions.SyntaxError object>"
p63
ssS'evalue'
p64
S'invalid syntax (<string>, line 1)'
p65
sS'request'
p66
ccopy_reg
_reconstructor
p67
(cgluon.html
BEAUTIFY
p68
c__builtin__
object
p69
NtRp70
(dp71
S'attributes'
p72
(dp73
sS'components'
p74
(lp75
g67
(cgluon.html
TABLE
p76
g69
NtRp77
(dp78
g72
(dp79
S'level'
p80
I5
ssS'parent'
p81
Nsg74
(lp82
g67
(cgluon.html
TR
p83
g69
NtRp84
(dp85
g72
(dp86
sg81
g77
sg74
(lp87
g67
(cgluon.html
TD
p88
g69
NtRp89
(dp90
g72
(dp91
S'_style'
p92
S'font-weight:bold;vertical-align:top'
p93
ssg81
g84
sg74
(lp94
S'ajax'
p95
asbag67
(g88
g69
NtRp96
(dp97
g72
(dp98
S'_valign'
p99
S'top'
p100
ssg81
g84
sg74
(lp101
S':'
asbag67
(g88
g69
NtRp102
(dp103
g72
(dp104
sg81
g84
sg74
(lp105
g67
(g68
g69
NtRp106
(dp107
g72
(dp108
g80
I5
ssg81
g102
sg74
(lp109
S'False'
p110
asbasbasbag67
(g83
g69
NtRp111
(dp112
g72
(dp113
sg81
g77
sg74
(lp114
g67
(g88
g69
NtRp115
(dp116
g72
(dp117
g92
g93
ssg81
g111
sg74
(lp118
S'application'
p119
asbag67
(g88
g69
NtRp120
(dp121
g72
(dp122
g99
g100
ssg81
g111
sg74
(lp123
S':'
asbag67
(g88
g69
NtRp124
(dp125
g72
(dp126
sg81
g111
sg74
(lp127
g67
(g68
g69
NtRp128
(dp129
g72
(dp130
g80
I5
ssg81
g124
sg74
(lp131
S'CygnusCloud'
p132
asbasbasbag67
(g83
g69
NtRp133
(dp134
g72
(dp135
sg81
g77
sg74
(lp136
g67
(g88
g69
NtRp137
(dp138
g72
(dp139
g92
g93
ssg81
g133
sg74
(lp140
g51
asbag67
(g88
g69
NtRp141
(dp142
g72
(dp143
g99
g100
ssg81
g133
sg74
(lp144
S':'
asbag67
(g88
g69
NtRp145
(dp146
g72
(dp147
sg81
g133
sg74
(lp148
g67
(g68
g69
NtRp149
(dp150
g72
(dp151
g80
I5
ssg81
g145
sg74
(lp152
g67
(g76
g69
NtRp153
(dp154
g72
(dp155
g80
I4
ssg81
Nsg74
(lp156
g67
(g83
g69
NtRp157
(dp158
g72
(dp159
sg81
g153
sg74
(lp160
g67
(g88
g69
NtRp161
(dp162
g72
(dp163
sg81
g157
sg74
(lp164
g67
(g68
g69
NtRp165
(dp166
g72
(dp167
g80
I4
ssg81
g161
sg74
(lp168
S'remove'
p169
asbasbasbasbasbasbasbag67
(g83
g69
NtRp170
(dp171
g72
(dp172
sg81
g77
sg74
(lp173
g67
(g88
g69
NtRp174
(dp175
g72
(dp176
g92
g93
ssg81
g170
sg74
(lp177
S'body'
p178
asbag67
(g88
g69
NtRp179
(dp180
g72
(dp181
g99
g100
ssg81
g170
sg74
(lp182
S':'
asbag67
(g88
g69
NtRp183
(dp184
g72
(dp185
sg81
g170
sg74
(lp186
g67
(g68
g69
NtRp187
(dp188
g72
(dp189
g80
I5
ssg81
g183
sg74
(lp190
S'<cStringIO.StringO object at 0x7f5f685d65e0>'
p191
asbasbasbag67
(g83
g69
NtRp192
(dp193
g72
(dp194
sg81
g77
sg74
(lp195
g67
(g88
g69
NtRp196
(dp197
g72
(dp198
g92
g93
ssg81
g192
sg74
(lp199
S'cid'
p200
asbag67
(g88
g69
NtRp201
(dp202
g72
(dp203
g99
g100
ssg81
g192
sg74
(lp204
S':'
asbag67
(g88
g69
NtRp205
(dp206
g72
(dp207
sg81
g192
sg74
(lp208
g67
(g68
g69
NtRp209
(dp210
g72
(dp211
g80
I5
ssg81
g205
sg74
(lp212
S'None'
p213
asbasbasbag67
(g83
g69
NtRp214
(dp215
g72
(dp216
sg81
g77
sg74
(lp217
g67
(g88
g69
NtRp218
(dp219
g72
(dp220
g92
g93
ssg81
g214
sg74
(lp221
S'client'
p222
asbag67
(g88
g69
NtRp223
(dp224
g72
(dp225
g99
g100
ssg81
g214
sg74
(lp226
S':'
asbag67
(g88
g69
NtRp227
(dp228
g72
(dp229
sg81
g214
sg74
(lp230
g67
(g68
g69
NtRp231
(dp232
g72
(dp233
g80
I5
ssg81
g227
sg74
(lp234
S'127.0.0.1'
p235
asbasbasbag67
(g83
g69
NtRp236
(dp237
g72
(dp238
sg81
g77
sg74
(lp239
g67
(g88
g69
NtRp240
(dp241
g72
(dp242
g92
g93
ssg81
g236
sg74
(lp243
S'controller'
p244
asbag67
(g88
g69
NtRp245
(dp246
g72
(dp247
g99
g100
ssg81
g236
sg74
(lp248
S':'
asbag67
(g88
g69
NtRp249
(dp250
g72
(dp251
sg81
g236
sg74
(lp252
g67
(g68
g69
NtRp253
(dp254
g72
(dp255
g80
I5
ssg81
g249
sg74
(lp256
S'administrator'
p257
asbasbasbag67
(g83
g69
NtRp258
(dp259
g72
(dp260
sg81
g77
sg74
(lp261
g67
(g88
g69
NtRp262
(dp263
g72
(dp264
g92
g93
ssg81
g258
sg74
(lp265
S'cookies'
p266
asbag67
(g88
g69
NtRp267
(dp268
g72
(dp269
g99
g100
ssg81
g258
sg74
(lp270
S':'
asbag67
(g88
g69
NtRp271
(dp272
g72
(dp273
sg81
g258
sg74
(lp274
g67
(g68
g69
NtRp275
(dp276
g72
(dp277
g80
I5
ssg81
g271
sg74
(lp278
g67
(g76
g69
NtRp279
(dp280
g72
(dp281
g80
I4
ssg81
Nsg74
(lp282
g67
(g83
g69
NtRp283
(dp284
g72
(dp285
sg81
g279
sg74
(lp286
g67
(g88
g69
NtRp287
(dp288
g72
(dp289
g92
g93
ssg81
g283
sg74
(lp290
S'kaej_unique_user'
p291
asbag67
(g88
g69
NtRp292
(dp293
g72
(dp294
g99
g100
ssg81
g283
sg74
(lp295
S':'
asbag67
(g88
g69
NtRp296
(dp297
g72
(dp298
sg81
g283
sg74
(lp299
g67
(g68
g69
NtRp300
(dp301
g72
(dp302
g80
I4
ssg81
g296
sg74
(lp303
S'1'
ag67
(g76
g69
NtRp304
(dp305
g72
(dp306
g80
I3
ssg81
Nsg74
(lp307
g67
(g83
g69
NtRp308
(dp309
g72
(dp310
sg81
g304
sg74
(lp311
g67
(g88
g69
NtRp312
(dp313
g72
(dp314
g92
g93
ssg81
g308
sg74
(lp315
S'comment'
p316
asbag67
(g88
g69
NtRp317
(dp318
g72
(dp319
g99
g100
ssg81
g308
sg74
(lp320
S':'
asbag67
(g88
g69
NtRp321
(dp322
g72
(dp323
sg81
g308
sg74
(lp324
g67
(g68
g69
NtRp325
(dp326
g72
(dp327
g80
I3
ssg81
g321
sg74
(lp328
S''
asbasbasbag67
(g83
g69
NtRp329
(dp330
g72
(dp331
sg81
g304
sg74
(lp332
g67
(g88
g69
NtRp333
(dp334
g72
(dp335
g92
g93
ssg81
g329
sg74
(lp336
S'domain'
p337
asbag67
(g88
g69
NtRp338
(dp339
g72
(dp340
g99
g100
ssg81
g329
sg74
(lp341
S':'
asbag67
(g88
g69
NtRp342
(dp343
g72
(dp344
sg81
g329
sg74
(lp345
g67
(g68
g69
NtRp346
(dp347
g72
(dp348
g80
I3
ssg81
g342
sg74
(lp349
S''
asbasbasbag67
(g83
g69
NtRp350
(dp351
g72
(dp352
sg81
g304
sg74
(lp353
g67
(g88
g69
NtRp354
(dp355
g72
(dp356
g92
g93
ssg81
g350
sg74
(lp357
S'expires'
p358
asbag67
(g88
g69
NtRp359
(dp360
g72
(dp361
g99
g100
ssg81
g350
sg74
(lp362
S':'
asbag67
(g88
g69
NtRp363
(dp364
g72
(dp365
sg81
g350
sg74
(lp366
g67
(g68
g69
NtRp367
(dp368
g72
(dp369
g80
I3
ssg81
g363
sg74
(lp370
S''
asbasbasbag67
(g83
g69
NtRp371
(dp372
g72
(dp373
sg81
g304
sg74
(lp374
g67
(g88
g69
NtRp375
(dp376
g72
(dp377
g92
g93
ssg81
g371
sg74
(lp378
S'httponly'
p379
asbag67
(g88
g69
NtRp380
(dp381
g72
(dp382
g99
g100
ssg81
g371
sg74
(lp383
S':'
asbag67
(g88
g69
NtRp384
(dp385
g72
(dp386
sg81
g371
sg74
(lp387
g67
(g68
g69
NtRp388
(dp389
g72
(dp390
g80
I3
ssg81
g384
sg74
(lp391
S''
asbasbasbag67
(g83
g69
NtRp392
(dp393
g72
(dp394
sg81
g304
sg74
(lp395
g67
(g88
g69
NtRp396
(dp397
g72
(dp398
g92
g93
ssg81
g392
sg74
(lp399
S'max-age'
p400
asbag67
(g88
g69
NtRp401
(dp402
g72
(dp403
g99
g100
ssg81
g392
sg74
(lp404
S':'
asbag67
(g88
g69
NtRp405
(dp406
g72
(dp407
sg81
g392
sg74
(lp408
g67
(g68
g69
NtRp409
(dp410
g72
(dp411
g80
I3
ssg81
g405
sg74
(lp412
S''
asbasbasbag67
(g83
g69
NtRp413
(dp414
g72
(dp415
sg81
g304
sg74
(lp416
g67
(g88
g69
NtRp417
(dp418
g72
(dp419
g92
g93
ssg81
g413
sg74
(lp420
S'path'
p421
asbag67
(g88
g69
NtRp422
(dp423
g72
(dp424
g99
g100
ssg81
g413
sg74
(lp425
S':'
asbag67
(g88
g69
NtRp426
(dp427
g72
(dp428
sg81
g413
sg74
(lp429
g67
(g68
g69
NtRp430
(dp431
g72
(dp432
g80
I3
ssg81
g426
sg74
(lp433
S''
asbasbasbag67
(g83
g69
NtRp434
(dp435
g72
(dp436
sg81
g304
sg74
(lp437
g67
(g88
g69
NtRp438
(dp439
g72
(dp440
g92
g93
ssg81
g434
sg74
(lp441
S'secure'
p442
asbag67
(g88
g69
NtRp443
(dp444
g72
(dp445
g99
g100
ssg81
g434
sg74
(lp446
S':'
asbag67
(g88
g69
NtRp447
(dp448
g72
(dp449
sg81
g434
sg74
(lp450
g67
(g68
g69
NtRp451
(dp452
g72
(dp453
g80
I3
ssg81
g447
sg74
(lp454
S''
asbasbasbag67
(g83
g69
NtRp455
(dp456
g72
(dp457
sg81
g304
sg74
(lp458
g67
(g88
g69
NtRp459
(dp460
g72
(dp461
g92
g93
ssg81
g455
sg74
(lp462
S'version'
p463
asbag67
(g88
g69
NtRp464
(dp465
g72
(dp466
g99
g100
ssg81
g455
sg74
(lp467
S':'
asbag67
(g88
g69
NtRp468
(dp469
g72
(dp470
sg81
g455
sg74
(lp471
g67
(g68
g69
NtRp472
(dp473
g72
(dp474
g80
I3
ssg81
g468
sg74
(lp475
S''
asbasbasbasbasbasbasbag67
(g83
g69
NtRp476
(dp477
g72
(dp478
sg81
g279
sg74
(lp479
g67
(g88
g69
NtRp480
(dp481
g72
(dp482
g92
g93
ssg81
g476
sg74
(lp483
S'session_id_admin'
p484
asbag67
(g88
g69
NtRp485
(dp486
g72
(dp487
g99
g100
ssg81
g476
sg74
(lp488
S':'
asbag67
(g88
g69
NtRp489
(dp490
g72
(dp491
sg81
g476
sg74
(lp492
g67
(g68
g69
NtRp493
(dp494
g72
(dp495
g80
I4
ssg81
g489
sg74
(lp496
S'127.0.0.1-1e4e694e-d5f8-4d88-a93e-f8017e171c5b'
p497
ag67
(g76
g69
NtRp498
(dp499
g72
(dp500
g80
I3
ssg81
Nsg74
(lp501
g67
(g83
g69
NtRp502
(dp503
g72
(dp504
sg81
g498
sg74
(lp505
g67
(g88
g69
NtRp506
(dp507
g72
(dp508
g92
g93
ssg81
g502
sg74
(lp509
g316
asbag67
(g88
g69
NtRp510
(dp511
g72
(dp512
g99
g100
ssg81
g502
sg74
(lp513
S':'
asbag67
(g88
g69
NtRp514
(dp515
g72
(dp516
sg81
g502
sg74
(lp517
g67
(g68
g69
NtRp518
(dp519
g72
(dp520
g80
I3
ssg81
g514
sg74
(lp521
S''
asbasbasbag67
(g83
g69
NtRp522
(dp523
g72
(dp524
sg81
g498
sg74
(lp525
g67
(g88
g69
NtRp526
(dp527
g72
(dp528
g92
g93
ssg81
g522
sg74
(lp529
g337
asbag67
(g88
g69
NtRp530
(dp531
g72
(dp532
g99
g100
ssg81
g522
sg74
(lp533
S':'
asbag67
(g88
g69
NtRp534
(dp535
g72
(dp536
sg81
g522
sg74
(lp537
g67
(g68
g69
NtRp538
(dp539
g72
(dp540
g80
I3
ssg81
g534
sg74
(lp541
S''
asbasbasbag67
(g83
g69
NtRp542
(dp543
g72
(dp544
sg81
g498
sg74
(lp545
g67
(g88
g69
NtRp546
(dp547
g72
(dp548
g92
g93
ssg81
g542
sg74
(lp549
g358
asbag67
(g88
g69
NtRp550
(dp551
g72
(dp552
g99
g100
ssg81
g542
sg74
(lp553
S':'
asbag67
(g88
g69
NtRp554
(dp555
g72
(dp556
sg81
g542
sg74
(lp557
g67
(g68
g69
NtRp558
(dp559
g72
(dp560
g80
I3
ssg81
g554
sg74
(lp561
S''
asbasbasbag67
(g83
g69
NtRp562
(dp563
g72
(dp564
sg81
g498
sg74
(lp565
g67
(g88
g69
NtRp566
(dp567
g72
(dp568
g92
g93
ssg81
g562
sg74
(lp569
g379
asbag67
(g88
g69
NtRp570
(dp571
g72
(dp572
g99
g100
ssg81
g562
sg74
(lp573
S':'
asbag67
(g88
g69
NtRp574
(dp575
g72
(dp576
sg81
g562
sg74
(lp577
g67
(g68
g69
NtRp578
(dp579
g72
(dp580
g80
I3
ssg81
g574
sg74
(lp581
S''
asbasbasbag67
(g83
g69
NtRp582
(dp583
g72
(dp584
sg81
g498
sg74
(lp585
g67
(g88
g69
NtRp586
(dp587
g72
(dp588
g92
g93
ssg81
g582
sg74
(lp589
g400
asbag67
(g88
g69
NtRp590
(dp591
g72
(dp592
g99
g100
ssg81
g582
sg74
(lp593
S':'
asbag67
(g88
g69
NtRp594
(dp595
g72
(dp596
sg81
g582
sg74
(lp597
g67
(g68
g69
NtRp598
(dp599
g72
(dp600
g80
I3
ssg81
g594
sg74
(lp601
S''
asbasbasbag67
(g83
g69
NtRp602
(dp603
g72
(dp604
sg81
g498
sg74
(lp605
g67
(g88
g69
NtRp606
(dp607
g72
(dp608
g92
g93
ssg81
g602
sg74
(lp609
g421
asbag67
(g88
g69
NtRp610
(dp611
g72
(dp612
g99
g100
ssg81
g602
sg74
(lp613
S':'
asbag67
(g88
g69
NtRp614
(dp615
g72
(dp616
sg81
g602
sg74
(lp617
g67
(g68
g69
NtRp618
(dp619
g72
(dp620
g80
I3
ssg81
g614
sg74
(lp621
S''
asbasbasbag67
(g83
g69
NtRp622
(dp623
g72
(dp624
sg81
g498
sg74
(lp625
g67
(g88
g69
NtRp626
(dp627
g72
(dp628
g92
g93
ssg81
g622
sg74
(lp629
g442
asbag67
(g88
g69
NtRp630
(dp631
g72
(dp632
g99
g100
ssg81
g622
sg74
(lp633
S':'
asbag67
(g88
g69
NtRp634
(dp635
g72
(dp636
sg81
g622
sg74
(lp637
g67
(g68
g69
NtRp638
(dp639
g72
(dp640
g80
I3
ssg81
g634
sg74
(lp641
S''
asbasbasbag67
(g83
g69
NtRp642
(dp643
g72
(dp644
sg81
g498
sg74
(lp645
g67
(g88
g69
NtRp646
(dp647
g72
(dp648
g92
g93
ssg81
g642
sg74
(lp649
g463
asbag67
(g88
g69
NtRp650
(dp651
g72
(dp652
g99
g100
ssg81
g642
sg74
(lp653
S':'
asbag67
(g88
g69
NtRp654
(dp655
g72
(dp656
sg81
g642
sg74
(lp657
g67
(g68
g69
NtRp658
(dp659
g72
(dp660
g80
I3
ssg81
g654
sg74
(lp661
S''
asbasbasbasbasbasbasbag67
(g83
g69
NtRp662
(dp663
g72
(dp664
sg81
g279
sg74
(lp665
g67
(g88
g69
NtRp666
(dp667
g72
(dp668
g92
g93
ssg81
g662
sg74
(lp669
S'session_id_cygnuscloud'
p670
asbag67
(g88
g69
NtRp671
(dp672
g72
(dp673
g99
g100
ssg81
g662
sg74
(lp674
S':'
asbag67
(g88
g69
NtRp675
(dp676
g72
(dp677
sg81
g662
sg74
(lp678
g67
(g68
g69
NtRp679
(dp680
g72
(dp681
g80
I4
ssg81
g675
sg74
(lp682
S'127.0.0.1-94b597fa-52b2-4481-ad0f-59b1fd37bc50'
p683
ag67
(g76
g69
NtRp684
(dp685
g72
(dp686
g80
I3
ssg81
Nsg74
(lp687
g67
(g83
g69
NtRp688
(dp689
g72
(dp690
sg81
g684
sg74
(lp691
g67
(g88
g69
NtRp692
(dp693
g72
(dp694
g92
g93
ssg81
g688
sg74
(lp695
g316
asbag67
(g88
g69
NtRp696
(dp697
g72
(dp698
g99
g100
ssg81
g688
sg74
(lp699
S':'
asbag67
(g88
g69
NtRp700
(dp701
g72
(dp702
sg81
g688
sg74
(lp703
g67
(g68
g69
NtRp704
(dp705
g72
(dp706
g80
I3
ssg81
g700
sg74
(lp707
S''
asbasbasbag67
(g83
g69
NtRp708
(dp709
g72
(dp710
sg81
g684
sg74
(lp711
g67
(g88
g69
NtRp712
(dp713
g72
(dp714
g92
g93
ssg81
g708
sg74
(lp715
g337
asbag67
(g88
g69
NtRp716
(dp717
g72
(dp718
g99
g100
ssg81
g708
sg74
(lp719
S':'
asbag67
(g88
g69
NtRp720
(dp721
g72
(dp722
sg81
g708
sg74
(lp723
g67
(g68
g69
NtRp724
(dp725
g72
(dp726
g80
I3
ssg81
g720
sg74
(lp727
S''
asbasbasbag67
(g83
g69
NtRp728
(dp729
g72
(dp730
sg81
g684
sg74
(lp731
g67
(g88
g69
NtRp732
(dp733
g72
(dp734
g92
g93
ssg81
g728
sg74
(lp735
g358
asbag67
(g88
g69
NtRp736
(dp737
g72
(dp738
g99
g100
ssg81
g728
sg74
(lp739
S':'
asbag67
(g88
g69
NtRp740
(dp741
g72
(dp742
sg81
g728
sg74
(lp743
g67
(g68
g69
NtRp744
(dp745
g72
(dp746
g80
I3
ssg81
g740
sg74
(lp747
S''
asbasbasbag67
(g83
g69
NtRp748
(dp749
g72
(dp750
sg81
g684
sg74
(lp751
g67
(g88
g69
NtRp752
(dp753
g72
(dp754
g92
g93
ssg81
g748
sg74
(lp755
g379
asbag67
(g88
g69
NtRp756
(dp757
g72
(dp758
g99
g100
ssg81
g748
sg74
(lp759
S':'
asbag67
(g88
g69
NtRp760
(dp761
g72
(dp762
sg81
g748
sg74
(lp763
g67
(g68
g69
NtRp764
(dp765
g72
(dp766
g80
I3
ssg81
g760
sg74
(lp767
S''
asbasbasbag67
(g83
g69
NtRp768
(dp769
g72
(dp770
sg81
g684
sg74
(lp771
g67
(g88
g69
NtRp772
(dp773
g72
(dp774
g92
g93
ssg81
g768
sg74
(lp775
g400
asbag67
(g88
g69
NtRp776
(dp777
g72
(dp778
g99
g100
ssg81
g768
sg74
(lp779
S':'
asbag67
(g88
g69
NtRp780
(dp781
g72
(dp782
sg81
g768
sg74
(lp783
g67
(g68
g69
NtRp784
(dp785
g72
(dp786
g80
I3
ssg81
g780
sg74
(lp787
S''
asbasbasbag67
(g83
g69
NtRp788
(dp789
g72
(dp790
sg81
g684
sg74
(lp791
g67
(g88
g69
NtRp792
(dp793
g72
(dp794
g92
g93
ssg81
g788
sg74
(lp795
g421
asbag67
(g88
g69
NtRp796
(dp797
g72
(dp798
g99
g100
ssg81
g788
sg74
(lp799
S':'
asbag67
(g88
g69
NtRp800
(dp801
g72
(dp802
sg81
g788
sg74
(lp803
g67
(g68
g69
NtRp804
(dp805
g72
(dp806
g80
I3
ssg81
g800
sg74
(lp807
S''
asbasbasbag67
(g83
g69
NtRp808
(dp809
g72
(dp810
sg81
g684
sg74
(lp811
g67
(g88
g69
NtRp812
(dp813
g72
(dp814
g92
g93
ssg81
g808
sg74
(lp815
g442
asbag67
(g88
g69
NtRp816
(dp817
g72
(dp818
g99
g100
ssg81
g808
sg74
(lp819
S':'
asbag67
(g88
g69
NtRp820
(dp821
g72
(dp822
sg81
g808
sg74
(lp823
g67
(g68
g69
NtRp824
(dp825
g72
(dp826
g80
I3
ssg81
g820
sg74
(lp827
S''
asbasbasbag67
(g83
g69
NtRp828
(dp829
g72
(dp830
sg81
g684
sg74
(lp831
g67
(g88
g69
NtRp832
(dp833
g72
(dp834
g92
g93
ssg81
g828
sg74
(lp835
g463
asbag67
(g88
g69
NtRp836
(dp837
g72
(dp838
g99
g100
ssg81
g828
sg74
(lp839
S':'
asbag67
(g88
g69
NtRp840
(dp841
g72
(dp842
sg81
g828
sg74
(lp843
g67
(g68
g69
NtRp844
(dp845
g72
(dp846
g80
I3
ssg81
g840
sg74
(lp847
S''
asbasbasbasbasbasbasbag67
(g83
g69
NtRp848
(dp849
g72
(dp850
sg81
g279
sg74
(lp851
g67
(g88
g69
NtRp852
(dp853
g72
(dp854
g92
g93
ssg81
g848
sg74
(lp855
S'session_id_welcome'
p856
asbag67
(g88
g69
NtRp857
(dp858
g72
(dp859
g99
g100
ssg81
g848
sg74
(lp860
S':'
asbag67
(g88
g69
NtRp861
(dp862
g72
(dp863
sg81
g848
sg74
(lp864
g67
(g68
g69
NtRp865
(dp866
g72
(dp867
g80
I4
ssg81
g861
sg74
(lp868
S'127.0.0.1-dc424825-7eb3-4a25-8c10-933ddf67e6c2'
p869
ag67
(g76
g69
NtRp870
(dp871
g72
(dp872
g80
I3
ssg81
Nsg74
(lp873
g67
(g83
g69
NtRp874
(dp875
g72
(dp876
sg81
g870
sg74
(lp877
g67
(g88
g69
NtRp878
(dp879
g72
(dp880
g92
g93
ssg81
g874
sg74
(lp881
g316
asbag67
(g88
g69
NtRp882
(dp883
g72
(dp884
g99
g100
ssg81
g874
sg74
(lp885
S':'
asbag67
(g88
g69
NtRp886
(dp887
g72
(dp888
sg81
g874
sg74
(lp889
g67
(g68
g69
NtRp890
(dp891
g72
(dp892
g80
I3
ssg81
g886
sg74
(lp893
S''
asbasbasbag67
(g83
g69
NtRp894
(dp895
g72
(dp896
sg81
g870
sg74
(lp897
g67
(g88
g69
NtRp898
(dp899
g72
(dp900
g92
g93
ssg81
g894
sg74
(lp901
g337
asbag67
(g88
g69
NtRp902
(dp903
g72
(dp904
g99
g100
ssg81
g894
sg74
(lp905
S':'
asbag67
(g88
g69
NtRp906
(dp907
g72
(dp908
sg81
g894
sg74
(lp909
g67
(g68
g69
NtRp910
(dp911
g72
(dp912
g80
I3
ssg81
g906
sg74
(lp913
S''
asbasbasbag67
(g83
g69
NtRp914
(dp915
g72
(dp916
sg81
g870
sg74
(lp917
g67
(g88
g69
NtRp918
(dp919
g72
(dp920
g92
g93
ssg81
g914
sg74
(lp921
g358
asbag67
(g88
g69
NtRp922
(dp923
g72
(dp924
g99
g100
ssg81
g914
sg74
(lp925
S':'
asbag67
(g88
g69
NtRp926
(dp927
g72
(dp928
sg81
g914
sg74
(lp929
g67
(g68
g69
NtRp930
(dp931
g72
(dp932
g80
I3
ssg81
g926
sg74
(lp933
S''
asbasbasbag67
(g83
g69
NtRp934
(dp935
g72
(dp936
sg81
g870
sg74
(lp937
g67
(g88
g69
NtRp938
(dp939
g72
(dp940
g92
g93
ssg81
g934
sg74
(lp941
g379
asbag67
(g88
g69
NtRp942
(dp943
g72
(dp944
g99
g100
ssg81
g934
sg74
(lp945
S':'
asbag67
(g88
g69
NtRp946
(dp947
g72
(dp948
sg81
g934
sg74
(lp949
g67
(g68
g69
NtRp950
(dp951
g72
(dp952
g80
I3
ssg81
g946
sg74
(lp953
S''
asbasbasbag67
(g83
g69
NtRp954
(dp955
g72
(dp956
sg81
g870
sg74
(lp957
g67
(g88
g69
NtRp958
(dp959
g72
(dp960
g92
g93
ssg81
g954
sg74
(lp961
g400
asbag67
(g88
g69
NtRp962
(dp963
g72
(dp964
g99
g100
ssg81
g954
sg74
(lp965
S':'
asbag67
(g88
g69
NtRp966
(dp967
g72
(dp968
sg81
g954
sg74
(lp969
g67
(g68
g69
NtRp970
(dp971
g72
(dp972
g80
I3
ssg81
g966
sg74
(lp973
S''
asbasbasbag67
(g83
g69
NtRp974
(dp975
g72
(dp976
sg81
g870
sg74
(lp977
g67
(g88
g69
NtRp978
(dp979
g72
(dp980
g92
g93
ssg81
g974
sg74
(lp981
g421
asbag67
(g88
g69
NtRp982
(dp983
g72
(dp984
g99
g100
ssg81
g974
sg74
(lp985
S':'
asbag67
(g88
g69
NtRp986
(dp987
g72
(dp988
sg81
g974
sg74
(lp989
g67
(g68
g69
NtRp990
(dp991
g72
(dp992
g80
I3
ssg81
g986
sg74
(lp993
S''
asbasbasbag67
(g83
g69
NtRp994
(dp995
g72
(dp996
sg81
g870
sg74
(lp997
g67
(g88
g69
NtRp998
(dp999
g72
(dp1000
g92
g93
ssg81
g994
sg74
(lp1001
g442
asbag67
(g88
g69
NtRp1002
(dp1003
g72
(dp1004
g99
g100
ssg81
g994
sg74
(lp1005
S':'
asbag67
(g88
g69
NtRp1006
(dp1007
g72
(dp1008
sg81
g994
sg74
(lp1009
g67
(g68
g69
NtRp1010
(dp1011
g72
(dp1012
g80
I3
ssg81
g1006
sg74
(lp1013
S''
asbasbasbag67
(g83
g69
NtRp1014
(dp1015
g72
(dp1016
sg81
g870
sg74
(lp1017
g67
(g88
g69
NtRp1018
(dp1019
g72
(dp1020
g92
g93
ssg81
g1014
sg74
(lp1021
g463
asbag67
(g88
g69
NtRp1022
(dp1023
g72
(dp1024
g99
g100
ssg81
g1014
sg74
(lp1025
S':'
asbag67
(g88
g69
NtRp1026
(dp1027
g72
(dp1028
sg81
g1014
sg74
(lp1029
g67
(g68
g69
NtRp1030
(dp1031
g72
(dp1032
g80
I3
ssg81
g1026
sg74
(lp1033
S''
asbasbasbasbasbasbasbasbasbasbasbag67
(g83
g69
NtRp1034
(dp1035
g72
(dp1036
sg81
g77
sg74
(lp1037
g67
(g88
g69
NtRp1038
(dp1039
g72
(dp1040
g92
g93
ssg81
g1034
sg74
(lp1041
S'env'
p1042
asbag67
(g88
g69
NtRp1043
(dp1044
g72
(dp1045
g99
g100
ssg81
g1034
sg74
(lp1046
S':'
asbag67
(g88
g69
NtRp1047
(dp1048
g72
(dp1049
sg81
g1034
sg74
(lp1050
g67
(g68
g69
NtRp1051
(dp1052
g72
(dp1053
g80
I5
ssg81
g1047
sg74
(lp1054
g67
(g76
g69
NtRp1055
(dp1056
g72
(dp1057
g80
I4
ssg81
Nsg74
(lp1058
g67
(g83
g69
NtRp1059
(dp1060
g72
(dp1061
sg81
g1055
sg74
(lp1062
g67
(g88
g69
NtRp1063
(dp1064
g72
(dp1065
g92
g93
ssg81
g1059
sg74
(lp1066
S'app_folders'
p1067
asbag67
(g88
g69
NtRp1068
(dp1069
g72
(dp1070
g99
g100
ssg81
g1059
sg74
(lp1071
S':'
asbag67
(g88
g69
NtRp1072
(dp1073
g72
(dp1074
sg81
g1059
sg74
(lp1075
g67
(g68
g69
NtRp1076
(dp1077
g72
(dp1078
g80
I4
ssg81
g1072
sg74
(lp1079
S"set(['/home/adrian/web2py/applications/admin/', '/home/adrian/web2py/applications/CygnusCloud/'])"
p1080
asbasbasbag67
(g83
g69
NtRp1081
(dp1082
g72
(dp1083
sg81
g1055
sg74
(lp1084
g67
(g88
g69
NtRp1085
(dp1086
g72
(dp1087
g92
g93
ssg81
g1081
sg74
(lp1088
S'applications_parent'
p1089
asbag67
(g88
g69
NtRp1090
(dp1091
g72
(dp1092
g99
g100
ssg81
g1081
sg74
(lp1093
S':'
asbag67
(g88
g69
NtRp1094
(dp1095
g72
(dp1096
sg81
g1081
sg74
(lp1097
g67
(g68
g69
NtRp1098
(dp1099
g72
(dp1100
g80
I4
ssg81
g1094
sg74
(lp1101
S'/home/adrian/web2py'
p1102
asbasbasbag67
(g83
g69
NtRp1103
(dp1104
g72
(dp1105
sg81
g1055
sg74
(lp1106
g67
(g88
g69
NtRp1107
(dp1108
g72
(dp1109
g92
g93
ssg81
g1103
sg74
(lp1110
S'cmd_args'
p1111
asbag67
(g88
g69
NtRp1112
(dp1113
g72
(dp1114
g99
g100
ssg81
g1103
sg74
(lp1115
S':'
asbag67
(g88
g69
NtRp1116
(dp1117
g72
(dp1118
sg81
g1103
sg74
(lp1119
g67
(g68
g69
NtRp1120
(dp1121
g72
(dp1122
g80
I4
ssg81
g1116
sg74
(lp1123
g67
(g76
g69
NtRp1124
(dp1125
g72
(dp1126
g80
I3
ssg81
Nsg74
(lp1127
sbasbasbasbag67
(g83
g69
NtRp1128
(dp1129
g72
(dp1130
sg81
g1055
sg74
(lp1131
g67
(g88
g69
NtRp1132
(dp1133
g72
(dp1134
g92
g93
ssg81
g1128
sg74
(lp1135
S'cmd_options'
p1136
asbag67
(g88
g69
NtRp1137
(dp1138
g72
(dp1139
g99
g100
ssg81
g1128
sg74
(lp1140
S':'
asbag67
(g88
g69
NtRp1141
(dp1142
g72
(dp1143
sg81
g1128
sg74
(lp1144
g67
(g68
g69
NtRp1145
(dp1146
g72
(dp1147
g80
I4
ssg81
g1141
sg74
(lp1148
S"<Values at 0x221dbd8: {'verbose': False, 'ip': '127.0.0.1', 'with_scheduler': False, 'ips': [], 'shutdown_timeout': 5, 'taskbar': False, 'port': 8000, 'maxthreads': None, 'softcron': False, 'server_name': 'adri-EasyNote', 'bpython': False, 'nogui': False, 'pid_filename': 'httpserver.pid', 'extcron': False, 'runcron': False, 'run_system_tests': False, 'test': None, 'folder': '/home/adrian/web2py', 'config': '', 'minthreads': None, 'winservice': '', 'shell': None, 'run': '', 'log_filename': 'httpserver.log', 'debuglevel': 30, 'args': [''], 'socket_timeout': 5, 'ssl_ca_certificate': None, 'scheduler': None, 'profiler_filename': None, 'ssl_private_key': '', 'scheduler_groups': None, 'password': 'cygnuscloud2012', 'request_queue_size': 5, 'ssl_certificate': '', 'cronjob': False, 'numthreads': None, 'quiet': False, 'interfaces': None, 'import_models': False, 'timeout': 10, 'plain': False, 'nobanner': False}>"
p1149
asbasbasbag67
(g83
g69
NtRp1150
(dp1151
g72
(dp1152
sg81
g1055
sg74
(lp1153
g67
(g88
g69
NtRp1154
(dp1155
g72
(dp1156
g92
g93
ssg81
g1150
sg74
(lp1157
S'db_sessions'
p1158
asbag67
(g88
g69
NtRp1159
(dp1160
g72
(dp1161
g99
g100
ssg81
g1150
sg74
(lp1162
S':'
asbag67
(g88
g69
NtRp1163
(dp1164
g72
(dp1165
sg81
g1150
sg74
(lp1166
g67
(g68
g69
NtRp1167
(dp1168
g72
(dp1169
g80
I4
ssg81
g1163
sg74
(lp1170
S'set([])'
p1171
asbasbasbag67
(g83
g69
NtRp1172
(dp1173
g72
(dp1174
sg81
g1055
sg74
(lp1175
g67
(g88
g69
NtRp1176
(dp1177
g72
(dp1178
g92
g93
ssg81
g1172
sg74
(lp1179
S'debugging'
p1180
asbag67
(g88
g69
NtRp1181
(dp1182
g72
(dp1183
g99
g100
ssg81
g1172
sg74
(lp1184
S':'
asbag67
(g88
g69
NtRp1185
(dp1186
g72
(dp1187
sg81
g1172
sg74
(lp1188
g67
(g68
g69
NtRp1189
(dp1190
g72
(dp1191
g80
I4
ssg81
g1185
sg74
(lp1192
g110
asbasbasbag67
(g83
g69
NtRp1193
(dp1194
g72
(dp1195
sg81
g1055
sg74
(lp1196
g67
(g88
g69
NtRp1197
(dp1198
g72
(dp1199
g92
g93
ssg81
g1193
sg74
(lp1200
S'gluon_parent'
p1201
asbag67
(g88
g69
NtRp1202
(dp1203
g72
(dp1204
g99
g100
ssg81
g1193
sg74
(lp1205
S':'
asbag67
(g88
g69
NtRp1206
(dp1207
g72
(dp1208
sg81
g1193
sg74
(lp1209
g67
(g68
g69
NtRp1210
(dp1211
g72
(dp1212
g80
I4
ssg81
g1206
sg74
(lp1213
S'/home/adrian/web2py'
p1214
asbasbasbag67
(g83
g69
NtRp1215
(dp1216
g72
(dp1217
sg81
g1055
sg74
(lp1218
g67
(g88
g69
NtRp1219
(dp1220
g72
(dp1221
g92
g93
ssg81
g1215
sg74
(lp1222
S'http_accept'
p1223
asbag67
(g88
g69
NtRp1224
(dp1225
g72
(dp1226
g99
g100
ssg81
g1215
sg74
(lp1227
S':'
asbag67
(g88
g69
NtRp1228
(dp1229
g72
(dp1230
sg81
g1215
sg74
(lp1231
g67
(g68
g69
NtRp1232
(dp1233
g72
(dp1234
g80
I4
ssg81
g1228
sg74
(lp1235
S'text/html,application/xhtml+xml,application/xml;q=0.9,*/*;q=0.8'
p1236
asbasbasbag67
(g83
g69
NtRp1237
(dp1238
g72
(dp1239
sg81
g1055
sg74
(lp1240
g67
(g88
g69
NtRp1241
(dp1242
g72
(dp1243
g92
g93
ssg81
g1237
sg74
(lp1244
S'http_accept_charset'
p1245
asbag67
(g88
g69
NtRp1246
(dp1247
g72
(dp1248
g99
g100
ssg81
g1237
sg74
(lp1249
S':'
asbag67
(g88
g69
NtRp1250
(dp1251
g72
(dp1252
sg81
g1237
sg74
(lp1253
g67
(g68
g69
NtRp1254
(dp1255
g72
(dp1256
g80
I4
ssg81
g1250
sg74
(lp1257
S'ISO-8859-1,utf-8;q=0.7,*;q=0.3'
p1258
asbasbasbag67
(g83
g69
NtRp1259
(dp1260
g72
(dp1261
sg81
g1055
sg74
(lp1262
g67
(g88
g69
NtRp1263
(dp1264
g72
(dp1265
g92
g93
ssg81
g1259
sg74
(lp1266
S'http_accept_encoding'
p1267
asbag67
(g88
g69
NtRp1268
(dp1269
g72
(dp1270
g99
g100
ssg81
g1259
sg74
(lp1271
S':'
asbag67
(g88
g69
NtRp1272
(dp1273
g72
(dp1274
sg81
g1259
sg74
(lp1275
g67
(g68
g69
NtRp1276
(dp1277
g72
(dp1278
g80
I4
ssg81
g1272
sg74
(lp1279
S'gzip,deflate,sdch'
p1280
asbasbasbag67
(g83
g69
NtRp1281
(dp1282
g72
(dp1283
sg81
g1055
sg74
(lp1284
g67
(g88
g69
NtRp1285
(dp1286
g72
(dp1287
g92
g93
ssg81
g1281
sg74
(lp1288
S'http_accept_language'
p1289
asbag67
(g88
g69
NtRp1290
(dp1291
g72
(dp1292
g99
g100
ssg81
g1281
sg74
(lp1293
S':'
asbag67
(g88
g69
NtRp1294
(dp1295
g72
(dp1296
sg81
g1281
sg74
(lp1297
g67
(g68
g69
NtRp1298
(dp1299
g72
(dp1300
g80
I4
ssg81
g1294
sg74
(lp1301
S'es-ES,es;q=0.8'
p1302
asbasbasbag67
(g83
g69
NtRp1303
(dp1304
g72
(dp1305
sg81
g1055
sg74
(lp1306
g67
(g88
g69
NtRp1307
(dp1308
g72
(dp1309
g92
g93
ssg81
g1303
sg74
(lp1310
S'http_cache_control'
p1311
asbag67
(g88
g69
NtRp1312
(dp1313
g72
(dp1314
g99
g100
ssg81
g1303
sg74
(lp1315
S':'
asbag67
(g88
g69
NtRp1316
(dp1317
g72
(dp1318
sg81
g1303
sg74
(lp1319
g67
(g68
g69
NtRp1320
(dp1321
g72
(dp1322
g80
I4
ssg81
g1316
sg74
(lp1323
S'max-age=0'
p1324
asbasbasbag67
(g83
g69
NtRp1325
(dp1326
g72
(dp1327
sg81
g1055
sg74
(lp1328
g67
(g88
g69
NtRp1329
(dp1330
g72
(dp1331
g92
g93
ssg81
g1325
sg74
(lp1332
S'http_connection'
p1333
asbag67
(g88
g69
NtRp1334
(dp1335
g72
(dp1336
g99
g100
ssg81
g1325
sg74
(lp1337
S':'
asbag67
(g88
g69
NtRp1338
(dp1339
g72
(dp1340
sg81
g1325
sg74
(lp1341
g67
(g68
g69
NtRp1342
(dp1343
g72
(dp1344
g80
I4
ssg81
g1338
sg74
(lp1345
S'keep-alive'
p1346
asbasbasbag67
(g83
g69
NtRp1347
(dp1348
g72
(dp1349
sg81
g1055
sg74
(lp1350
g67
(g88
g69
NtRp1351
(dp1352
g72
(dp1353
g92
g93
ssg81
g1347
sg74
(lp1354
S'http_cookie'
p1355
asbag67
(g88
g69
NtRp1356
(dp1357
g72
(dp1358
g99
g100
ssg81
g1347
sg74
(lp1359
S':'
asbag67
(g88
g69
NtRp1360
(dp1361
g72
(dp1362
sg81
g1347
sg74
(lp1363
g67
(g68
g69
NtRp1364
(dp1365
g72
(dp1366
g80
I4
ssg81
g1360
sg74
(lp1367
S'kaej_unique_user=1; session_id_welcome=127.0.0.1-dc424825-7eb3-4a25-8c10-933ddf67e6c2; session_id_admin=127.0.0.1-1e4e694e-d5f8-4d88-a93e-f8017e171c5b; session_id_cygnuscloud=127.0.0.1-94b597fa-52b2-4481-ad0f-59b1fd37bc50'
p1368
asbasbasbag67
(g83
g69
NtRp1369
(dp1370
g72
(dp1371
sg81
g1055
sg74
(lp1372
g67
(g88
g69
NtRp1373
(dp1374
g72
(dp1375
g92
g93
ssg81
g1369
sg74
(lp1376
S'http_host'
p1377
asbag67
(g88
g69
NtRp1378
(dp1379
g72
(dp1380
g99
g100
ssg81
g1369
sg74
(lp1381
S':'
asbag67
(g88
g69
NtRp1382
(dp1383
g72
(dp1384
sg81
g1369
sg74
(lp1385
g67
(g68
g69
NtRp1386
(dp1387
g72
(dp1388
g80
I4
ssg81
g1382
sg74
(lp1389
S'127.0.0.1:8000'
p1390
asbasbasbag67
(g83
g69
NtRp1391
(dp1392
g72
(dp1393
sg81
g1055
sg74
(lp1394
g67
(g88
g69
NtRp1395
(dp1396
g72
(dp1397
g92
g93
ssg81
g1391
sg74
(lp1398
S'http_referer'
p1399
asbag67
(g88
g69
NtRp1400
(dp1401
g72
(dp1402
g99
g100
ssg81
g1391
sg74
(lp1403
S':'
asbag67
(g88
g69
NtRp1404
(dp1405
g72
(dp1406
sg81
g1391
sg74
(lp1407
g67
(g68
g69
NtRp1408
(dp1409
g72
(dp1410
g80
I4
ssg81
g1404
sg74
(lp1411
S'http://127.0.0.1:8000/CygnusCloud/administrator/subjects/remove'
p1412
asbasbasbag67
(g83
g69
NtRp1413
(dp1414
g72
(dp1415
sg81
g1055
sg74
(lp1416
g67
(g88
g69
NtRp1417
(dp1418
g72
(dp1419
g92
g93
ssg81
g1413
sg74
(lp1420
S'http_user_agent'
p1421
asbag67
(g88
g69
NtRp1422
(dp1423
g72
(dp1424
g99
g100
ssg81
g1413
sg74
(lp1425
S':'
asbag67
(g88
g69
NtRp1426
(dp1427
g72
(dp1428
sg81
g1413
sg74
(lp1429
g67
(g68
g69
NtRp1430
(dp1431
g72
(dp1432
g80
I4
ssg81
g1426
sg74
(lp1433
S'Mozilla/5.0 (X11; Linux x86_64) AppleWebKit/537.11 (KHTML, like Gecko) Chrome/23.0.1271.64 Safari/537.11'
p1434
asbasbasbag67
(g83
g69
NtRp1435
(dp1436
g72
(dp1437
sg81
g1055
sg74
(lp1438
g67
(g88
g69
NtRp1439
(dp1440
g72
(dp1441
g92
g93
ssg81
g1435
sg74
(lp1442
S'is_jython'
p1443
asbag67
(g88
g69
NtRp1444
(dp1445
g72
(dp1446
g99
g100
ssg81
g1435
sg74
(lp1447
S':'
asbag67
(g88
g69
NtRp1448
(dp1449
g72
(dp1450
sg81
g1435
sg74
(lp1451
g67
(g68
g69
NtRp1452
(dp1453
g72
(dp1454
g80
I4
ssg81
g1448
sg74
(lp1455
g110
asbasbasbag67
(g83
g69
NtRp1456
(dp1457
g72
(dp1458
sg81
g1055
sg74
(lp1459
g67
(g88
g69
NtRp1460
(dp1461
g72
(dp1462
g92
g93
ssg81
g1456
sg74
(lp1463
S'is_pypy'
p1464
asbag67
(g88
g69
NtRp1465
(dp1466
g72
(dp1467
g99
g100
ssg81
g1456
sg74
(lp1468
S':'
asbag67
(g88
g69
NtRp1469
(dp1470
g72
(dp1471
sg81
g1456
sg74
(lp1472
g67
(g68
g69
NtRp1473
(dp1474
g72
(dp1475
g80
I4
ssg81
g1469
sg74
(lp1476
g110
asbasbasbag67
(g83
g69
NtRp1477
(dp1478
g72
(dp1479
sg81
g1055
sg74
(lp1480
g67
(g88
g69
NtRp1481
(dp1482
g72
(dp1483
g92
g93
ssg81
g1477
sg74
(lp1484
S'local_hosts'
p1485
asbag67
(g88
g69
NtRp1486
(dp1487
g72
(dp1488
g99
g100
ssg81
g1477
sg74
(lp1489
S':'
asbag67
(g88
g69
NtRp1490
(dp1491
g72
(dp1492
sg81
g1477
sg74
(lp1493
g67
(g68
g69
NtRp1494
(dp1495
g72
(dp1496
g80
I4
ssg81
g1490
sg74
(lp1497
g67
(g76
g69
NtRp1498
(dp1499
g72
(dp1500
g80
I3
ssg81
Nsg74
(lp1501
g67
(g83
g69
NtRp1502
(dp1503
g72
(dp1504
sg81
g1498
sg74
(lp1505
g67
(g88
g69
NtRp1506
(dp1507
g72
(dp1508
sg81
g1502
sg74
(lp1509
g67
(g68
g69
NtRp1510
(dp1511
g72
(dp1512
g80
I3
ssg81
g1506
sg74
(lp1513
S'adri-EasyNote'
p1514
asbasbasbag67
(g83
g69
NtRp1515
(dp1516
g72
(dp1517
sg81
g1498
sg74
(lp1518
g67
(g88
g69
NtRp1519
(dp1520
g72
(dp1521
sg81
g1515
sg74
(lp1522
g67
(g68
g69
NtRp1523
(dp1524
g72
(dp1525
g80
I3
ssg81
g1519
sg74
(lp1526
S'::1'
p1527
asbasbasbag67
(g83
g69
NtRp1528
(dp1529
g72
(dp1530
sg81
g1498
sg74
(lp1531
g67
(g88
g69
NtRp1532
(dp1533
g72
(dp1534
sg81
g1528
sg74
(lp1535
g67
(g68
g69
NtRp1536
(dp1537
g72
(dp1538
g80
I3
ssg81
g1532
sg74
(lp1539
S'127.0.1.1'
p1540
asbasbasbag67
(g83
g69
NtRp1541
(dp1542
g72
(dp1543
sg81
g1498
sg74
(lp1544
g67
(g88
g69
NtRp1545
(dp1546
g72
(dp1547
sg81
g1541
sg74
(lp1548
g67
(g68
g69
NtRp1549
(dp1550
g72
(dp1551
g80
I3
ssg81
g1545
sg74
(lp1552
S'::ffff:127.0.0.1'
p1553
asbasbasbag67
(g83
g69
NtRp1554
(dp1555
g72
(dp1556
sg81
g1498
sg74
(lp1557
g67
(g88
g69
NtRp1558
(dp1559
g72
(dp1560
sg81
g1554
sg74
(lp1561
g67
(g68
g69
NtRp1562
(dp1563
g72
(dp1564
g80
I3
ssg81
g1558
sg74
(lp1565
S'127.0.0.1'
p1566
asbasbasbasbasbasbasbag67
(g83
g69
NtRp1567
(dp1568
g72
(dp1569
sg81
g1055
sg74
(lp1570
g67
(g88
g69
NtRp1571
(dp1572
g72
(dp1573
g92
g93
ssg81
g1567
sg74
(lp1574
S'path_info'
p1575
asbag67
(g88
g69
NtRp1576
(dp1577
g72
(dp1578
g99
g100
ssg81
g1567
sg74
(lp1579
S':'
asbag67
(g88
g69
NtRp1580
(dp1581
g72
(dp1582
sg81
g1567
sg74
(lp1583
g67
(g68
g69
NtRp1584
(dp1585
g72
(dp1586
g80
I4
ssg81
g1580
sg74
(lp1587
S'/CygnusCloud/administrator/subjects/remove'
p1588
asbasbasbag67
(g83
g69
NtRp1589
(dp1590
g72
(dp1591
sg81
g1055
sg74
(lp1592
g67
(g88
g69
NtRp1593
(dp1594
g72
(dp1595
g92
g93
ssg81
g1589
sg74
(lp1596
S'query_string'
p1597
asbag67
(g88
g69
NtRp1598
(dp1599
g72
(dp1600
g99
g100
ssg81
g1589
sg74
(lp1601
S':'
asbag67
(g88
g69
NtRp1602
(dp1603
g72
(dp1604
sg81
g1589
sg74
(lp1605
g67
(g68
g69
NtRp1606
(dp1607
g72
(dp1608
g80
I4
ssg81
g1602
sg74
(lp1609
S'subjectsFind=%3CRow+%7B%27cod%27%3A+106148%2C+%27curseGroup%27%3A+%27a%27%7D%3E'
p1610
asbasbasbag67
(g83
g69
NtRp1611
(dp1612
g72
(dp1613
sg81
g1055
sg74
(lp1614
g67
(g88
g69
NtRp1615
(dp1616
g72
(dp1617
g92
g93
ssg81
g1611
sg74
(lp1618
S'remote_addr'
p1619
asbag67
(g88
g69
NtRp1620
(dp1621
g72
(dp1622
g99
g100
ssg81
g1611
sg74
(lp1623
S':'
asbag67
(g88
g69
NtRp1624
(dp1625
g72
(dp1626
sg81
g1611
sg74
(lp1627
g67
(g68
g69
NtRp1628
(dp1629
g72
(dp1630
g80
I4
ssg81
g1624
sg74
(lp1631
g235
asbasbasbag67
(g83
g69
NtRp1632
(dp1633
g72
(dp1634
sg81
g1055
sg74
(lp1635
g67
(g88
g69
NtRp1636
(dp1637
g72
(dp1638
g92
g93
ssg81
g1632
sg74
(lp1639
S'remote_port'
p1640
asbag67
(g88
g69
NtRp1641
(dp1642
g72
(dp1643
g99
g100
ssg81
g1632
sg74
(lp1644
S':'
asbag67
(g88
g69
NtRp1645
(dp1646
g72
(dp1647
sg81
g1632
sg74
(lp1648
g67
(g68
g69
NtRp1649
(dp1650
g72
(dp1651
g80
I4
ssg81
g1645
sg74
(lp1652
S'50443'
p1653
asbasbasbag67
(g83
g69
NtRp1654
(dp1655
g72
(dp1656
sg81
g1055
sg74
(lp1657
g67
(g88
g69
NtRp1658
(dp1659
g72
(dp1660
g92
g93
ssg81
g1654
sg74
(lp1661
S'request_method'
p1662
asbag67
(g88
g69
NtRp1663
(dp1664
g72
(dp1665
g99
g100
ssg81
g1654
sg74
(lp1666
S':'
asbag67
(g88
g69
NtRp1667
(dp1668
g72
(dp1669
sg81
g1654
sg74
(lp1670
g67
(g68
g69
NtRp1671
(dp1672
g72
(dp1673
g80
I4
ssg81
g1667
sg74
(lp1674
S'GET'
p1675
asbasbasbag67
(g83
g69
NtRp1676
(dp1677
g72
(dp1678
sg81
g1055
sg74
(lp1679
g67
(g88
g69
NtRp1680
(dp1681
g72
(dp1682
g92
g93
ssg81
g1676
sg74
(lp1683
S'request_uri'
p1684
asbag67
(g88
g69
NtRp1685
(dp1686
g72
(dp1687
g99
g100
ssg81
g1676
sg74
(lp1688
S':'
asbag67
(g88
g69
NtRp1689
(dp1690
g72
(dp1691
sg81
g1676
sg74
(lp1692
g67
(g68
g69
NtRp1693
(dp1694
g72
(dp1695
g80
I4
ssg81
g1689
sg74
(lp1696
S'/CygnusCloud/administrator/subjects/remove?subjectsFind=%3CRow+%7B%27cod%27%3A+106148%2C+%27curseGroup%27%3A+%27a%27%7D%3E'
p1697
asbasbasbag67
(g83
g69
NtRp1698
(dp1699
g72
(dp1700
sg81
g1055
sg74
(lp1701
g67
(g88
g69
NtRp1702
(dp1703
g72
(dp1704
g92
g93
ssg81
g1698
sg74
(lp1705
S'script_name'
p1706
asbag67
(g88
g69
NtRp1707
(dp1708
g72
(dp1709
g99
g100
ssg81
g1698
sg74
(lp1710
S':'
asbag67
(g88
g69
NtRp1711
(dp1712
g72
(dp1713
sg81
g1698
sg74
(lp1714
g67
(g68
g69
NtRp1715
(dp1716
g72
(dp1717
g80
I4
ssg81
g1711
sg74
(lp1718
S''
asbasbasbag67
(g83
g69
NtRp1719
(dp1720
g72
(dp1721
sg81
g1055
sg74
(lp1722
g67
(g88
g69
NtRp1723
(dp1724
g72
(dp1725
g92
g93
ssg81
g1719
sg74
(lp1726
S'server_name'
p1727
asbag67
(g88
g69
NtRp1728
(dp1729
g72
(dp1730
g99
g100
ssg81
g1719
sg74
(lp1731
S':'
asbag67
(g88
g69
NtRp1732
(dp1733
g72
(dp1734
sg81
g1719
sg74
(lp1735
g67
(g68
g69
NtRp1736
(dp1737
g72
(dp1738
g80
I4
ssg81
g1732
sg74
(lp1739
S'adri-EasyNote'
p1740
asbasbasbag67
(g83
g69
NtRp1741
(dp1742
g72
(dp1743
sg81
g1055
sg74
(lp1744
g67
(g88
g69
NtRp1745
(dp1746
g72
(dp1747
g92
g93
ssg81
g1741
sg74
(lp1748
S'server_port'
p1749
asbag67
(g88
g69
NtRp1750
(dp1751
g72
(dp1752
g99
g100
ssg81
g1741
sg74
(lp1753
S':'
asbag67
(g88
g69
NtRp1754
(dp1755
g72
(dp1756
sg81
g1741
sg74
(lp1757
g67
(g68
g69
NtRp1758
(dp1759
g72
(dp1760
g80
I4
ssg81
g1754
sg74
(lp1761
S'8000'
p1762
asbasbasbag67
(g83
g69
NtRp1763
(dp1764
g72
(dp1765
sg81
g1055
sg74
(lp1766
g67
(g88
g69
NtRp1767
(dp1768
g72
(dp1769
g92
g93
ssg81
g1763
sg74
(lp1770
S'server_protocol'
p1771
asbag67
(g88
g69
NtRp1772
(dp1773
g72
(dp1774
g99
g100
ssg81
g1763
sg74
(lp1775
S':'
asbag67
(g88
g69
NtRp1776
(dp1777
g72
(dp1778
sg81
g1763
sg74
(lp1779
g67
(g68
g69
NtRp1780
(dp1781
g72
(dp1782
g80
I4
ssg81
g1776
sg74
(lp1783
S'HTTP/1.1'
p1784
asbasbasbag67
(g83
g69
NtRp1785
(dp1786
g72
(dp1787
sg81
g1055
sg74
(lp1788
g67
(g88
g69
NtRp1789
(dp1790
g72
(dp1791
g92
g93
ssg81
g1785
sg74
(lp1792
S'server_software'
p1793
asbag67
(g88
g69
NtRp1794
(dp1795
g72
(dp1796
g99
g100
ssg81
g1785
sg74
(lp1797
S':'
asbag67
(g88
g69
NtRp1798
(dp1799
g72
(dp1800
sg81
g1785
sg74
(lp1801
g67
(g68
g69
NtRp1802
(dp1803
g72
(dp1804
g80
I4
ssg81
g1798
sg74
(lp1805
S'Rocket 1.2.6'
p1806
asbasbasbag67
(g83
g69
NtRp1807
(dp1808
g72
(dp1809
sg81
g1055
sg74
(lp1810
g67
(g88
g69
NtRp1811
(dp1812
g72
(dp1813
g92
g93
ssg81
g1807
sg74
(lp1814
S'web2py_path'
p1815
asbag67
(g88
g69
NtRp1816
(dp1817
g72
(dp1818
g99
g100
ssg81
g1807
sg74
(lp1819
S':'
asbag67
(g88
g69
NtRp1820
(dp1821
g72
(dp1822
sg81
g1807
sg74
(lp1823
g67
(g68
g69
NtRp1824
(dp1825
g72
(dp1826
g80
I4
ssg81
g1820
sg74
(lp1827
g1102
asbasbasbag67
(g83
g69
NtRp1828
(dp1829
g72
(dp1830
sg81
g1055
sg74
(lp1831
g67
(g88
g69
NtRp1832
(dp1833
g72
(dp1834
g92
g93
ssg81
g1828
sg74
(lp1835
S'web2py_version'
p1836
asbag67
(g88
g69
NtRp1837
(dp1838
g72
(dp1839
g99
g100
ssg81
g1828
sg74
(lp1840
S':'
asbag67
(g88
g69
NtRp1841
(dp1842
g72
(dp1843
sg81
g1828
sg74
(lp1844
g67
(g68
g69
NtRp1845
(dp1846
g72
(dp1847
g80
I4
ssg81
g1841
sg74
(lp1848
g67
(g76
g69
NtRp1849
(dp1850
g72
(dp1851
g80
I3
ssg81
Nsg74
(lp1852
g67
(g83
g69
NtRp1853
(dp1854
g72
(dp1855
sg81
g1849
sg74
(lp1856
g67
(g88
g69
NtRp1857
(dp1858
g72
(dp1859
sg81
g1853
sg74
(lp1860
g67
(g68
g69
NtRp1861
(dp1862
g72
(dp1863
g80
I3
ssg81
g1857
sg74
(lp1864
S'2'
asbasbasbag67
(g83
g69
NtRp1865
(dp1866
g72
(dp1867
sg81
g1849
sg74
(lp1868
g67
(g88
g69
NtRp1869
(dp1870
g72
(dp1871
sg81
g1865
sg74
(lp1872
g67
(g68
g69
NtRp1873
(dp1874
g72
(dp1875
g80
I3
ssg81
g1869
sg74
(lp1876
S'3'
asbasbasbag67
(g83
g69
NtRp1877
(dp1878
g72
(dp1879
sg81
g1849
sg74
(lp1880
g67
(g88
g69
NtRp1881
(dp1882
g72
(dp1883
sg81
g1877
sg74
(lp1884
g67
(g68
g69
NtRp1885
(dp1886
g72
(dp1887
g80
I3
ssg81
g1881
sg74
(lp1888
S'2'
asbasbasbag67
(g83
g69
NtRp1889
(dp1890
g72
(dp1891
sg81
g1849
sg74
(lp1892
g67
(g88
g69
NtRp1893
(dp1894
g72
(dp1895
sg81
g1889
sg74
(lp1896
g67
(g68
g69
NtRp1897
(dp1898
g72
(dp1899
g80
I3
ssg81
g1893
sg74
(lp1900
S'datetime.datetime(2012, 12, 17, 15, 3, 30)'
p1901
asbasbasbag67
(g83
g69
NtRp1902
(dp1903
g72
(dp1904
sg81
g1849
sg74
(lp1905
g67
(g88
g69
NtRp1906
(dp1907
g72
(dp1908
sg81
g1902
sg74
(lp1909
g67
(g68
g69
NtRp1910
(dp1911
g72
(dp1912
g80
I3
ssg81
g1906
sg74
(lp1913
S'stable'
p1914
asbasbasbasbasbasbasbag67
(g83
g69
NtRp1915
(dp1916
g72
(dp1917
sg81
g1055
sg74
(lp1918
g67
(g88
g69
NtRp1919
(dp1920
g72
(dp1921
g92
g93
ssg81
g1915
sg74
(lp1922
S'wsgi_errors'
p1923
asbag67
(g88
g69
NtRp1924
(dp1925
g72
(dp1926
g99
g100
ssg81
g1915
sg74
(lp1927
S':'
asbag67
(g88
g69
NtRp1928
(dp1929
g72
(dp1930
sg81
g1915
sg74
(lp1931
g67
(g68
g69
NtRp1932
(dp1933
g72
(dp1934
g80
I4
ssg81
g1928
sg74
(lp1935
S"<open file '<stderr>', mode 'w' at 0x7f5f77b12270>"
p1936
asbasbasbag67
(g83
g69
NtRp1937
(dp1938
g72
(dp1939
sg81
g1055
sg74
(lp1940
g67
(g88
g69
NtRp1941
(dp1942
g72
(dp1943
g92
g93
ssg81
g1937
sg74
(lp1944
S'wsgi_file_wrapper'
p1945
asbag67
(g88
g69
NtRp1946
(dp1947
g72
(dp1948
g99
g100
ssg81
g1937
sg74
(lp1949
S':'
asbag67
(g88
g69
NtRp1950
(dp1951
g72
(dp1952
sg81
g1937
sg74
(lp1953
g67
(g68
g69
NtRp1954
(dp1955
g72
(dp1956
g80
I4
ssg81
g1950
sg74
(lp1957
S'<class wsgiref.util.FileWrapper at 0x2151db8>'
p1958
asbasbasbag67
(g83
g69
NtRp1959
(dp1960
g72
(dp1961
sg81
g1055
sg74
(lp1962
g67
(g88
g69
NtRp1963
(dp1964
g72
(dp1965
g92
g93
ssg81
g1959
sg74
(lp1966
S'wsgi_input'
p1967
asbag67
(g88
g69
NtRp1968
(dp1969
g72
(dp1970
g99
g100
ssg81
g1959
sg74
(lp1971
S':'
asbag67
(g88
g69
NtRp1972
(dp1973
g72
(dp1974
sg81
g1959
sg74
(lp1975
g67
(g68
g69
NtRp1976
(dp1977
g72
(dp1978
g80
I4
ssg81
g1972
sg74
(lp1979
S'<socket._fileobject object at 0x7f5f483f1cd0>'
p1980
asbasbasbag67
(g83
g69
NtRp1981
(dp1982
g72
(dp1983
sg81
g1055
sg74
(lp1984
g67
(g88
g69
NtRp1985
(dp1986
g72
(dp1987
g92
g93
ssg81
g1981
sg74
(lp1988
S'wsgi_multiprocess'
p1989
asbag67
(g88
g69
NtRp1990
(dp1991
g72
(dp1992
g99
g100
ssg81
g1981
sg74
(lp1993
S':'
asbag67
(g88
g69
NtRp1994
(dp1995
g72
(dp1996
sg81
g1981
sg74
(lp1997
g67
(g68
g69
NtRp1998
(dp1999
g72
(dp2000
g80
I4
ssg81
g1994
sg74
(lp2001
g110
asbasbasbag67
(g83
g69
NtRp2002
(dp2003
g72
(dp2004
sg81
g1055
sg74
(lp2005
g67
(g88
g69
NtRp2006
(dp2007
g72
(dp2008
g92
g93
ssg81
g2002
sg74
(lp2009
S'wsgi_multithread'
p2010
asbag67
(g88
g69
NtRp2011
(dp2012
g72
(dp2013
g99
g100
ssg81
g2002
sg74
(lp2014
S':'
asbag67
(g88
g69
NtRp2015
(dp2016
g72
(dp2017
sg81
g2002
sg74
(lp2018
g67
(g68
g69
NtRp2019
(dp2020
g72
(dp2021
g80
I4
ssg81
g2015
sg74
(lp2022
S'True'
p2023
asbasbasbag67
(g83
g69
NtRp2024
(dp2025
g72
(dp2026
sg81
g1055
sg74
(lp2027
g67
(g88
g69
NtRp2028
(dp2029
g72
(dp2030
g92
g93
ssg81
g2024
sg74
(lp2031
S'wsgi_run_once'
p2032
asbag67
(g88
g69
NtRp2033
(dp2034
g72
(dp2035
g99
g100
ssg81
g2024
sg74
(lp2036
S':'
asbag67
(g88
g69
NtRp2037
(dp2038
g72
(dp2039
sg81
g2024
sg74
(lp2040
g67
(g68
g69
NtRp2041
(dp2042
g72
(dp2043
g80
I4
ssg81
g2037
sg74
(lp2044
g110
asbasbasbag67
(g83
g69
NtRp2045
(dp2046
g72
(dp2047
sg81
g1055
sg74
(lp2048
g67
(g88
g69
NtRp2049
(dp2050
g72
(dp2051
g92
g93
ssg81
g2045
sg74
(lp2052
S'wsgi_url_scheme'
p2053
asbag67
(g88
g69
NtRp2054
(dp2055
g72
(dp2056
g99
g100
ssg81
g2045
sg74
(lp2057
S':'
asbag67
(g88
g69
NtRp2058
(dp2059
g72
(dp2060
sg81
g2045
sg74
(lp2061
g67
(g68
g69
NtRp2062
(dp2063
g72
(dp2064
g80
I4
ssg81
g2058
sg74
(lp2065
S'http'
p2066
asbasbasbag67
(g83
g69
NtRp2067
(dp2068
g72
(dp2069
sg81
g1055
sg74
(lp2070
g67
(g88
g69
NtRp2071
(dp2072
g72
(dp2073
g92
g93
ssg81
g2067
sg74
(lp2074
S'wsgi_version'
p2075
asbag67
(g88
g69
NtRp2076
(dp2077
g72
(dp2078
g99
g100
ssg81
g2067
sg74
(lp2079
S':'
asbag67
(g88
g69
NtRp2080
(dp2081
g72
(dp2082
sg81
g2067
sg74
(lp2083
g67
(g68
g69
NtRp2084
(dp2085
g72
(dp2086
g80
I4
ssg81
g2080
sg74
(lp2087
g67
(g76
g69
NtRp2088
(dp2089
g72
(dp2090
g80
I3
ssg81
Nsg74
(lp2091
g67
(g83
g69
NtRp2092
(dp2093
g72
(dp2094
sg81
g2088
sg74
(lp2095
g67
(g88
g69
NtRp2096
(dp2097
g72
(dp2098
sg81
g2092
sg74
(lp2099
g67
(g68
g69
NtRp2100
(dp2101
g72
(dp2102
g80
I3
ssg81
g2096
sg74
(lp2103
S'1'
asbasbasbag67
(g83
g69
NtRp2104
(dp2105
g72
(dp2106
sg81
g2088
sg74
(lp2107
g67
(g88
g69
NtRp2108
(dp2109
g72
(dp2110
sg81
g2104
sg74
(lp2111
g67
(g68
g69
NtRp2112
(dp2113
g72
(dp2114
g80
I3
ssg81
g2108
sg74
(lp2115
S'0'
asbasbasbasbasbasbasbasbasbasbasbag67
(g83
g69
NtRp2116
(dp2117
g72
(dp2118
sg81
g77
sg74
(lp2119
g67
(g88
g69
NtRp2120
(dp2121
g72
(dp2122
g92
g93
ssg81
g2116
sg74
(lp2123
S'extension'
p2124
asbag67
(g88
g69
NtRp2125
(dp2126
g72
(dp2127
g99
g100
ssg81
g2116
sg74
(lp2128
S':'
asbag67
(g88
g69
NtRp2129
(dp2130
g72
(dp2131
sg81
g2116
sg74
(lp2132
g67
(g68
g69
NtRp2133
(dp2134
g72
(dp2135
g80
I5
ssg81
g2129
sg74
(lp2136
S'html'
p2137
asbasbasbag67
(g83
g69
NtRp2138
(dp2139
g72
(dp2140
sg81
g77
sg74
(lp2141
g67
(g88
g69
NtRp2142
(dp2143
g72
(dp2144
g92
g93
ssg81
g2138
sg74
(lp2145
S'folder'
p2146
asbag67
(g88
g69
NtRp2147
(dp2148
g72
(dp2149
g99
g100
ssg81
g2138
sg74
(lp2150
S':'
asbag67
(g88
g69
NtRp2151
(dp2152
g72
(dp2153
sg81
g2138
sg74
(lp2154
g67
(g68
g69
NtRp2155
(dp2156
g72
(dp2157
g80
I5
ssg81
g2151
sg74
(lp2158
S'/home/adrian/web2py/applications/CygnusCloud/'
p2159
asbasbasbag67
(g83
g69
NtRp2160
(dp2161
g72
(dp2162
sg81
g77
sg74
(lp2163
g67
(g88
g69
NtRp2164
(dp2165
g72
(dp2166
g92
g93
ssg81
g2160
sg74
(lp2167
S'function'
p2168
asbag67
(g88
g69
NtRp2169
(dp2170
g72
(dp2171
g99
g100
ssg81
g2160
sg74
(lp2172
S':'
asbag67
(g88
g69
NtRp2173
(dp2174
g72
(dp2175
sg81
g2160
sg74
(lp2176
g67
(g68
g69
NtRp2177
(dp2178
g72
(dp2179
g80
I5
ssg81
g2173
sg74
(lp2180
S'subjects'
p2181
asbasbasbag67
(g83
g69
NtRp2182
(dp2183
g72
(dp2184
sg81
g77
sg74
(lp2185
g67
(g88
g69
NtRp2186
(dp2187
g72
(dp2188
g92
g93
ssg81
g2182
sg74
(lp2189
S'get_vars'
p2190
asbag67
(g88
g69
NtRp2191
(dp2192
g72
(dp2193
g99
g100
ssg81
g2182
sg74
(lp2194
S':'
asbag67
(g88
g69
NtRp2195
(dp2196
g72
(dp2197
sg81
g2182
sg74
(lp2198
g67
(g68
g69
NtRp2199
(dp2200
g72
(dp2201
g80
I5
ssg81
g2195
sg74
(lp2202
g67
(g76
g69
NtRp2203
(dp2204
g72
(dp2205
g80
I4
ssg81
Nsg74
(lp2206
g67
(g83
g69
NtRp2207
(dp2208
g72
(dp2209
sg81
g2203
sg74
(lp2210
g67
(g88
g69
NtRp2211
(dp2212
g72
(dp2213
g92
g93
ssg81
g2207
sg74
(lp2214
S'subjectsFind'
p2215
asbag67
(g88
g69
NtRp2216
(dp2217
g72
(dp2218
g99
g100
ssg81
g2207
sg74
(lp2219
S':'
asbag67
(g88
g69
NtRp2220
(dp2221
g72
(dp2222
sg81
g2207
sg74
(lp2223
g67
(g68
g69
NtRp2224
(dp2225
g72
(dp2226
g80
I4
ssg81
g2220
sg74
(lp2227
S"<Row {'cod': 106148, 'curseGroup': 'a'}>"
p2228
asbasbasbasbasbasbasbag67
(g83
g69
NtRp2229
(dp2230
g72
(dp2231
sg81
g77
sg74
(lp2232
g67
(g88
g69
NtRp2233
(dp2234
g72
(dp2235
g92
g93
ssg81
g2229
sg74
(lp2236
S'global_settings'
p2237
asbag67
(g88
g69
NtRp2238
(dp2239
g72
(dp2240
g99
g100
ssg81
g2229
sg74
(lp2241
S':'
asbag67
(g88
g69
NtRp2242
(dp2243
g72
(dp2244
sg81
g2229
sg74
(lp2245
g67
(g68
g69
NtRp2246
(dp2247
g72
(dp2248
g80
I5
ssg81
g2242
sg74
(lp2249
g67
(g76
g69
NtRp2250
(dp2251
g72
(dp2252
g80
I4
ssg81
Nsg74
(lp2253
g67
(g83
g69
NtRp2254
(dp2255
g72
(dp2256
sg81
g2250
sg74
(lp2257
g67
(g88
g69
NtRp2258
(dp2259
g72
(dp2260
g92
g93
ssg81
g2254
sg74
(lp2261
g1067
asbag67
(g88
g69
NtRp2262
(dp2263
g72
(dp2264
g99
g100
ssg81
g2254
sg74
(lp2265
S':'
asbag67
(g88
g69
NtRp2266
(dp2267
g72
(dp2268
sg81
g2254
sg74
(lp2269
g67
(g68
g69
NtRp2270
(dp2271
g72
(dp2272
g80
I4
ssg81
g2266
sg74
(lp2273
S"set(['/home/adrian/web2py/applications/admin/', '/home/adrian/web2py/applications/CygnusCloud/'])"
p2274
asbasbasbag67
(g83
g69
NtRp2275
(dp2276
g72
(dp2277
sg81
g2250
sg74
(lp2278
g67
(g88
g69
NtRp2279
(dp2280
g72
(dp2281
g92
g93
ssg81
g2275
sg74
(lp2282
g1089
asbag67
(g88
g69
NtRp2283
(dp2284
g72
(dp2285
g99
g100
ssg81
g2275
sg74
(lp2286
S':'
asbag67
(g88
g69
NtRp2287
(dp2288
g72
(dp2289
sg81
g2275
sg74
(lp2290
g67
(g68
g69
NtRp2291
(dp2292
g72
(dp2293
g80
I4
ssg81
g2287
sg74
(lp2294
g1102
asbasbasbag67
(g83
g69
NtRp2295
(dp2296
g72
(dp2297
sg81
g2250
sg74
(lp2298
g67
(g88
g69
NtRp2299
(dp2300
g72
(dp2301
g92
g93
ssg81
g2295
sg74
(lp2302
g1111
asbag67
(g88
g69
NtRp2303
(dp2304
g72
(dp2305
g99
g100
ssg81
g2295
sg74
(lp2306
S':'
asbag67
(g88
g69
NtRp2307
(dp2308
g72
(dp2309
sg81
g2295
sg74
(lp2310
g67
(g68
g69
NtRp2311
(dp2312
g72
(dp2313
g80
I4
ssg81
g2307
sg74
(lp2314
g67
(g76
g69
NtRp2315
(dp2316
g72
(dp2317
g80
I3
ssg81
Nsg74
(lp2318
sbasbasbasbag67
(g83
g69
NtRp2319
(dp2320
g72
(dp2321
sg81
g2250
sg74
(lp2322
g67
(g88
g69
NtRp2323
(dp2324
g72
(dp2325
g92
g93
ssg81
g2319
sg74
(lp2326
g1136
asbag67
(g88
g69
NtRp2327
(dp2328
g72
(dp2329
g99
g100
ssg81
g2319
sg74
(lp2330
S':'
asbag67
(g88
g69
NtRp2331
(dp2332
g72
(dp2333
sg81
g2319
sg74
(lp2334
g67
(g68
g69
NtRp2335
(dp2336
g72
(dp2337
g80
I4
ssg81
g2331
sg74
(lp2338
S"<Values at 0x221dbd8: {'verbose': False, 'ip': '127.0.0.1', 'with_scheduler': False, 'ips': [], 'shutdown_timeout': 5, 'taskbar': False, 'port': 8000, 'maxthreads': None, 'softcron': False, 'server_name': 'adri-EasyNote', 'bpython': False, 'nogui': False, 'pid_filename': 'httpserver.pid', 'extcron': False, 'runcron': False, 'run_system_tests': False, 'test': None, 'folder': '/home/adrian/web2py', 'config': '', 'minthreads': None, 'winservice': '', 'shell': None, 'run': '', 'log_filename': 'httpserver.log', 'debuglevel': 30, 'args': [''], 'socket_timeout': 5, 'ssl_ca_certificate': None, 'scheduler': None, 'profiler_filename': None, 'ssl_private_key': '', 'scheduler_groups': None, 'password': 'cygnuscloud2012', 'request_queue_size': 5, 'ssl_certificate': '', 'cronjob': False, 'numthreads': None, 'quiet': False, 'interfaces': None, 'import_models': False, 'timeout': 10, 'plain': False, 'nobanner': False}>"
p2339
asbasbasbag67
(g83
g69
NtRp2340
(dp2341
g72
(dp2342
sg81
g2250
sg74
(lp2343
g67
(g88
g69
NtRp2344
(dp2345
g72
(dp2346
g92
g93
ssg81
g2340
sg74
(lp2347
g1158
asbag67
(g88
g69
NtRp2348
(dp2349
g72
(dp2350
g99
g100
ssg81
g2340
sg74
(lp2351
S':'
asbag67
(g88
g69
NtRp2352
(dp2353
g72
(dp2354
sg81
g2340
sg74
(lp2355
g67
(g68
g69
NtRp2356
(dp2357
g72
(dp2358
g80
I4
ssg81
g2352
sg74
(lp2359
S'set([])'
p2360
asbasbasbag67
(g83
g69
NtRp2361
(dp2362
g72
(dp2363
sg81
g2250
sg74
(lp2364
g67
(g88
g69
NtRp2365
(dp2366
g72
(dp2367
g92
g93
ssg81
g2361
sg74
(lp2368
g1180
asbag67
(g88
g69
NtRp2369
(dp2370
g72
(dp2371
g99
g100
ssg81
g2361
sg74
(lp2372
S':'
asbag67
(g88
g69
NtRp2373
(dp2374
g72
(dp2375
sg81
g2361
sg74
(lp2376
g67
(g68
g69
NtRp2377
(dp2378
g72
(dp2379
g80
I4
ssg81
g2373
sg74
(lp2380
g110
asbasbasbag67
(g83
g69
NtRp2381
(dp2382
g72
(dp2383
sg81
g2250
sg74
(lp2384
g67
(g88
g69
NtRp2385
(dp2386
g72
(dp2387
g92
g93
ssg81
g2381
sg74
(lp2388
g1201
asbag67
(g88
g69
NtRp2389
(dp2390
g72
(dp2391
g99
g100
ssg81
g2381
sg74
(lp2392
S':'
asbag67
(g88
g69
NtRp2393
(dp2394
g72
(dp2395
sg81
g2381
sg74
(lp2396
g67
(g68
g69
NtRp2397
(dp2398
g72
(dp2399
g80
I4
ssg81
g2393
sg74
(lp2400
g1214
asbasbasbag67
(g83
g69
NtRp2401
(dp2402
g72
(dp2403
sg81
g2250
sg74
(lp2404
g67
(g88
g69
NtRp2405
(dp2406
g72
(dp2407
g92
g93
ssg81
g2401
sg74
(lp2408
g1443
asbag67
(g88
g69
NtRp2409
(dp2410
g72
(dp2411
g99
g100
ssg81
g2401
sg74
(lp2412
S':'
asbag67
(g88
g69
NtRp2413
(dp2414
g72
(dp2415
sg81
g2401
sg74
(lp2416
g67
(g68
g69
NtRp2417
(dp2418
g72
(dp2419
g80
I4
ssg81
g2413
sg74
(lp2420
g110
asbasbasbag67
(g83
g69
NtRp2421
(dp2422
g72
(dp2423
sg81
g2250
sg74
(lp2424
g67
(g88
g69
NtRp2425
(dp2426
g72
(dp2427
g92
g93
ssg81
g2421
sg74
(lp2428
g1464
asbag67
(g88
g69
NtRp2429
(dp2430
g72
(dp2431
g99
g100
ssg81
g2421
sg74
(lp2432
S':'
asbag67
(g88
g69
NtRp2433
(dp2434
g72
(dp2435
sg81
g2421
sg74
(lp2436
g67
(g68
g69
NtRp2437
(dp2438
g72
(dp2439
g80
I4
ssg81
g2433
sg74
(lp2440
g110
asbasbasbag67
(g83
g69
NtRp2441
(dp2442
g72
(dp2443
sg81
g2250
sg74
(lp2444
g67
(g88
g69
NtRp2445
(dp2446
g72
(dp2447
g92
g93
ssg81
g2441
sg74
(lp2448
g1485
asbag67
(g88
g69
NtRp2449
(dp2450
g72
(dp2451
g99
g100
ssg81
g2441
sg74
(lp2452
S':'
asbag67
(g88
g69
NtRp2453
(dp2454
g72
(dp2455
sg81
g2441
sg74
(lp2456
g67
(g68
g69
NtRp2457
(dp2458
g72
(dp2459
g80
I4
ssg81
g2453
sg74
(lp2460
g67
(g76
g69
NtRp2461
(dp2462
g72
(dp2463
g80
I3
ssg81
Nsg74
(lp2464
g67
(g83
g69
NtRp2465
(dp2466
g72
(dp2467
sg81
g2461
sg74
(lp2468
g67
(g88
g69
NtRp2469
(dp2470
g72
(dp2471
sg81
g2465
sg74
(lp2472
g67
(g68
g69
NtRp2473
(dp2474
g72
(dp2475
g80
I3
ssg81
g2469
sg74
(lp2476
g1514
asbasbasbag67
(g83
g69
NtRp2477
(dp2478
g72
(dp2479
sg81
g2461
sg74
(lp2480
g67
(g88
g69
NtRp2481
(dp2482
g72
(dp2483
sg81
g2477
sg74
(lp2484
g67
(g68
g69
NtRp2485
(dp2486
g72
(dp2487
g80
I3
ssg81
g2481
sg74
(lp2488
g1527
asbasbasbag67
(g83
g69
NtRp2489
(dp2490
g72
(dp2491
sg81
g2461
sg74
(lp2492
g67
(g88
g69
NtRp2493
(dp2494
g72
(dp2495
sg81
g2489
sg74
(lp2496
g67
(g68
g69
NtRp2497
(dp2498
g72
(dp2499
g80
I3
ssg81
g2493
sg74
(lp2500
g1540
asbasbasbag67
(g83
g69
NtRp2501
(dp2502
g72
(dp2503
sg81
g2461
sg74
(lp2504
g67
(g88
g69
NtRp2505
(dp2506
g72
(dp2507
sg81
g2501
sg74
(lp2508
g67
(g68
g69
NtRp2509
(dp2510
g72
(dp2511
g80
I3
ssg81
g2505
sg74
(lp2512
g1553
asbasbasbag67
(g83
g69
NtRp2513
(dp2514
g72
(dp2515
sg81
g2461
sg74
(lp2516
g67
(g88
g69
NtRp2517
(dp2518
g72
(dp2519
sg81
g2513
sg74
(lp2520
g67
(g68
g69
NtRp2521
(dp2522
g72
(dp2523
g80
I3
ssg81
g2517
sg74
(lp2524
g1566
asbasbasbasbasbasbasbag67
(g83
g69
NtRp2525
(dp2526
g72
(dp2527
sg81
g2250
sg74
(lp2528
g67
(g88
g69
NtRp2529
(dp2530
g72
(dp2531
g92
g93
ssg81
g2525
sg74
(lp2532
g1836
asbag67
(g88
g69
NtRp2533
(dp2534
g72
(dp2535
g99
g100
ssg81
g2525
sg74
(lp2536
S':'
asbag67
(g88
g69
NtRp2537
(dp2538
g72
(dp2539
sg81
g2525
sg74
(lp2540
g67
(g68
g69
NtRp2541
(dp2542
g72
(dp2543
g80
I4
ssg81
g2537
sg74
(lp2544
g67
(g76
g69
NtRp2545
(dp2546
g72
(dp2547
g80
I3
ssg81
Nsg74
(lp2548
g67
(g83
g69
NtRp2549
(dp2550
g72
(dp2551
sg81
g2545
sg74
(lp2552
g67
(g88
g69
NtRp2553
(dp2554
g72
(dp2555
sg81
g2549
sg74
(lp2556
g67
(g68
g69
NtRp2557
(dp2558
g72
(dp2559
g80
I3
ssg81
g2553
sg74
(lp2560
S'2'
asbasbasbag67
(g83
g69
NtRp2561
(dp2562
g72
(dp2563
sg81
g2545
sg74
(lp2564
g67
(g88
g69
NtRp2565
(dp2566
g72
(dp2567
sg81
g2561
sg74
(lp2568
g67
(g68
g69
NtRp2569
(dp2570
g72
(dp2571
g80
I3
ssg81
g2565
sg74
(lp2572
S'3'
asbasbasbag67
(g83
g69
NtRp2573
(dp2574
g72
(dp2575
sg81
g2545
sg74
(lp2576
g67
(g88
g69
NtRp2577
(dp2578
g72
(dp2579
sg81
g2573
sg74
(lp2580
g67
(g68
g69
NtRp2581
(dp2582
g72
(dp2583
g80
I3
ssg81
g2577
sg74
(lp2584
S'2'
asbasbasbag67
(g83
g69
NtRp2585
(dp2586
g72
(dp2587
sg81
g2545
sg74
(lp2588
g67
(g88
g69
NtRp2589
(dp2590
g72
(dp2591
sg81
g2585
sg74
(lp2592
g67
(g68
g69
NtRp2593
(dp2594
g72
(dp2595
g80
I3
ssg81
g2589
sg74
(lp2596
S'datetime.datetime(2012, 12, 17, 15, 3, 30)'
p2597
asbasbasbag67
(g83
g69
NtRp2598
(dp2599
g72
(dp2600
sg81
g2545
sg74
(lp2601
g67
(g88
g69
NtRp2602
(dp2603
g72
(dp2604
sg81
g2598
sg74
(lp2605
g67
(g68
g69
NtRp2606
(dp2607
g72
(dp2608
g80
I3
ssg81
g2602
sg74
(lp2609
g1914
asbasbasbasbasbasbasbasbasbasbasbag67
(g83
g69
NtRp2610
(dp2611
g72
(dp2612
sg81
g77
sg74
(lp2613
g67
(g88
g69
NtRp2614
(dp2615
g72
(dp2616
g92
g93
ssg81
g2610
sg74
(lp2617
S'is_https'
p2618
asbag67
(g88
g69
NtRp2619
(dp2620
g72
(dp2621
g99
g100
ssg81
g2610
sg74
(lp2622
S':'
asbag67
(g88
g69
NtRp2623
(dp2624
g72
(dp2625
sg81
g2610
sg74
(lp2626
g67
(g68
g69
NtRp2627
(dp2628
g72
(dp2629
g80
I5
ssg81
g2623
sg74
(lp2630
g110
asbasbasbag67
(g83
g69
NtRp2631
(dp2632
g72
(dp2633
sg81
g77
sg74
(lp2634
g67
(g88
g69
NtRp2635
(dp2636
g72
(dp2637
g92
g93
ssg81
g2631
sg74
(lp2638
S'is_local'
p2639
asbag67
(g88
g69
NtRp2640
(dp2641
g72
(dp2642
g99
g100
ssg81
g2631
sg74
(lp2643
S':'
asbag67
(g88
g69
NtRp2644
(dp2645
g72
(dp2646
sg81
g2631
sg74
(lp2647
g67
(g68
g69
NtRp2648
(dp2649
g72
(dp2650
g80
I5
ssg81
g2644
sg74
(lp2651
g2023
asbasbasbag67
(g83
g69
NtRp2652
(dp2653
g72
(dp2654
sg81
g77
sg74
(lp2655
g67
(g88
g69
NtRp2656
(dp2657
g72
(dp2658
g92
g93
ssg81
g2652
sg74
(lp2659
S'is_restful'
p2660
asbag67
(g88
g69
NtRp2661
(dp2662
g72
(dp2663
g99
g100
ssg81
g2652
sg74
(lp2664
S':'
asbag67
(g88
g69
NtRp2665
(dp2666
g72
(dp2667
sg81
g2652
sg74
(lp2668
g67
(g68
g69
NtRp2669
(dp2670
g72
(dp2671
g80
I5
ssg81
g2665
sg74
(lp2672
g110
asbasbasbag67
(g83
g69
NtRp2673
(dp2674
g72
(dp2675
sg81
g77
sg74
(lp2676
g67
(g88
g69
NtRp2677
(dp2678
g72
(dp2679
g92
g93
ssg81
g2673
sg74
(lp2680
S'now'
p2681
asbag67
(g88
g69
NtRp2682
(dp2683
g72
(dp2684
g99
g100
ssg81
g2673
sg74
(lp2685
S':'
asbag67
(g88
g69
NtRp2686
(dp2687
g72
(dp2688
sg81
g2673
sg74
(lp2689
g67
(g68
g69
NtRp2690
(dp2691
g72
(dp2692
g80
I5
ssg81
g2686
sg74
(lp2693
S'datetime.datetime(2013, 2, 11, 18, 39, 47, 922221)'
p2694
asbasbasbag67
(g83
g69
NtRp2695
(dp2696
g72
(dp2697
sg81
g77
sg74
(lp2698
g67
(g88
g69
NtRp2699
(dp2700
g72
(dp2701
g92
g93
ssg81
g2695
sg74
(lp2702
S'post_vars'
p2703
asbag67
(g88
g69
NtRp2704
(dp2705
g72
(dp2706
g99
g100
ssg81
g2695
sg74
(lp2707
S':'
asbag67
(g88
g69
NtRp2708
(dp2709
g72
(dp2710
sg81
g2695
sg74
(lp2711
g67
(g68
g69
NtRp2712
(dp2713
g72
(dp2714
g80
I5
ssg81
g2708
sg74
(lp2715
g67
(g76
g69
NtRp2716
(dp2717
g72
(dp2718
g80
I4
ssg81
Nsg74
(lp2719
sbasbasbasbag67
(g83
g69
NtRp2720
(dp2721
g72
(dp2722
sg81
g77
sg74
(lp2723
g67
(g88
g69
NtRp2724
(dp2725
g72
(dp2726
g92
g93
ssg81
g2720
sg74
(lp2727
S'raw_args'
p2728
asbag67
(g88
g69
NtRp2729
(dp2730
g72
(dp2731
g99
g100
ssg81
g2720
sg74
(lp2732
S':'
asbag67
(g88
g69
NtRp2733
(dp2734
g72
(dp2735
sg81
g2720
sg74
(lp2736
g67
(g68
g69
NtRp2737
(dp2738
g72
(dp2739
g80
I5
ssg81
g2733
sg74
(lp2740
g169
asbasbasbag67
(g83
g69
NtRp2741
(dp2742
g72
(dp2743
sg81
g77
sg74
(lp2744
g67
(g88
g69
NtRp2745
(dp2746
g72
(dp2747
g92
g93
ssg81
g2741
sg74
(lp2748
S'raw_extension'
p2749
asbag67
(g88
g69
NtRp2750
(dp2751
g72
(dp2752
g99
g100
ssg81
g2741
sg74
(lp2753
S':'
asbag67
(g88
g69
NtRp2754
(dp2755
g72
(dp2756
sg81
g2741
sg74
(lp2757
g67
(g68
g69
NtRp2758
(dp2759
g72
(dp2760
g80
I5
ssg81
g2754
sg74
(lp2761
S'None'
p2762
asbasbasbag67
(g83
g69
NtRp2763
(dp2764
g72
(dp2765
sg81
g77
sg74
(lp2766
g67
(g88
g69
NtRp2767
(dp2768
g72
(dp2769
g92
g93
ssg81
g2763
sg74
(lp2770
S'url'
p2771
asbag67
(g88
g69
NtRp2772
(dp2773
g72
(dp2774
g99
g100
ssg81
g2763
sg74
(lp2775
S':'
asbag67
(g88
g69
NtRp2776
(dp2777
g72
(dp2778
sg81
g2763
sg74
(lp2779
g67
(g68
g69
NtRp2780
(dp2781
g72
(dp2782
g80
I5
ssg81
g2776
sg74
(lp2783
g1588
asbasbasbag67
(g83
g69
NtRp2784
(dp2785
g72
(dp2786
sg81
g77
sg74
(lp2787
g67
(g88
g69
NtRp2788
(dp2789
g72
(dp2790
g92
g93
ssg81
g2784
sg74
(lp2791
S'utcnow'
p2792
asbag67
(g88
g69
NtRp2793
(dp2794
g72
(dp2795
g99
g100
ssg81
g2784
sg74
(lp2796
S':'
asbag67
(g88
g69
NtRp2797
(dp2798
g72
(dp2799
sg81
g2784
sg74
(lp2800
g67
(g68
g69
NtRp2801
(dp2802
g72
(dp2803
g80
I5
ssg81
g2797
sg74
(lp2804
S'datetime.datetime(2013, 2, 11, 17, 39, 47, 922256)'
p2805
asbasbasbag67
(g83
g69
NtRp2806
(dp2807
g72
(dp2808
sg81
g77
sg74
(lp2809
g67
(g88
g69
NtRp2810
(dp2811
g72
(dp2812
g92
g93
ssg81
g2806
sg74
(lp2813
S'uuid'
p2814
asbag67
(g88
g69
NtRp2815
(dp2816
g72
(dp2817
g99
g100
ssg81
g2806
sg74
(lp2818
S':'
asbag67
(g88
g69
NtRp2819
(dp2820
g72
(dp2821
sg81
g2806
sg74
(lp2822
g67
(g68
g69
NtRp2823
(dp2824
g72
(dp2825
g80
I5
ssg81
g2819
sg74
(lp2826
S'CygnusCloud/127.0.0.1.2013-02-11.18-39-47.370a2879-4560-4997-995c-12c39fe69da2'
p2827
asbasbasbag67
(g83
g69
NtRp2828
(dp2829
g72
(dp2830
sg81
g77
sg74
(lp2831
g67
(g88
g69
NtRp2832
(dp2833
g72
(dp2834
g92
g93
ssg81
g2828
sg74
(lp2835
S'vars'
p2836
asbag67
(g88
g69
NtRp2837
(dp2838
g72
(dp2839
g99
g100
ssg81
g2828
sg74
(lp2840
S':'
asbag67
(g88
g69
NtRp2841
(dp2842
g72
(dp2843
sg81
g2828
sg74
(lp2844
g67
(g68
g69
NtRp2845
(dp2846
g72
(dp2847
g80
I5
ssg81
g2841
sg74
(lp2848
g67
(g76
g69
NtRp2849
(dp2850
g72
(dp2851
g80
I4
ssg81
Nsg74
(lp2852
g67
(g83
g69
NtRp2853
(dp2854
g72
(dp2855
sg81
g2849
sg74
(lp2856
g67
(g88
g69
NtRp2857
(dp2858
g72
(dp2859
g92
g93
ssg81
g2853
sg74
(lp2860
g2215
asbag67
(g88
g69
NtRp2861
(dp2862
g72
(dp2863
g99
g100
ssg81
g2853
sg74
(lp2864
S':'
asbag67
(g88
g69
NtRp2865
(dp2866
g72
(dp2867
sg81
g2853
sg74
(lp2868
g67
(g68
g69
NtRp2869
(dp2870
g72
(dp2871
g80
I4
ssg81
g2865
sg74
(lp2872
g2228
asbasbasbasbasbasbasbag67
(g83
g69
NtRp2873
(dp2874
g72
(dp2875
sg81
g77
sg74
(lp2876
g67
(g88
g69
NtRp2877
(dp2878
g72
(dp2879
g92
g93
ssg81
g2873
sg74
(lp2880
S'wsgi'
p2881
asbag67
(g88
g69
NtRp2882
(dp2883
g72
(dp2884
g99
g100
ssg81
g2873
sg74
(lp2885
S':'
asbag67
(g88
g69
NtRp2886
(dp2887
g72
(dp2888
sg81
g2873
sg74
(lp2889
g67
(g68
g69
NtRp2890
(dp2891
g72
(dp2892
g80
I5
ssg81
g2886
sg74
(lp2893
g67
(g76
g69
NtRp2894
(dp2895
g72
(dp2896
g80
I4
ssg81
Nsg74
(lp2897
g67
(g83
g69
NtRp2898
(dp2899
g72
(dp2900
sg81
g2894
sg74
(lp2901
g67
(g88
g69
NtRp2902
(dp2903
g72
(dp2904
g92
g93
ssg81
g2898
sg74
(lp2905
S'environ'
p2906
asbag67
(g88
g69
NtRp2907
(dp2908
g72
(dp2909
g99
g100
ssg81
g2898
sg74
(lp2910
S':'
asbag67
(g88
g69
NtRp2911
(dp2912
g72
(dp2913
sg81
g2898
sg74
(lp2914
g67
(g68
g69
NtRp2915
(dp2916
g72
(dp2917
g80
I4
ssg81
g2911
sg74
(lp2918
g67
(g76
g69
NtRp2919
(dp2920
g72
(dp2921
g80
I3
ssg81
Nsg74
(lp2922
g67
(g83
g69
NtRp2923
(dp2924
g72
(dp2925
sg81
g2919
sg74
(lp2926
g67
(g88
g69
NtRp2927
(dp2928
g72
(dp2929
g92
g93
ssg81
g2923
sg74
(lp2930
S'HTTP_ACCEPT'
p2931
asbag67
(g88
g69
NtRp2932
(dp2933
g72
(dp2934
g99
g100
ssg81
g2923
sg74
(lp2935
S':'
asbag67
(g88
g69
NtRp2936
(dp2937
g72
(dp2938
sg81
g2923
sg74
(lp2939
g67
(g68
g69
NtRp2940
(dp2941
g72
(dp2942
g80
I3
ssg81
g2936
sg74
(lp2943
g1236
asbasbasbag67
(g83
g69
NtRp2944
(dp2945
g72
(dp2946
sg81
g2919
sg74
(lp2947
g67
(g88
g69
NtRp2948
(dp2949
g72
(dp2950
g92
g93
ssg81
g2944
sg74
(lp2951
S'HTTP_ACCEPT_CHARSET'
p2952
asbag67
(g88
g69
NtRp2953
(dp2954
g72
(dp2955
g99
g100
ssg81
g2944
sg74
(lp2956
S':'
asbag67
(g88
g69
NtRp2957
(dp2958
g72
(dp2959
sg81
g2944
sg74
(lp2960
g67
(g68
g69
NtRp2961
(dp2962
g72
(dp2963
g80
I3
ssg81
g2957
sg74
(lp2964
g1258
asbasbasbag67
(g83
g69
NtRp2965
(dp2966
g72
(dp2967
sg81
g2919
sg74
(lp2968
g67
(g88
g69
NtRp2969
(dp2970
g72
(dp2971
g92
g93
ssg81
g2965
sg74
(lp2972
S'HTTP_ACCEPT_ENCODING'
p2973
asbag67
(g88
g69
NtRp2974
(dp2975
g72
(dp2976
g99
g100
ssg81
g2965
sg74
(lp2977
S':'
asbag67
(g88
g69
NtRp2978
(dp2979
g72
(dp2980
sg81
g2965
sg74
(lp2981
g67
(g68
g69
NtRp2982
(dp2983
g72
(dp2984
g80
I3
ssg81
g2978
sg74
(lp2985
g1280
asbasbasbag67
(g83
g69
NtRp2986
(dp2987
g72
(dp2988
sg81
g2919
sg74
(lp2989
g67
(g88
g69
NtRp2990
(dp2991
g72
(dp2992
g92
g93
ssg81
g2986
sg74
(lp2993
S'HTTP_ACCEPT_LANGUAGE'
p2994
asbag67
(g88
g69
NtRp2995
(dp2996
g72
(dp2997
g99
g100
ssg81
g2986
sg74
(lp2998
S':'
asbag67
(g88
g69
NtRp2999
(dp3000
g72
(dp3001
sg81
g2986
sg74
(lp3002
g67
(g68
g69
NtRp3003
(dp3004
g72
(dp3005
g80
I3
ssg81
g2999
sg74
(lp3006
g1302
asbasbasbag67
(g83
g69
NtRp3007
(dp3008
g72
(dp3009
sg81
g2919
sg74
(lp3010
g67
(g88
g69
NtRp3011
(dp3012
g72
(dp3013
g92
g93
ssg81
g3007
sg74
(lp3014
S'HTTP_CACHE_CONTROL'
p3015
asbag67
(g88
g69
NtRp3016
(dp3017
g72
(dp3018
g99
g100
ssg81
g3007
sg74
(lp3019
S':'
asbag67
(g88
g69
NtRp3020
(dp3021
g72
(dp3022
sg81
g3007
sg74
(lp3023
g67
(g68
g69
NtRp3024
(dp3025
g72
(dp3026
g80
I3
ssg81
g3020
sg74
(lp3027
g1324
asbasbasbag67
(g83
g69
NtRp3028
(dp3029
g72
(dp3030
sg81
g2919
sg74
(lp3031
g67
(g88
g69
NtRp3032
(dp3033
g72
(dp3034
g92
g93
ssg81
g3028
sg74
(lp3035
S'HTTP_CONNECTION'
p3036
asbag67
(g88
g69
NtRp3037
(dp3038
g72
(dp3039
g99
g100
ssg81
g3028
sg74
(lp3040
S':'
asbag67
(g88
g69
NtRp3041
(dp3042
g72
(dp3043
sg81
g3028
sg74
(lp3044
g67
(g68
g69
NtRp3045
(dp3046
g72
(dp3047
g80
I3
ssg81
g3041
sg74
(lp3048
g1346
asbasbasbag67
(g83
g69
NtRp3049
(dp3050
g72
(dp3051
sg81
g2919
sg74
(lp3052
g67
(g88
g69
NtRp3053
(dp3054
g72
(dp3055
g92
g93
ssg81
g3049
sg74
(lp3056
S'HTTP_COOKIE'
p3057
asbag67
(g88
g69
NtRp3058
(dp3059
g72
(dp3060
g99
g100
ssg81
g3049
sg74
(lp3061
S':'
asbag67
(g88
g69
NtRp3062
(dp3063
g72
(dp3064
sg81
g3049
sg74
(lp3065
g67
(g68
g69
NtRp3066
(dp3067
g72
(dp3068
g80
I3
ssg81
g3062
sg74
(lp3069
g1368
asbasbasbag67
(g83
g69
NtRp3070
(dp3071
g72
(dp3072
sg81
g2919
sg74
(lp3073
g67
(g88
g69
NtRp3074
(dp3075
g72
(dp3076
g92
g93
ssg81
g3070
sg74
(lp3077
S'HTTP_HOST'
p3078
asbag67
(g88
g69
NtRp3079
(dp3080
g72
(dp3081
g99
g100
ssg81
g3070
sg74
(lp3082
S':'
asbag67
(g88
g69
NtRp3083
(dp3084
g72
(dp3085
sg81
g3070
sg74
(lp3086
g67
(g68
g69
NtRp3087
(dp3088
g72
(dp3089
g80
I3
ssg81
g3083
sg74
(lp3090
g1390
asbasbasbag67
(g83
g69
NtRp3091
(dp3092
g72
(dp3093
sg81
g2919
sg74
(lp3094
g67
(g88
g69
NtRp3095
(dp3096
g72
(dp3097
g92
g93
ssg81
g3091
sg74
(lp3098
S'HTTP_REFERER'
p3099
asbag67
(g88
g69
NtRp3100
(dp3101
g72
(dp3102
g99
g100
ssg81
g3091
sg74
(lp3103
S':'
asbag67
(g88
g69
NtRp3104
(dp3105
g72
(dp3106
sg81
g3091
sg74
(lp3107
g67
(g68
g69
NtRp3108
(dp3109
g72
(dp3110
g80
I3
ssg81
g3104
sg74
(lp3111
g1412
asbasbasbag67
(g83
g69
NtRp3112
(dp3113
g72
(dp3114
sg81
g2919
sg74
(lp3115
g67
(g88
g69
NtRp3116
(dp3117
g72
(dp3118
g92
g93
ssg81
g3112
sg74
(lp3119
S'HTTP_USER_AGENT'
p3120
asbag67
(g88
g69
NtRp3121
(dp3122
g72
(dp3123
g99
g100
ssg81
g3112
sg74
(lp3124
S':'
asbag67
(g88
g69
NtRp3125
(dp3126
g72
(dp3127
sg81
g3112
sg74
(lp3128
g67
(g68
g69
NtRp3129
(dp3130
g72
(dp3131
g80
I3
ssg81
g3125
sg74
(lp3132
g1434
asbasbasbag67
(g83
g69
NtRp3133
(dp3134
g72
(dp3135
sg81
g2919
sg74
(lp3136
g67
(g88
g69
NtRp3137
(dp3138
g72
(dp3139
g92
g93
ssg81
g3133
sg74
(lp3140
S'PATH_INFO'
p3141
asbag67
(g88
g69
NtRp3142
(dp3143
g72
(dp3144
g99
g100
ssg81
g3133
sg74
(lp3145
S':'
asbag67
(g88
g69
NtRp3146
(dp3147
g72
(dp3148
sg81
g3133
sg74
(lp3149
g67
(g68
g69
NtRp3150
(dp3151
g72
(dp3152
g80
I3
ssg81
g3146
sg74
(lp3153
g1588
asbasbasbag67
(g83
g69
NtRp3154
(dp3155
g72
(dp3156
sg81
g2919
sg74
(lp3157
g67
(g88
g69
NtRp3158
(dp3159
g72
(dp3160
g92
g93
ssg81
g3154
sg74
(lp3161
S'QUERY_STRING'
p3162
asbag67
(g88
g69
NtRp3163
(dp3164
g72
(dp3165
g99
g100
ssg81
g3154
sg74
(lp3166
S':'
asbag67
(g88
g69
NtRp3167
(dp3168
g72
(dp3169
sg81
g3154
sg74
(lp3170
g67
(g68
g69
NtRp3171
(dp3172
g72
(dp3173
g80
I3
ssg81
g3167
sg74
(lp3174
g1610
asbasbasbag67
(g83
g69
NtRp3175
(dp3176
g72
(dp3177
sg81
g2919
sg74
(lp3178
g67
(g88
g69
NtRp3179
(dp3180
g72
(dp3181
g92
g93
ssg81
g3175
sg74
(lp3182
S'REMOTE_ADDR'
p3183
asbag67
(g88
g69
NtRp3184
(dp3185
g72
(dp3186
g99
g100
ssg81
g3175
sg74
(lp3187
S':'
asbag67
(g88
g69
NtRp3188
(dp3189
g72
(dp3190
sg81
g3175
sg74
(lp3191
g67
(g68
g69
NtRp3192
(dp3193
g72
(dp3194
g80
I3
ssg81
g3188
sg74
(lp3195
g235
asbasbasbag67
(g83
g69
NtRp3196
(dp3197
g72
(dp3198
sg81
g2919
sg74
(lp3199
g67
(g88
g69
NtRp3200
(dp3201
g72
(dp3202
g92
g93
ssg81
g3196
sg74
(lp3203
S'REMOTE_PORT'
p3204
asbag67
(g88
g69
NtRp3205
(dp3206
g72
(dp3207
g99
g100
ssg81
g3196
sg74
(lp3208
S':'
asbag67
(g88
g69
NtRp3209
(dp3210
g72
(dp3211
sg81
g3196
sg74
(lp3212
g67
(g68
g69
NtRp3213
(dp3214
g72
(dp3215
g80
I3
ssg81
g3209
sg74
(lp3216
g1653
asbasbasbag67
(g83
g69
NtRp3217
(dp3218
g72
(dp3219
sg81
g2919
sg74
(lp3220
g67
(g88
g69
NtRp3221
(dp3222
g72
(dp3223
g92
g93
ssg81
g3217
sg74
(lp3224
S'REQUEST_METHOD'
p3225
asbag67
(g88
g69
NtRp3226
(dp3227
g72
(dp3228
g99
g100
ssg81
g3217
sg74
(lp3229
S':'
asbag67
(g88
g69
NtRp3230
(dp3231
g72
(dp3232
sg81
g3217
sg74
(lp3233
g67
(g68
g69
NtRp3234
(dp3235
g72
(dp3236
g80
I3
ssg81
g3230
sg74
(lp3237
g1675
asbasbasbag67
(g83
g69
NtRp3238
(dp3239
g72
(dp3240
sg81
g2919
sg74
(lp3241
g67
(g88
g69
NtRp3242
(dp3243
g72
(dp3244
g92
g93
ssg81
g3238
sg74
(lp3245
S'REQUEST_URI'
p3246
asbag67
(g88
g69
NtRp3247
(dp3248
g72
(dp3249
g99
g100
ssg81
g3238
sg74
(lp3250
S':'
asbag67
(g88
g69
NtRp3251
(dp3252
g72
(dp3253
sg81
g3238
sg74
(lp3254
g67
(g68
g69
NtRp3255
(dp3256
g72
(dp3257
g80
I3
ssg81
g3251
sg74
(lp3258
g1697
asbasbasbag67
(g83
g69
NtRp3259
(dp3260
g72
(dp3261
sg81
g2919
sg74
(lp3262
g67
(g88
g69
NtRp3263
(dp3264
g72
(dp3265
g92
g93
ssg81
g3259
sg74
(lp3266
S'SCRIPT_NAME'
p3267
asbag67
(g88
g69
NtRp3268
(dp3269
g72
(dp3270
g99
g100
ssg81
g3259
sg74
(lp3271
S':'
asbag67
(g88
g69
NtRp3272
(dp3273
g72
(dp3274
sg81
g3259
sg74
(lp3275
g67
(g68
g69
NtRp3276
(dp3277
g72
(dp3278
g80
I3
ssg81
g3272
sg74
(lp3279
S''
asbasbasbag67
(g83
g69
NtRp3280
(dp3281
g72
(dp3282
sg81
g2919
sg74
(lp3283
g67
(g88
g69
NtRp3284
(dp3285
g72
(dp3286
g92
g93
ssg81
g3280
sg74
(lp3287
S'SERVER_NAME'
p3288
asbag67
(g88
g69
NtRp3289
(dp3290
g72
(dp3291
g99
g100
ssg81
g3280
sg74
(lp3292
S':'
asbag67
(g88
g69
NtRp3293
(dp3294
g72
(dp3295
sg81
g3280
sg74
(lp3296
g67
(g68
g69
NtRp3297
(dp3298
g72
(dp3299
g80
I3
ssg81
g3293
sg74
(lp3300
g1740
asbasbasbag67
(g83
g69
NtRp3301
(dp3302
g72
(dp3303
sg81
g2919
sg74
(lp3304
g67
(g88
g69
NtRp3305
(dp3306
g72
(dp3307
g92
g93
ssg81
g3301
sg74
(lp3308
S'SERVER_PORT'
p3309
asbag67
(g88
g69
NtRp3310
(dp3311
g72
(dp3312
g99
g100
ssg81
g3301
sg74
(lp3313
S':'
asbag67
(g88
g69
NtRp3314
(dp3315
g72
(dp3316
sg81
g3301
sg74
(lp3317
g67
(g68
g69
NtRp3318
(dp3319
g72
(dp3320
g80
I3
ssg81
g3314
sg74
(lp3321
g1762
asbasbasbag67
(g83
g69
NtRp3322
(dp3323
g72
(dp3324
sg81
g2919
sg74
(lp3325
g67
(g88
g69
NtRp3326
(dp3327
g72
(dp3328
g92
g93
ssg81
g3322
sg74
(lp3329
S'SERVER_PROTOCOL'
p3330
asbag67
(g88
g69
NtRp3331
(dp3332
g72
(dp3333
g99
g100
ssg81
g3322
sg74
(lp3334
S':'
asbag67
(g88
g69
NtRp3335
(dp3336
g72
(dp3337
sg81
g3322
sg74
(lp3338
g67
(g68
g69
NtRp3339
(dp3340
g72
(dp3341
g80
I3
ssg81
g3335
sg74
(lp3342
g1784
asbasbasbag67
(g83
g69
NtRp3343
(dp3344
g72
(dp3345
sg81
g2919
sg74
(lp3346
g67
(g88
g69
NtRp3347
(dp3348
g72
(dp3349
g92
g93
ssg81
g3343
sg74
(lp3350
S'SERVER_SOFTWARE'
p3351
asbag67
(g88
g69
NtRp3352
(dp3353
g72
(dp3354
g99
g100
ssg81
g3343
sg74
(lp3355
S':'
asbag67
(g88
g69
NtRp3356
(dp3357
g72
(dp3358
sg81
g3343
sg74
(lp3359
g67
(g68
g69
NtRp3360
(dp3361
g72
(dp3362
g80
I3
ssg81
g3356
sg74
(lp3363
g1806
asbasbasbag67
(g83
g69
NtRp3364
(dp3365
g72
(dp3366
sg81
g2919
sg74
(lp3367
g67
(g88
g69
NtRp3368
(dp3369
g72
(dp3370
g92
g93
ssg81
g3364
sg74
(lp3371
S'wsgi.errors'
p3372
asbag67
(g88
g69
NtRp3373
(dp3374
g72
(dp3375
g99
g100
ssg81
g3364
sg74
(lp3376
S':'
asbag67
(g88
g69
NtRp3377
(dp3378
g72
(dp3379
sg81
g3364
sg74
(lp3380
g67
(g68
g69
NtRp3381
(dp3382
g72
(dp3383
g80
I3
ssg81
g3377
sg74
(lp3384
S"<open file '<stderr>', mode 'w' at 0x7f5f77b12270>"
p3385
asbasbasbag67
(g83
g69
NtRp3386
(dp3387
g72
(dp3388
sg81
g2919
sg74
(lp3389
g67
(g88
g69
NtRp3390
(dp3391
g72
(dp3392
g92
g93
ssg81
g3386
sg74
(lp3393
S'wsgi.file_wrapper'
p3394
asbag67
(g88
g69
NtRp3395
(dp3396
g72
(dp3397
g99
g100
ssg81
g3386
sg74
(lp3398
S':'
asbag67
(g88
g69
NtRp3399
(dp3400
g72
(dp3401
sg81
g3386
sg74
(lp3402
g67
(g68
g69
NtRp3403
(dp3404
g72
(dp3405
g80
I3
ssg81
g3399
sg74
(lp3406
S'<class wsgiref.util.FileWrapper at 0x2151db8>'
p3407
asbasbasbag67
(g83
g69
NtRp3408
(dp3409
g72
(dp3410
sg81
g2919
sg74
(lp3411
g67
(g88
g69
NtRp3412
(dp3413
g72
(dp3414
g92
g93
ssg81
g3408
sg74
(lp3415
S'wsgi.input'
p3416
asbag67
(g88
g69
NtRp3417
(dp3418
g72
(dp3419
g99
g100
ssg81
g3408
sg74
(lp3420
S':'
asbag67
(g88
g69
NtRp3421
(dp3422
g72
(dp3423
sg81
g3408
sg74
(lp3424
g67
(g68
g69
NtRp3425
(dp3426
g72
(dp3427
g80
I3
ssg81
g3421
sg74
(lp3428
S'<cStringIO.StringO object at 0x7f5f685d65e0>'
p3429
asbasbasbag67
(g83
g69
NtRp3430
(dp3431
g72
(dp3432
sg81
g2919
sg74
(lp3433
g67
(g88
g69
NtRp3434
(dp3435
g72
(dp3436
g92
g93
ssg81
g3430
sg74
(lp3437
S'wsgi.multiprocess'
p3438
asbag67
(g88
g69
NtRp3439
(dp3440
g72
(dp3441
g99
g100
ssg81
g3430
sg74
(lp3442
S':'
asbag67
(g88
g69
NtRp3443
(dp3444
g72
(dp3445
sg81
g3430
sg74
(lp3446
g67
(g68
g69
NtRp3447
(dp3448
g72
(dp3449
g80
I3
ssg81
g3443
sg74
(lp3450
g110
asbasbasbag67
(g83
g69
NtRp3451
(dp3452
g72
(dp3453
sg81
g2919
sg74
(lp3454
g67
(g88
g69
NtRp3455
(dp3456
g72
(dp3457
g92
g93
ssg81
g3451
sg74
(lp3458
S'wsgi.multithread'
p3459
asbag67
(g88
g69
NtRp3460
(dp3461
g72
(dp3462
g99
g100
ssg81
g3451
sg74
(lp3463
S':'
asbag67
(g88
g69
NtRp3464
(dp3465
g72
(dp3466
sg81
g3451
sg74
(lp3467
g67
(g68
g69
NtRp3468
(dp3469
g72
(dp3470
g80
I3
ssg81
g3464
sg74
(lp3471
g2023
asbasbasbag67
(g83
g69
NtRp3472
(dp3473
g72
(dp3474
sg81
g2919
sg74
(lp3475
g67
(g88
g69
NtRp3476
(dp3477
g72
(dp3478
g92
g93
ssg81
g3472
sg74
(lp3479
S'wsgi.run_once'
p3480
asbag67
(g88
g69
NtRp3481
(dp3482
g72
(dp3483
g99
g100
ssg81
g3472
sg74
(lp3484
S':'
asbag67
(g88
g69
NtRp3485
(dp3486
g72
(dp3487
sg81
g3472
sg74
(lp3488
g67
(g68
g69
NtRp3489
(dp3490
g72
(dp3491
g80
I3
ssg81
g3485
sg74
(lp3492
g110
asbasbasbag67
(g83
g69
NtRp3493
(dp3494
g72
(dp3495
sg81
g2919
sg74
(lp3496
g67
(g88
g69
NtRp3497
(dp3498
g72
(dp3499
g92
g93
ssg81
g3493
sg74
(lp3500
S'wsgi.url_scheme'
p3501
asbag67
(g88
g69
NtRp3502
(dp3503
g72
(dp3504
g99
g100
ssg81
g3493
sg74
(lp3505
S':'
asbag67
(g88
g69
NtRp3506
(dp3507
g72
(dp3508
sg81
g3493
sg74
(lp3509
g67
(g68
g69
NtRp3510
(dp3511
g72
(dp3512
g80
I3
ssg81
g3506
sg74
(lp3513
g2066
asbasbasbag67
(g83
g69
NtRp3514
(dp3515
g72
(dp3516
sg81
g2919
sg74
(lp3517
g67
(g88
g69
NtRp3518
(dp3519
g72
(dp3520
g92
g93
ssg81
g3514
sg74
(lp3521
S'wsgi.version'
p3522
asbag67
(g88
g69
NtRp3523
(dp3524
g72
(dp3525
g99
g100
ssg81
g3514
sg74
(lp3526
S':'
asbag67
(g88
g69
NtRp3527
(dp3528
g72
(dp3529
sg81
g3514
sg74
(lp3530
g67
(g68
g69
NtRp3531
(dp3532
g72
(dp3533
g80
I3
ssg81
g3527
sg74
(lp3534
S'1'
asbasbasbasbasbasbasbasbasbasbasbasbasbsS'frames'
p3535
(lp3536
(dp3537
S'file'
p3538
S'/home/adrian/web2py/gluon/restricted.py'
p3539
sS'dump'
p3540
(dp3541
S'environment'
p3542
S"{'A': <class 'gluon.html.A'>, 'Auth': <class 'gluon.tools.Auth'>, 'B': <class 'gluon.html.B'>, 'BEAUTIFY': <class 'gluon.html.BEAUTIFY'>, 'BODY': <class 'gluon.html.BODY'>, 'BR': <class 'gluon.html.BR'>, 'BUTTON': <class 'gluon.html.BUTTON'>, 'CAT': <class 'gluon.html.CAT'>, 'CENTER': <class 'gluon.html.CENTER'>, 'CLEANUP': <class 'gluon.validators.CLEANUP'>, ...}"
p3543
sS'ccode'
p3544
S'<code object <module> at 0x7f5f6049c5b0, file "/...ygnusCloud/controllers/administrator.py", line 4>'
p3545
ssS'lnum'
p3546
I212
sS'lines'
p3547
(dp3548
I207
S'    try:'
p3549
sI208
S'        if isinstance(code, types.CodeType):'
p3550
sI209
S'            ccode = code'
p3551
sI210
S'        else:'
p3552
sI211
S'            ccode = compile2(code, layer)'
p3553
sI212
S'        exec ccode in environment'
p3554
sI213
S'    except HTTP:'
p3555
sI214
S'        raise'
p3556
sI215
S'    except RestrictedError:'
p3557
sI216
S'        # do not encapsulate (obfuscate) the original RestrictedError'
p3558
ssS'call'
p3559
S'(code="# coding: utf8\\n\\n\\n@auth.requires_membership(\'Admi...table\\n\\nresponse._vars=response._caller(subjects)\\n", environment={\'A\': <class \'gluon.html.A\'>, \'Auth\': <class \'gluon.tools.Auth\'>, \'B\': <class \'gluon.html.B\'>, \'BEAUTIFY\': <class \'gluon.html.BEAUTIFY\'>, \'BODY\': <class \'gluon.html.BODY\'>, \'BR\': <class \'gluon.html.BR\'>, \'BUTTON\': <class \'gluon.html.BUTTON\'>, \'CAT\': <class \'gluon.html.CAT\'>, \'CENTER\': <class \'gluon.html.CENTER\'>, \'CLEANUP\': <class \'gluon.validators.CLEANUP\'>, ...}, layer=\'/home/adrian/web2py/applications/CygnusCloud/controllers/administrator.py\')'
p3560
sS'func'
p3561
S'restricted'
p3562
sa(dp3563
g3538
S'/home/adrian/web2py/applications/CygnusCloud/controllers/administrator.py'
p3564
sg3540
(dp3565
sg3546
I273
sg3547
(dp3566
I262
S"    table.append(TR(TH('S.'),TH(T('Cod-Asignatura'),TH(T('Grupo')))))"
p3567
sI263
S'    i = 0'
p3568
sI264
S'    for l in listSubjects:'
p3569
sI265
S'        table.append(TR(\\'
p3570
sI266
S"        TD(INPUT(_type='radio',_name = 'selection',_value = i)),\\"
p3571
sI267
S"        TD(LABEL(l.cod + '-' + userDB(l.cod == userDB.Subjects.code).select()[0].name)),"
p3572
sI268
S'        TD(LABEL(l.curseGroup))))'
p3573
sI269
S'        i = i + 1'
p3574
sI270
S'    pass'
p3575
sI271
S'    return table'
p3576
ssg3559
S'()'
p3577
sg3561
S'<module>'
p3578
sa(dp3579
g3538
S'/home/adrian/web2py/gluon/globals.py'
p3580
sg3540
(dp3581
S'self'
p3582
S'undefined'
p3583
sS'f'
S'<function subjects>'
p3584
ssg3546
I193
sg3547
(dp3585
I192
S'        self._vars = None'
p3586
sI193
S'        self._caller = lambda f: f()'
p3587
sI194
S'        self._view_environment = None'
p3588
sI195
S'        self._custom_commit = None'
p3589
sI196
S'        self._custom_rollback = None'
p3590
sI197
S''
sI188
S'        self.menu = []             # used by the default view layout'
p3591
sI189
S'        self.files = []            # used by web2py_ajax.html'
p3592
sI190
S'        self.generic_patterns = []  # patterns to allow generic views'
p3593
sI191
S"        self.delimiters = ('{{', '}}')"
p3594
ssg3559
S'(f=<function subjects>)'
p3595
sg3561
S'<lambda>'
p3596
sa(dp3597
g3538
S'/home/adrian/web2py/gluon/tools.py'
p3598
sg3540
(dp3599
S'action'
p3600
S'<function subjects>'
p3601
sS'a'
S'()'
p3602
sS'b'
g21
ssg3546
I2929
sg3547
(dp3603
I2924
S'                    flag = condition'
p3604
sI2925
S'                if not flag:'
p3605
sI2926
S'                    current.session.flash = self.messages.access_denied'
p3606
sI2927
S'                    return call_or_redirect('
p3607
sI2928
S'                        self.settings.on_failed_authorization)'
p3608
sI2929
S'                return action(*a, **b)'
p3609
sI2930
S'            f.__doc__ = action.__doc__'
p3610
sI2931
S'            f.__name__ = action.__name__'
p3611
sI2932
S'            f.__dict__.update(action.__dict__)'
p3612
sI2933
S'            return f'
p3613
ssg3559
S'(*a=(), **b={})'
p3614
sg3561
S'f'
sa(dp3615
g3538
S'/home/adrian/web2py/applications/CygnusCloud/controllers/administrator.py'
p3616
sg3540
(dp3617
S'global request'
p3618
S"<Storage {'function': 'subjects', 'body': <cStri...ations/CygnusCloud/', 'post_vars': <Storage {}>}>"
p3619
sS'request.vars'
p3620
S'<Storage {\'subjectsFind\': "<Row {\'cod\': 106148, \'curseGroup\': \'a\'}>"}>'
p3621
sS'request.vars.subjectsFind'
p3622
S'"<Row {\'cod\': 106148, \'curseGroup\': \'a\'}>"'
p3623
sS'builtineval'
p3624
S'<built-in function eval>'
p3625
sS'listSubjects'
p3626
S'"<Row {\'cod\': 106148, \'curseGroup\': \'a\'}>"'
p3627
ssg3546
I130
sg3547
(dp3628
I128
S''
sI129
S'        if((listSubjects != []) and (not isinstance(listSubjects[0],list))):'
p3629
sI130
S'            listSubjects = [eval(request.vars.subjectsFind)]'
p3630
sI131
S'            #listSubjects.append(request.vars.subjectsFind)'
p3631
sI132
S'        print listSubjects'
p3632
sI133
S'        table = createSubjectTable(listSubjects)'
p3633
sI134
S'        #Creamos el formulario'
p3634
sI125
S'        #Creamos el segundo formulario'
p3635
sI126
S'        listSubjects = request.vars.subjectsFind or []'
p3636
sI127
S'        #Comprobamos si se ha tomado como una lista'
p3637
ssg3559
S'()'
p3638
sg3561
S'subjects'
p3639
sasS'pyver'
p3640
S'Python 2.7.3: /usr/bin/python'
p3641
sS'session'
p3642
g67
(g68
g69
NtRp3643
(dp3644
g72
(dp3645
sg74
(lp3646
g67
(g76
g69
NtRp3647
(dp3648
g72
(dp3649
g80
I5
ssg81
Nsg74
(lp3650
g67
(g83
g69
NtRp3651
(dp3652
g72
(dp3653
sg81
g3647
sg74
(lp3654
g67
(g88
g69
NtRp3655
(dp3656
g72
(dp3657
g92
g93
ssg81
g3651
sg74
(lp3658
S'auth'
p3659
asbag67
(g88
g69
NtRp3660
(dp3661
g72
(dp3662
g99
g100
ssg81
g3651
sg74
(lp3663
S':'
asbag67
(g88
g69
NtRp3664
(dp3665
g72
(dp3666
sg81
g3651
sg74
(lp3667
g67
(g68
g69
NtRp3668
(dp3669
g72
(dp3670
g80
I5
ssg81
g3664
sg74
(lp3671
g67
(g76
g69
NtRp3672
(dp3673
g72
(dp3674
g80
I4
ssg81
Nsg74
(lp3675
g67
(g83
g69
NtRp3676
(dp3677
g72
(dp3678
sg81
g3672
sg74
(lp3679
g67
(g88
g69
NtRp3680
(dp3681
g72
(dp3682
g92
g93
ssg81
g3676
sg74
(lp3683
S'expiration'
p3684
asbag67
(g88
g69
NtRp3685
(dp3686
g72
(dp3687
g99
g100
ssg81
g3676
sg74
(lp3688
S':'
asbag67
(g88
g69
NtRp3689
(dp3690
g72
(dp3691
sg81
g3676
sg74
(lp3692
g67
(g68
g69
NtRp3693
(dp3694
g72
(dp3695
g80
I4
ssg81
g3689
sg74
(lp3696
S'3600'
p3697
asbasbasbag67
(g83
g69
NtRp3698
(dp3699
g72
(dp3700
sg81
g3672
sg74
(lp3701
g67
(g88
g69
NtRp3702
(dp3703
g72
(dp3704
g92
g93
ssg81
g3698
sg74
(lp3705
S'hmac_key'
p3706
asbag67
(g88
g69
NtRp3707
(dp3708
g72
(dp3709
g99
g100
ssg81
g3698
sg74
(lp3710
S':'
asbag67
(g88
g69
NtRp3711
(dp3712
g72
(dp3713
sg81
g3698
sg74
(lp3714
g67
(g68
g69
NtRp3715
(dp3716
g72
(dp3717
g80
I4
ssg81
g3711
sg74
(lp3718
S'c4b7a8bc-8103-4e15-bda7-a212f90bfc82'
p3719
asbasbasbag67
(g83
g69
NtRp3720
(dp3721
g72
(dp3722
sg81
g3672
sg74
(lp3723
g67
(g88
g69
NtRp3724
(dp3725
g72
(dp3726
g92
g93
ssg81
g3720
sg74
(lp3727
S'last_visit'
p3728
asbag67
(g88
g69
NtRp3729
(dp3730
g72
(dp3731
g99
g100
ssg81
g3720
sg74
(lp3732
S':'
asbag67
(g88
g69
NtRp3733
(dp3734
g72
(dp3735
sg81
g3720
sg74
(lp3736
g67
(g68
g69
NtRp3737
(dp3738
g72
(dp3739
g80
I4
ssg81
g3733
sg74
(lp3740
S'datetime.datetime(2013, 2, 11, 18, 39, 39, 979630)'
p3741
asbasbasbag67
(g83
g69
NtRp3742
(dp3743
g72
(dp3744
sg81
g3672
sg74
(lp3745
g67
(g88
g69
NtRp3746
(dp3747
g72
(dp3748
g92
g93
ssg81
g3742
sg74
(lp3749
S'remember'
p3750
asbag67
(g88
g69
NtRp3751
(dp3752
g72
(dp3753
g99
g100
ssg81
g3742
sg74
(lp3754
S':'
asbag67
(g88
g69
NtRp3755
(dp3756
g72
(dp3757
sg81
g3742
sg74
(lp3758
g67
(g68
g69
NtRp3759
(dp3760
g72
(dp3761
g80
I4
ssg81
g3755
sg74
(lp3762
g110
asbasbasbag67
(g83
g69
NtRp3763
(dp3764
g72
(dp3765
sg81
g3672
sg74
(lp3766
g67
(g88
g69
NtRp3767
(dp3768
g72
(dp3769
g92
g93
ssg81
g3763
sg74
(lp3770
S'user'
p3771
asbag67
(g88
g69
NtRp3772
(dp3773
g72
(dp3774
g99
g100
ssg81
g3763
sg74
(lp3775
S':'
asbag67
(g88
g69
NtRp3776
(dp3777
g72
(dp3778
sg81
g3763
sg74
(lp3779
g67
(g68
g69
NtRp3780
(dp3781
g72
(dp3782
g80
I4
ssg81
g3776
sg74
(lp3783
g67
(g76
g69
NtRp3784
(dp3785
g72
(dp3786
g80
I3
ssg81
Nsg74
(lp3787
g67
(g83
g69
NtRp3788
(dp3789
g72
(dp3790
sg81
g3784
sg74
(lp3791
g67
(g88
g69
NtRp3792
(dp3793
g72
(dp3794
g92
g93
ssg81
g3788
sg74
(lp3795
S'email'
p3796
asbag67
(g88
g69
NtRp3797
(dp3798
g72
(dp3799
g99
g100
ssg81
g3788
sg74
(lp3800
S':'
asbag67
(g88
g69
NtRp3801
(dp3802
g72
(dp3803
sg81
g3788
sg74
(lp3804
g67
(g68
g69
NtRp3805
(dp3806
g72
(dp3807
g80
I3
ssg81
g3801
sg74
(lp3808
S'Admin1@ucm.es'
p3809
asbasbasbag67
(g83
g69
NtRp3810
(dp3811
g72
(dp3812
sg81
g3784
sg74
(lp3813
g67
(g88
g69
NtRp3814
(dp3815
g72
(dp3816
g92
g93
ssg81
g3810
sg74
(lp3817
S'first_name'
p3818
asbag67
(g88
g69
NtRp3819
(dp3820
g72
(dp3821
g99
g100
ssg81
g3810
sg74
(lp3822
S':'
asbag67
(g88
g69
NtRp3823
(dp3824
g72
(dp3825
sg81
g3810
sg74
(lp3826
g67
(g68
g69
NtRp3827
(dp3828
g72
(dp3829
g80
I3
ssg81
g3823
sg74
(lp3830
S'Bertoldo'
p3831
asbasbasbag67
(g83
g69
NtRp3832
(dp3833
g72
(dp3834
sg81
g3784
sg74
(lp3835
g67
(g88
g69
NtRp3836
(dp3837
g72
(dp3838
g92
g93
ssg81
g3832
sg74
(lp3839
S'id'
p3840
asbag67
(g88
g69
NtRp3841
(dp3842
g72
(dp3843
g99
g100
ssg81
g3832
sg74
(lp3844
S':'
asbag67
(g88
g69
NtRp3845
(dp3846
g72
(dp3847
sg81
g3832
sg74
(lp3848
g67
(g68
g69
NtRp3849
(dp3850
g72
(dp3851
g80
I3
ssg81
g3845
sg74
(lp3852
S'1'
asbasbasbag67
(g83
g69
NtRp3853
(dp3854
g72
(dp3855
sg81
g3784
sg74
(lp3856
g67
(g88
g69
NtRp3857
(dp3858
g72
(dp3859
g92
g93
ssg81
g3853
sg74
(lp3860
S'last_name'
p3861
asbag67
(g88
g69
NtRp3862
(dp3863
g72
(dp3864
g99
g100
ssg81
g3853
sg74
(lp3865
S':'
asbag67
(g88
g69
NtRp3866
(dp3867
g72
(dp3868
sg81
g3853
sg74
(lp3869
g67
(g68
g69
NtRp3870
(dp3871
g72
(dp3872
g80
I3
ssg81
g3866
sg74
(lp3873
S'Pedralbes'
p3874
asbasbasbag67
(g83
g69
NtRp3875
(dp3876
g72
(dp3877
sg81
g3784
sg74
(lp3878
g67
(g88
g69
NtRp3879
(dp3880
g72
(dp3881
g92
g93
ssg81
g3875
sg74
(lp3882
S'registration_id'
p3883
asbag67
(g88
g69
NtRp3884
(dp3885
g72
(dp3886
g99
g100
ssg81
g3875
sg74
(lp3887
S':'
asbag67
(g88
g69
NtRp3888
(dp3889
g72
(dp3890
sg81
g3875
sg74
(lp3891
g67
(g68
g69
NtRp3892
(dp3893
g72
(dp3894
g80
I3
ssg81
g3888
sg74
(lp3895
S''
asbasbasbag67
(g83
g69
NtRp3896
(dp3897
g72
(dp3898
sg81
g3784
sg74
(lp3899
g67
(g88
g69
NtRp3900
(dp3901
g72
(dp3902
g92
g93
ssg81
g3896
sg74
(lp3903
S'registration_key'
p3904
asbag67
(g88
g69
NtRp3905
(dp3906
g72
(dp3907
g99
g100
ssg81
g3896
sg74
(lp3908
S':'
asbag67
(g88
g69
NtRp3909
(dp3910
g72
(dp3911
sg81
g3896
sg74
(lp3912
g67
(g68
g69
NtRp3913
(dp3914
g72
(dp3915
g80
I3
ssg81
g3909
sg74
(lp3916
S''
asbasbasbag67
(g83
g69
NtRp3917
(dp3918
g72
(dp3919
sg81
g3784
sg74
(lp3920
g67
(g88
g69
NtRp3921
(dp3922
g72
(dp3923
g92
g93
ssg81
g3917
sg74
(lp3924
S'reset_password_key'
p3925
asbag67
(g88
g69
NtRp3926
(dp3927
g72
(dp3928
g99
g100
ssg81
g3917
sg74
(lp3929
S':'
asbag67
(g88
g69
NtRp3930
(dp3931
g72
(dp3932
sg81
g3917
sg74
(lp3933
g67
(g68
g69
NtRp3934
(dp3935
g72
(dp3936
g80
I3
ssg81
g3930
sg74
(lp3937
S''
asbasbasbasbasbasbasbag67
(g83
g69
NtRp3938
(dp3939
g72
(dp3940
sg81
g3672
sg74
(lp3941
g67
(g88
g69
NtRp3942
(dp3943
g72
(dp3944
g92
g93
ssg81
g3938
sg74
(lp3945
S'user_groups'
p3946
asbag67
(g88
g69
NtRp3947
(dp3948
g72
(dp3949
g99
g100
ssg81
g3938
sg74
(lp3950
S':'
asbag67
(g88
g69
NtRp3951
(dp3952
g72
(dp3953
sg81
g3938
sg74
(lp3954
g67
(g68
g69
NtRp3955
(dp3956
g72
(dp3957
g80
I4
ssg81
g3951
sg74
(lp3958
g67
(g76
g69
NtRp3959
(dp3960
g72
(dp3961
g80
I3
ssg81
Nsg74
(lp3962
g67
(g83
g69
NtRp3963
(dp3964
g72
(dp3965
sg81
g3959
sg74
(lp3966
g67
(g88
g69
NtRp3967
(dp3968
g72
(dp3969
g92
g93
ssg81
g3963
sg74
(lp3970
S'2'
asbag67
(g88
g69
NtRp3971
(dp3972
g72
(dp3973
g99
g100
ssg81
g3963
sg74
(lp3974
S':'
asbag67
(g88
g69
NtRp3975
(dp3976
g72
(dp3977
sg81
g3963
sg74
(lp3978
g67
(g68
g69
NtRp3979
(dp3980
g72
(dp3981
g80
I3
ssg81
g3975
sg74
(lp3982
S'Administrator'
p3983
asbasbasbasbasbasbasbasbasbasbasbag67
(g83
g69
NtRp3984
(dp3985
g72
(dp3986
sg81
g3647
sg74
(lp3987
g67
(g88
g69
NtRp3988
(dp3989
g72
(dp3990
g92
g93
ssg81
g3984
sg74
(lp3991
S'flash'
p3992
asbag67
(g88
g69
NtRp3993
(dp3994
g72
(dp3995
g99
g100
ssg81
g3984
sg74
(lp3996
S':'
asbag67
(g88
g69
NtRp3997
(dp3998
g72
(dp3999
sg81
g3984
sg74
(lp4000
g67
(g68
g69
NtRp4001
(dp4002
g72
(dp4003
g80
I5
ssg81
g3997
sg74
(lp4004
S'None'
p4005
asbasbasbag67
(g83
g69
NtRp4006
(dp4007
g72
(dp4008
sg81
g3647
sg74
(lp4009
g67
(g88
g69
NtRp4010
(dp4011
g72
(dp4012
g92
g93
ssg81
g4006
sg74
(lp4013
S'last_orderby'
p4014
asbag67
(g88
g69
NtRp4015
(dp4016
g72
(dp4017
g99
g100
ssg81
g4006
sg74
(lp4018
S':'
asbag67
(g88
g69
NtRp4019
(dp4020
g72
(dp4021
sg81
g4006
sg74
(lp4022
g67
(g68
g69
NtRp4023
(dp4024
g72
(dp4025
g80
I5
ssg81
g4019
sg74
(lp4026
S'None'
p4027
asbasbasbag67
(g83
g69
NtRp4028
(dp4029
g72
(dp4030
sg81
g3647
sg74
(lp4031
g67
(g88
g69
NtRp4032
(dp4033
g72
(dp4034
g92
g93
ssg81
g4028
sg74
(lp4035
S'last_query'
p4036
asbag67
(g88
g69
NtRp4037
(dp4038
g72
(dp4039
g99
g100
ssg81
g4028
sg74
(lp4040
S':'
asbag67
(g88
g69
NtRp4041
(dp4042
g72
(dp4043
sg81
g4028
sg74
(lp4044
g67
(g68
g69
NtRp4045
(dp4046
g72
(dp4047
g80
I5
ssg81
g4041
sg74
(lp4048
S'userDB.UserGroup.cod>0'
p4049
asbasbasbasbasbsS'etype'
p4050
S"<type 'exceptions.SyntaxError'>"
p4051
sS'date'
p4052
S'Mon Feb 11 18:39:47 2013'
p4053
sS'response'
p4054
g67
(g68
g69
NtRp4055
(dp4056
g72
(dp4057
sg74
(lp4058
g67
(g76
g69
NtRp4059
(dp4060
g72
(dp4061
g80
I5
ssg81
Nsg74
(lp4062
g67
(g83
g69
NtRp4063
(dp4064
g72
(dp4065
sg81
g4059
sg74
(lp4066
g67
(g88
g69
NtRp4067
(dp4068
g72
(dp4069
g92
g93
ssg81
g4063
sg74
(lp4070
g178
asbag67
(g88
g69
NtRp4071
(dp4072
g72
(dp4073
g99
g100
ssg81
g4063
sg74
(lp4074
S':'
asbag67
(g88
g69
NtRp4075
(dp4076
g72
(dp4077
sg81
g4063
sg74
(lp4078
g67
(g68
g69
NtRp4079
(dp4080
g72
(dp4081
g80
I5
ssg81
g4075
sg74
(lp4082
S'<cStringIO.StringO object at 0x7f5f685d6960>'
p4083
asbasbasbag67
(g83
g69
NtRp4084
(dp4085
g72
(dp4086
sg81
g4059
sg74
(lp4087
g67
(g88
g69
NtRp4088
(dp4089
g72
(dp4090
g92
g93
ssg81
g4084
sg74
(lp4091
g266
asbag67
(g88
g69
NtRp4092
(dp4093
g72
(dp4094
g99
g100
ssg81
g4084
sg74
(lp4095
S':'
asbag67
(g88
g69
NtRp4096
(dp4097
g72
(dp4098
sg81
g4084
sg74
(lp4099
g67
(g68
g69
NtRp4100
(dp4101
g72
(dp4102
g80
I5
ssg81
g4096
sg74
(lp4103
g67
(g76
g69
NtRp4104
(dp4105
g72
(dp4106
g80
I4
ssg81
Nsg74
(lp4107
g67
(g83
g69
NtRp4108
(dp4109
g72
(dp4110
sg81
g4104
sg74
(lp4111
g67
(g88
g69
NtRp4112
(dp4113
g72
(dp4114
g92
g93
ssg81
g4108
sg74
(lp4115
S'session_id_cygnuscloud'
p4116
asbag67
(g88
g69
NtRp4117
(dp4118
g72
(dp4119
g99
g100
ssg81
g4108
sg74
(lp4120
S':'
asbag67
(g88
g69
NtRp4121
(dp4122
g72
(dp4123
sg81
g4108
sg74
(lp4124
g67
(g68
g69
NtRp4125
(dp4126
g72
(dp4127
g80
I4
ssg81
g4121
sg74
(lp4128
g683
ag67
(g76
g69
NtRp4129
(dp4130
g72
(dp4131
g80
I3
ssg81
Nsg74
(lp4132
g67
(g83
g69
NtRp4133
(dp4134
g72
(dp4135
sg81
g4129
sg74
(lp4136
g67
(g88
g69
NtRp4137
(dp4138
g72
(dp4139
g92
g93
ssg81
g4133
sg74
(lp4140
g316
asbag67
(g88
g69
NtRp4141
(dp4142
g72
(dp4143
g99
g100
ssg81
g4133
sg74
(lp4144
S':'
asbag67
(g88
g69
NtRp4145
(dp4146
g72
(dp4147
sg81
g4133
sg74
(lp4148
g67
(g68
g69
NtRp4149
(dp4150
g72
(dp4151
g80
I3
ssg81
g4145
sg74
(lp4152
S''
asbasbasbag67
(g83
g69
NtRp4153
(dp4154
g72
(dp4155
sg81
g4129
sg74
(lp4156
g67
(g88
g69
NtRp4157
(dp4158
g72
(dp4159
g92
g93
ssg81
g4153
sg74
(lp4160
g337
asbag67
(g88
g69
NtRp4161
(dp4162
g72
(dp4163
g99
g100
ssg81
g4153
sg74
(lp4164
S':'
asbag67
(g88
g69
NtRp4165
(dp4166
g72
(dp4167
sg81
g4153
sg74
(lp4168
g67
(g68
g69
NtRp4169
(dp4170
g72
(dp4171
g80
I3
ssg81
g4165
sg74
(lp4172
S''
asbasbasbag67
(g83
g69
NtRp4173
(dp4174
g72
(dp4175
sg81
g4129
sg74
(lp4176
g67
(g88
g69
NtRp4177
(dp4178
g72
(dp4179
g92
g93
ssg81
g4173
sg74
(lp4180
g358
asbag67
(g88
g69
NtRp4181
(dp4182
g72
(dp4183
g99
g100
ssg81
g4173
sg74
(lp4184
S':'
asbag67
(g88
g69
NtRp4185
(dp4186
g72
(dp4187
sg81
g4173
sg74
(lp4188
g67
(g68
g69
NtRp4189
(dp4190
g72
(dp4191
g80
I3
ssg81
g4185
sg74
(lp4192
S''
asbasbasbag67
(g83
g69
NtRp4193
(dp4194
g72
(dp4195
sg81
g4129
sg74
(lp4196
g67
(g88
g69
NtRp4197
(dp4198
g72
(dp4199
g92
g93
ssg81
g4193
sg74
(lp4200
g379
asbag67
(g88
g69
NtRp4201
(dp4202
g72
(dp4203
g99
g100
ssg81
g4193
sg74
(lp4204
S':'
asbag67
(g88
g69
NtRp4205
(dp4206
g72
(dp4207
sg81
g4193
sg74
(lp4208
g67
(g68
g69
NtRp4209
(dp4210
g72
(dp4211
g80
I3
ssg81
g4205
sg74
(lp4212
S''
asbasbasbag67
(g83
g69
NtRp4213
(dp4214
g72
(dp4215
sg81
g4129
sg74
(lp4216
g67
(g88
g69
NtRp4217
(dp4218
g72
(dp4219
g92
g93
ssg81
g4213
sg74
(lp4220
g400
asbag67
(g88
g69
NtRp4221
(dp4222
g72
(dp4223
g99
g100
ssg81
g4213
sg74
(lp4224
S':'
asbag67
(g88
g69
NtRp4225
(dp4226
g72
(dp4227
sg81
g4213
sg74
(lp4228
g67
(g68
g69
NtRp4229
(dp4230
g72
(dp4231
g80
I3
ssg81
g4225
sg74
(lp4232
S''
asbasbasbag67
(g83
g69
NtRp4233
(dp4234
g72
(dp4235
sg81
g4129
sg74
(lp4236
g67
(g88
g69
NtRp4237
(dp4238
g72
(dp4239
g92
g93
ssg81
g4233
sg74
(lp4240
g421
asbag67
(g88
g69
NtRp4241
(dp4242
g72
(dp4243
g99
g100
ssg81
g4233
sg74
(lp4244
S':'
asbag67
(g88
g69
NtRp4245
(dp4246
g72
(dp4247
sg81
g4233
sg74
(lp4248
g67
(g68
g69
NtRp4249
(dp4250
g72
(dp4251
g80
I3
ssg81
g4245
sg74
(lp4252
S'/'
asbasbasbag67
(g83
g69
NtRp4253
(dp4254
g72
(dp4255
sg81
g4129
sg74
(lp4256
g67
(g88
g69
NtRp4257
(dp4258
g72
(dp4259
g92
g93
ssg81
g4253
sg74
(lp4260
g442
asbag67
(g88
g69
NtRp4261
(dp4262
g72
(dp4263
g99
g100
ssg81
g4253
sg74
(lp4264
S':'
asbag67
(g88
g69
NtRp4265
(dp4266
g72
(dp4267
sg81
g4253
sg74
(lp4268
g67
(g68
g69
NtRp4269
(dp4270
g72
(dp4271
g80
I3
ssg81
g4265
sg74
(lp4272
S''
asbasbasbag67
(g83
g69
NtRp4273
(dp4274
g72
(dp4275
sg81
g4129
sg74
(lp4276
g67
(g88
g69
NtRp4277
(dp4278
g72
(dp4279
g92
g93
ssg81
g4273
sg74
(lp4280
g463
asbag67
(g88
g69
NtRp4281
(dp4282
g72
(dp4283
g99
g100
ssg81
g4273
sg74
(lp4284
S':'
asbag67
(g88
g69
NtRp4285
(dp4286
g72
(dp4287
sg81
g4273
sg74
(lp4288
g67
(g68
g69
NtRp4289
(dp4290
g72
(dp4291
g80
I3
ssg81
g4285
sg74
(lp4292
S''
asbasbasbasbasbasbasbasbasbasbasbag67
(g83
g69
NtRp4293
(dp4294
g72
(dp4295
sg81
g4059
sg74
(lp4296
g67
(g88
g69
NtRp4297
(dp4298
g72
(dp4299
g92
g93
ssg81
g4293
sg74
(lp4300
S'delimiters'
p4301
asbag67
(g88
g69
NtRp4302
(dp4303
g72
(dp4304
g99
g100
ssg81
g4293
sg74
(lp4305
S':'
asbag67
(g88
g69
NtRp4306
(dp4307
g72
(dp4308
sg81
g4293
sg74
(lp4309
g67
(g68
g69
NtRp4310
(dp4311
g72
(dp4312
g80
I5
ssg81
g4306
sg74
(lp4313
g67
(g76
g69
NtRp4314
(dp4315
g72
(dp4316
g80
I4
ssg81
Nsg74
(lp4317
g67
(g83
g69
NtRp4318
(dp4319
g72
(dp4320
sg81
g4314
sg74
(lp4321
g67
(g88
g69
NtRp4322
(dp4323
g72
(dp4324
sg81
g4318
sg74
(lp4325
g67
(g68
g69
NtRp4326
(dp4327
g72
(dp4328
g80
I4
ssg81
g4322
sg74
(lp4329
S'{{'
p4330
asbasbasbag67
(g83
g69
NtRp4331
(dp4332
g72
(dp4333
sg81
g4314
sg74
(lp4334
g67
(g88
g69
NtRp4335
(dp4336
g72
(dp4337
sg81
g4331
sg74
(lp4338
g67
(g68
g69
NtRp4339
(dp4340
g72
(dp4341
g80
I4
ssg81
g4335
sg74
(lp4342
S'}}'
p4343
asbasbasbasbasbasbasbag67
(g83
g69
NtRp4344
(dp4345
g72
(dp4346
sg81
g4059
sg74
(lp4347
g67
(g88
g69
NtRp4348
(dp4349
g72
(dp4350
g92
g93
ssg81
g4344
sg74
(lp4351
S'files'
p4352
asbag67
(g88
g69
NtRp4353
(dp4354
g72
(dp4355
g99
g100
ssg81
g4344
sg74
(lp4356
S':'
asbag67
(g88
g69
NtRp4357
(dp4358
g72
(dp4359
sg81
g4344
sg74
(lp4360
g67
(g68
g69
NtRp4361
(dp4362
g72
(dp4363
g80
I5
ssg81
g4357
sg74
(lp4364
g67
(g76
g69
NtRp4365
(dp4366
g72
(dp4367
g80
I4
ssg81
Nsg74
(lp4368
sbasbasbasbag67
(g83
g69
NtRp4369
(dp4370
g72
(dp4371
sg81
g4059
sg74
(lp4372
g67
(g88
g69
NtRp4373
(dp4374
g72
(dp4375
g92
g93
ssg81
g4369
sg74
(lp4376
S'flash'
p4377
asbag67
(g88
g69
NtRp4378
(dp4379
g72
(dp4380
g99
g100
ssg81
g4369
sg74
(lp4381
S':'
asbag67
(g88
g69
NtRp4382
(dp4383
g72
(dp4384
sg81
g4369
sg74
(lp4385
g67
(g68
g69
NtRp4386
(dp4387
g72
(dp4388
g80
I5
ssg81
g4382
sg74
(lp4389
S''
asbasbasbag67
(g83
g69
NtRp4390
(dp4391
g72
(dp4392
sg81
g4059
sg74
(lp4393
g67
(g88
g69
NtRp4394
(dp4395
g72
(dp4396
g92
g93
ssg81
g4390
sg74
(lp4397
S'generic_patterns'
p4398
asbag67
(g88
g69
NtRp4399
(dp4400
g72
(dp4401
g99
g100
ssg81
g4390
sg74
(lp4402
S':'
asbag67
(g88
g69
NtRp4403
(dp4404
g72
(dp4405
sg81
g4390
sg74
(lp4406
g67
(g68
g69
NtRp4407
(dp4408
g72
(dp4409
g80
I5
ssg81
g4403
sg74
(lp4410
g67
(g76
g69
NtRp4411
(dp4412
g72
(dp4413
g80
I4
ssg81
Nsg74
(lp4414
sbasbasbasbag67
(g83
g69
NtRp4415
(dp4416
g72
(dp4417
sg81
g4059
sg74
(lp4418
g67
(g88
g69
NtRp4419
(dp4420
g72
(dp4421
g92
g93
ssg81
g4415
sg74
(lp4422
S'google_analytics_id'
p4423
asbag67
(g88
g69
NtRp4424
(dp4425
g72
(dp4426
g99
g100
ssg81
g4415
sg74
(lp4427
S':'
asbag67
(g88
g69
NtRp4428
(dp4429
g72
(dp4430
sg81
g4415
sg74
(lp4431
g67
(g68
g69
NtRp4432
(dp4433
g72
(dp4434
g80
I5
ssg81
g4428
sg74
(lp4435
S'None'
p4436
asbasbasbag67
(g83
g69
NtRp4437
(dp4438
g72
(dp4439
sg81
g4059
sg74
(lp4440
g67
(g88
g69
NtRp4441
(dp4442
g72
(dp4443
g92
g93
ssg81
g4437
sg74
(lp4444
S'headers'
p4445
asbag67
(g88
g69
NtRp4446
(dp4447
g72
(dp4448
g99
g100
ssg81
g4437
sg74
(lp4449
S':'
asbag67
(g88
g69
NtRp4450
(dp4451
g72
(dp4452
sg81
g4437
sg74
(lp4453
g67
(g68
g69
NtRp4454
(dp4455
g72
(dp4456
g80
I5
ssg81
g4450
sg74
(lp4457
g67
(g76
g69
NtRp4458
(dp4459
g72
(dp4460
g80
I4
ssg81
Nsg74
(lp4461
g67
(g83
g69
NtRp4462
(dp4463
g72
(dp4464
sg81
g4458
sg74
(lp4465
g67
(g88
g69
NtRp4466
(dp4467
g72
(dp4468
g92
g93
ssg81
g4462
sg74
(lp4469
S'X-Powered-By'
p4470
asbag67
(g88
g69
NtRp4471
(dp4472
g72
(dp4473
g99
g100
ssg81
g4462
sg74
(lp4474
S':'
asbag67
(g88
g69
NtRp4475
(dp4476
g72
(dp4477
sg81
g4462
sg74
(lp4478
g67
(g68
g69
NtRp4479
(dp4480
g72
(dp4481
g80
I4
ssg81
g4475
sg74
(lp4482
S'web2py'
p4483
asbasbasbasbasbasbasbag67
(g83
g69
NtRp4484
(dp4485
g72
(dp4486
sg81
g4059
sg74
(lp4487
g67
(g88
g69
NtRp4488
(dp4489
g72
(dp4490
g92
g93
ssg81
g4484
sg74
(lp4491
S'logo'
p4492
asbag67
(g88
g69
NtRp4493
(dp4494
g72
(dp4495
g99
g100
ssg81
g4484
sg74
(lp4496
S':'
asbag67
(g88
g69
NtRp4497
(dp4498
g72
(dp4499
sg81
g4484
sg74
(lp4500
g67
(g68
g69
NtRp4501
(dp4502
g72
(dp4503
g80
I5
ssg81
g4497
sg74
(lp4504
g67
(cgluon.html
A
p4505
g69
NtRp4506
(dp4507
g72
(dp4508
S'_class'
p4509
S'brand'
p4510
sS'_href'
p4511
S'/CygnusCloud/main/about'
p4512
ssg81
Nsg74
(lp4513
g67
(cgluon.html
IMG
p4514
g69
NtRp4515
(dp4516
g72
(dp4517
S'_alt'
p4518
S'My Logo'
p4519
sS'src'
p4520
S'/CygnusCloud/static/logo.png'
p4521
ssg81
g4506
sg74
(lp4522
sbacgluon.html
XML_unpickle
p4523
(S's\r\x00\x00\x00&trade;&nbsp;'
tRp4524
asbasbasbasbag67
(g83
g69
NtRp4525
(dp4526
g72
(dp4527
sg81
g4059
sg74
(lp4528
g67
(g88
g69
NtRp4529
(dp4530
g72
(dp4531
g92
g93
ssg81
g4525
sg74
(lp4532
S'menu'
p4533
asbag67
(g88
g69
NtRp4534
(dp4535
g72
(dp4536
g99
g100
ssg81
g4525
sg74
(lp4537
S':'
asbag67
(g88
g69
NtRp4538
(dp4539
g72
(dp4540
sg81
g4525
sg74
(lp4541
g67
(g68
g69
NtRp4542
(dp4543
g72
(dp4544
g80
I5
ssg81
g4538
sg74
(lp4545
g67
(g76
g69
NtRp4546
(dp4547
g72
(dp4548
g80
I4
ssg81
Nsg74
(lp4549
g67
(g83
g69
NtRp4550
(dp4551
g72
(dp4552
sg81
g4546
sg74
(lp4553
g67
(g88
g69
NtRp4554
(dp4555
g72
(dp4556
sg81
g4550
sg74
(lp4557
g67
(g68
g69
NtRp4558
(dp4559
g72
(dp4560
g80
I4
ssg81
g4554
sg74
(lp4561
g67
(g76
g69
NtRp4562
(dp4563
g72
(dp4564
g80
I3
ssg81
Nsg74
(lp4565
g67
(g83
g69
NtRp4566
(dp4567
g72
(dp4568
sg81
g4562
sg74
(lp4569
g67
(g88
g69
NtRp4570
(dp4571
g72
(dp4572
sg81
g4566
sg74
(lp4573
g67
(g68
g69
NtRp4574
(dp4575
g72
(dp4576
g80
I3
ssg81
g4570
sg74
(lp4577
g67
(cgluon.html
SPAN
p4578
g69
NtRp4579
(dp4580
g72
(dp4581
g4509
S'highlighted'
p4582
ssg81
Nsg74
(lp4583
cgluon.languages
lazyT_unpickle
p4584
(S's\x11\x00\x00\x00Arrancar m\xc3\xa1quina'
tRp4585
asbasbasbasbag67
(g83
g69
NtRp4586
(dp4587
g72
(dp4588
sg81
g4562
sg74
(lp4589
g67
(g88
g69
NtRp4590
(dp4591
g72
(dp4592
sg81
g4586
sg74
(lp4593
g67
(g68
g69
NtRp4594
(dp4595
g72
(dp4596
g80
I3
ssg81
g4590
sg74
(lp4597
g110
asbasbasbag67
(g83
g69
NtRp4598
(dp4599
g72
(dp4600
sg81
g4562
sg74
(lp4601
g67
(g88
g69
NtRp4602
(dp4603
g72
(dp4604
sg81
g4598
sg74
(lp4605
g67
(g68
g69
NtRp4606
(dp4607
g72
(dp4608
g80
I3
ssg81
g4602
sg74
(lp4609
S'/CygnusCloud/administrator/runVM'
p4610
asbasbasbag67
(g83
g69
NtRp4611
(dp4612
g72
(dp4613
sg81
g4562
sg74
(lp4614
g67
(g88
g69
NtRp4615
(dp4616
g72
(dp4617
sg81
g4611
sg74
(lp4618
g67
(g68
g69
NtRp4619
(dp4620
g72
(dp4621
g80
I3
ssg81
g4615
sg74
(lp4622
g67
(g76
g69
NtRp4623
(dp4624
g72
(dp4625
g80
I2
ssg81
Nsg74
(lp4626
sbasbasbasbasbasbasbasbag67
(g83
g69
NtRp4627
(dp4628
g72
(dp4629
sg81
g4546
sg74
(lp4630
g67
(g88
g69
NtRp4631
(dp4632
g72
(dp4633
sg81
g4627
sg74
(lp4634
g67
(g68
g69
NtRp4635
(dp4636
g72
(dp4637
g80
I4
ssg81
g4631
sg74
(lp4638
g67
(g76
g69
NtRp4639
(dp4640
g72
(dp4641
g80
I3
ssg81
Nsg74
(lp4642
g67
(g83
g69
NtRp4643
(dp4644
g72
(dp4645
sg81
g4639
sg74
(lp4646
g67
(g88
g69
NtRp4647
(dp4648
g72
(dp4649
sg81
g4643
sg74
(lp4650
g67
(g68
g69
NtRp4651
(dp4652
g72
(dp4653
g80
I3
ssg81
g4647
sg74
(lp4654
g67
(g4578
g69
NtRp4655
(dp4656
g72
(dp4657
g4509
g4582
ssg81
Nsg74
(lp4658
g4584
(S's\x16\x00\x00\x00Administrar servidores'
tRp4659
asbasbasbasbag67
(g83
g69
NtRp4660
(dp4661
g72
(dp4662
sg81
g4639
sg74
(lp4663
g67
(g88
g69
NtRp4664
(dp4665
g72
(dp4666
sg81
g4660
sg74
(lp4667
g67
(g68
g69
NtRp4668
(dp4669
g72
(dp4670
g80
I3
ssg81
g4664
sg74
(lp4671
g110
asbasbasbag67
(g83
g69
NtRp4672
(dp4673
g72
(dp4674
sg81
g4639
sg74
(lp4675
g67
(g88
g69
NtRp4676
(dp4677
g72
(dp4678
sg81
g4672
sg74
(lp4679
g67
(g68
g69
NtRp4680
(dp4681
g72
(dp4682
g80
I3
ssg81
g4676
sg74
(lp4683
S'/CygnusCloud/administrator/servers/add_remove_servers'
p4684
asbasbasbag67
(g83
g69
NtRp4685
(dp4686
g72
(dp4687
sg81
g4639
sg74
(lp4688
g67
(g88
g69
NtRp4689
(dp4690
g72
(dp4691
sg81
g4685
sg74
(lp4692
g67
(g68
g69
NtRp4693
(dp4694
g72
(dp4695
g80
I3
ssg81
g4689
sg74
(lp4696
g67
(g76
g69
NtRp4697
(dp4698
g72
(dp4699
g80
I2
ssg81
Nsg74
(lp4700
g67
(g83
g69
NtRp4701
(dp4702
g72
(dp4703
sg81
g4697
sg74
(lp4704
g67
(g88
g69
NtRp4705
(dp4706
g72
(dp4707
sg81
g4701
sg74
(lp4708
g67
(g68
g69
NtRp4709
(dp4710
g72
(dp4711
g80
I2
ssg81
g4705
sg74
(lp4712
g67
(g76
g69
NtRp4713
(dp4714
g72
(dp4715
g80
I1
ssg81
Nsg74
(lp4716
g67
(g83
g69
NtRp4717
(dp4718
g72
(dp4719
sg81
g4713
sg74
(lp4720
g67
(g88
g69
NtRp4721
(dp4722
g72
(dp4723
sg81
g4717
sg74
(lp4724
g67
(g68
g69
NtRp4725
(dp4726
g72
(dp4727
g80
I1
ssg81
g4721
sg74
(lp4728
g4584
(S's\x10\x00\x00\x00A\xc3\xb1adir/Eliminar'
tRp4729
asbasbasbag67
(g83
g69
NtRp4730
(dp4731
g72
(dp4732
sg81
g4713
sg74
(lp4733
g67
(g88
g69
NtRp4734
(dp4735
g72
(dp4736
sg81
g4730
sg74
(lp4737
g67
(g68
g69
NtRp4738
(dp4739
g72
(dp4740
g80
I1
ssg81
g4734
sg74
(lp4741
I00
asbasbasbag67
(g83
g69
NtRp4742
(dp4743
g72
(dp4744
sg81
g4713
sg74
(lp4745
g67
(g88
g69
NtRp4746
(dp4747
g72
(dp4748
sg81
g4742
sg74
(lp4749
g67
(g68
g69
NtRp4750
(dp4751
g72
(dp4752
g80
I1
ssg81
g4746
sg74
(lp4753
S'/CygnusCloud/administrator/servers/add_remove_servers'
p4754
asbasbasbasbasbasbasbasbasbasbasbasbasbasbasbag67
(g83
g69
NtRp4755
(dp4756
g72
(dp4757
sg81
g4546
sg74
(lp4758
g67
(g88
g69
NtRp4759
(dp4760
g72
(dp4761
sg81
g4755
sg74
(lp4762
g67
(g68
g69
NtRp4763
(dp4764
g72
(dp4765
g80
I4
ssg81
g4759
sg74
(lp4766
g67
(g76
g69
NtRp4767
(dp4768
g72
(dp4769
g80
I3
ssg81
Nsg74
(lp4770
g67
(g83
g69
NtRp4771
(dp4772
g72
(dp4773
sg81
g4767
sg74
(lp4774
g67
(g88
g69
NtRp4775
(dp4776
g72
(dp4777
sg81
g4771
sg74
(lp4778
g67
(g68
g69
NtRp4779
(dp4780
g72
(dp4781
g80
I3
ssg81
g4775
sg74
(lp4782
g67
(g4578
g69
NtRp4783
(dp4784
g72
(dp4785
g4509
g4582
ssg81
Nsg74
(lp4786
g4584
(S's\x14\x00\x00\x00Administrar usuarios'
tRp4787
asbasbasbasbag67
(g83
g69
NtRp4788
(dp4789
g72
(dp4790
sg81
g4767
sg74
(lp4791
g67
(g88
g69
NtRp4792
(dp4793
g72
(dp4794
sg81
g4788
sg74
(lp4795
g67
(g68
g69
NtRp4796
(dp4797
g72
(dp4798
g80
I3
ssg81
g4792
sg74
(lp4799
g110
asbasbasbag67
(g83
g69
NtRp4800
(dp4801
g72
(dp4802
sg81
g4767
sg74
(lp4803
g67
(g88
g69
NtRp4804
(dp4805
g72
(dp4806
sg81
g4800
sg74
(lp4807
g67
(g68
g69
NtRp4808
(dp4809
g72
(dp4810
g80
I3
ssg81
g4804
sg74
(lp4811
S'/CygnusCloud/administrator/initUsers/remove'
p4812
asbasbasbag67
(g83
g69
NtRp4813
(dp4814
g72
(dp4815
sg81
g4767
sg74
(lp4816
g67
(g88
g69
NtRp4817
(dp4818
g72
(dp4819
sg81
g4813
sg74
(lp4820
g67
(g68
g69
NtRp4821
(dp4822
g72
(dp4823
g80
I3
ssg81
g4817
sg74
(lp4824
g67
(g76
g69
NtRp4825
(dp4826
g72
(dp4827
g80
I2
ssg81
Nsg74
(lp4828
g67
(g83
g69
NtRp4829
(dp4830
g72
(dp4831
sg81
g4825
sg74
(lp4832
g67
(g88
g69
NtRp4833
(dp4834
g72
(dp4835
sg81
g4829
sg74
(lp4836
g67
(g68
g69
NtRp4837
(dp4838
g72
(dp4839
g80
I2
ssg81
g4833
sg74
(lp4840
g67
(g76
g69
NtRp4841
(dp4842
g72
(dp4843
g80
I1
ssg81
Nsg74
(lp4844
g67
(g83
g69
NtRp4845
(dp4846
g72
(dp4847
sg81
g4841
sg74
(lp4848
g67
(g88
g69
NtRp4849
(dp4850
g72
(dp4851
sg81
g4845
sg74
(lp4852
g67
(g68
g69
NtRp4853
(dp4854
g72
(dp4855
g80
I1
ssg81
g4849
sg74
(lp4856
g4584
(S's\x08\x00\x00\x00Eliminar'
tRp4857
asbasbasbag67
(g83
g69
NtRp4858
(dp4859
g72
(dp4860
sg81
g4841
sg74
(lp4861
g67
(g88
g69
NtRp4862
(dp4863
g72
(dp4864
sg81
g4858
sg74
(lp4865
g67
(g68
g69
NtRp4866
(dp4867
g72
(dp4868
g80
I1
ssg81
g4862
sg74
(lp4869
I00
asbasbasbag67
(g83
g69
NtRp4870
(dp4871
g72
(dp4872
sg81
g4841
sg74
(lp4873
g67
(g88
g69
NtRp4874
(dp4875
g72
(dp4876
sg81
g4870
sg74
(lp4877
g67
(g68
g69
NtRp4878
(dp4879
g72
(dp4880
g80
I1
ssg81
g4874
sg74
(lp4881
S'/CygnusCloud/administrator/users/remove'
p4882
asbasbasbasbasbasbasbag67
(g83
g69
NtRp4883
(dp4884
g72
(dp4885
sg81
g4825
sg74
(lp4886
g67
(g88
g69
NtRp4887
(dp4888
g72
(dp4889
sg81
g4883
sg74
(lp4890
g67
(g68
g69
NtRp4891
(dp4892
g72
(dp4893
g80
I2
ssg81
g4887
sg74
(lp4894
g67
(g76
g69
NtRp4895
(dp4896
g72
(dp4897
g80
I1
ssg81
Nsg74
(lp4898
g67
(g83
g69
NtRp4899
(dp4900
g72
(dp4901
sg81
g4895
sg74
(lp4902
g67
(g88
g69
NtRp4903
(dp4904
g72
(dp4905
sg81
g4899
sg74
(lp4906
g67
(g68
g69
NtRp4907
(dp4908
g72
(dp4909
g80
I1
ssg81
g4903
sg74
(lp4910
g4584
(S's\x07\x00\x00\x00A\xc3\xb1adir'
tRp4911
asbasbasbag67
(g83
g69
NtRp4912
(dp4913
g72
(dp4914
sg81
g4895
sg74
(lp4915
g67
(g88
g69
NtRp4916
(dp4917
g72
(dp4918
sg81
g4912
sg74
(lp4919
g67
(g68
g69
NtRp4920
(dp4921
g72
(dp4922
g80
I1
ssg81
g4916
sg74
(lp4923
I00
asbasbasbag67
(g83
g69
NtRp4924
(dp4925
g72
(dp4926
sg81
g4895
sg74
(lp4927
g67
(g88
g69
NtRp4928
(dp4929
g72
(dp4930
sg81
g4924
sg74
(lp4931
g67
(g68
g69
NtRp4932
(dp4933
g72
(dp4934
g80
I1
ssg81
g4928
sg74
(lp4935
S'/CygnusCloud/administrator/users/add'
p4936
asbasbasbasbasbasbasbag67
(g83
g69
NtRp4937
(dp4938
g72
(dp4939
sg81
g4825
sg74
(lp4940
g67
(g88
g69
NtRp4941
(dp4942
g72
(dp4943
sg81
g4937
sg74
(lp4944
g67
(g68
g69
NtRp4945
(dp4946
g72
(dp4947
g80
I2
ssg81
g4941
sg74
(lp4948
g67
(g76
g69
NtRp4949
(dp4950
g72
(dp4951
g80
I1
ssg81
Nsg74
(lp4952
g67
(g83
g69
NtRp4953
(dp4954
g72
(dp4955
sg81
g4949
sg74
(lp4956
g67
(g88
g69
NtRp4957
(dp4958
g72
(dp4959
sg81
g4953
sg74
(lp4960
g67
(g68
g69
NtRp4961
(dp4962
g72
(dp4963
g80
I1
ssg81
g4957
sg74
(lp4964
g4584
(S's\x13\x00\x00\x00Asociar asignaturas'
tRp4965
asbasbasbag67
(g83
g69
NtRp4966
(dp4967
g72
(dp4968
sg81
g4949
sg74
(lp4969
g67
(g88
g69
NtRp4970
(dp4971
g72
(dp4972
sg81
g4966
sg74
(lp4973
g67
(g68
g69
NtRp4974
(dp4975
g72
(dp4976
g80
I1
ssg81
g4970
sg74
(lp4977
I00
asbasbasbag67
(g83
g69
NtRp4978
(dp4979
g72
(dp4980
sg81
g4949
sg74
(lp4981
g67
(g88
g69
NtRp4982
(dp4983
g72
(dp4984
sg81
g4978
sg74
(lp4985
g67
(g68
g69
NtRp4986
(dp4987
g72
(dp4988
g80
I1
ssg81
g4982
sg74
(lp4989
S'/CygnusCloud/administrator/users/associate_subjects'
p4990
asbasbasbasbasbasbasbasbasbasbasbasbasbasbasbag67
(g83
g69
NtRp4991
(dp4992
g72
(dp4993
sg81
g4546
sg74
(lp4994
g67
(g88
g69
NtRp4995
(dp4996
g72
(dp4997
sg81
g4991
sg74
(lp4998
g67
(g68
g69
NtRp4999
(dp5000
g72
(dp5001
g80
I4
ssg81
g4995
sg74
(lp5002
g67
(g76
g69
NtRp5003
(dp5004
g72
(dp5005
g80
I3
ssg81
Nsg74
(lp5006
g67
(g83
g69
NtRp5007
(dp5008
g72
(dp5009
sg81
g5003
sg74
(lp5010
g67
(g88
g69
NtRp5011
(dp5012
g72
(dp5013
sg81
g5007
sg74
(lp5014
g67
(g68
g69
NtRp5015
(dp5016
g72
(dp5017
g80
I3
ssg81
g5011
sg74
(lp5018
g67
(g4578
g69
NtRp5019
(dp5020
g72
(dp5021
g4509
g4582
ssg81
Nsg74
(lp5022
g4584
(S's\x17\x00\x00\x00Administrar asignaturas'
tRp5023
asbasbasbasbag67
(g83
g69
NtRp5024
(dp5025
g72
(dp5026
sg81
g5003
sg74
(lp5027
g67
(g88
g69
NtRp5028
(dp5029
g72
(dp5030
sg81
g5024
sg74
(lp5031
g67
(g68
g69
NtRp5032
(dp5033
g72
(dp5034
g80
I3
ssg81
g5028
sg74
(lp5035
g110
asbasbasbag67
(g83
g69
NtRp5036
(dp5037
g72
(dp5038
sg81
g5003
sg74
(lp5039
g67
(g88
g69
NtRp5040
(dp5041
g72
(dp5042
sg81
g5036
sg74
(lp5043
g67
(g68
g69
NtRp5044
(dp5045
g72
(dp5046
g80
I3
ssg81
g5040
sg74
(lp5047
S'/CygnusCloud/administrator/subjects/add'
p5048
asbasbasbag67
(g83
g69
NtRp5049
(dp5050
g72
(dp5051
sg81
g5003
sg74
(lp5052
g67
(g88
g69
NtRp5053
(dp5054
g72
(dp5055
sg81
g5049
sg74
(lp5056
g67
(g68
g69
NtRp5057
(dp5058
g72
(dp5059
g80
I3
ssg81
g5053
sg74
(lp5060
g67
(g76
g69
NtRp5061
(dp5062
g72
(dp5063
g80
I2
ssg81
Nsg74
(lp5064
g67
(g83
g69
NtRp5065
(dp5066
g72
(dp5067
sg81
g5061
sg74
(lp5068
g67
(g88
g69
NtRp5069
(dp5070
g72
(dp5071
sg81
g5065
sg74
(lp5072
g67
(g68
g69
NtRp5073
(dp5074
g72
(dp5075
g80
I2
ssg81
g5069
sg74
(lp5076
g67
(g76
g69
NtRp5077
(dp5078
g72
(dp5079
g80
I1
ssg81
Nsg74
(lp5080
g67
(g83
g69
NtRp5081
(dp5082
g72
(dp5083
sg81
g5077
sg74
(lp5084
g67
(g88
g69
NtRp5085
(dp5086
g72
(dp5087
sg81
g5081
sg74
(lp5088
g67
(g68
g69
NtRp5089
(dp5090
g72
(dp5091
g80
I1
ssg81
g5085
sg74
(lp5092
g4584
(S's\x07\x00\x00\x00A\xc3\xb1adir'
tRp5093
asbasbasbag67
(g83
g69
NtRp5094
(dp5095
g72
(dp5096
sg81
g5077
sg74
(lp5097
g67
(g88
g69
NtRp5098
(dp5099
g72
(dp5100
sg81
g5094
sg74
(lp5101
g67
(g68
g69
NtRp5102
(dp5103
g72
(dp5104
g80
I1
ssg81
g5098
sg74
(lp5105
I00
asbasbasbag67
(g83
g69
NtRp5106
(dp5107
g72
(dp5108
sg81
g5077
sg74
(lp5109
g67
(g88
g69
NtRp5110
(dp5111
g72
(dp5112
sg81
g5106
sg74
(lp5113
g67
(g68
g69
NtRp5114
(dp5115
g72
(dp5116
g80
I1
ssg81
g5110
sg74
(lp5117
S'/CygnusCloud/administrator/subjects/add'
p5118
asbasbasbasbasbasbasbag67
(g83
g69
NtRp5119
(dp5120
g72
(dp5121
sg81
g5061
sg74
(lp5122
g67
(g88
g69
NtRp5123
(dp5124
g72
(dp5125
sg81
g5119
sg74
(lp5126
g67
(g68
g69
NtRp5127
(dp5128
g72
(dp5129
g80
I2
ssg81
g5123
sg74
(lp5130
g67
(g76
g69
NtRp5131
(dp5132
g72
(dp5133
g80
I1
ssg81
Nsg74
(lp5134
g67
(g83
g69
NtRp5135
(dp5136
g72
(dp5137
sg81
g5131
sg74
(lp5138
g67
(g88
g69
NtRp5139
(dp5140
g72
(dp5141
sg81
g5135
sg74
(lp5142
g67
(g68
g69
NtRp5143
(dp5144
g72
(dp5145
g80
I1
ssg81
g5139
sg74
(lp5146
g4584
(S's\x08\x00\x00\x00Eliminar'
tRp5147
asbasbasbag67
(g83
g69
NtRp5148
(dp5149
g72
(dp5150
sg81
g5131
sg74
(lp5151
g67
(g88
g69
NtRp5152
(dp5153
g72
(dp5154
sg81
g5148
sg74
(lp5155
g67
(g68
g69
NtRp5156
(dp5157
g72
(dp5158
g80
I1
ssg81
g5152
sg74
(lp5159
I00
asbasbasbag67
(g83
g69
NtRp5160
(dp5161
g72
(dp5162
sg81
g5131
sg74
(lp5163
g67
(g88
g69
NtRp5164
(dp5165
g72
(dp5166
sg81
g5160
sg74
(lp5167
g67
(g68
g69
NtRp5168
(dp5169
g72
(dp5170
g80
I1
ssg81
g5164
sg74
(lp5171
S'/CygnusCloud/administrator/subjects/remove'
p5172
asbasbasbasbasbasbasbag67
(g83
g69
NtRp5173
(dp5174
g72
(dp5175
sg81
g5061
sg74
(lp5176
g67
(g88
g69
NtRp5177
(dp5178
g72
(dp5179
sg81
g5173
sg74
(lp5180
g67
(g68
g69
NtRp5181
(dp5182
g72
(dp5183
g80
I2
ssg81
g5177
sg74
(lp5184
g67
(g76
g69
NtRp5185
(dp5186
g72
(dp5187
g80
I1
ssg81
Nsg74
(lp5188
g67
(g83
g69
NtRp5189
(dp5190
g72
(dp5191
sg81
g5185
sg74
(lp5192
g67
(g88
g69
NtRp5193
(dp5194
g72
(dp5195
sg81
g5189
sg74
(lp5196
g67
(g68
g69
NtRp5197
(dp5198
g72
(dp5199
g80
I1
ssg81
g5193
sg74
(lp5200
g4584
(S's\x13\x00\x00\x00Admistrar m\xc3\xa1quinas'
tRp5201
asbasbasbag67
(g83
g69
NtRp5202
(dp5203
g72
(dp5204
sg81
g5185
sg74
(lp5205
g67
(g88
g69
NtRp5206
(dp5207
g72
(dp5208
sg81
g5202
sg74
(lp5209
g67
(g68
g69
NtRp5210
(dp5211
g72
(dp5212
g80
I1
ssg81
g5206
sg74
(lp5213
I00
asbasbasbag67
(g83
g69
NtRp5214
(dp5215
g72
(dp5216
sg81
g5185
sg74
(lp5217
g67
(g88
g69
NtRp5218
(dp5219
g72
(dp5220
sg81
g5214
sg74
(lp5221
g67
(g68
g69
NtRp5222
(dp5223
g72
(dp5224
g80
I1
ssg81
g5218
sg74
(lp5225
S'/CygnusCloud/administrator/subjects/addVM'
p5226
asbasbasbasbasbasbasbasbasbasbasbasbasbasbasbasbasbasbasbag67
(g83
g69
NtRp5227
(dp5228
g72
(dp5229
sg81
g4059
sg74
(lp5230
g67
(g88
g69
NtRp5231
(dp5232
g72
(dp5233
g92
g93
ssg81
g5227
sg74
(lp5234
S'meta'
p5235
asbag67
(g88
g69
NtRp5236
(dp5237
g72
(dp5238
g99
g100
ssg81
g5227
sg74
(lp5239
S':'
asbag67
(g88
g69
NtRp5240
(dp5241
g72
(dp5242
sg81
g5227
sg74
(lp5243
g67
(g68
g69
NtRp5244
(dp5245
g72
(dp5246
g80
I5
ssg81
g5240
sg74
(lp5247
g67
(g76
g69
NtRp5248
(dp5249
g72
(dp5250
g80
I4
ssg81
Nsg74
(lp5251
g67
(g83
g69
NtRp5252
(dp5253
g72
(dp5254
sg81
g5248
sg74
(lp5255
g67
(g88
g69
NtRp5256
(dp5257
g72
(dp5258
g92
g93
ssg81
g5252
sg74
(lp5259
S'author'
p5260
asbag67
(g88
g69
NtRp5261
(dp5262
g72
(dp5263
g99
g100
ssg81
g5252
sg74
(lp5264
S':'
asbag67
(g88
g69
NtRp5265
(dp5266
g72
(dp5267
sg81
g5252
sg74
(lp5268
g67
(g68
g69
NtRp5269
(dp5270
g72
(dp5271
g80
I4
ssg81
g5265
sg74
(lp5272
S'Your Name <you@example.com>'
p5273
asbasbasbag67
(g83
g69
NtRp5274
(dp5275
g72
(dp5276
sg81
g5248
sg74
(lp5277
g67
(g88
g69
NtRp5278
(dp5279
g72
(dp5280
g92
g93
ssg81
g5274
sg74
(lp5281
S'description'
p5282
asbag67
(g88
g69
NtRp5283
(dp5284
g72
(dp5285
g99
g100
ssg81
g5274
sg74
(lp5286
S':'
asbag67
(g88
g69
NtRp5287
(dp5288
g72
(dp5289
sg81
g5274
sg74
(lp5290
g67
(g68
g69
NtRp5291
(dp5292
g72
(dp5293
g80
I4
ssg81
g5287
sg74
(lp5294
S'a cool new app'
p5295
asbasbasbag67
(g83
g69
NtRp5296
(dp5297
g72
(dp5298
sg81
g5248
sg74
(lp5299
g67
(g88
g69
NtRp5300
(dp5301
g72
(dp5302
g92
g93
ssg81
g5296
sg74
(lp5303
S'generator'
p5304
asbag67
(g88
g69
NtRp5305
(dp5306
g72
(dp5307
g99
g100
ssg81
g5296
sg74
(lp5308
S':'
asbag67
(g88
g69
NtRp5309
(dp5310
g72
(dp5311
sg81
g5296
sg74
(lp5312
g67
(g68
g69
NtRp5313
(dp5314
g72
(dp5315
g80
I4
ssg81
g5309
sg74
(lp5316
S'Web2py Web Framework'
p5317
asbasbasbag67
(g83
g69
NtRp5318
(dp5319
g72
(dp5320
sg81
g5248
sg74
(lp5321
g67
(g88
g69
NtRp5322
(dp5323
g72
(dp5324
g92
g93
ssg81
g5318
sg74
(lp5325
S'keywords'
p5326
asbag67
(g88
g69
NtRp5327
(dp5328
g72
(dp5329
g99
g100
ssg81
g5318
sg74
(lp5330
S':'
asbag67
(g88
g69
NtRp5331
(dp5332
g72
(dp5333
sg81
g5318
sg74
(lp5334
g67
(g68
g69
NtRp5335
(dp5336
g72
(dp5337
g80
I4
ssg81
g5331
sg74
(lp5338
S'web2py, python, framework'
p5339
asbasbasbasbasbasbasbag67
(g83
g69
NtRp5340
(dp5341
g72
(dp5342
sg81
g4059
sg74
(lp5343
g67
(g88
g69
NtRp5344
(dp5345
g72
(dp5346
g92
g93
ssg81
g5340
sg74
(lp5347
S'models_to_run'
p5348
asbag67
(g88
g69
NtRp5349
(dp5350
g72
(dp5351
g99
g100
ssg81
g5340
sg74
(lp5352
S':'
asbag67
(g88
g69
NtRp5353
(dp5354
g72
(dp5355
sg81
g5340
sg74
(lp5356
g67
(g68
g69
NtRp5357
(dp5358
g72
(dp5359
g80
I5
ssg81
g5353
sg74
(lp5360
g67
(g76
g69
NtRp5361
(dp5362
g72
(dp5363
g80
I4
ssg81
Nsg74
(lp5364
g67
(g83
g69
NtRp5365
(dp5366
g72
(dp5367
sg81
g5361
sg74
(lp5368
g67
(g88
g69
NtRp5369
(dp5370
g72
(dp5371
sg81
g5365
sg74
(lp5372
g67
(g68
g69
NtRp5373
(dp5374
g72
(dp5375
g80
I4
ssg81
g5369
sg74
(lp5376
S'^\\w+\\.py$'
p5377
asbasbasbag67
(g83
g69
NtRp5378
(dp5379
g72
(dp5380
sg81
g5361
sg74
(lp5381
g67
(g88
g69
NtRp5382
(dp5383
g72
(dp5384
sg81
g5378
sg74
(lp5385
g67
(g68
g69
NtRp5386
(dp5387
g72
(dp5388
g80
I4
ssg81
g5382
sg74
(lp5389
S'^administrator/\\w+\\.py$'
p5390
asbasbasbag67
(g83
g69
NtRp5391
(dp5392
g72
(dp5393
sg81
g5361
sg74
(lp5394
g67
(g88
g69
NtRp5395
(dp5396
g72
(dp5397
sg81
g5391
sg74
(lp5398
g67
(g68
g69
NtRp5399
(dp5400
g72
(dp5401
g80
I4
ssg81
g5395
sg74
(lp5402
S'^administrator/subjects/\\w+\\.py$'
p5403
asbasbasbasbasbasbasbag67
(g83
g69
NtRp5404
(dp5405
g72
(dp5406
sg81
g4059
sg74
(lp5407
g67
(g88
g69
NtRp5408
(dp5409
g72
(dp5410
g92
g93
ssg81
g5404
sg74
(lp5411
S'postprocessing'
p5412
asbag67
(g88
g69
NtRp5413
(dp5414
g72
(dp5415
g99
g100
ssg81
g5404
sg74
(lp5416
S':'
asbag67
(g88
g69
NtRp5417
(dp5418
g72
(dp5419
sg81
g5404
sg74
(lp5420
g67
(g68
g69
NtRp5421
(dp5422
g72
(dp5423
g80
I5
ssg81
g5417
sg74
(lp5424
g67
(g76
g69
NtRp5425
(dp5426
g72
(dp5427
g80
I4
ssg81
Nsg74
(lp5428
sbasbasbasbag67
(g83
g69
NtRp5429
(dp5430
g72
(dp5431
sg81
g4059
sg74
(lp5432
g67
(g88
g69
NtRp5433
(dp5434
g72
(dp5435
g92
g93
ssg81
g5429
sg74
(lp5436
S'session_cookie_expires'
p5437
asbag67
(g88
g69
NtRp5438
(dp5439
g72
(dp5440
g99
g100
ssg81
g5429
sg74
(lp5441
S':'
asbag67
(g88
g69
NtRp5442
(dp5443
g72
(dp5444
sg81
g5429
sg74
(lp5445
g67
(g68
g69
NtRp5446
(dp5447
g72
(dp5448
g80
I5
ssg81
g5442
sg74
(lp5449
S'None'
p5450
asbasbasbag67
(g83
g69
NtRp5451
(dp5452
g72
(dp5453
sg81
g4059
sg74
(lp5454
g67
(g88
g69
NtRp5455
(dp5456
g72
(dp5457
g92
g93
ssg81
g5451
sg74
(lp5458
S'session_data_name'
p5459
asbag67
(g88
g69
NtRp5460
(dp5461
g72
(dp5462
g99
g100
ssg81
g5451
sg74
(lp5463
S':'
asbag67
(g88
g69
NtRp5464
(dp5465
g72
(dp5466
sg81
g5451
sg74
(lp5467
g67
(g68
g69
NtRp5468
(dp5469
g72
(dp5470
g80
I5
ssg81
g5464
sg74
(lp5471
S'session_data_cygnuscloud'
p5472
asbasbasbag67
(g83
g69
NtRp5473
(dp5474
g72
(dp5475
sg81
g4059
sg74
(lp5476
g67
(g88
g69
NtRp5477
(dp5478
g72
(dp5479
g92
g93
ssg81
g5473
sg74
(lp5480
S'session_file'
p5481
asbag67
(g88
g69
NtRp5482
(dp5483
g72
(dp5484
g99
g100
ssg81
g5473
sg74
(lp5485
S':'
asbag67
(g88
g69
NtRp5486
(dp5487
g72
(dp5488
sg81
g5473
sg74
(lp5489
g67
(g68
g69
NtRp5490
(dp5491
g72
(dp5492
g80
I5
ssg81
g5486
sg74
(lp5493
S"<open file '/home/adrian/web2py/applications/CygnusCloud/sessions/127.0.0.1-94b597fa-52b2-4481-ad0f-59b1fd37bc50', mode 'rb+' at 0x7f5f68541660>"
p5494
asbasbasbag67
(g83
g69
NtRp5495
(dp5496
g72
(dp5497
sg81
g4059
sg74
(lp5498
g67
(g88
g69
NtRp5499
(dp5500
g72
(dp5501
g92
g93
ssg81
g5495
sg74
(lp5502
S'session_filename'
p5503
asbag67
(g88
g69
NtRp5504
(dp5505
g72
(dp5506
g99
g100
ssg81
g5495
sg74
(lp5507
S':'
asbag67
(g88
g69
NtRp5508
(dp5509
g72
(dp5510
sg81
g5495
sg74
(lp5511
g67
(g68
g69
NtRp5512
(dp5513
g72
(dp5514
g80
I5
ssg81
g5508
sg74
(lp5515
S'/home/adrian/web2py/applications/CygnusCloud/sessions/127.0.0.1-94b597fa-52b2-4481-ad0f-59b1fd37bc50'
p5516
asbasbasbag67
(g83
g69
NtRp5517
(dp5518
g72
(dp5519
sg81
g4059
sg74
(lp5520
g67
(g88
g69
NtRp5521
(dp5522
g72
(dp5523
g92
g93
ssg81
g5517
sg74
(lp5524
S'session_id'
p5525
asbag67
(g88
g69
NtRp5526
(dp5527
g72
(dp5528
g99
g100
ssg81
g5517
sg74
(lp5529
S':'
asbag67
(g88
g69
NtRp5530
(dp5531
g72
(dp5532
sg81
g5517
sg74
(lp5533
g67
(g68
g69
NtRp5534
(dp5535
g72
(dp5536
g80
I5
ssg81
g5530
sg74
(lp5537
g683
asbasbasbag67
(g83
g69
NtRp5538
(dp5539
g72
(dp5540
sg81
g4059
sg74
(lp5541
g67
(g88
g69
NtRp5542
(dp5543
g72
(dp5544
g92
g93
ssg81
g5538
sg74
(lp5545
S'session_id_name'
p5546
asbag67
(g88
g69
NtRp5547
(dp5548
g72
(dp5549
g99
g100
ssg81
g5538
sg74
(lp5550
S':'
asbag67
(g88
g69
NtRp5551
(dp5552
g72
(dp5553
sg81
g5538
sg74
(lp5554
g67
(g68
g69
NtRp5555
(dp5556
g72
(dp5557
g80
I5
ssg81
g5551
sg74
(lp5558
g4116
asbasbasbag67
(g83
g69
NtRp5559
(dp5560
g72
(dp5561
sg81
g4059
sg74
(lp5562
g67
(g88
g69
NtRp5563
(dp5564
g72
(dp5565
g92
g93
ssg81
g5559
sg74
(lp5566
S'session_locked'
p5567
asbag67
(g88
g69
NtRp5568
(dp5569
g72
(dp5570
g99
g100
ssg81
g5559
sg74
(lp5571
S':'
asbag67
(g88
g69
NtRp5572
(dp5573
g72
(dp5574
sg81
g5559
sg74
(lp5575
g67
(g68
g69
NtRp5576
(dp5577
g72
(dp5578
g80
I5
ssg81
g5572
sg74
(lp5579
g2023
asbasbasbag67
(g83
g69
NtRp5580
(dp5581
g72
(dp5582
sg81
g4059
sg74
(lp5583
g67
(g88
g69
NtRp5584
(dp5585
g72
(dp5586
g92
g93
ssg81
g5580
sg74
(lp5587
S'session_new'
p5588
asbag67
(g88
g69
NtRp5589
(dp5590
g72
(dp5591
g99
g100
ssg81
g5580
sg74
(lp5592
S':'
asbag67
(g88
g69
NtRp5593
(dp5594
g72
(dp5595
sg81
g5580
sg74
(lp5596
g67
(g68
g69
NtRp5597
(dp5598
g72
(dp5599
g80
I5
ssg81
g5593
sg74
(lp5600
g110
asbasbasbag67
(g83
g69
NtRp5601
(dp5602
g72
(dp5603
sg81
g4059
sg74
(lp5604
g67
(g88
g69
NtRp5605
(dp5606
g72
(dp5607
g92
g93
ssg81
g5601
sg74
(lp5608
S'session_storage_type'
p5609
asbag67
(g88
g69
NtRp5610
(dp5611
g72
(dp5612
g99
g100
ssg81
g5601
sg74
(lp5613
S':'
asbag67
(g88
g69
NtRp5614
(dp5615
g72
(dp5616
sg81
g5601
sg74
(lp5617
g67
(g68
g69
NtRp5618
(dp5619
g72
(dp5620
g80
I5
ssg81
g5614
sg74
(lp5621
g3538
asbasbasbag67
(g83
g69
NtRp5622
(dp5623
g72
(dp5624
sg81
g4059
sg74
(lp5625
g67
(g88
g69
NtRp5626
(dp5627
g72
(dp5628
g92
g93
ssg81
g5622
sg74
(lp5629
S'status'
p5630
asbag67
(g88
g69
NtRp5631
(dp5632
g72
(dp5633
g99
g100
ssg81
g5622
sg74
(lp5634
S':'
asbag67
(g88
g69
NtRp5635
(dp5636
g72
(dp5637
sg81
g5622
sg74
(lp5638
g67
(g68
g69
NtRp5639
(dp5640
g72
(dp5641
g80
I5
ssg81
g5635
sg74
(lp5642
S'200'
p5643
asbasbasbag67
(g83
g69
NtRp5644
(dp5645
g72
(dp5646
sg81
g4059
sg74
(lp5647
g67
(g88
g69
NtRp5648
(dp5649
g72
(dp5650
g92
g93
ssg81
g5644
sg74
(lp5651
S'subtitle'
p5652
asbag67
(g88
g69
NtRp5653
(dp5654
g72
(dp5655
g99
g100
ssg81
g5644
sg74
(lp5656
S':'
asbag67
(g88
g69
NtRp5657
(dp5658
g72
(dp5659
sg81
g5644
sg74
(lp5660
g67
(g68
g69
NtRp5661
(dp5662
g72
(dp5663
g80
I5
ssg81
g5657
sg74
(lp5664
g4584
(S's\t\x00\x00\x00Adaptame!'
tRp5665
asbasbasbag67
(g83
g69
NtRp5666
(dp5667
g72
(dp5668
sg81
g4059
sg74
(lp5669
g67
(g88
g69
NtRp5670
(dp5671
g72
(dp5672
g92
g93
ssg81
g5666
sg74
(lp5673
S'title'
p5674
asbag67
(g88
g69
NtRp5675
(dp5676
g72
(dp5677
g99
g100
ssg81
g5666
sg74
(lp5678
S':'
asbag67
(g88
g69
NtRp5679
(dp5680
g72
(dp5681
sg81
g5666
sg74
(lp5682
g67
(g68
g69
NtRp5683
(dp5684
g72
(dp5685
g80
I5
ssg81
g5679
sg74
(lp5686
S'Cygnuscloud'
p5687
asbasbasbag67
(g83
g69
NtRp5688
(dp5689
g72
(dp5690
sg81
g4059
sg74
(lp5691
g67
(g88
g69
NtRp5692
(dp5693
g72
(dp5694
g92
g93
ssg81
g5688
sg74
(lp5695
S'view'
p5696
asbag67
(g88
g69
NtRp5697
(dp5698
g72
(dp5699
g99
g100
ssg81
g5688
sg74
(lp5700
S':'
asbag67
(g88
g69
NtRp5701
(dp5702
g72
(dp5703
sg81
g5688
sg74
(lp5704
g67
(g68
g69
NtRp5705
(dp5706
g72
(dp5707
g80
I5
ssg81
g5701
sg74
(lp5708
S'administrator/subjects.html'
p5709
asbasbasbasbasbsS'locals'
p5710
(dp5711
S'form1'
p5712
S'<gluon.html.FORM object>'
p5713
sS'listSubjects'
p5714
S'"<Row {\'cod\': 106148, \'curseGroup\': \'a\'}>"'
p5715
sssS'traceback'
p5716
S'Traceback (most recent call last):\n  File "/home/adrian/web2py/gluon/restricted.py", line 212, in restricted\n    exec ccode in environment\n  File "/home/adrian/web2py/applications/CygnusCloud/controllers/administrator.py", line 273, in <module>\n  File "/home/adrian/web2py/gluon/globals.py", line 193, in <lambda>\n    self._caller = lambda f: f()\n  File "/home/adrian/web2py/gluon/tools.py", line 2929, in f\n    return action(*a, **b)\n  File "/home/adrian/web2py/applications/CygnusCloud/controllers/administrator.py", line 130, in subjects\n    listSubjects = [eval(request.vars.subjectsFind)]\n  File "<string>", line 1\n    <Row {\'cod\': 106148, \'curseGroup\': \'a\'}>\n    ^\nSyntaxError: invalid syntax\n'
p5717
s.