(dp1
S'output'
p2
S'<class \'_mysql_exceptions.ProgrammingError\'> (1146, "Table \'UserDB.auth_user\' doesn\'t exist")'
p3
sS'layer'
p4
S'/home/adrian/web2py/applications/CygnusCloud/models/db.py'
p5
sS'code'
p6
S"# -*- coding: utf-8 -*-\nfrom configuration import DBConfigurator\nfrom gluon.tools import Auth\n\nconf = DBConfigurator('170590ucm')\nconf.dropDatabase('UserDB')\nconf.createDatabase('UserDB')\n#conf.addUser('CygnusCloud','cygnuscloud2012', 'UserDB')\nuserDB = DAL('mysql://CygnusCloud:cygnuscloud2012@localhost/UserDB',migrate_enabled=True)\n\n# Autentication\n\nauth = Auth(userDB)\nauth.define_tables(migrate = True)\n\n\n\n#Usuario de prueba\nu1 = userDB.auth_user.insert(password = userDB.auth_user.password.validate('1234')[0],email = 'Admin1@ucm.es',first_name='Bertoldo',last_name='Pedralbes')\n\n\n\n\n#A\xc3\xb1adimos los grupos\n#auth.add_group('Student', 'Only run virtual machines available')\n#auth.add_group('Administrator', 'All privilages available')\n\n\n#Enlazamos los usuarios a los grupos\n#auth.add_membership('Administrator',u1)\n\nuserDB.define_table('UserGroup',\n   Field('yearGroup','integer', 'reference Users'),\n   Field('cod','integer','reference subjects'),\n   Field('curse','integer'),\n   Field('curseGroup', length=1),\n   primarykey=['cod','curseGroup'],migrate= True)\n\nuserDB.define_table('ClassGroup',\n   Field('userId','integer', 'reference auth_user' ),\n   Field('cod','integer','reference UserGroup'),\n   Field('curseGroup','reference UserGroup',length=1 ),\n   primarykey=['cod','curseGroup','userId'],migrate= True)\n\nuserDB.define_table('Subjects',\n   Field('code','integer'),\n   Field('name',length=15),migrate= True)\n\n\n\nuserDB.define_table('VMByGroup',\n   Field('VMName',length=20),\n   Field('cod','integer','reference UserGroup'),\n   Field('curseGroup','reference UserGroup',length=1 ),\n   primarykey=['cod','curseGroup','VMName'],migrate= True)\n\n\nprint userDB.tables\n"
p7
sS'snapshot'
p8
(dp9
S'exception'
p10
(dp11
S'__module__'
p12
S"'_mysql_exceptions'"
p13
sS'__getslice__'
p14
S"<method-wrapper '__getslice__' of ProgrammingError object>"
p15
sS'__str__'
p16
S"<method-wrapper '__str__' of ProgrammingError object>"
p17
sS'__reduce__'
p18
S'<built-in method __reduce__ of ProgrammingError object>'
p19
sS'__dict__'
p20
S'{}'
p21
sS'__sizeof__'
p22
S'<built-in method __sizeof__ of ProgrammingError object>'
p23
sS'__weakref__'
p24
S'None'
p25
sS'__init__'
p26
S"<method-wrapper '__init__' of ProgrammingError object>"
p27
sS'__setattr__'
p28
S"<method-wrapper '__setattr__' of ProgrammingError object>"
p29
sS'__reduce_ex__'
p30
S'<built-in method __reduce_ex__ of ProgrammingError object>'
p31
sS'__new__'
p32
S'<built-in method __new__ of type object>'
p33
sS'__format__'
p34
S'<built-in method __format__ of ProgrammingError object>'
p35
sS'__class__'
p36
S"<class '_mysql_exceptions.ProgrammingError'>"
p37
sS'__doc__'
p38
S"'Exception raised for programming errors, e.g. ta...t, wrong number\\n    of parameters specified, etc.'"
p39
sS'__getitem__'
p40
S"<method-wrapper '__getitem__' of ProgrammingError object>"
p41
sS'__setstate__'
p42
S'<built-in method __setstate__ of ProgrammingError object>'
p43
sS'__getattribute__'
p44
S"<method-wrapper '__getattribute__' of ProgrammingError object>"
p45
sS'args'
p46
S'(1146, "Table \'UserDB.auth_user\' doesn\'t exist")'
p47
sS'__subclasshook__'
p48
S'<built-in method __subclasshook__ of type object>'
p49
sS'__unicode__'
p50
S'<built-in method __unicode__ of ProgrammingError object>'
p51
sS'__delattr__'
p52
S"<method-wrapper '__delattr__' of ProgrammingError object>"
p53
sS'__repr__'
p54
S"<method-wrapper '__repr__' of ProgrammingError object>"
p55
sS'__hash__'
p56
S"<method-wrapper '__hash__' of ProgrammingError object>"
p57
ssS'evalue'
p58
S'(1146, "Table \'UserDB.auth_user\' doesn\'t exist")'
p59
sS'request'
p60
ccopy_reg
_reconstructor
p61
(cgluon.html
BEAUTIFY
p62
c__builtin__
object
p63
NtRp64
(dp65
S'attributes'
p66
(dp67
sS'components'
p68
(lp69
g61
(cgluon.html
TABLE
p70
g63
NtRp71
(dp72
g66
(dp73
S'level'
p74
I5
ssS'parent'
p75
Nsg68
(lp76
g61
(cgluon.html
TR
p77
g63
NtRp78
(dp79
g66
(dp80
sg75
g71
sg68
(lp81
g61
(cgluon.html
TD
p82
g63
NtRp83
(dp84
g66
(dp85
S'_style'
p86
S'font-weight:bold;vertical-align:top'
p87
ssg75
g78
sg68
(lp88
S'ajax'
p89
asbag61
(g82
g63
NtRp90
(dp91
g66
(dp92
S'_valign'
p93
S'top'
p94
ssg75
g78
sg68
(lp95
S':'
asbag61
(g82
g63
NtRp96
(dp97
g66
(dp98
sg75
g78
sg68
(lp99
g61
(g62
g63
NtRp100
(dp101
g66
(dp102
g74
I5
ssg75
g96
sg68
(lp103
S'False'
p104
asbasbasbag61
(g77
g63
NtRp105
(dp106
g66
(dp107
sg75
g71
sg68
(lp108
g61
(g82
g63
NtRp109
(dp110
g66
(dp111
g86
g87
ssg75
g105
sg68
(lp112
S'application'
p113
asbag61
(g82
g63
NtRp114
(dp115
g66
(dp116
g93
g94
ssg75
g105
sg68
(lp117
S':'
asbag61
(g82
g63
NtRp118
(dp119
g66
(dp120
sg75
g105
sg68
(lp121
g61
(g62
g63
NtRp122
(dp123
g66
(dp124
g74
I5
ssg75
g118
sg68
(lp125
S'CygnusCloud'
p126
asbasbasbag61
(g77
g63
NtRp127
(dp128
g66
(dp129
sg75
g71
sg68
(lp130
g61
(g82
g63
NtRp131
(dp132
g66
(dp133
g86
g87
ssg75
g127
sg68
(lp134
g46
asbag61
(g82
g63
NtRp135
(dp136
g66
(dp137
g93
g94
ssg75
g127
sg68
(lp138
S':'
asbag61
(g82
g63
NtRp139
(dp140
g66
(dp141
sg75
g127
sg68
(lp142
g61
(g62
g63
NtRp143
(dp144
g66
(dp145
g74
I5
ssg75
g139
sg68
(lp146
g61
(g70
g63
NtRp147
(dp148
g66
(dp149
g74
I4
ssg75
Nsg68
(lp150
g61
(g77
g63
NtRp151
(dp152
g66
(dp153
sg75
g147
sg68
(lp154
g61
(g82
g63
NtRp155
(dp156
g66
(dp157
sg75
g151
sg68
(lp158
g61
(g62
g63
NtRp159
(dp160
g66
(dp161
g74
I4
ssg75
g155
sg68
(lp162
S'userDB'
p163
asbasbasbasbasbasbasbag61
(g77
g63
NtRp164
(dp165
g66
(dp166
sg75
g71
sg68
(lp167
g61
(g82
g63
NtRp168
(dp169
g66
(dp170
g86
g87
ssg75
g164
sg68
(lp171
S'body'
p172
asbag61
(g82
g63
NtRp173
(dp174
g66
(dp175
g93
g94
ssg75
g164
sg68
(lp176
S':'
asbag61
(g82
g63
NtRp177
(dp178
g66
(dp179
sg75
g164
sg68
(lp180
g61
(g62
g63
NtRp181
(dp182
g66
(dp183
g74
I5
ssg75
g177
sg68
(lp184
S"<open file '<fdopen>', mode 'w+b' at 0x7f237c141e40>"
p185
asbasbasbag61
(g77
g63
NtRp186
(dp187
g66
(dp188
sg75
g71
sg68
(lp189
g61
(g82
g63
NtRp190
(dp191
g66
(dp192
g86
g87
ssg75
g186
sg68
(lp193
S'cid'
p194
asbag61
(g82
g63
NtRp195
(dp196
g66
(dp197
g93
g94
ssg75
g186
sg68
(lp198
S':'
asbag61
(g82
g63
NtRp199
(dp200
g66
(dp201
sg75
g186
sg68
(lp202
g61
(g62
g63
NtRp203
(dp204
g66
(dp205
g74
I5
ssg75
g199
sg68
(lp206
S'None'
p207
asbasbasbag61
(g77
g63
NtRp208
(dp209
g66
(dp210
sg75
g71
sg68
(lp211
g61
(g82
g63
NtRp212
(dp213
g66
(dp214
g86
g87
ssg75
g208
sg68
(lp215
S'client'
p216
asbag61
(g82
g63
NtRp217
(dp218
g66
(dp219
g93
g94
ssg75
g208
sg68
(lp220
S':'
asbag61
(g82
g63
NtRp221
(dp222
g66
(dp223
sg75
g208
sg68
(lp224
g61
(g62
g63
NtRp225
(dp226
g66
(dp227
g74
I5
ssg75
g221
sg68
(lp228
S'127.0.0.1'
p229
asbasbasbag61
(g77
g63
NtRp230
(dp231
g66
(dp232
sg75
g71
sg68
(lp233
g61
(g82
g63
NtRp234
(dp235
g66
(dp236
g86
g87
ssg75
g230
sg68
(lp237
S'controller'
p238
asbag61
(g82
g63
NtRp239
(dp240
g66
(dp241
g93
g94
ssg75
g230
sg68
(lp242
S':'
asbag61
(g82
g63
NtRp243
(dp244
g66
(dp245
sg75
g230
sg68
(lp246
g61
(g62
g63
NtRp247
(dp248
g66
(dp249
g74
I5
ssg75
g243
sg68
(lp250
S'appadmin'
p251
asbasbasbag61
(g77
g63
NtRp252
(dp253
g66
(dp254
sg75
g71
sg68
(lp255
g61
(g82
g63
NtRp256
(dp257
g66
(dp258
g86
g87
ssg75
g252
sg68
(lp259
S'cookies'
p260
asbag61
(g82
g63
NtRp261
(dp262
g66
(dp263
g93
g94
ssg75
g252
sg68
(lp264
S':'
asbag61
(g82
g63
NtRp265
(dp266
g66
(dp267
sg75
g252
sg68
(lp268
g61
(g62
g63
NtRp269
(dp270
g66
(dp271
g74
I5
ssg75
g265
sg68
(lp272
g61
(g70
g63
NtRp273
(dp274
g66
(dp275
g74
I4
ssg75
Nsg68
(lp276
g61
(g77
g63
NtRp277
(dp278
g66
(dp279
sg75
g273
sg68
(lp280
g61
(g82
g63
NtRp281
(dp282
g66
(dp283
g86
g87
ssg75
g277
sg68
(lp284
S'session_id_admin'
p285
asbag61
(g82
g63
NtRp286
(dp287
g66
(dp288
g93
g94
ssg75
g277
sg68
(lp289
S':'
asbag61
(g82
g63
NtRp290
(dp291
g66
(dp292
sg75
g277
sg68
(lp293
g61
(g62
g63
NtRp294
(dp295
g66
(dp296
g74
I4
ssg75
g290
sg68
(lp297
S'127.0.0.1-55f52477-473c-42b8-b923-a29e2f1fa64b'
p298
ag61
(g70
g63
NtRp299
(dp300
g66
(dp301
g74
I3
ssg75
Nsg68
(lp302
g61
(g77
g63
NtRp303
(dp304
g66
(dp305
sg75
g299
sg68
(lp306
g61
(g82
g63
NtRp307
(dp308
g66
(dp309
g86
g87
ssg75
g303
sg68
(lp310
S'comment'
p311
asbag61
(g82
g63
NtRp312
(dp313
g66
(dp314
g93
g94
ssg75
g303
sg68
(lp315
S':'
asbag61
(g82
g63
NtRp316
(dp317
g66
(dp318
sg75
g303
sg68
(lp319
g61
(g62
g63
NtRp320
(dp321
g66
(dp322
g74
I3
ssg75
g316
sg68
(lp323
S''
asbasbasbag61
(g77
g63
NtRp324
(dp325
g66
(dp326
sg75
g299
sg68
(lp327
g61
(g82
g63
NtRp328
(dp329
g66
(dp330
g86
g87
ssg75
g324
sg68
(lp331
S'domain'
p332
asbag61
(g82
g63
NtRp333
(dp334
g66
(dp335
g93
g94
ssg75
g324
sg68
(lp336
S':'
asbag61
(g82
g63
NtRp337
(dp338
g66
(dp339
sg75
g324
sg68
(lp340
g61
(g62
g63
NtRp341
(dp342
g66
(dp343
g74
I3
ssg75
g337
sg68
(lp344
S''
asbasbasbag61
(g77
g63
NtRp345
(dp346
g66
(dp347
sg75
g299
sg68
(lp348
g61
(g82
g63
NtRp349
(dp350
g66
(dp351
g86
g87
ssg75
g345
sg68
(lp352
S'expires'
p353
asbag61
(g82
g63
NtRp354
(dp355
g66
(dp356
g93
g94
ssg75
g345
sg68
(lp357
S':'
asbag61
(g82
g63
NtRp358
(dp359
g66
(dp360
sg75
g345
sg68
(lp361
g61
(g62
g63
NtRp362
(dp363
g66
(dp364
g74
I3
ssg75
g358
sg68
(lp365
S''
asbasbasbag61
(g77
g63
NtRp366
(dp367
g66
(dp368
sg75
g299
sg68
(lp369
g61
(g82
g63
NtRp370
(dp371
g66
(dp372
g86
g87
ssg75
g366
sg68
(lp373
S'httponly'
p374
asbag61
(g82
g63
NtRp375
(dp376
g66
(dp377
g93
g94
ssg75
g366
sg68
(lp378
S':'
asbag61
(g82
g63
NtRp379
(dp380
g66
(dp381
sg75
g366
sg68
(lp382
g61
(g62
g63
NtRp383
(dp384
g66
(dp385
g74
I3
ssg75
g379
sg68
(lp386
S''
asbasbasbag61
(g77
g63
NtRp387
(dp388
g66
(dp389
sg75
g299
sg68
(lp390
g61
(g82
g63
NtRp391
(dp392
g66
(dp393
g86
g87
ssg75
g387
sg68
(lp394
S'max-age'
p395
asbag61
(g82
g63
NtRp396
(dp397
g66
(dp398
g93
g94
ssg75
g387
sg68
(lp399
S':'
asbag61
(g82
g63
NtRp400
(dp401
g66
(dp402
sg75
g387
sg68
(lp403
g61
(g62
g63
NtRp404
(dp405
g66
(dp406
g74
I3
ssg75
g400
sg68
(lp407
S''
asbasbasbag61
(g77
g63
NtRp408
(dp409
g66
(dp410
sg75
g299
sg68
(lp411
g61
(g82
g63
NtRp412
(dp413
g66
(dp414
g86
g87
ssg75
g408
sg68
(lp415
S'path'
p416
asbag61
(g82
g63
NtRp417
(dp418
g66
(dp419
g93
g94
ssg75
g408
sg68
(lp420
S':'
asbag61
(g82
g63
NtRp421
(dp422
g66
(dp423
sg75
g408
sg68
(lp424
g61
(g62
g63
NtRp425
(dp426
g66
(dp427
g74
I3
ssg75
g421
sg68
(lp428
S''
asbasbasbag61
(g77
g63
NtRp429
(dp430
g66
(dp431
sg75
g299
sg68
(lp432
g61
(g82
g63
NtRp433
(dp434
g66
(dp435
g86
g87
ssg75
g429
sg68
(lp436
S'secure'
p437
asbag61
(g82
g63
NtRp438
(dp439
g66
(dp440
g93
g94
ssg75
g429
sg68
(lp441
S':'
asbag61
(g82
g63
NtRp442
(dp443
g66
(dp444
sg75
g429
sg68
(lp445
g61
(g62
g63
NtRp446
(dp447
g66
(dp448
g74
I3
ssg75
g442
sg68
(lp449
S''
asbasbasbag61
(g77
g63
NtRp450
(dp451
g66
(dp452
sg75
g299
sg68
(lp453
g61
(g82
g63
NtRp454
(dp455
g66
(dp456
g86
g87
ssg75
g450
sg68
(lp457
S'version'
p458
asbag61
(g82
g63
NtRp459
(dp460
g66
(dp461
g93
g94
ssg75
g450
sg68
(lp462
S':'
asbag61
(g82
g63
NtRp463
(dp464
g66
(dp465
sg75
g450
sg68
(lp466
g61
(g62
g63
NtRp467
(dp468
g66
(dp469
g74
I3
ssg75
g463
sg68
(lp470
S''
asbasbasbasbasbasbasbag61
(g77
g63
NtRp471
(dp472
g66
(dp473
sg75
g273
sg68
(lp474
g61
(g82
g63
NtRp475
(dp476
g66
(dp477
g86
g87
ssg75
g471
sg68
(lp478
S'session_id_cygnuscloud'
p479
asbag61
(g82
g63
NtRp480
(dp481
g66
(dp482
g93
g94
ssg75
g471
sg68
(lp483
S':'
asbag61
(g82
g63
NtRp484
(dp485
g66
(dp486
sg75
g471
sg68
(lp487
g61
(g62
g63
NtRp488
(dp489
g66
(dp490
g74
I4
ssg75
g484
sg68
(lp491
S'127.0.0.1-791acaf2-7386-46dc-b011-4810dc00037c'
p492
ag61
(g70
g63
NtRp493
(dp494
g66
(dp495
g74
I3
ssg75
Nsg68
(lp496
g61
(g77
g63
NtRp497
(dp498
g66
(dp499
sg75
g493
sg68
(lp500
g61
(g82
g63
NtRp501
(dp502
g66
(dp503
g86
g87
ssg75
g497
sg68
(lp504
g311
asbag61
(g82
g63
NtRp505
(dp506
g66
(dp507
g93
g94
ssg75
g497
sg68
(lp508
S':'
asbag61
(g82
g63
NtRp509
(dp510
g66
(dp511
sg75
g497
sg68
(lp512
g61
(g62
g63
NtRp513
(dp514
g66
(dp515
g74
I3
ssg75
g509
sg68
(lp516
S''
asbasbasbag61
(g77
g63
NtRp517
(dp518
g66
(dp519
sg75
g493
sg68
(lp520
g61
(g82
g63
NtRp521
(dp522
g66
(dp523
g86
g87
ssg75
g517
sg68
(lp524
g332
asbag61
(g82
g63
NtRp525
(dp526
g66
(dp527
g93
g94
ssg75
g517
sg68
(lp528
S':'
asbag61
(g82
g63
NtRp529
(dp530
g66
(dp531
sg75
g517
sg68
(lp532
g61
(g62
g63
NtRp533
(dp534
g66
(dp535
g74
I3
ssg75
g529
sg68
(lp536
S''
asbasbasbag61
(g77
g63
NtRp537
(dp538
g66
(dp539
sg75
g493
sg68
(lp540
g61
(g82
g63
NtRp541
(dp542
g66
(dp543
g86
g87
ssg75
g537
sg68
(lp544
g353
asbag61
(g82
g63
NtRp545
(dp546
g66
(dp547
g93
g94
ssg75
g537
sg68
(lp548
S':'
asbag61
(g82
g63
NtRp549
(dp550
g66
(dp551
sg75
g537
sg68
(lp552
g61
(g62
g63
NtRp553
(dp554
g66
(dp555
g74
I3
ssg75
g549
sg68
(lp556
S''
asbasbasbag61
(g77
g63
NtRp557
(dp558
g66
(dp559
sg75
g493
sg68
(lp560
g61
(g82
g63
NtRp561
(dp562
g66
(dp563
g86
g87
ssg75
g557
sg68
(lp564
g374
asbag61
(g82
g63
NtRp565
(dp566
g66
(dp567
g93
g94
ssg75
g557
sg68
(lp568
S':'
asbag61
(g82
g63
NtRp569
(dp570
g66
(dp571
sg75
g557
sg68
(lp572
g61
(g62
g63
NtRp573
(dp574
g66
(dp575
g74
I3
ssg75
g569
sg68
(lp576
S''
asbasbasbag61
(g77
g63
NtRp577
(dp578
g66
(dp579
sg75
g493
sg68
(lp580
g61
(g82
g63
NtRp581
(dp582
g66
(dp583
g86
g87
ssg75
g577
sg68
(lp584
g395
asbag61
(g82
g63
NtRp585
(dp586
g66
(dp587
g93
g94
ssg75
g577
sg68
(lp588
S':'
asbag61
(g82
g63
NtRp589
(dp590
g66
(dp591
sg75
g577
sg68
(lp592
g61
(g62
g63
NtRp593
(dp594
g66
(dp595
g74
I3
ssg75
g589
sg68
(lp596
S''
asbasbasbag61
(g77
g63
NtRp597
(dp598
g66
(dp599
sg75
g493
sg68
(lp600
g61
(g82
g63
NtRp601
(dp602
g66
(dp603
g86
g87
ssg75
g597
sg68
(lp604
g416
asbag61
(g82
g63
NtRp605
(dp606
g66
(dp607
g93
g94
ssg75
g597
sg68
(lp608
S':'
asbag61
(g82
g63
NtRp609
(dp610
g66
(dp611
sg75
g597
sg68
(lp612
g61
(g62
g63
NtRp613
(dp614
g66
(dp615
g74
I3
ssg75
g609
sg68
(lp616
S''
asbasbasbag61
(g77
g63
NtRp617
(dp618
g66
(dp619
sg75
g493
sg68
(lp620
g61
(g82
g63
NtRp621
(dp622
g66
(dp623
g86
g87
ssg75
g617
sg68
(lp624
g437
asbag61
(g82
g63
NtRp625
(dp626
g66
(dp627
g93
g94
ssg75
g617
sg68
(lp628
S':'
asbag61
(g82
g63
NtRp629
(dp630
g66
(dp631
sg75
g617
sg68
(lp632
g61
(g62
g63
NtRp633
(dp634
g66
(dp635
g74
I3
ssg75
g629
sg68
(lp636
S''
asbasbasbag61
(g77
g63
NtRp637
(dp638
g66
(dp639
sg75
g493
sg68
(lp640
g61
(g82
g63
NtRp641
(dp642
g66
(dp643
g86
g87
ssg75
g637
sg68
(lp644
g458
asbag61
(g82
g63
NtRp645
(dp646
g66
(dp647
g93
g94
ssg75
g637
sg68
(lp648
S':'
asbag61
(g82
g63
NtRp649
(dp650
g66
(dp651
sg75
g637
sg68
(lp652
g61
(g62
g63
NtRp653
(dp654
g66
(dp655
g74
I3
ssg75
g649
sg68
(lp656
S''
asbasbasbasbasbasbasbag61
(g77
g63
NtRp657
(dp658
g66
(dp659
sg75
g273
sg68
(lp660
g61
(g82
g63
NtRp661
(dp662
g66
(dp663
g86
g87
ssg75
g657
sg68
(lp664
S'session_id_images'
p665
asbag61
(g82
g63
NtRp666
(dp667
g66
(dp668
g93
g94
ssg75
g657
sg68
(lp669
S':'
asbag61
(g82
g63
NtRp670
(dp671
g66
(dp672
sg75
g657
sg68
(lp673
g61
(g62
g63
NtRp674
(dp675
g66
(dp676
g74
I4
ssg75
g670
sg68
(lp677
S'127.0.0.1-86f6c98f-4fbb-4841-b606-44c0d90442c6'
p678
ag61
(g70
g63
NtRp679
(dp680
g66
(dp681
g74
I3
ssg75
Nsg68
(lp682
g61
(g77
g63
NtRp683
(dp684
g66
(dp685
sg75
g679
sg68
(lp686
g61
(g82
g63
NtRp687
(dp688
g66
(dp689
g86
g87
ssg75
g683
sg68
(lp690
g311
asbag61
(g82
g63
NtRp691
(dp692
g66
(dp693
g93
g94
ssg75
g683
sg68
(lp694
S':'
asbag61
(g82
g63
NtRp695
(dp696
g66
(dp697
sg75
g683
sg68
(lp698
g61
(g62
g63
NtRp699
(dp700
g66
(dp701
g74
I3
ssg75
g695
sg68
(lp702
S''
asbasbasbag61
(g77
g63
NtRp703
(dp704
g66
(dp705
sg75
g679
sg68
(lp706
g61
(g82
g63
NtRp707
(dp708
g66
(dp709
g86
g87
ssg75
g703
sg68
(lp710
g332
asbag61
(g82
g63
NtRp711
(dp712
g66
(dp713
g93
g94
ssg75
g703
sg68
(lp714
S':'
asbag61
(g82
g63
NtRp715
(dp716
g66
(dp717
sg75
g703
sg68
(lp718
g61
(g62
g63
NtRp719
(dp720
g66
(dp721
g74
I3
ssg75
g715
sg68
(lp722
S''
asbasbasbag61
(g77
g63
NtRp723
(dp724
g66
(dp725
sg75
g679
sg68
(lp726
g61
(g82
g63
NtRp727
(dp728
g66
(dp729
g86
g87
ssg75
g723
sg68
(lp730
g353
asbag61
(g82
g63
NtRp731
(dp732
g66
(dp733
g93
g94
ssg75
g723
sg68
(lp734
S':'
asbag61
(g82
g63
NtRp735
(dp736
g66
(dp737
sg75
g723
sg68
(lp738
g61
(g62
g63
NtRp739
(dp740
g66
(dp741
g74
I3
ssg75
g735
sg68
(lp742
S''
asbasbasbag61
(g77
g63
NtRp743
(dp744
g66
(dp745
sg75
g679
sg68
(lp746
g61
(g82
g63
NtRp747
(dp748
g66
(dp749
g86
g87
ssg75
g743
sg68
(lp750
g374
asbag61
(g82
g63
NtRp751
(dp752
g66
(dp753
g93
g94
ssg75
g743
sg68
(lp754
S':'
asbag61
(g82
g63
NtRp755
(dp756
g66
(dp757
sg75
g743
sg68
(lp758
g61
(g62
g63
NtRp759
(dp760
g66
(dp761
g74
I3
ssg75
g755
sg68
(lp762
S''
asbasbasbag61
(g77
g63
NtRp763
(dp764
g66
(dp765
sg75
g679
sg68
(lp766
g61
(g82
g63
NtRp767
(dp768
g66
(dp769
g86
g87
ssg75
g763
sg68
(lp770
g395
asbag61
(g82
g63
NtRp771
(dp772
g66
(dp773
g93
g94
ssg75
g763
sg68
(lp774
S':'
asbag61
(g82
g63
NtRp775
(dp776
g66
(dp777
sg75
g763
sg68
(lp778
g61
(g62
g63
NtRp779
(dp780
g66
(dp781
g74
I3
ssg75
g775
sg68
(lp782
S''
asbasbasbag61
(g77
g63
NtRp783
(dp784
g66
(dp785
sg75
g679
sg68
(lp786
g61
(g82
g63
NtRp787
(dp788
g66
(dp789
g86
g87
ssg75
g783
sg68
(lp790
g416
asbag61
(g82
g63
NtRp791
(dp792
g66
(dp793
g93
g94
ssg75
g783
sg68
(lp794
S':'
asbag61
(g82
g63
NtRp795
(dp796
g66
(dp797
sg75
g783
sg68
(lp798
g61
(g62
g63
NtRp799
(dp800
g66
(dp801
g74
I3
ssg75
g795
sg68
(lp802
S''
asbasbasbag61
(g77
g63
NtRp803
(dp804
g66
(dp805
sg75
g679
sg68
(lp806
g61
(g82
g63
NtRp807
(dp808
g66
(dp809
g86
g87
ssg75
g803
sg68
(lp810
g437
asbag61
(g82
g63
NtRp811
(dp812
g66
(dp813
g93
g94
ssg75
g803
sg68
(lp814
S':'
asbag61
(g82
g63
NtRp815
(dp816
g66
(dp817
sg75
g803
sg68
(lp818
g61
(g62
g63
NtRp819
(dp820
g66
(dp821
g74
I3
ssg75
g815
sg68
(lp822
S''
asbasbasbag61
(g77
g63
NtRp823
(dp824
g66
(dp825
sg75
g679
sg68
(lp826
g61
(g82
g63
NtRp827
(dp828
g66
(dp829
g86
g87
ssg75
g823
sg68
(lp830
g458
asbag61
(g82
g63
NtRp831
(dp832
g66
(dp833
g93
g94
ssg75
g823
sg68
(lp834
S':'
asbag61
(g82
g63
NtRp835
(dp836
g66
(dp837
sg75
g823
sg68
(lp838
g61
(g62
g63
NtRp839
(dp840
g66
(dp841
g74
I3
ssg75
g835
sg68
(lp842
S''
asbasbasbasbasbasbasbag61
(g77
g63
NtRp843
(dp844
g66
(dp845
sg75
g273
sg68
(lp846
g61
(g82
g63
NtRp847
(dp848
g66
(dp849
g86
g87
ssg75
g843
sg68
(lp850
S'session_id_welcome'
p851
asbag61
(g82
g63
NtRp852
(dp853
g66
(dp854
g93
g94
ssg75
g843
sg68
(lp855
S':'
asbag61
(g82
g63
NtRp856
(dp857
g66
(dp858
sg75
g843
sg68
(lp859
g61
(g62
g63
NtRp860
(dp861
g66
(dp862
g74
I4
ssg75
g856
sg68
(lp863
S'127.0.0.1-ed3399df-33a9-4506-9f65-53bddd2578f7'
p864
ag61
(g70
g63
NtRp865
(dp866
g66
(dp867
g74
I3
ssg75
Nsg68
(lp868
g61
(g77
g63
NtRp869
(dp870
g66
(dp871
sg75
g865
sg68
(lp872
g61
(g82
g63
NtRp873
(dp874
g66
(dp875
g86
g87
ssg75
g869
sg68
(lp876
g311
asbag61
(g82
g63
NtRp877
(dp878
g66
(dp879
g93
g94
ssg75
g869
sg68
(lp880
S':'
asbag61
(g82
g63
NtRp881
(dp882
g66
(dp883
sg75
g869
sg68
(lp884
g61
(g62
g63
NtRp885
(dp886
g66
(dp887
g74
I3
ssg75
g881
sg68
(lp888
S''
asbasbasbag61
(g77
g63
NtRp889
(dp890
g66
(dp891
sg75
g865
sg68
(lp892
g61
(g82
g63
NtRp893
(dp894
g66
(dp895
g86
g87
ssg75
g889
sg68
(lp896
g332
asbag61
(g82
g63
NtRp897
(dp898
g66
(dp899
g93
g94
ssg75
g889
sg68
(lp900
S':'
asbag61
(g82
g63
NtRp901
(dp902
g66
(dp903
sg75
g889
sg68
(lp904
g61
(g62
g63
NtRp905
(dp906
g66
(dp907
g74
I3
ssg75
g901
sg68
(lp908
S''
asbasbasbag61
(g77
g63
NtRp909
(dp910
g66
(dp911
sg75
g865
sg68
(lp912
g61
(g82
g63
NtRp913
(dp914
g66
(dp915
g86
g87
ssg75
g909
sg68
(lp916
g353
asbag61
(g82
g63
NtRp917
(dp918
g66
(dp919
g93
g94
ssg75
g909
sg68
(lp920
S':'
asbag61
(g82
g63
NtRp921
(dp922
g66
(dp923
sg75
g909
sg68
(lp924
g61
(g62
g63
NtRp925
(dp926
g66
(dp927
g74
I3
ssg75
g921
sg68
(lp928
S''
asbasbasbag61
(g77
g63
NtRp929
(dp930
g66
(dp931
sg75
g865
sg68
(lp932
g61
(g82
g63
NtRp933
(dp934
g66
(dp935
g86
g87
ssg75
g929
sg68
(lp936
g374
asbag61
(g82
g63
NtRp937
(dp938
g66
(dp939
g93
g94
ssg75
g929
sg68
(lp940
S':'
asbag61
(g82
g63
NtRp941
(dp942
g66
(dp943
sg75
g929
sg68
(lp944
g61
(g62
g63
NtRp945
(dp946
g66
(dp947
g74
I3
ssg75
g941
sg68
(lp948
S''
asbasbasbag61
(g77
g63
NtRp949
(dp950
g66
(dp951
sg75
g865
sg68
(lp952
g61
(g82
g63
NtRp953
(dp954
g66
(dp955
g86
g87
ssg75
g949
sg68
(lp956
g395
asbag61
(g82
g63
NtRp957
(dp958
g66
(dp959
g93
g94
ssg75
g949
sg68
(lp960
S':'
asbag61
(g82
g63
NtRp961
(dp962
g66
(dp963
sg75
g949
sg68
(lp964
g61
(g62
g63
NtRp965
(dp966
g66
(dp967
g74
I3
ssg75
g961
sg68
(lp968
S''
asbasbasbag61
(g77
g63
NtRp969
(dp970
g66
(dp971
sg75
g865
sg68
(lp972
g61
(g82
g63
NtRp973
(dp974
g66
(dp975
g86
g87
ssg75
g969
sg68
(lp976
g416
asbag61
(g82
g63
NtRp977
(dp978
g66
(dp979
g93
g94
ssg75
g969
sg68
(lp980
S':'
asbag61
(g82
g63
NtRp981
(dp982
g66
(dp983
sg75
g969
sg68
(lp984
g61
(g62
g63
NtRp985
(dp986
g66
(dp987
g74
I3
ssg75
g981
sg68
(lp988
S''
asbasbasbag61
(g77
g63
NtRp989
(dp990
g66
(dp991
sg75
g865
sg68
(lp992
g61
(g82
g63
NtRp993
(dp994
g66
(dp995
g86
g87
ssg75
g989
sg68
(lp996
g437
asbag61
(g82
g63
NtRp997
(dp998
g66
(dp999
g93
g94
ssg75
g989
sg68
(lp1000
S':'
asbag61
(g82
g63
NtRp1001
(dp1002
g66
(dp1003
sg75
g989
sg68
(lp1004
g61
(g62
g63
NtRp1005
(dp1006
g66
(dp1007
g74
I3
ssg75
g1001
sg68
(lp1008
S''
asbasbasbag61
(g77
g63
NtRp1009
(dp1010
g66
(dp1011
sg75
g865
sg68
(lp1012
g61
(g82
g63
NtRp1013
(dp1014
g66
(dp1015
g86
g87
ssg75
g1009
sg68
(lp1016
g458
asbag61
(g82
g63
NtRp1017
(dp1018
g66
(dp1019
g93
g94
ssg75
g1009
sg68
(lp1020
S':'
asbag61
(g82
g63
NtRp1021
(dp1022
g66
(dp1023
sg75
g1009
sg68
(lp1024
g61
(g62
g63
NtRp1025
(dp1026
g66
(dp1027
g74
I3
ssg75
g1021
sg68
(lp1028
S''
asbasbasbasbasbasbasbasbasbasbasbag61
(g77
g63
NtRp1029
(dp1030
g66
(dp1031
sg75
g71
sg68
(lp1032
g61
(g82
g63
NtRp1033
(dp1034
g66
(dp1035
g86
g87
ssg75
g1029
sg68
(lp1036
S'env'
p1037
asbag61
(g82
g63
NtRp1038
(dp1039
g66
(dp1040
g93
g94
ssg75
g1029
sg68
(lp1041
S':'
asbag61
(g82
g63
NtRp1042
(dp1043
g66
(dp1044
sg75
g1029
sg68
(lp1045
g61
(g62
g63
NtRp1046
(dp1047
g66
(dp1048
g74
I5
ssg75
g1042
sg68
(lp1049
g61
(g70
g63
NtRp1050
(dp1051
g66
(dp1052
g74
I4
ssg75
Nsg68
(lp1053
g61
(g77
g63
NtRp1054
(dp1055
g66
(dp1056
sg75
g1050
sg68
(lp1057
g61
(g82
g63
NtRp1058
(dp1059
g66
(dp1060
g86
g87
ssg75
g1054
sg68
(lp1061
S'app_folders'
p1062
asbag61
(g82
g63
NtRp1063
(dp1064
g66
(dp1065
g93
g94
ssg75
g1054
sg68
(lp1066
S':'
asbag61
(g82
g63
NtRp1067
(dp1068
g66
(dp1069
sg75
g1054
sg68
(lp1070
g61
(g62
g63
NtRp1071
(dp1072
g66
(dp1073
g74
I4
ssg75
g1067
sg68
(lp1074
S"set(['/home/adrian/web2py/applications/admin/', '/home/adrian/web2py/applications/welcome/', '/home/adrian/web2py/applications/CygnusCloud/'])"
p1075
asbasbasbag61
(g77
g63
NtRp1076
(dp1077
g66
(dp1078
sg75
g1050
sg68
(lp1079
g61
(g82
g63
NtRp1080
(dp1081
g66
(dp1082
g86
g87
ssg75
g1076
sg68
(lp1083
S'applications_parent'
p1084
asbag61
(g82
g63
NtRp1085
(dp1086
g66
(dp1087
g93
g94
ssg75
g1076
sg68
(lp1088
S':'
asbag61
(g82
g63
NtRp1089
(dp1090
g66
(dp1091
sg75
g1076
sg68
(lp1092
g61
(g62
g63
NtRp1093
(dp1094
g66
(dp1095
g74
I4
ssg75
g1089
sg68
(lp1096
S'/home/adrian/web2py'
p1097
asbasbasbag61
(g77
g63
NtRp1098
(dp1099
g66
(dp1100
sg75
g1050
sg68
(lp1101
g61
(g82
g63
NtRp1102
(dp1103
g66
(dp1104
g86
g87
ssg75
g1098
sg68
(lp1105
S'cmd_args'
p1106
asbag61
(g82
g63
NtRp1107
(dp1108
g66
(dp1109
g93
g94
ssg75
g1098
sg68
(lp1110
S':'
asbag61
(g82
g63
NtRp1111
(dp1112
g66
(dp1113
sg75
g1098
sg68
(lp1114
g61
(g62
g63
NtRp1115
(dp1116
g66
(dp1117
g74
I4
ssg75
g1111
sg68
(lp1118
g61
(g70
g63
NtRp1119
(dp1120
g66
(dp1121
g74
I3
ssg75
Nsg68
(lp1122
sbasbasbasbag61
(g77
g63
NtRp1123
(dp1124
g66
(dp1125
sg75
g1050
sg68
(lp1126
g61
(g82
g63
NtRp1127
(dp1128
g66
(dp1129
g86
g87
ssg75
g1123
sg68
(lp1130
S'cmd_options'
p1131
asbag61
(g82
g63
NtRp1132
(dp1133
g66
(dp1134
g93
g94
ssg75
g1123
sg68
(lp1135
S':'
asbag61
(g82
g63
NtRp1136
(dp1137
g66
(dp1138
sg75
g1123
sg68
(lp1139
g61
(g62
g63
NtRp1140
(dp1141
g66
(dp1142
g74
I4
ssg75
g1136
sg68
(lp1143
S"<Values at 0x172fbd8: {'verbose': False, 'ip': '127.0.0.1', 'with_scheduler': False, 'ips': [], 'shutdown_timeout': 5, 'taskbar': False, 'port': 8000, 'maxthreads': None, 'softcron': False, 'server_name': 'adri-EasyNote', 'bpython': False, 'nogui': False, 'pid_filename': 'httpserver.pid', 'extcron': False, 'runcron': False, 'run_system_tests': False, 'test': None, 'folder': '/home/adrian/web2py', 'config': '', 'minthreads': None, 'winservice': '', 'shell': None, 'run': '', 'log_filename': 'httpserver.log', 'debuglevel': 30, 'args': [''], 'socket_timeout': 5, 'ssl_ca_certificate': None, 'scheduler': None, 'profiler_filename': None, 'ssl_private_key': '', 'scheduler_groups': None, 'password': 'cygnuscloud2012', 'request_queue_size': 5, 'ssl_certificate': '', 'cronjob': False, 'numthreads': None, 'quiet': False, 'interfaces': None, 'import_models': False, 'timeout': 10, 'plain': False, 'nobanner': False}>"
p1144
asbasbasbag61
(g77
g63
NtRp1145
(dp1146
g66
(dp1147
sg75
g1050
sg68
(lp1148
g61
(g82
g63
NtRp1149
(dp1150
g66
(dp1151
g86
g87
ssg75
g1145
sg68
(lp1152
S'content_length'
p1153
asbag61
(g82
g63
NtRp1154
(dp1155
g66
(dp1156
g93
g94
ssg75
g1145
sg68
(lp1157
S':'
asbag61
(g82
g63
NtRp1158
(dp1159
g66
(dp1160
sg75
g1145
sg68
(lp1161
g61
(g62
g63
NtRp1162
(dp1163
g66
(dp1164
g74
I4
ssg75
g1158
sg68
(lp1165
S'257'
p1166
asbasbasbag61
(g77
g63
NtRp1167
(dp1168
g66
(dp1169
sg75
g1050
sg68
(lp1170
g61
(g82
g63
NtRp1171
(dp1172
g66
(dp1173
g86
g87
ssg75
g1167
sg68
(lp1174
S'content_type'
p1175
asbag61
(g82
g63
NtRp1176
(dp1177
g66
(dp1178
g93
g94
ssg75
g1167
sg68
(lp1179
S':'
asbag61
(g82
g63
NtRp1180
(dp1181
g66
(dp1182
sg75
g1167
sg68
(lp1183
g61
(g62
g63
NtRp1184
(dp1185
g66
(dp1186
g74
I4
ssg75
g1180
sg68
(lp1187
S'multipart/form-data; boundary=----WebKitFormBoundaryffnS3kuhHyn8NGzE'
p1188
asbasbasbag61
(g77
g63
NtRp1189
(dp1190
g66
(dp1191
sg75
g1050
sg68
(lp1192
g61
(g82
g63
NtRp1193
(dp1194
g66
(dp1195
g86
g87
ssg75
g1189
sg68
(lp1196
S'db_sessions'
p1197
asbag61
(g82
g63
NtRp1198
(dp1199
g66
(dp1200
g93
g94
ssg75
g1189
sg68
(lp1201
S':'
asbag61
(g82
g63
NtRp1202
(dp1203
g66
(dp1204
sg75
g1189
sg68
(lp1205
g61
(g62
g63
NtRp1206
(dp1207
g66
(dp1208
g74
I4
ssg75
g1202
sg68
(lp1209
S'set([])'
p1210
asbasbasbag61
(g77
g63
NtRp1211
(dp1212
g66
(dp1213
sg75
g1050
sg68
(lp1214
g61
(g82
g63
NtRp1215
(dp1216
g66
(dp1217
g86
g87
ssg75
g1211
sg68
(lp1218
S'debugging'
p1219
asbag61
(g82
g63
NtRp1220
(dp1221
g66
(dp1222
g93
g94
ssg75
g1211
sg68
(lp1223
S':'
asbag61
(g82
g63
NtRp1224
(dp1225
g66
(dp1226
sg75
g1211
sg68
(lp1227
g61
(g62
g63
NtRp1228
(dp1229
g66
(dp1230
g74
I4
ssg75
g1224
sg68
(lp1231
g104
asbasbasbag61
(g77
g63
NtRp1232
(dp1233
g66
(dp1234
sg75
g1050
sg68
(lp1235
g61
(g82
g63
NtRp1236
(dp1237
g66
(dp1238
g86
g87
ssg75
g1232
sg68
(lp1239
S'gluon_parent'
p1240
asbag61
(g82
g63
NtRp1241
(dp1242
g66
(dp1243
g93
g94
ssg75
g1232
sg68
(lp1244
S':'
asbag61
(g82
g63
NtRp1245
(dp1246
g66
(dp1247
sg75
g1232
sg68
(lp1248
g61
(g62
g63
NtRp1249
(dp1250
g66
(dp1251
g74
I4
ssg75
g1245
sg68
(lp1252
S'/home/adrian/web2py'
p1253
asbasbasbag61
(g77
g63
NtRp1254
(dp1255
g66
(dp1256
sg75
g1050
sg68
(lp1257
g61
(g82
g63
NtRp1258
(dp1259
g66
(dp1260
g86
g87
ssg75
g1254
sg68
(lp1261
S'http_accept'
p1262
asbag61
(g82
g63
NtRp1263
(dp1264
g66
(dp1265
g93
g94
ssg75
g1254
sg68
(lp1266
S':'
asbag61
(g82
g63
NtRp1267
(dp1268
g66
(dp1269
sg75
g1254
sg68
(lp1270
g61
(g62
g63
NtRp1271
(dp1272
g66
(dp1273
g74
I4
ssg75
g1267
sg68
(lp1274
S'text/html,application/xhtml+xml,application/xml;q=0.9,*/*;q=0.8'
p1275
asbasbasbag61
(g77
g63
NtRp1276
(dp1277
g66
(dp1278
sg75
g1050
sg68
(lp1279
g61
(g82
g63
NtRp1280
(dp1281
g66
(dp1282
g86
g87
ssg75
g1276
sg68
(lp1283
S'http_accept_charset'
p1284
asbag61
(g82
g63
NtRp1285
(dp1286
g66
(dp1287
g93
g94
ssg75
g1276
sg68
(lp1288
S':'
asbag61
(g82
g63
NtRp1289
(dp1290
g66
(dp1291
sg75
g1276
sg68
(lp1292
g61
(g62
g63
NtRp1293
(dp1294
g66
(dp1295
g74
I4
ssg75
g1289
sg68
(lp1296
S'ISO-8859-1,utf-8;q=0.7,*;q=0.3'
p1297
asbasbasbag61
(g77
g63
NtRp1298
(dp1299
g66
(dp1300
sg75
g1050
sg68
(lp1301
g61
(g82
g63
NtRp1302
(dp1303
g66
(dp1304
g86
g87
ssg75
g1298
sg68
(lp1305
S'http_accept_encoding'
p1306
asbag61
(g82
g63
NtRp1307
(dp1308
g66
(dp1309
g93
g94
ssg75
g1298
sg68
(lp1310
S':'
asbag61
(g82
g63
NtRp1311
(dp1312
g66
(dp1313
sg75
g1298
sg68
(lp1314
g61
(g62
g63
NtRp1315
(dp1316
g66
(dp1317
g74
I4
ssg75
g1311
sg68
(lp1318
S'gzip,deflate,sdch'
p1319
asbasbasbag61
(g77
g63
NtRp1320
(dp1321
g66
(dp1322
sg75
g1050
sg68
(lp1323
g61
(g82
g63
NtRp1324
(dp1325
g66
(dp1326
g86
g87
ssg75
g1320
sg68
(lp1327
S'http_accept_language'
p1328
asbag61
(g82
g63
NtRp1329
(dp1330
g66
(dp1331
g93
g94
ssg75
g1320
sg68
(lp1332
S':'
asbag61
(g82
g63
NtRp1333
(dp1334
g66
(dp1335
sg75
g1320
sg68
(lp1336
g61
(g62
g63
NtRp1337
(dp1338
g66
(dp1339
g74
I4
ssg75
g1333
sg68
(lp1340
S'es-ES,es;q=0.8'
p1341
asbasbasbag61
(g77
g63
NtRp1342
(dp1343
g66
(dp1344
sg75
g1050
sg68
(lp1345
g61
(g82
g63
NtRp1346
(dp1347
g66
(dp1348
g86
g87
ssg75
g1342
sg68
(lp1349
S'http_cache_control'
p1350
asbag61
(g82
g63
NtRp1351
(dp1352
g66
(dp1353
g93
g94
ssg75
g1342
sg68
(lp1354
S':'
asbag61
(g82
g63
NtRp1355
(dp1356
g66
(dp1357
sg75
g1342
sg68
(lp1358
g61
(g62
g63
NtRp1359
(dp1360
g66
(dp1361
g74
I4
ssg75
g1355
sg68
(lp1362
S'max-age=0'
p1363
asbasbasbag61
(g77
g63
NtRp1364
(dp1365
g66
(dp1366
sg75
g1050
sg68
(lp1367
g61
(g82
g63
NtRp1368
(dp1369
g66
(dp1370
g86
g87
ssg75
g1364
sg68
(lp1371
S'http_connection'
p1372
asbag61
(g82
g63
NtRp1373
(dp1374
g66
(dp1375
g93
g94
ssg75
g1364
sg68
(lp1376
S':'
asbag61
(g82
g63
NtRp1377
(dp1378
g66
(dp1379
sg75
g1364
sg68
(lp1380
g61
(g62
g63
NtRp1381
(dp1382
g66
(dp1383
g74
I4
ssg75
g1377
sg68
(lp1384
S'keep-alive'
p1385
asbasbasbag61
(g77
g63
NtRp1386
(dp1387
g66
(dp1388
sg75
g1050
sg68
(lp1389
g61
(g82
g63
NtRp1390
(dp1391
g66
(dp1392
g86
g87
ssg75
g1386
sg68
(lp1393
S'http_content_length'
p1394
asbag61
(g82
g63
NtRp1395
(dp1396
g66
(dp1397
g93
g94
ssg75
g1386
sg68
(lp1398
S':'
asbag61
(g82
g63
NtRp1399
(dp1400
g66
(dp1401
sg75
g1386
sg68
(lp1402
g61
(g62
g63
NtRp1403
(dp1404
g66
(dp1405
g74
I4
ssg75
g1399
sg68
(lp1406
g1166
asbasbasbag61
(g77
g63
NtRp1407
(dp1408
g66
(dp1409
sg75
g1050
sg68
(lp1410
g61
(g82
g63
NtRp1411
(dp1412
g66
(dp1413
g86
g87
ssg75
g1407
sg68
(lp1414
S'http_content_type'
p1415
asbag61
(g82
g63
NtRp1416
(dp1417
g66
(dp1418
g93
g94
ssg75
g1407
sg68
(lp1419
S':'
asbag61
(g82
g63
NtRp1420
(dp1421
g66
(dp1422
sg75
g1407
sg68
(lp1423
g61
(g62
g63
NtRp1424
(dp1425
g66
(dp1426
g74
I4
ssg75
g1420
sg68
(lp1427
g1188
asbasbasbag61
(g77
g63
NtRp1428
(dp1429
g66
(dp1430
sg75
g1050
sg68
(lp1431
g61
(g82
g63
NtRp1432
(dp1433
g66
(dp1434
g86
g87
ssg75
g1428
sg68
(lp1435
S'http_cookie'
p1436
asbag61
(g82
g63
NtRp1437
(dp1438
g66
(dp1439
g93
g94
ssg75
g1428
sg68
(lp1440
S':'
asbag61
(g82
g63
NtRp1441
(dp1442
g66
(dp1443
sg75
g1428
sg68
(lp1444
g61
(g62
g63
NtRp1445
(dp1446
g66
(dp1447
g74
I4
ssg75
g1441
sg68
(lp1448
S'session_id_images=127.0.0.1-86f6c98f-4fbb-4841-b606-44c0d90442c6; session_id_welcome=127.0.0.1-ed3399df-33a9-4506-9f65-53bddd2578f7; session_id_cygnuscloud=127.0.0.1-791acaf2-7386-46dc-b011-4810dc00037c; session_id_admin=127.0.0.1-55f52477-473c-42b8-b923-a29e2f1fa64b'
p1449
asbasbasbag61
(g77
g63
NtRp1450
(dp1451
g66
(dp1452
sg75
g1050
sg68
(lp1453
g61
(g82
g63
NtRp1454
(dp1455
g66
(dp1456
g86
g87
ssg75
g1450
sg68
(lp1457
S'http_host'
p1458
asbag61
(g82
g63
NtRp1459
(dp1460
g66
(dp1461
g93
g94
ssg75
g1450
sg68
(lp1462
S':'
asbag61
(g82
g63
NtRp1463
(dp1464
g66
(dp1465
sg75
g1450
sg68
(lp1466
g61
(g62
g63
NtRp1467
(dp1468
g66
(dp1469
g74
I4
ssg75
g1463
sg68
(lp1470
S'127.0.0.1:8000'
p1471
asbasbasbag61
(g77
g63
NtRp1472
(dp1473
g66
(dp1474
sg75
g1050
sg68
(lp1475
g61
(g82
g63
NtRp1476
(dp1477
g66
(dp1478
g86
g87
ssg75
g1472
sg68
(lp1479
S'http_origin'
p1480
asbag61
(g82
g63
NtRp1481
(dp1482
g66
(dp1483
g93
g94
ssg75
g1472
sg68
(lp1484
S':'
asbag61
(g82
g63
NtRp1485
(dp1486
g66
(dp1487
sg75
g1472
sg68
(lp1488
g61
(g62
g63
NtRp1489
(dp1490
g66
(dp1491
g74
I4
ssg75
g1485
sg68
(lp1492
S'http://127.0.0.1:8000'
p1493
asbasbasbag61
(g77
g63
NtRp1494
(dp1495
g66
(dp1496
sg75
g1050
sg68
(lp1497
g61
(g82
g63
NtRp1498
(dp1499
g66
(dp1500
g86
g87
ssg75
g1494
sg68
(lp1501
S'http_referer'
p1502
asbag61
(g82
g63
NtRp1503
(dp1504
g66
(dp1505
g93
g94
ssg75
g1494
sg68
(lp1506
S':'
asbag61
(g82
g63
NtRp1507
(dp1508
g66
(dp1509
sg75
g1494
sg68
(lp1510
g61
(g62
g63
NtRp1511
(dp1512
g66
(dp1513
g74
I4
ssg75
g1507
sg68
(lp1514
S'http://127.0.0.1:8000/CygnusCloud/appadmin/select/userDB?query=userDB.auth_user.id%3E0'
p1515
asbasbasbag61
(g77
g63
NtRp1516
(dp1517
g66
(dp1518
sg75
g1050
sg68
(lp1519
g61
(g82
g63
NtRp1520
(dp1521
g66
(dp1522
g86
g87
ssg75
g1516
sg68
(lp1523
S'http_user_agent'
p1524
asbag61
(g82
g63
NtRp1525
(dp1526
g66
(dp1527
g93
g94
ssg75
g1516
sg68
(lp1528
S':'
asbag61
(g82
g63
NtRp1529
(dp1530
g66
(dp1531
sg75
g1516
sg68
(lp1532
g61
(g62
g63
NtRp1533
(dp1534
g66
(dp1535
g74
I4
ssg75
g1529
sg68
(lp1536
S'Mozilla/5.0 (X11; Linux x86_64) AppleWebKit/537.11 (KHTML, like Gecko) Chrome/23.0.1271.64 Safari/537.11'
p1537
asbasbasbag61
(g77
g63
NtRp1538
(dp1539
g66
(dp1540
sg75
g1050
sg68
(lp1541
g61
(g82
g63
NtRp1542
(dp1543
g66
(dp1544
g86
g87
ssg75
g1538
sg68
(lp1545
S'is_jython'
p1546
asbag61
(g82
g63
NtRp1547
(dp1548
g66
(dp1549
g93
g94
ssg75
g1538
sg68
(lp1550
S':'
asbag61
(g82
g63
NtRp1551
(dp1552
g66
(dp1553
sg75
g1538
sg68
(lp1554
g61
(g62
g63
NtRp1555
(dp1556
g66
(dp1557
g74
I4
ssg75
g1551
sg68
(lp1558
g104
asbasbasbag61
(g77
g63
NtRp1559
(dp1560
g66
(dp1561
sg75
g1050
sg68
(lp1562
g61
(g82
g63
NtRp1563
(dp1564
g66
(dp1565
g86
g87
ssg75
g1559
sg68
(lp1566
S'is_pypy'
p1567
asbag61
(g82
g63
NtRp1568
(dp1569
g66
(dp1570
g93
g94
ssg75
g1559
sg68
(lp1571
S':'
asbag61
(g82
g63
NtRp1572
(dp1573
g66
(dp1574
sg75
g1559
sg68
(lp1575
g61
(g62
g63
NtRp1576
(dp1577
g66
(dp1578
g74
I4
ssg75
g1572
sg68
(lp1579
g104
asbasbasbag61
(g77
g63
NtRp1580
(dp1581
g66
(dp1582
sg75
g1050
sg68
(lp1583
g61
(g82
g63
NtRp1584
(dp1585
g66
(dp1586
g86
g87
ssg75
g1580
sg68
(lp1587
S'local_hosts'
p1588
asbag61
(g82
g63
NtRp1589
(dp1590
g66
(dp1591
g93
g94
ssg75
g1580
sg68
(lp1592
S':'
asbag61
(g82
g63
NtRp1593
(dp1594
g66
(dp1595
sg75
g1580
sg68
(lp1596
g61
(g62
g63
NtRp1597
(dp1598
g66
(dp1599
g74
I4
ssg75
g1593
sg68
(lp1600
g61
(g70
g63
NtRp1601
(dp1602
g66
(dp1603
g74
I3
ssg75
Nsg68
(lp1604
g61
(g77
g63
NtRp1605
(dp1606
g66
(dp1607
sg75
g1601
sg68
(lp1608
g61
(g82
g63
NtRp1609
(dp1610
g66
(dp1611
sg75
g1605
sg68
(lp1612
g61
(g62
g63
NtRp1613
(dp1614
g66
(dp1615
g74
I3
ssg75
g1609
sg68
(lp1616
S'adri-EasyNote'
p1617
asbasbasbag61
(g77
g63
NtRp1618
(dp1619
g66
(dp1620
sg75
g1601
sg68
(lp1621
g61
(g82
g63
NtRp1622
(dp1623
g66
(dp1624
sg75
g1618
sg68
(lp1625
g61
(g62
g63
NtRp1626
(dp1627
g66
(dp1628
g74
I3
ssg75
g1622
sg68
(lp1629
S'::1'
p1630
asbasbasbag61
(g77
g63
NtRp1631
(dp1632
g66
(dp1633
sg75
g1601
sg68
(lp1634
g61
(g82
g63
NtRp1635
(dp1636
g66
(dp1637
sg75
g1631
sg68
(lp1638
g61
(g62
g63
NtRp1639
(dp1640
g66
(dp1641
g74
I3
ssg75
g1635
sg68
(lp1642
S'127.0.1.1'
p1643
asbasbasbag61
(g77
g63
NtRp1644
(dp1645
g66
(dp1646
sg75
g1601
sg68
(lp1647
g61
(g82
g63
NtRp1648
(dp1649
g66
(dp1650
sg75
g1644
sg68
(lp1651
g61
(g62
g63
NtRp1652
(dp1653
g66
(dp1654
g74
I3
ssg75
g1648
sg68
(lp1655
S'::ffff:127.0.0.1'
p1656
asbasbasbag61
(g77
g63
NtRp1657
(dp1658
g66
(dp1659
sg75
g1601
sg68
(lp1660
g61
(g82
g63
NtRp1661
(dp1662
g66
(dp1663
sg75
g1657
sg68
(lp1664
g61
(g62
g63
NtRp1665
(dp1666
g66
(dp1667
g74
I3
ssg75
g1661
sg68
(lp1668
S'127.0.0.1'
p1669
asbasbasbasbasbasbasbag61
(g77
g63
NtRp1670
(dp1671
g66
(dp1672
sg75
g1050
sg68
(lp1673
g61
(g82
g63
NtRp1674
(dp1675
g66
(dp1676
g86
g87
ssg75
g1670
sg68
(lp1677
S'path_info'
p1678
asbag61
(g82
g63
NtRp1679
(dp1680
g66
(dp1681
g93
g94
ssg75
g1670
sg68
(lp1682
S':'
asbag61
(g82
g63
NtRp1683
(dp1684
g66
(dp1685
sg75
g1670
sg68
(lp1686
g61
(g62
g63
NtRp1687
(dp1688
g66
(dp1689
g74
I4
ssg75
g1683
sg68
(lp1690
S'/CygnusCloud/appadmin/select/userDB'
p1691
asbasbasbag61
(g77
g63
NtRp1692
(dp1693
g66
(dp1694
sg75
g1050
sg68
(lp1695
g61
(g82
g63
NtRp1696
(dp1697
g66
(dp1698
g86
g87
ssg75
g1692
sg68
(lp1699
S'query_string'
p1700
asbag61
(g82
g63
NtRp1701
(dp1702
g66
(dp1703
g93
g94
ssg75
g1692
sg68
(lp1704
S':'
asbag61
(g82
g63
NtRp1705
(dp1706
g66
(dp1707
sg75
g1692
sg68
(lp1708
g61
(g62
g63
NtRp1709
(dp1710
g66
(dp1711
g74
I4
ssg75
g1705
sg68
(lp1712
S''
asbasbasbag61
(g77
g63
NtRp1713
(dp1714
g66
(dp1715
sg75
g1050
sg68
(lp1716
g61
(g82
g63
NtRp1717
(dp1718
g66
(dp1719
g86
g87
ssg75
g1713
sg68
(lp1720
S'remote_addr'
p1721
asbag61
(g82
g63
NtRp1722
(dp1723
g66
(dp1724
g93
g94
ssg75
g1713
sg68
(lp1725
S':'
asbag61
(g82
g63
NtRp1726
(dp1727
g66
(dp1728
sg75
g1713
sg68
(lp1729
g61
(g62
g63
NtRp1730
(dp1731
g66
(dp1732
g74
I4
ssg75
g1726
sg68
(lp1733
g229
asbasbasbag61
(g77
g63
NtRp1734
(dp1735
g66
(dp1736
sg75
g1050
sg68
(lp1737
g61
(g82
g63
NtRp1738
(dp1739
g66
(dp1740
g86
g87
ssg75
g1734
sg68
(lp1741
S'remote_port'
p1742
asbag61
(g82
g63
NtRp1743
(dp1744
g66
(dp1745
g93
g94
ssg75
g1734
sg68
(lp1746
S':'
asbag61
(g82
g63
NtRp1747
(dp1748
g66
(dp1749
sg75
g1734
sg68
(lp1750
g61
(g62
g63
NtRp1751
(dp1752
g66
(dp1753
g74
I4
ssg75
g1747
sg68
(lp1754
S'46471'
p1755
asbasbasbag61
(g77
g63
NtRp1756
(dp1757
g66
(dp1758
sg75
g1050
sg68
(lp1759
g61
(g82
g63
NtRp1760
(dp1761
g66
(dp1762
g86
g87
ssg75
g1756
sg68
(lp1763
S'request_method'
p1764
asbag61
(g82
g63
NtRp1765
(dp1766
g66
(dp1767
g93
g94
ssg75
g1756
sg68
(lp1768
S':'
asbag61
(g82
g63
NtRp1769
(dp1770
g66
(dp1771
sg75
g1756
sg68
(lp1772
g61
(g62
g63
NtRp1773
(dp1774
g66
(dp1775
g74
I4
ssg75
g1769
sg68
(lp1776
S'POST'
p1777
asbasbasbag61
(g77
g63
NtRp1778
(dp1779
g66
(dp1780
sg75
g1050
sg68
(lp1781
g61
(g82
g63
NtRp1782
(dp1783
g66
(dp1784
g86
g87
ssg75
g1778
sg68
(lp1785
S'request_uri'
p1786
asbag61
(g82
g63
NtRp1787
(dp1788
g66
(dp1789
g93
g94
ssg75
g1778
sg68
(lp1790
S':'
asbag61
(g82
g63
NtRp1791
(dp1792
g66
(dp1793
sg75
g1778
sg68
(lp1794
g61
(g62
g63
NtRp1795
(dp1796
g66
(dp1797
g74
I4
ssg75
g1791
sg68
(lp1798
g1691
asbasbasbag61
(g77
g63
NtRp1799
(dp1800
g66
(dp1801
sg75
g1050
sg68
(lp1802
g61
(g82
g63
NtRp1803
(dp1804
g66
(dp1805
g86
g87
ssg75
g1799
sg68
(lp1806
S'script_name'
p1807
asbag61
(g82
g63
NtRp1808
(dp1809
g66
(dp1810
g93
g94
ssg75
g1799
sg68
(lp1811
S':'
asbag61
(g82
g63
NtRp1812
(dp1813
g66
(dp1814
sg75
g1799
sg68
(lp1815
g61
(g62
g63
NtRp1816
(dp1817
g66
(dp1818
g74
I4
ssg75
g1812
sg68
(lp1819
S''
asbasbasbag61
(g77
g63
NtRp1820
(dp1821
g66
(dp1822
sg75
g1050
sg68
(lp1823
g61
(g82
g63
NtRp1824
(dp1825
g66
(dp1826
g86
g87
ssg75
g1820
sg68
(lp1827
S'server_name'
p1828
asbag61
(g82
g63
NtRp1829
(dp1830
g66
(dp1831
g93
g94
ssg75
g1820
sg68
(lp1832
S':'
asbag61
(g82
g63
NtRp1833
(dp1834
g66
(dp1835
sg75
g1820
sg68
(lp1836
g61
(g62
g63
NtRp1837
(dp1838
g66
(dp1839
g74
I4
ssg75
g1833
sg68
(lp1840
S'adri-EasyNote'
p1841
asbasbasbag61
(g77
g63
NtRp1842
(dp1843
g66
(dp1844
sg75
g1050
sg68
(lp1845
g61
(g82
g63
NtRp1846
(dp1847
g66
(dp1848
g86
g87
ssg75
g1842
sg68
(lp1849
S'server_port'
p1850
asbag61
(g82
g63
NtRp1851
(dp1852
g66
(dp1853
g93
g94
ssg75
g1842
sg68
(lp1854
S':'
asbag61
(g82
g63
NtRp1855
(dp1856
g66
(dp1857
sg75
g1842
sg68
(lp1858
g61
(g62
g63
NtRp1859
(dp1860
g66
(dp1861
g74
I4
ssg75
g1855
sg68
(lp1862
S'8000'
p1863
asbasbasbag61
(g77
g63
NtRp1864
(dp1865
g66
(dp1866
sg75
g1050
sg68
(lp1867
g61
(g82
g63
NtRp1868
(dp1869
g66
(dp1870
g86
g87
ssg75
g1864
sg68
(lp1871
S'server_protocol'
p1872
asbag61
(g82
g63
NtRp1873
(dp1874
g66
(dp1875
g93
g94
ssg75
g1864
sg68
(lp1876
S':'
asbag61
(g82
g63
NtRp1877
(dp1878
g66
(dp1879
sg75
g1864
sg68
(lp1880
g61
(g62
g63
NtRp1881
(dp1882
g66
(dp1883
g74
I4
ssg75
g1877
sg68
(lp1884
S'HTTP/1.1'
p1885
asbasbasbag61
(g77
g63
NtRp1886
(dp1887
g66
(dp1888
sg75
g1050
sg68
(lp1889
g61
(g82
g63
NtRp1890
(dp1891
g66
(dp1892
g86
g87
ssg75
g1886
sg68
(lp1893
S'server_software'
p1894
asbag61
(g82
g63
NtRp1895
(dp1896
g66
(dp1897
g93
g94
ssg75
g1886
sg68
(lp1898
S':'
asbag61
(g82
g63
NtRp1899
(dp1900
g66
(dp1901
sg75
g1886
sg68
(lp1902
g61
(g62
g63
NtRp1903
(dp1904
g66
(dp1905
g74
I4
ssg75
g1899
sg68
(lp1906
S'Rocket 1.2.6'
p1907
asbasbasbag61
(g77
g63
NtRp1908
(dp1909
g66
(dp1910
sg75
g1050
sg68
(lp1911
g61
(g82
g63
NtRp1912
(dp1913
g66
(dp1914
g86
g87
ssg75
g1908
sg68
(lp1915
S'web2py_path'
p1916
asbag61
(g82
g63
NtRp1917
(dp1918
g66
(dp1919
g93
g94
ssg75
g1908
sg68
(lp1920
S':'
asbag61
(g82
g63
NtRp1921
(dp1922
g66
(dp1923
sg75
g1908
sg68
(lp1924
g61
(g62
g63
NtRp1925
(dp1926
g66
(dp1927
g74
I4
ssg75
g1921
sg68
(lp1928
g1097
asbasbasbag61
(g77
g63
NtRp1929
(dp1930
g66
(dp1931
sg75
g1050
sg68
(lp1932
g61
(g82
g63
NtRp1933
(dp1934
g66
(dp1935
g86
g87
ssg75
g1929
sg68
(lp1936
S'web2py_version'
p1937
asbag61
(g82
g63
NtRp1938
(dp1939
g66
(dp1940
g93
g94
ssg75
g1929
sg68
(lp1941
S':'
asbag61
(g82
g63
NtRp1942
(dp1943
g66
(dp1944
sg75
g1929
sg68
(lp1945
g61
(g62
g63
NtRp1946
(dp1947
g66
(dp1948
g74
I4
ssg75
g1942
sg68
(lp1949
g61
(g70
g63
NtRp1950
(dp1951
g66
(dp1952
g74
I3
ssg75
Nsg68
(lp1953
g61
(g77
g63
NtRp1954
(dp1955
g66
(dp1956
sg75
g1950
sg68
(lp1957
g61
(g82
g63
NtRp1958
(dp1959
g66
(dp1960
sg75
g1954
sg68
(lp1961
g61
(g62
g63
NtRp1962
(dp1963
g66
(dp1964
g74
I3
ssg75
g1958
sg68
(lp1965
S'2'
asbasbasbag61
(g77
g63
NtRp1966
(dp1967
g66
(dp1968
sg75
g1950
sg68
(lp1969
g61
(g82
g63
NtRp1970
(dp1971
g66
(dp1972
sg75
g1966
sg68
(lp1973
g61
(g62
g63
NtRp1974
(dp1975
g66
(dp1976
g74
I3
ssg75
g1970
sg68
(lp1977
S'3'
asbasbasbag61
(g77
g63
NtRp1978
(dp1979
g66
(dp1980
sg75
g1950
sg68
(lp1981
g61
(g82
g63
NtRp1982
(dp1983
g66
(dp1984
sg75
g1978
sg68
(lp1985
g61
(g62
g63
NtRp1986
(dp1987
g66
(dp1988
g74
I3
ssg75
g1982
sg68
(lp1989
S'2'
asbasbasbag61
(g77
g63
NtRp1990
(dp1991
g66
(dp1992
sg75
g1950
sg68
(lp1993
g61
(g82
g63
NtRp1994
(dp1995
g66
(dp1996
sg75
g1990
sg68
(lp1997
g61
(g62
g63
NtRp1998
(dp1999
g66
(dp2000
g74
I3
ssg75
g1994
sg68
(lp2001
S'datetime.datetime(2012, 12, 17, 15, 3, 30)'
p2002
asbasbasbag61
(g77
g63
NtRp2003
(dp2004
g66
(dp2005
sg75
g1950
sg68
(lp2006
g61
(g82
g63
NtRp2007
(dp2008
g66
(dp2009
sg75
g2003
sg68
(lp2010
g61
(g62
g63
NtRp2011
(dp2012
g66
(dp2013
g74
I3
ssg75
g2007
sg68
(lp2014
S'stable'
p2015
asbasbasbasbasbasbasbag61
(g77
g63
NtRp2016
(dp2017
g66
(dp2018
sg75
g1050
sg68
(lp2019
g61
(g82
g63
NtRp2020
(dp2021
g66
(dp2022
g86
g87
ssg75
g2016
sg68
(lp2023
S'wsgi_errors'
p2024
asbag61
(g82
g63
NtRp2025
(dp2026
g66
(dp2027
g93
g94
ssg75
g2016
sg68
(lp2028
S':'
asbag61
(g82
g63
NtRp2029
(dp2030
g66
(dp2031
sg75
g2016
sg68
(lp2032
g61
(g62
g63
NtRp2033
(dp2034
g66
(dp2035
g74
I4
ssg75
g2029
sg68
(lp2036
S"<open file '<stderr>', mode 'w' at 0x7f239539e270>"
p2037
asbasbasbag61
(g77
g63
NtRp2038
(dp2039
g66
(dp2040
sg75
g1050
sg68
(lp2041
g61
(g82
g63
NtRp2042
(dp2043
g66
(dp2044
g86
g87
ssg75
g2038
sg68
(lp2045
S'wsgi_file_wrapper'
p2046
asbag61
(g82
g63
NtRp2047
(dp2048
g66
(dp2049
g93
g94
ssg75
g2038
sg68
(lp2050
S':'
asbag61
(g82
g63
NtRp2051
(dp2052
g66
(dp2053
sg75
g2038
sg68
(lp2054
g61
(g62
g63
NtRp2055
(dp2056
g66
(dp2057
g74
I4
ssg75
g2051
sg68
(lp2058
S'<class wsgiref.util.FileWrapper at 0x1663db8>'
p2059
asbasbasbag61
(g77
g63
NtRp2060
(dp2061
g66
(dp2062
sg75
g1050
sg68
(lp2063
g61
(g82
g63
NtRp2064
(dp2065
g66
(dp2066
g86
g87
ssg75
g2060
sg68
(lp2067
S'wsgi_input'
p2068
asbag61
(g82
g63
NtRp2069
(dp2070
g66
(dp2071
g93
g94
ssg75
g2060
sg68
(lp2072
S':'
asbag61
(g82
g63
NtRp2073
(dp2074
g66
(dp2075
sg75
g2060
sg68
(lp2076
g61
(g62
g63
NtRp2077
(dp2078
g66
(dp2079
g74
I4
ssg75
g2073
sg68
(lp2080
S'<socket._fileobject object at 0x7f23641577d0>'
p2081
asbasbasbag61
(g77
g63
NtRp2082
(dp2083
g66
(dp2084
sg75
g1050
sg68
(lp2085
g61
(g82
g63
NtRp2086
(dp2087
g66
(dp2088
g86
g87
ssg75
g2082
sg68
(lp2089
S'wsgi_multiprocess'
p2090
asbag61
(g82
g63
NtRp2091
(dp2092
g66
(dp2093
g93
g94
ssg75
g2082
sg68
(lp2094
S':'
asbag61
(g82
g63
NtRp2095
(dp2096
g66
(dp2097
sg75
g2082
sg68
(lp2098
g61
(g62
g63
NtRp2099
(dp2100
g66
(dp2101
g74
I4
ssg75
g2095
sg68
(lp2102
g104
asbasbasbag61
(g77
g63
NtRp2103
(dp2104
g66
(dp2105
sg75
g1050
sg68
(lp2106
g61
(g82
g63
NtRp2107
(dp2108
g66
(dp2109
g86
g87
ssg75
g2103
sg68
(lp2110
S'wsgi_multithread'
p2111
asbag61
(g82
g63
NtRp2112
(dp2113
g66
(dp2114
g93
g94
ssg75
g2103
sg68
(lp2115
S':'
asbag61
(g82
g63
NtRp2116
(dp2117
g66
(dp2118
sg75
g2103
sg68
(lp2119
g61
(g62
g63
NtRp2120
(dp2121
g66
(dp2122
g74
I4
ssg75
g2116
sg68
(lp2123
S'True'
p2124
asbasbasbag61
(g77
g63
NtRp2125
(dp2126
g66
(dp2127
sg75
g1050
sg68
(lp2128
g61
(g82
g63
NtRp2129
(dp2130
g66
(dp2131
g86
g87
ssg75
g2125
sg68
(lp2132
S'wsgi_run_once'
p2133
asbag61
(g82
g63
NtRp2134
(dp2135
g66
(dp2136
g93
g94
ssg75
g2125
sg68
(lp2137
S':'
asbag61
(g82
g63
NtRp2138
(dp2139
g66
(dp2140
sg75
g2125
sg68
(lp2141
g61
(g62
g63
NtRp2142
(dp2143
g66
(dp2144
g74
I4
ssg75
g2138
sg68
(lp2145
g104
asbasbasbag61
(g77
g63
NtRp2146
(dp2147
g66
(dp2148
sg75
g1050
sg68
(lp2149
g61
(g82
g63
NtRp2150
(dp2151
g66
(dp2152
g86
g87
ssg75
g2146
sg68
(lp2153
S'wsgi_url_scheme'
p2154
asbag61
(g82
g63
NtRp2155
(dp2156
g66
(dp2157
g93
g94
ssg75
g2146
sg68
(lp2158
S':'
asbag61
(g82
g63
NtRp2159
(dp2160
g66
(dp2161
sg75
g2146
sg68
(lp2162
g61
(g62
g63
NtRp2163
(dp2164
g66
(dp2165
g74
I4
ssg75
g2159
sg68
(lp2166
S'http'
p2167
asbasbasbag61
(g77
g63
NtRp2168
(dp2169
g66
(dp2170
sg75
g1050
sg68
(lp2171
g61
(g82
g63
NtRp2172
(dp2173
g66
(dp2174
g86
g87
ssg75
g2168
sg68
(lp2175
S'wsgi_version'
p2176
asbag61
(g82
g63
NtRp2177
(dp2178
g66
(dp2179
g93
g94
ssg75
g2168
sg68
(lp2180
S':'
asbag61
(g82
g63
NtRp2181
(dp2182
g66
(dp2183
sg75
g2168
sg68
(lp2184
g61
(g62
g63
NtRp2185
(dp2186
g66
(dp2187
g74
I4
ssg75
g2181
sg68
(lp2188
g61
(g70
g63
NtRp2189
(dp2190
g66
(dp2191
g74
I3
ssg75
Nsg68
(lp2192
g61
(g77
g63
NtRp2193
(dp2194
g66
(dp2195
sg75
g2189
sg68
(lp2196
g61
(g82
g63
NtRp2197
(dp2198
g66
(dp2199
sg75
g2193
sg68
(lp2200
g61
(g62
g63
NtRp2201
(dp2202
g66
(dp2203
g74
I3
ssg75
g2197
sg68
(lp2204
S'1'
asbasbasbag61
(g77
g63
NtRp2205
(dp2206
g66
(dp2207
sg75
g2189
sg68
(lp2208
g61
(g82
g63
NtRp2209
(dp2210
g66
(dp2211
sg75
g2205
sg68
(lp2212
g61
(g62
g63
NtRp2213
(dp2214
g66
(dp2215
g74
I3
ssg75
g2209
sg68
(lp2216
S'0'
asbasbasbasbasbasbasbasbasbasbasbag61
(g77
g63
NtRp2217
(dp2218
g66
(dp2219
sg75
g71
sg68
(lp2220
g61
(g82
g63
NtRp2221
(dp2222
g66
(dp2223
g86
g87
ssg75
g2217
sg68
(lp2224
S'extension'
p2225
asbag61
(g82
g63
NtRp2226
(dp2227
g66
(dp2228
g93
g94
ssg75
g2217
sg68
(lp2229
S':'
asbag61
(g82
g63
NtRp2230
(dp2231
g66
(dp2232
sg75
g2217
sg68
(lp2233
g61
(g62
g63
NtRp2234
(dp2235
g66
(dp2236
g74
I5
ssg75
g2230
sg68
(lp2237
S'html'
p2238
asbasbasbag61
(g77
g63
NtRp2239
(dp2240
g66
(dp2241
sg75
g71
sg68
(lp2242
g61
(g82
g63
NtRp2243
(dp2244
g66
(dp2245
g86
g87
ssg75
g2239
sg68
(lp2246
S'folder'
p2247
asbag61
(g82
g63
NtRp2248
(dp2249
g66
(dp2250
g93
g94
ssg75
g2239
sg68
(lp2251
S':'
asbag61
(g82
g63
NtRp2252
(dp2253
g66
(dp2254
sg75
g2239
sg68
(lp2255
g61
(g62
g63
NtRp2256
(dp2257
g66
(dp2258
g74
I5
ssg75
g2252
sg68
(lp2259
S'/home/adrian/web2py/applications/CygnusCloud/'
p2260
asbasbasbag61
(g77
g63
NtRp2261
(dp2262
g66
(dp2263
sg75
g71
sg68
(lp2264
g61
(g82
g63
NtRp2265
(dp2266
g66
(dp2267
g86
g87
ssg75
g2261
sg68
(lp2268
S'function'
p2269
asbag61
(g82
g63
NtRp2270
(dp2271
g66
(dp2272
g93
g94
ssg75
g2261
sg68
(lp2273
S':'
asbag61
(g82
g63
NtRp2274
(dp2275
g66
(dp2276
sg75
g2261
sg68
(lp2277
g61
(g62
g63
NtRp2278
(dp2279
g66
(dp2280
g74
I5
ssg75
g2274
sg68
(lp2281
S'select'
p2282
asbasbasbag61
(g77
g63
NtRp2283
(dp2284
g66
(dp2285
sg75
g71
sg68
(lp2286
g61
(g82
g63
NtRp2287
(dp2288
g66
(dp2289
g86
g87
ssg75
g2283
sg68
(lp2290
S'get_vars'
p2291
asbag61
(g82
g63
NtRp2292
(dp2293
g66
(dp2294
g93
g94
ssg75
g2283
sg68
(lp2295
S':'
asbag61
(g82
g63
NtRp2296
(dp2297
g66
(dp2298
sg75
g2283
sg68
(lp2299
g61
(g62
g63
NtRp2300
(dp2301
g66
(dp2302
g74
I5
ssg75
g2296
sg68
(lp2303
g61
(g70
g63
NtRp2304
(dp2305
g66
(dp2306
g74
I4
ssg75
Nsg68
(lp2307
sbasbasbasbag61
(g77
g63
NtRp2308
(dp2309
g66
(dp2310
sg75
g71
sg68
(lp2311
g61
(g82
g63
NtRp2312
(dp2313
g66
(dp2314
g86
g87
ssg75
g2308
sg68
(lp2315
S'global_settings'
p2316
asbag61
(g82
g63
NtRp2317
(dp2318
g66
(dp2319
g93
g94
ssg75
g2308
sg68
(lp2320
S':'
asbag61
(g82
g63
NtRp2321
(dp2322
g66
(dp2323
sg75
g2308
sg68
(lp2324
g61
(g62
g63
NtRp2325
(dp2326
g66
(dp2327
g74
I5
ssg75
g2321
sg68
(lp2328
g61
(g70
g63
NtRp2329
(dp2330
g66
(dp2331
g74
I4
ssg75
Nsg68
(lp2332
g61
(g77
g63
NtRp2333
(dp2334
g66
(dp2335
sg75
g2329
sg68
(lp2336
g61
(g82
g63
NtRp2337
(dp2338
g66
(dp2339
g86
g87
ssg75
g2333
sg68
(lp2340
g1062
asbag61
(g82
g63
NtRp2341
(dp2342
g66
(dp2343
g93
g94
ssg75
g2333
sg68
(lp2344
S':'
asbag61
(g82
g63
NtRp2345
(dp2346
g66
(dp2347
sg75
g2333
sg68
(lp2348
g61
(g62
g63
NtRp2349
(dp2350
g66
(dp2351
g74
I4
ssg75
g2345
sg68
(lp2352
S"set(['/home/adrian/web2py/applications/admin/', '/home/adrian/web2py/applications/welcome/', '/home/adrian/web2py/applications/CygnusCloud/'])"
p2353
asbasbasbag61
(g77
g63
NtRp2354
(dp2355
g66
(dp2356
sg75
g2329
sg68
(lp2357
g61
(g82
g63
NtRp2358
(dp2359
g66
(dp2360
g86
g87
ssg75
g2354
sg68
(lp2361
g1084
asbag61
(g82
g63
NtRp2362
(dp2363
g66
(dp2364
g93
g94
ssg75
g2354
sg68
(lp2365
S':'
asbag61
(g82
g63
NtRp2366
(dp2367
g66
(dp2368
sg75
g2354
sg68
(lp2369
g61
(g62
g63
NtRp2370
(dp2371
g66
(dp2372
g74
I4
ssg75
g2366
sg68
(lp2373
g1097
asbasbasbag61
(g77
g63
NtRp2374
(dp2375
g66
(dp2376
sg75
g2329
sg68
(lp2377
g61
(g82
g63
NtRp2378
(dp2379
g66
(dp2380
g86
g87
ssg75
g2374
sg68
(lp2381
g1106
asbag61
(g82
g63
NtRp2382
(dp2383
g66
(dp2384
g93
g94
ssg75
g2374
sg68
(lp2385
S':'
asbag61
(g82
g63
NtRp2386
(dp2387
g66
(dp2388
sg75
g2374
sg68
(lp2389
g61
(g62
g63
NtRp2390
(dp2391
g66
(dp2392
g74
I4
ssg75
g2386
sg68
(lp2393
g61
(g70
g63
NtRp2394
(dp2395
g66
(dp2396
g74
I3
ssg75
Nsg68
(lp2397
sbasbasbasbag61
(g77
g63
NtRp2398
(dp2399
g66
(dp2400
sg75
g2329
sg68
(lp2401
g61
(g82
g63
NtRp2402
(dp2403
g66
(dp2404
g86
g87
ssg75
g2398
sg68
(lp2405
g1131
asbag61
(g82
g63
NtRp2406
(dp2407
g66
(dp2408
g93
g94
ssg75
g2398
sg68
(lp2409
S':'
asbag61
(g82
g63
NtRp2410
(dp2411
g66
(dp2412
sg75
g2398
sg68
(lp2413
g61
(g62
g63
NtRp2414
(dp2415
g66
(dp2416
g74
I4
ssg75
g2410
sg68
(lp2417
S"<Values at 0x172fbd8: {'verbose': False, 'ip': '127.0.0.1', 'with_scheduler': False, 'ips': [], 'shutdown_timeout': 5, 'taskbar': False, 'port': 8000, 'maxthreads': None, 'softcron': False, 'server_name': 'adri-EasyNote', 'bpython': False, 'nogui': False, 'pid_filename': 'httpserver.pid', 'extcron': False, 'runcron': False, 'run_system_tests': False, 'test': None, 'folder': '/home/adrian/web2py', 'config': '', 'minthreads': None, 'winservice': '', 'shell': None, 'run': '', 'log_filename': 'httpserver.log', 'debuglevel': 30, 'args': [''], 'socket_timeout': 5, 'ssl_ca_certificate': None, 'scheduler': None, 'profiler_filename': None, 'ssl_private_key': '', 'scheduler_groups': None, 'password': 'cygnuscloud2012', 'request_queue_size': 5, 'ssl_certificate': '', 'cronjob': False, 'numthreads': None, 'quiet': False, 'interfaces': None, 'import_models': False, 'timeout': 10, 'plain': False, 'nobanner': False}>"
p2418
asbasbasbag61
(g77
g63
NtRp2419
(dp2420
g66
(dp2421
sg75
g2329
sg68
(lp2422
g61
(g82
g63
NtRp2423
(dp2424
g66
(dp2425
g86
g87
ssg75
g2419
sg68
(lp2426
g1197
asbag61
(g82
g63
NtRp2427
(dp2428
g66
(dp2429
g93
g94
ssg75
g2419
sg68
(lp2430
S':'
asbag61
(g82
g63
NtRp2431
(dp2432
g66
(dp2433
sg75
g2419
sg68
(lp2434
g61
(g62
g63
NtRp2435
(dp2436
g66
(dp2437
g74
I4
ssg75
g2431
sg68
(lp2438
S'set([])'
p2439
asbasbasbag61
(g77
g63
NtRp2440
(dp2441
g66
(dp2442
sg75
g2329
sg68
(lp2443
g61
(g82
g63
NtRp2444
(dp2445
g66
(dp2446
g86
g87
ssg75
g2440
sg68
(lp2447
g1219
asbag61
(g82
g63
NtRp2448
(dp2449
g66
(dp2450
g93
g94
ssg75
g2440
sg68
(lp2451
S':'
asbag61
(g82
g63
NtRp2452
(dp2453
g66
(dp2454
sg75
g2440
sg68
(lp2455
g61
(g62
g63
NtRp2456
(dp2457
g66
(dp2458
g74
I4
ssg75
g2452
sg68
(lp2459
g104
asbasbasbag61
(g77
g63
NtRp2460
(dp2461
g66
(dp2462
sg75
g2329
sg68
(lp2463
g61
(g82
g63
NtRp2464
(dp2465
g66
(dp2466
g86
g87
ssg75
g2460
sg68
(lp2467
g1240
asbag61
(g82
g63
NtRp2468
(dp2469
g66
(dp2470
g93
g94
ssg75
g2460
sg68
(lp2471
S':'
asbag61
(g82
g63
NtRp2472
(dp2473
g66
(dp2474
sg75
g2460
sg68
(lp2475
g61
(g62
g63
NtRp2476
(dp2477
g66
(dp2478
g74
I4
ssg75
g2472
sg68
(lp2479
g1253
asbasbasbag61
(g77
g63
NtRp2480
(dp2481
g66
(dp2482
sg75
g2329
sg68
(lp2483
g61
(g82
g63
NtRp2484
(dp2485
g66
(dp2486
g86
g87
ssg75
g2480
sg68
(lp2487
g1546
asbag61
(g82
g63
NtRp2488
(dp2489
g66
(dp2490
g93
g94
ssg75
g2480
sg68
(lp2491
S':'
asbag61
(g82
g63
NtRp2492
(dp2493
g66
(dp2494
sg75
g2480
sg68
(lp2495
g61
(g62
g63
NtRp2496
(dp2497
g66
(dp2498
g74
I4
ssg75
g2492
sg68
(lp2499
g104
asbasbasbag61
(g77
g63
NtRp2500
(dp2501
g66
(dp2502
sg75
g2329
sg68
(lp2503
g61
(g82
g63
NtRp2504
(dp2505
g66
(dp2506
g86
g87
ssg75
g2500
sg68
(lp2507
g1567
asbag61
(g82
g63
NtRp2508
(dp2509
g66
(dp2510
g93
g94
ssg75
g2500
sg68
(lp2511
S':'
asbag61
(g82
g63
NtRp2512
(dp2513
g66
(dp2514
sg75
g2500
sg68
(lp2515
g61
(g62
g63
NtRp2516
(dp2517
g66
(dp2518
g74
I4
ssg75
g2512
sg68
(lp2519
g104
asbasbasbag61
(g77
g63
NtRp2520
(dp2521
g66
(dp2522
sg75
g2329
sg68
(lp2523
g61
(g82
g63
NtRp2524
(dp2525
g66
(dp2526
g86
g87
ssg75
g2520
sg68
(lp2527
g1588
asbag61
(g82
g63
NtRp2528
(dp2529
g66
(dp2530
g93
g94
ssg75
g2520
sg68
(lp2531
S':'
asbag61
(g82
g63
NtRp2532
(dp2533
g66
(dp2534
sg75
g2520
sg68
(lp2535
g61
(g62
g63
NtRp2536
(dp2537
g66
(dp2538
g74
I4
ssg75
g2532
sg68
(lp2539
g61
(g70
g63
NtRp2540
(dp2541
g66
(dp2542
g74
I3
ssg75
Nsg68
(lp2543
g61
(g77
g63
NtRp2544
(dp2545
g66
(dp2546
sg75
g2540
sg68
(lp2547
g61
(g82
g63
NtRp2548
(dp2549
g66
(dp2550
sg75
g2544
sg68
(lp2551
g61
(g62
g63
NtRp2552
(dp2553
g66
(dp2554
g74
I3
ssg75
g2548
sg68
(lp2555
g1617
asbasbasbag61
(g77
g63
NtRp2556
(dp2557
g66
(dp2558
sg75
g2540
sg68
(lp2559
g61
(g82
g63
NtRp2560
(dp2561
g66
(dp2562
sg75
g2556
sg68
(lp2563
g61
(g62
g63
NtRp2564
(dp2565
g66
(dp2566
g74
I3
ssg75
g2560
sg68
(lp2567
g1630
asbasbasbag61
(g77
g63
NtRp2568
(dp2569
g66
(dp2570
sg75
g2540
sg68
(lp2571
g61
(g82
g63
NtRp2572
(dp2573
g66
(dp2574
sg75
g2568
sg68
(lp2575
g61
(g62
g63
NtRp2576
(dp2577
g66
(dp2578
g74
I3
ssg75
g2572
sg68
(lp2579
g1643
asbasbasbag61
(g77
g63
NtRp2580
(dp2581
g66
(dp2582
sg75
g2540
sg68
(lp2583
g61
(g82
g63
NtRp2584
(dp2585
g66
(dp2586
sg75
g2580
sg68
(lp2587
g61
(g62
g63
NtRp2588
(dp2589
g66
(dp2590
g74
I3
ssg75
g2584
sg68
(lp2591
g1656
asbasbasbag61
(g77
g63
NtRp2592
(dp2593
g66
(dp2594
sg75
g2540
sg68
(lp2595
g61
(g82
g63
NtRp2596
(dp2597
g66
(dp2598
sg75
g2592
sg68
(lp2599
g61
(g62
g63
NtRp2600
(dp2601
g66
(dp2602
g74
I3
ssg75
g2596
sg68
(lp2603
g1669
asbasbasbasbasbasbasbag61
(g77
g63
NtRp2604
(dp2605
g66
(dp2606
sg75
g2329
sg68
(lp2607
g61
(g82
g63
NtRp2608
(dp2609
g66
(dp2610
g86
g87
ssg75
g2604
sg68
(lp2611
g1937
asbag61
(g82
g63
NtRp2612
(dp2613
g66
(dp2614
g93
g94
ssg75
g2604
sg68
(lp2615
S':'
asbag61
(g82
g63
NtRp2616
(dp2617
g66
(dp2618
sg75
g2604
sg68
(lp2619
g61
(g62
g63
NtRp2620
(dp2621
g66
(dp2622
g74
I4
ssg75
g2616
sg68
(lp2623
g61
(g70
g63
NtRp2624
(dp2625
g66
(dp2626
g74
I3
ssg75
Nsg68
(lp2627
g61
(g77
g63
NtRp2628
(dp2629
g66
(dp2630
sg75
g2624
sg68
(lp2631
g61
(g82
g63
NtRp2632
(dp2633
g66
(dp2634
sg75
g2628
sg68
(lp2635
g61
(g62
g63
NtRp2636
(dp2637
g66
(dp2638
g74
I3
ssg75
g2632
sg68
(lp2639
S'2'
asbasbasbag61
(g77
g63
NtRp2640
(dp2641
g66
(dp2642
sg75
g2624
sg68
(lp2643
g61
(g82
g63
NtRp2644
(dp2645
g66
(dp2646
sg75
g2640
sg68
(lp2647
g61
(g62
g63
NtRp2648
(dp2649
g66
(dp2650
g74
I3
ssg75
g2644
sg68
(lp2651
S'3'
asbasbasbag61
(g77
g63
NtRp2652
(dp2653
g66
(dp2654
sg75
g2624
sg68
(lp2655
g61
(g82
g63
NtRp2656
(dp2657
g66
(dp2658
sg75
g2652
sg68
(lp2659
g61
(g62
g63
NtRp2660
(dp2661
g66
(dp2662
g74
I3
ssg75
g2656
sg68
(lp2663
S'2'
asbasbasbag61
(g77
g63
NtRp2664
(dp2665
g66
(dp2666
sg75
g2624
sg68
(lp2667
g61
(g82
g63
NtRp2668
(dp2669
g66
(dp2670
sg75
g2664
sg68
(lp2671
g61
(g62
g63
NtRp2672
(dp2673
g66
(dp2674
g74
I3
ssg75
g2668
sg68
(lp2675
S'datetime.datetime(2012, 12, 17, 15, 3, 30)'
p2676
asbasbasbag61
(g77
g63
NtRp2677
(dp2678
g66
(dp2679
sg75
g2624
sg68
(lp2680
g61
(g82
g63
NtRp2681
(dp2682
g66
(dp2683
sg75
g2677
sg68
(lp2684
g61
(g62
g63
NtRp2685
(dp2686
g66
(dp2687
g74
I3
ssg75
g2681
sg68
(lp2688
g2015
asbasbasbasbasbasbasbasbasbasbasbag61
(g77
g63
NtRp2689
(dp2690
g66
(dp2691
sg75
g71
sg68
(lp2692
g61
(g82
g63
NtRp2693
(dp2694
g66
(dp2695
g86
g87
ssg75
g2689
sg68
(lp2696
S'is_https'
p2697
asbag61
(g82
g63
NtRp2698
(dp2699
g66
(dp2700
g93
g94
ssg75
g2689
sg68
(lp2701
S':'
asbag61
(g82
g63
NtRp2702
(dp2703
g66
(dp2704
sg75
g2689
sg68
(lp2705
g61
(g62
g63
NtRp2706
(dp2707
g66
(dp2708
g74
I5
ssg75
g2702
sg68
(lp2709
g104
asbasbasbag61
(g77
g63
NtRp2710
(dp2711
g66
(dp2712
sg75
g71
sg68
(lp2713
g61
(g82
g63
NtRp2714
(dp2715
g66
(dp2716
g86
g87
ssg75
g2710
sg68
(lp2717
S'is_local'
p2718
asbag61
(g82
g63
NtRp2719
(dp2720
g66
(dp2721
g93
g94
ssg75
g2710
sg68
(lp2722
S':'
asbag61
(g82
g63
NtRp2723
(dp2724
g66
(dp2725
sg75
g2710
sg68
(lp2726
g61
(g62
g63
NtRp2727
(dp2728
g66
(dp2729
g74
I5
ssg75
g2723
sg68
(lp2730
g2124
asbasbasbag61
(g77
g63
NtRp2731
(dp2732
g66
(dp2733
sg75
g71
sg68
(lp2734
g61
(g82
g63
NtRp2735
(dp2736
g66
(dp2737
g86
g87
ssg75
g2731
sg68
(lp2738
S'is_restful'
p2739
asbag61
(g82
g63
NtRp2740
(dp2741
g66
(dp2742
g93
g94
ssg75
g2731
sg68
(lp2743
S':'
asbag61
(g82
g63
NtRp2744
(dp2745
g66
(dp2746
sg75
g2731
sg68
(lp2747
g61
(g62
g63
NtRp2748
(dp2749
g66
(dp2750
g74
I5
ssg75
g2744
sg68
(lp2751
g104
asbasbasbag61
(g77
g63
NtRp2752
(dp2753
g66
(dp2754
sg75
g71
sg68
(lp2755
g61
(g82
g63
NtRp2756
(dp2757
g66
(dp2758
g86
g87
ssg75
g2752
sg68
(lp2759
S'now'
p2760
asbag61
(g82
g63
NtRp2761
(dp2762
g66
(dp2763
g93
g94
ssg75
g2752
sg68
(lp2764
S':'
asbag61
(g82
g63
NtRp2765
(dp2766
g66
(dp2767
sg75
g2752
sg68
(lp2768
g61
(g62
g63
NtRp2769
(dp2770
g66
(dp2771
g74
I5
ssg75
g2765
sg68
(lp2772
S'datetime.datetime(2013, 2, 5, 20, 22, 10, 244637)'
p2773
asbasbasbag61
(g77
g63
NtRp2774
(dp2775
g66
(dp2776
sg75
g71
sg68
(lp2777
g61
(g82
g63
NtRp2778
(dp2779
g66
(dp2780
g86
g87
ssg75
g2774
sg68
(lp2781
S'post_vars'
p2782
asbag61
(g82
g63
NtRp2783
(dp2784
g66
(dp2785
g93
g94
ssg75
g2774
sg68
(lp2786
S':'
asbag61
(g82
g63
NtRp2787
(dp2788
g66
(dp2789
sg75
g2774
sg68
(lp2790
g61
(g62
g63
NtRp2791
(dp2792
g66
(dp2793
g74
I5
ssg75
g2787
sg68
(lp2794
g61
(g70
g63
NtRp2795
(dp2796
g66
(dp2797
g74
I4
ssg75
Nsg68
(lp2798
g61
(g77
g63
NtRp2799
(dp2800
g66
(dp2801
sg75
g2795
sg68
(lp2802
g61
(g82
g63
NtRp2803
(dp2804
g66
(dp2805
g86
g87
ssg75
g2799
sg68
(lp2806
S'query'
p2807
asbag61
(g82
g63
NtRp2808
(dp2809
g66
(dp2810
g93
g94
ssg75
g2799
sg68
(lp2811
S':'
asbag61
(g82
g63
NtRp2812
(dp2813
g66
(dp2814
sg75
g2799
sg68
(lp2815
g61
(g62
g63
NtRp2816
(dp2817
g66
(dp2818
g74
I4
ssg75
g2812
sg68
(lp2819
S'userDB.auth_user.id>0'
p2820
asbasbasbag61
(g77
g63
NtRp2821
(dp2822
g66
(dp2823
sg75
g2795
sg68
(lp2824
g61
(g82
g63
NtRp2825
(dp2826
g66
(dp2827
g86
g87
ssg75
g2821
sg68
(lp2828
S'update_fields'
p2829
asbag61
(g82
g63
NtRp2830
(dp2831
g66
(dp2832
g93
g94
ssg75
g2821
sg68
(lp2833
S':'
asbag61
(g82
g63
NtRp2834
(dp2835
g66
(dp2836
sg75
g2821
sg68
(lp2837
g61
(g62
g63
NtRp2838
(dp2839
g66
(dp2840
g74
I4
ssg75
g2834
sg68
(lp2841
S''
asbasbasbasbasbasbasbag61
(g77
g63
NtRp2842
(dp2843
g66
(dp2844
sg75
g71
sg68
(lp2845
g61
(g82
g63
NtRp2846
(dp2847
g66
(dp2848
g86
g87
ssg75
g2842
sg68
(lp2849
S'raw_args'
p2850
asbag61
(g82
g63
NtRp2851
(dp2852
g66
(dp2853
g93
g94
ssg75
g2842
sg68
(lp2854
S':'
asbag61
(g82
g63
NtRp2855
(dp2856
g66
(dp2857
sg75
g2842
sg68
(lp2858
g61
(g62
g63
NtRp2859
(dp2860
g66
(dp2861
g74
I5
ssg75
g2855
sg68
(lp2862
g163
asbasbasbag61
(g77
g63
NtRp2863
(dp2864
g66
(dp2865
sg75
g71
sg68
(lp2866
g61
(g82
g63
NtRp2867
(dp2868
g66
(dp2869
g86
g87
ssg75
g2863
sg68
(lp2870
S'raw_extension'
p2871
asbag61
(g82
g63
NtRp2872
(dp2873
g66
(dp2874
g93
g94
ssg75
g2863
sg68
(lp2875
S':'
asbag61
(g82
g63
NtRp2876
(dp2877
g66
(dp2878
sg75
g2863
sg68
(lp2879
g61
(g62
g63
NtRp2880
(dp2881
g66
(dp2882
g74
I5
ssg75
g2876
sg68
(lp2883
S'None'
p2884
asbasbasbag61
(g77
g63
NtRp2885
(dp2886
g66
(dp2887
sg75
g71
sg68
(lp2888
g61
(g82
g63
NtRp2889
(dp2890
g66
(dp2891
g86
g87
ssg75
g2885
sg68
(lp2892
S'url'
p2893
asbag61
(g82
g63
NtRp2894
(dp2895
g66
(dp2896
g93
g94
ssg75
g2885
sg68
(lp2897
S':'
asbag61
(g82
g63
NtRp2898
(dp2899
g66
(dp2900
sg75
g2885
sg68
(lp2901
g61
(g62
g63
NtRp2902
(dp2903
g66
(dp2904
g74
I5
ssg75
g2898
sg68
(lp2905
g1691
asbasbasbag61
(g77
g63
NtRp2906
(dp2907
g66
(dp2908
sg75
g71
sg68
(lp2909
g61
(g82
g63
NtRp2910
(dp2911
g66
(dp2912
g86
g87
ssg75
g2906
sg68
(lp2913
S'utcnow'
p2914
asbag61
(g82
g63
NtRp2915
(dp2916
g66
(dp2917
g93
g94
ssg75
g2906
sg68
(lp2918
S':'
asbag61
(g82
g63
NtRp2919
(dp2920
g66
(dp2921
sg75
g2906
sg68
(lp2922
g61
(g62
g63
NtRp2923
(dp2924
g66
(dp2925
g74
I5
ssg75
g2919
sg68
(lp2926
S'datetime.datetime(2013, 2, 5, 19, 22, 10, 244743)'
p2927
asbasbasbag61
(g77
g63
NtRp2928
(dp2929
g66
(dp2930
sg75
g71
sg68
(lp2931
g61
(g82
g63
NtRp2932
(dp2933
g66
(dp2934
g86
g87
ssg75
g2928
sg68
(lp2935
S'uuid'
p2936
asbag61
(g82
g63
NtRp2937
(dp2938
g66
(dp2939
g93
g94
ssg75
g2928
sg68
(lp2940
S':'
asbag61
(g82
g63
NtRp2941
(dp2942
g66
(dp2943
sg75
g2928
sg68
(lp2944
g61
(g62
g63
NtRp2945
(dp2946
g66
(dp2947
g74
I5
ssg75
g2941
sg68
(lp2948
S'CygnusCloud/127.0.0.1.2013-02-05.20-22-10.0f7c2235-2851-441f-85e7-2ca84fa51dce'
p2949
asbasbasbag61
(g77
g63
NtRp2950
(dp2951
g66
(dp2952
sg75
g71
sg68
(lp2953
g61
(g82
g63
NtRp2954
(dp2955
g66
(dp2956
g86
g87
ssg75
g2950
sg68
(lp2957
S'vars'
p2958
asbag61
(g82
g63
NtRp2959
(dp2960
g66
(dp2961
g93
g94
ssg75
g2950
sg68
(lp2962
S':'
asbag61
(g82
g63
NtRp2963
(dp2964
g66
(dp2965
sg75
g2950
sg68
(lp2966
g61
(g62
g63
NtRp2967
(dp2968
g66
(dp2969
g74
I5
ssg75
g2963
sg68
(lp2970
g61
(g70
g63
NtRp2971
(dp2972
g66
(dp2973
g74
I4
ssg75
Nsg68
(lp2974
g61
(g77
g63
NtRp2975
(dp2976
g66
(dp2977
sg75
g2971
sg68
(lp2978
g61
(g82
g63
NtRp2979
(dp2980
g66
(dp2981
g86
g87
ssg75
g2975
sg68
(lp2982
g2807
asbag61
(g82
g63
NtRp2983
(dp2984
g66
(dp2985
g93
g94
ssg75
g2975
sg68
(lp2986
S':'
asbag61
(g82
g63
NtRp2987
(dp2988
g66
(dp2989
sg75
g2975
sg68
(lp2990
g61
(g62
g63
NtRp2991
(dp2992
g66
(dp2993
g74
I4
ssg75
g2987
sg68
(lp2994
g2820
asbasbasbag61
(g77
g63
NtRp2995
(dp2996
g66
(dp2997
sg75
g2971
sg68
(lp2998
g61
(g82
g63
NtRp2999
(dp3000
g66
(dp3001
g86
g87
ssg75
g2995
sg68
(lp3002
g2829
asbag61
(g82
g63
NtRp3003
(dp3004
g66
(dp3005
g93
g94
ssg75
g2995
sg68
(lp3006
S':'
asbag61
(g82
g63
NtRp3007
(dp3008
g66
(dp3009
sg75
g2995
sg68
(lp3010
g61
(g62
g63
NtRp3011
(dp3012
g66
(dp3013
g74
I4
ssg75
g3007
sg68
(lp3014
S''
asbasbasbasbasbasbasbag61
(g77
g63
NtRp3015
(dp3016
g66
(dp3017
sg75
g71
sg68
(lp3018
g61
(g82
g63
NtRp3019
(dp3020
g66
(dp3021
g86
g87
ssg75
g3015
sg68
(lp3022
S'wsgi'
p3023
asbag61
(g82
g63
NtRp3024
(dp3025
g66
(dp3026
g93
g94
ssg75
g3015
sg68
(lp3027
S':'
asbag61
(g82
g63
NtRp3028
(dp3029
g66
(dp3030
sg75
g3015
sg68
(lp3031
g61
(g62
g63
NtRp3032
(dp3033
g66
(dp3034
g74
I5
ssg75
g3028
sg68
(lp3035
g61
(g70
g63
NtRp3036
(dp3037
g66
(dp3038
g74
I4
ssg75
Nsg68
(lp3039
g61
(g77
g63
NtRp3040
(dp3041
g66
(dp3042
sg75
g3036
sg68
(lp3043
g61
(g82
g63
NtRp3044
(dp3045
g66
(dp3046
g86
g87
ssg75
g3040
sg68
(lp3047
S'environ'
p3048
asbag61
(g82
g63
NtRp3049
(dp3050
g66
(dp3051
g93
g94
ssg75
g3040
sg68
(lp3052
S':'
asbag61
(g82
g63
NtRp3053
(dp3054
g66
(dp3055
sg75
g3040
sg68
(lp3056
g61
(g62
g63
NtRp3057
(dp3058
g66
(dp3059
g74
I4
ssg75
g3053
sg68
(lp3060
g61
(g70
g63
NtRp3061
(dp3062
g66
(dp3063
g74
I3
ssg75
Nsg68
(lp3064
g61
(g77
g63
NtRp3065
(dp3066
g66
(dp3067
sg75
g3061
sg68
(lp3068
g61
(g82
g63
NtRp3069
(dp3070
g66
(dp3071
g86
g87
ssg75
g3065
sg68
(lp3072
S'CONTENT_LENGTH'
p3073
asbag61
(g82
g63
NtRp3074
(dp3075
g66
(dp3076
g93
g94
ssg75
g3065
sg68
(lp3077
S':'
asbag61
(g82
g63
NtRp3078
(dp3079
g66
(dp3080
sg75
g3065
sg68
(lp3081
g61
(g62
g63
NtRp3082
(dp3083
g66
(dp3084
g74
I3
ssg75
g3078
sg68
(lp3085
g1166
asbasbasbag61
(g77
g63
NtRp3086
(dp3087
g66
(dp3088
sg75
g3061
sg68
(lp3089
g61
(g82
g63
NtRp3090
(dp3091
g66
(dp3092
g86
g87
ssg75
g3086
sg68
(lp3093
S'CONTENT_TYPE'
p3094
asbag61
(g82
g63
NtRp3095
(dp3096
g66
(dp3097
g93
g94
ssg75
g3086
sg68
(lp3098
S':'
asbag61
(g82
g63
NtRp3099
(dp3100
g66
(dp3101
sg75
g3086
sg68
(lp3102
g61
(g62
g63
NtRp3103
(dp3104
g66
(dp3105
g74
I3
ssg75
g3099
sg68
(lp3106
g1188
asbasbasbag61
(g77
g63
NtRp3107
(dp3108
g66
(dp3109
sg75
g3061
sg68
(lp3110
g61
(g82
g63
NtRp3111
(dp3112
g66
(dp3113
g86
g87
ssg75
g3107
sg68
(lp3114
S'HTTP_ACCEPT'
p3115
asbag61
(g82
g63
NtRp3116
(dp3117
g66
(dp3118
g93
g94
ssg75
g3107
sg68
(lp3119
S':'
asbag61
(g82
g63
NtRp3120
(dp3121
g66
(dp3122
sg75
g3107
sg68
(lp3123
g61
(g62
g63
NtRp3124
(dp3125
g66
(dp3126
g74
I3
ssg75
g3120
sg68
(lp3127
g1275
asbasbasbag61
(g77
g63
NtRp3128
(dp3129
g66
(dp3130
sg75
g3061
sg68
(lp3131
g61
(g82
g63
NtRp3132
(dp3133
g66
(dp3134
g86
g87
ssg75
g3128
sg68
(lp3135
S'HTTP_ACCEPT_CHARSET'
p3136
asbag61
(g82
g63
NtRp3137
(dp3138
g66
(dp3139
g93
g94
ssg75
g3128
sg68
(lp3140
S':'
asbag61
(g82
g63
NtRp3141
(dp3142
g66
(dp3143
sg75
g3128
sg68
(lp3144
g61
(g62
g63
NtRp3145
(dp3146
g66
(dp3147
g74
I3
ssg75
g3141
sg68
(lp3148
g1297
asbasbasbag61
(g77
g63
NtRp3149
(dp3150
g66
(dp3151
sg75
g3061
sg68
(lp3152
g61
(g82
g63
NtRp3153
(dp3154
g66
(dp3155
g86
g87
ssg75
g3149
sg68
(lp3156
S'HTTP_ACCEPT_ENCODING'
p3157
asbag61
(g82
g63
NtRp3158
(dp3159
g66
(dp3160
g93
g94
ssg75
g3149
sg68
(lp3161
S':'
asbag61
(g82
g63
NtRp3162
(dp3163
g66
(dp3164
sg75
g3149
sg68
(lp3165
g61
(g62
g63
NtRp3166
(dp3167
g66
(dp3168
g74
I3
ssg75
g3162
sg68
(lp3169
g1319
asbasbasbag61
(g77
g63
NtRp3170
(dp3171
g66
(dp3172
sg75
g3061
sg68
(lp3173
g61
(g82
g63
NtRp3174
(dp3175
g66
(dp3176
g86
g87
ssg75
g3170
sg68
(lp3177
S'HTTP_ACCEPT_LANGUAGE'
p3178
asbag61
(g82
g63
NtRp3179
(dp3180
g66
(dp3181
g93
g94
ssg75
g3170
sg68
(lp3182
S':'
asbag61
(g82
g63
NtRp3183
(dp3184
g66
(dp3185
sg75
g3170
sg68
(lp3186
g61
(g62
g63
NtRp3187
(dp3188
g66
(dp3189
g74
I3
ssg75
g3183
sg68
(lp3190
g1341
asbasbasbag61
(g77
g63
NtRp3191
(dp3192
g66
(dp3193
sg75
g3061
sg68
(lp3194
g61
(g82
g63
NtRp3195
(dp3196
g66
(dp3197
g86
g87
ssg75
g3191
sg68
(lp3198
S'HTTP_CACHE_CONTROL'
p3199
asbag61
(g82
g63
NtRp3200
(dp3201
g66
(dp3202
g93
g94
ssg75
g3191
sg68
(lp3203
S':'
asbag61
(g82
g63
NtRp3204
(dp3205
g66
(dp3206
sg75
g3191
sg68
(lp3207
g61
(g62
g63
NtRp3208
(dp3209
g66
(dp3210
g74
I3
ssg75
g3204
sg68
(lp3211
g1363
asbasbasbag61
(g77
g63
NtRp3212
(dp3213
g66
(dp3214
sg75
g3061
sg68
(lp3215
g61
(g82
g63
NtRp3216
(dp3217
g66
(dp3218
g86
g87
ssg75
g3212
sg68
(lp3219
S'HTTP_CONNECTION'
p3220
asbag61
(g82
g63
NtRp3221
(dp3222
g66
(dp3223
g93
g94
ssg75
g3212
sg68
(lp3224
S':'
asbag61
(g82
g63
NtRp3225
(dp3226
g66
(dp3227
sg75
g3212
sg68
(lp3228
g61
(g62
g63
NtRp3229
(dp3230
g66
(dp3231
g74
I3
ssg75
g3225
sg68
(lp3232
g1385
asbasbasbag61
(g77
g63
NtRp3233
(dp3234
g66
(dp3235
sg75
g3061
sg68
(lp3236
g61
(g82
g63
NtRp3237
(dp3238
g66
(dp3239
g86
g87
ssg75
g3233
sg68
(lp3240
S'HTTP_CONTENT_LENGTH'
p3241
asbag61
(g82
g63
NtRp3242
(dp3243
g66
(dp3244
g93
g94
ssg75
g3233
sg68
(lp3245
S':'
asbag61
(g82
g63
NtRp3246
(dp3247
g66
(dp3248
sg75
g3233
sg68
(lp3249
g61
(g62
g63
NtRp3250
(dp3251
g66
(dp3252
g74
I3
ssg75
g3246
sg68
(lp3253
g1166
asbasbasbag61
(g77
g63
NtRp3254
(dp3255
g66
(dp3256
sg75
g3061
sg68
(lp3257
g61
(g82
g63
NtRp3258
(dp3259
g66
(dp3260
g86
g87
ssg75
g3254
sg68
(lp3261
S'HTTP_CONTENT_TYPE'
p3262
asbag61
(g82
g63
NtRp3263
(dp3264
g66
(dp3265
g93
g94
ssg75
g3254
sg68
(lp3266
S':'
asbag61
(g82
g63
NtRp3267
(dp3268
g66
(dp3269
sg75
g3254
sg68
(lp3270
g61
(g62
g63
NtRp3271
(dp3272
g66
(dp3273
g74
I3
ssg75
g3267
sg68
(lp3274
g1188
asbasbasbag61
(g77
g63
NtRp3275
(dp3276
g66
(dp3277
sg75
g3061
sg68
(lp3278
g61
(g82
g63
NtRp3279
(dp3280
g66
(dp3281
g86
g87
ssg75
g3275
sg68
(lp3282
S'HTTP_COOKIE'
p3283
asbag61
(g82
g63
NtRp3284
(dp3285
g66
(dp3286
g93
g94
ssg75
g3275
sg68
(lp3287
S':'
asbag61
(g82
g63
NtRp3288
(dp3289
g66
(dp3290
sg75
g3275
sg68
(lp3291
g61
(g62
g63
NtRp3292
(dp3293
g66
(dp3294
g74
I3
ssg75
g3288
sg68
(lp3295
g1449
asbasbasbag61
(g77
g63
NtRp3296
(dp3297
g66
(dp3298
sg75
g3061
sg68
(lp3299
g61
(g82
g63
NtRp3300
(dp3301
g66
(dp3302
g86
g87
ssg75
g3296
sg68
(lp3303
S'HTTP_HOST'
p3304
asbag61
(g82
g63
NtRp3305
(dp3306
g66
(dp3307
g93
g94
ssg75
g3296
sg68
(lp3308
S':'
asbag61
(g82
g63
NtRp3309
(dp3310
g66
(dp3311
sg75
g3296
sg68
(lp3312
g61
(g62
g63
NtRp3313
(dp3314
g66
(dp3315
g74
I3
ssg75
g3309
sg68
(lp3316
g1471
asbasbasbag61
(g77
g63
NtRp3317
(dp3318
g66
(dp3319
sg75
g3061
sg68
(lp3320
g61
(g82
g63
NtRp3321
(dp3322
g66
(dp3323
g86
g87
ssg75
g3317
sg68
(lp3324
S'HTTP_ORIGIN'
p3325
asbag61
(g82
g63
NtRp3326
(dp3327
g66
(dp3328
g93
g94
ssg75
g3317
sg68
(lp3329
S':'
asbag61
(g82
g63
NtRp3330
(dp3331
g66
(dp3332
sg75
g3317
sg68
(lp3333
g61
(g62
g63
NtRp3334
(dp3335
g66
(dp3336
g74
I3
ssg75
g3330
sg68
(lp3337
g1493
asbasbasbag61
(g77
g63
NtRp3338
(dp3339
g66
(dp3340
sg75
g3061
sg68
(lp3341
g61
(g82
g63
NtRp3342
(dp3343
g66
(dp3344
g86
g87
ssg75
g3338
sg68
(lp3345
S'HTTP_REFERER'
p3346
asbag61
(g82
g63
NtRp3347
(dp3348
g66
(dp3349
g93
g94
ssg75
g3338
sg68
(lp3350
S':'
asbag61
(g82
g63
NtRp3351
(dp3352
g66
(dp3353
sg75
g3338
sg68
(lp3354
g61
(g62
g63
NtRp3355
(dp3356
g66
(dp3357
g74
I3
ssg75
g3351
sg68
(lp3358
g1515
asbasbasbag61
(g77
g63
NtRp3359
(dp3360
g66
(dp3361
sg75
g3061
sg68
(lp3362
g61
(g82
g63
NtRp3363
(dp3364
g66
(dp3365
g86
g87
ssg75
g3359
sg68
(lp3366
S'HTTP_USER_AGENT'
p3367
asbag61
(g82
g63
NtRp3368
(dp3369
g66
(dp3370
g93
g94
ssg75
g3359
sg68
(lp3371
S':'
asbag61
(g82
g63
NtRp3372
(dp3373
g66
(dp3374
sg75
g3359
sg68
(lp3375
g61
(g62
g63
NtRp3376
(dp3377
g66
(dp3378
g74
I3
ssg75
g3372
sg68
(lp3379
g1537
asbasbasbag61
(g77
g63
NtRp3380
(dp3381
g66
(dp3382
sg75
g3061
sg68
(lp3383
g61
(g82
g63
NtRp3384
(dp3385
g66
(dp3386
g86
g87
ssg75
g3380
sg68
(lp3387
S'PATH_INFO'
p3388
asbag61
(g82
g63
NtRp3389
(dp3390
g66
(dp3391
g93
g94
ssg75
g3380
sg68
(lp3392
S':'
asbag61
(g82
g63
NtRp3393
(dp3394
g66
(dp3395
sg75
g3380
sg68
(lp3396
g61
(g62
g63
NtRp3397
(dp3398
g66
(dp3399
g74
I3
ssg75
g3393
sg68
(lp3400
g1691
asbasbasbag61
(g77
g63
NtRp3401
(dp3402
g66
(dp3403
sg75
g3061
sg68
(lp3404
g61
(g82
g63
NtRp3405
(dp3406
g66
(dp3407
g86
g87
ssg75
g3401
sg68
(lp3408
S'QUERY_STRING'
p3409
asbag61
(g82
g63
NtRp3410
(dp3411
g66
(dp3412
g93
g94
ssg75
g3401
sg68
(lp3413
S':'
asbag61
(g82
g63
NtRp3414
(dp3415
g66
(dp3416
sg75
g3401
sg68
(lp3417
g61
(g62
g63
NtRp3418
(dp3419
g66
(dp3420
g74
I3
ssg75
g3414
sg68
(lp3421
S''
asbasbasbag61
(g77
g63
NtRp3422
(dp3423
g66
(dp3424
sg75
g3061
sg68
(lp3425
g61
(g82
g63
NtRp3426
(dp3427
g66
(dp3428
g86
g87
ssg75
g3422
sg68
(lp3429
S'REMOTE_ADDR'
p3430
asbag61
(g82
g63
NtRp3431
(dp3432
g66
(dp3433
g93
g94
ssg75
g3422
sg68
(lp3434
S':'
asbag61
(g82
g63
NtRp3435
(dp3436
g66
(dp3437
sg75
g3422
sg68
(lp3438
g61
(g62
g63
NtRp3439
(dp3440
g66
(dp3441
g74
I3
ssg75
g3435
sg68
(lp3442
g229
asbasbasbag61
(g77
g63
NtRp3443
(dp3444
g66
(dp3445
sg75
g3061
sg68
(lp3446
g61
(g82
g63
NtRp3447
(dp3448
g66
(dp3449
g86
g87
ssg75
g3443
sg68
(lp3450
S'REMOTE_PORT'
p3451
asbag61
(g82
g63
NtRp3452
(dp3453
g66
(dp3454
g93
g94
ssg75
g3443
sg68
(lp3455
S':'
asbag61
(g82
g63
NtRp3456
(dp3457
g66
(dp3458
sg75
g3443
sg68
(lp3459
g61
(g62
g63
NtRp3460
(dp3461
g66
(dp3462
g74
I3
ssg75
g3456
sg68
(lp3463
g1755
asbasbasbag61
(g77
g63
NtRp3464
(dp3465
g66
(dp3466
sg75
g3061
sg68
(lp3467
g61
(g82
g63
NtRp3468
(dp3469
g66
(dp3470
g86
g87
ssg75
g3464
sg68
(lp3471
S'REQUEST_METHOD'
p3472
asbag61
(g82
g63
NtRp3473
(dp3474
g66
(dp3475
g93
g94
ssg75
g3464
sg68
(lp3476
S':'
asbag61
(g82
g63
NtRp3477
(dp3478
g66
(dp3479
sg75
g3464
sg68
(lp3480
g61
(g62
g63
NtRp3481
(dp3482
g66
(dp3483
g74
I3
ssg75
g3477
sg68
(lp3484
g1777
asbasbasbag61
(g77
g63
NtRp3485
(dp3486
g66
(dp3487
sg75
g3061
sg68
(lp3488
g61
(g82
g63
NtRp3489
(dp3490
g66
(dp3491
g86
g87
ssg75
g3485
sg68
(lp3492
S'REQUEST_URI'
p3493
asbag61
(g82
g63
NtRp3494
(dp3495
g66
(dp3496
g93
g94
ssg75
g3485
sg68
(lp3497
S':'
asbag61
(g82
g63
NtRp3498
(dp3499
g66
(dp3500
sg75
g3485
sg68
(lp3501
g61
(g62
g63
NtRp3502
(dp3503
g66
(dp3504
g74
I3
ssg75
g3498
sg68
(lp3505
g1691
asbasbasbag61
(g77
g63
NtRp3506
(dp3507
g66
(dp3508
sg75
g3061
sg68
(lp3509
g61
(g82
g63
NtRp3510
(dp3511
g66
(dp3512
g86
g87
ssg75
g3506
sg68
(lp3513
S'SCRIPT_NAME'
p3514
asbag61
(g82
g63
NtRp3515
(dp3516
g66
(dp3517
g93
g94
ssg75
g3506
sg68
(lp3518
S':'
asbag61
(g82
g63
NtRp3519
(dp3520
g66
(dp3521
sg75
g3506
sg68
(lp3522
g61
(g62
g63
NtRp3523
(dp3524
g66
(dp3525
g74
I3
ssg75
g3519
sg68
(lp3526
S''
asbasbasbag61
(g77
g63
NtRp3527
(dp3528
g66
(dp3529
sg75
g3061
sg68
(lp3530
g61
(g82
g63
NtRp3531
(dp3532
g66
(dp3533
g86
g87
ssg75
g3527
sg68
(lp3534
S'SERVER_NAME'
p3535
asbag61
(g82
g63
NtRp3536
(dp3537
g66
(dp3538
g93
g94
ssg75
g3527
sg68
(lp3539
S':'
asbag61
(g82
g63
NtRp3540
(dp3541
g66
(dp3542
sg75
g3527
sg68
(lp3543
g61
(g62
g63
NtRp3544
(dp3545
g66
(dp3546
g74
I3
ssg75
g3540
sg68
(lp3547
g1841
asbasbasbag61
(g77
g63
NtRp3548
(dp3549
g66
(dp3550
sg75
g3061
sg68
(lp3551
g61
(g82
g63
NtRp3552
(dp3553
g66
(dp3554
g86
g87
ssg75
g3548
sg68
(lp3555
S'SERVER_PORT'
p3556
asbag61
(g82
g63
NtRp3557
(dp3558
g66
(dp3559
g93
g94
ssg75
g3548
sg68
(lp3560
S':'
asbag61
(g82
g63
NtRp3561
(dp3562
g66
(dp3563
sg75
g3548
sg68
(lp3564
g61
(g62
g63
NtRp3565
(dp3566
g66
(dp3567
g74
I3
ssg75
g3561
sg68
(lp3568
g1863
asbasbasbag61
(g77
g63
NtRp3569
(dp3570
g66
(dp3571
sg75
g3061
sg68
(lp3572
g61
(g82
g63
NtRp3573
(dp3574
g66
(dp3575
g86
g87
ssg75
g3569
sg68
(lp3576
S'SERVER_PROTOCOL'
p3577
asbag61
(g82
g63
NtRp3578
(dp3579
g66
(dp3580
g93
g94
ssg75
g3569
sg68
(lp3581
S':'
asbag61
(g82
g63
NtRp3582
(dp3583
g66
(dp3584
sg75
g3569
sg68
(lp3585
g61
(g62
g63
NtRp3586
(dp3587
g66
(dp3588
g74
I3
ssg75
g3582
sg68
(lp3589
g1885
asbasbasbag61
(g77
g63
NtRp3590
(dp3591
g66
(dp3592
sg75
g3061
sg68
(lp3593
g61
(g82
g63
NtRp3594
(dp3595
g66
(dp3596
g86
g87
ssg75
g3590
sg68
(lp3597
S'SERVER_SOFTWARE'
p3598
asbag61
(g82
g63
NtRp3599
(dp3600
g66
(dp3601
g93
g94
ssg75
g3590
sg68
(lp3602
S':'
asbag61
(g82
g63
NtRp3603
(dp3604
g66
(dp3605
sg75
g3590
sg68
(lp3606
g61
(g62
g63
NtRp3607
(dp3608
g66
(dp3609
g74
I3
ssg75
g3603
sg68
(lp3610
g1907
asbasbasbag61
(g77
g63
NtRp3611
(dp3612
g66
(dp3613
sg75
g3061
sg68
(lp3614
g61
(g82
g63
NtRp3615
(dp3616
g66
(dp3617
g86
g87
ssg75
g3611
sg68
(lp3618
S'wsgi.errors'
p3619
asbag61
(g82
g63
NtRp3620
(dp3621
g66
(dp3622
g93
g94
ssg75
g3611
sg68
(lp3623
S':'
asbag61
(g82
g63
NtRp3624
(dp3625
g66
(dp3626
sg75
g3611
sg68
(lp3627
g61
(g62
g63
NtRp3628
(dp3629
g66
(dp3630
g74
I3
ssg75
g3624
sg68
(lp3631
S"<open file '<stderr>', mode 'w' at 0x7f239539e270>"
p3632
asbasbasbag61
(g77
g63
NtRp3633
(dp3634
g66
(dp3635
sg75
g3061
sg68
(lp3636
g61
(g82
g63
NtRp3637
(dp3638
g66
(dp3639
g86
g87
ssg75
g3633
sg68
(lp3640
S'wsgi.file_wrapper'
p3641
asbag61
(g82
g63
NtRp3642
(dp3643
g66
(dp3644
g93
g94
ssg75
g3633
sg68
(lp3645
S':'
asbag61
(g82
g63
NtRp3646
(dp3647
g66
(dp3648
sg75
g3633
sg68
(lp3649
g61
(g62
g63
NtRp3650
(dp3651
g66
(dp3652
g74
I3
ssg75
g3646
sg68
(lp3653
S'<class wsgiref.util.FileWrapper at 0x1663db8>'
p3654
asbasbasbag61
(g77
g63
NtRp3655
(dp3656
g66
(dp3657
sg75
g3061
sg68
(lp3658
g61
(g82
g63
NtRp3659
(dp3660
g66
(dp3661
g86
g87
ssg75
g3655
sg68
(lp3662
S'wsgi.input'
p3663
asbag61
(g82
g63
NtRp3664
(dp3665
g66
(dp3666
g93
g94
ssg75
g3655
sg68
(lp3667
S':'
asbag61
(g82
g63
NtRp3668
(dp3669
g66
(dp3670
sg75
g3655
sg68
(lp3671
g61
(g62
g63
NtRp3672
(dp3673
g66
(dp3674
g74
I3
ssg75
g3668
sg68
(lp3675
S"<open file '<fdopen>', mode 'w+b' at 0x7f237c141e40>"
p3676
asbasbasbag61
(g77
g63
NtRp3677
(dp3678
g66
(dp3679
sg75
g3061
sg68
(lp3680
g61
(g82
g63
NtRp3681
(dp3682
g66
(dp3683
g86
g87
ssg75
g3677
sg68
(lp3684
S'wsgi.multiprocess'
p3685
asbag61
(g82
g63
NtRp3686
(dp3687
g66
(dp3688
g93
g94
ssg75
g3677
sg68
(lp3689
S':'
asbag61
(g82
g63
NtRp3690
(dp3691
g66
(dp3692
sg75
g3677
sg68
(lp3693
g61
(g62
g63
NtRp3694
(dp3695
g66
(dp3696
g74
I3
ssg75
g3690
sg68
(lp3697
g104
asbasbasbag61
(g77
g63
NtRp3698
(dp3699
g66
(dp3700
sg75
g3061
sg68
(lp3701
g61
(g82
g63
NtRp3702
(dp3703
g66
(dp3704
g86
g87
ssg75
g3698
sg68
(lp3705
S'wsgi.multithread'
p3706
asbag61
(g82
g63
NtRp3707
(dp3708
g66
(dp3709
g93
g94
ssg75
g3698
sg68
(lp3710
S':'
asbag61
(g82
g63
NtRp3711
(dp3712
g66
(dp3713
sg75
g3698
sg68
(lp3714
g61
(g62
g63
NtRp3715
(dp3716
g66
(dp3717
g74
I3
ssg75
g3711
sg68
(lp3718
g2124
asbasbasbag61
(g77
g63
NtRp3719
(dp3720
g66
(dp3721
sg75
g3061
sg68
(lp3722
g61
(g82
g63
NtRp3723
(dp3724
g66
(dp3725
g86
g87
ssg75
g3719
sg68
(lp3726
S'wsgi.run_once'
p3727
asbag61
(g82
g63
NtRp3728
(dp3729
g66
(dp3730
g93
g94
ssg75
g3719
sg68
(lp3731
S':'
asbag61
(g82
g63
NtRp3732
(dp3733
g66
(dp3734
sg75
g3719
sg68
(lp3735
g61
(g62
g63
NtRp3736
(dp3737
g66
(dp3738
g74
I3
ssg75
g3732
sg68
(lp3739
g104
asbasbasbag61
(g77
g63
NtRp3740
(dp3741
g66
(dp3742
sg75
g3061
sg68
(lp3743
g61
(g82
g63
NtRp3744
(dp3745
g66
(dp3746
g86
g87
ssg75
g3740
sg68
(lp3747
S'wsgi.url_scheme'
p3748
asbag61
(g82
g63
NtRp3749
(dp3750
g66
(dp3751
g93
g94
ssg75
g3740
sg68
(lp3752
S':'
asbag61
(g82
g63
NtRp3753
(dp3754
g66
(dp3755
sg75
g3740
sg68
(lp3756
g61
(g62
g63
NtRp3757
(dp3758
g66
(dp3759
g74
I3
ssg75
g3753
sg68
(lp3760
g2167
asbasbasbag61
(g77
g63
NtRp3761
(dp3762
g66
(dp3763
sg75
g3061
sg68
(lp3764
g61
(g82
g63
NtRp3765
(dp3766
g66
(dp3767
g86
g87
ssg75
g3761
sg68
(lp3768
S'wsgi.version'
p3769
asbag61
(g82
g63
NtRp3770
(dp3771
g66
(dp3772
g93
g94
ssg75
g3761
sg68
(lp3773
S':'
asbag61
(g82
g63
NtRp3774
(dp3775
g66
(dp3776
sg75
g3761
sg68
(lp3777
g61
(g62
g63
NtRp3778
(dp3779
g66
(dp3780
g74
I3
ssg75
g3774
sg68
(lp3781
S'1'
asbasbasbasbasbasbasbasbasbasbasbasbasbsS'frames'
p3782
(lp3783
(dp3784
S'file'
p3785
S'/home/adrian/web2py/gluon/restricted.py'
p3786
sS'dump'
p3787
(dp3788
S'environment'
p3789
S"{'A': <class 'gluon.html.A'>, 'Auth': <class 'gluon.tools.Auth'>, 'B': <class 'gluon.html.B'>, 'BEAUTIFY': <class 'gluon.html.BEAUTIFY'>, 'BODY': <class 'gluon.html.BODY'>, 'BR': <class 'gluon.html.BR'>, 'BUTTON': <class 'gluon.html.BUTTON'>, 'CAT': <class 'gluon.html.CAT'>, 'CENTER': <class 'gluon.html.CENTER'>, 'CLEANUP': <class 'gluon.validators.CLEANUP'>, ...}"
p3790
sS'ccode'
p3791
S'<code object <module> at 0x7f238c829d30, file "/...y/applications/CygnusCloud/models/db.py", line 2>'
p3792
ssS'lnum'
p3793
I212
sS'lines'
p3794
(dp3795
I207
S'    try:'
p3796
sI208
S'        if isinstance(code, types.CodeType):'
p3797
sI209
S'            ccode = code'
p3798
sI210
S'        else:'
p3799
sI211
S'            ccode = compile2(code, layer)'
p3800
sI212
S'        exec ccode in environment'
p3801
sI213
S'    except HTTP:'
p3802
sI214
S'        raise'
p3803
sI215
S'    except RestrictedError:'
p3804
sI216
S'        # do not encapsulate (obfuscate) the original RestrictedError'
p3805
ssS'call'
p3806
S'(code="# -*- coding: utf-8 -*-\\nfrom configuration impor...\',\'VMName\'],migrate= True)\\n\\n\\nprint userDB.tables\\n", environment={\'A\': <class \'gluon.html.A\'>, \'Auth\': <class \'gluon.tools.Auth\'>, \'B\': <class \'gluon.html.B\'>, \'BEAUTIFY\': <class \'gluon.html.BEAUTIFY\'>, \'BODY\': <class \'gluon.html.BODY\'>, \'BR\': <class \'gluon.html.BR\'>, \'BUTTON\': <class \'gluon.html.BUTTON\'>, \'CAT\': <class \'gluon.html.CAT\'>, \'CENTER\': <class \'gluon.html.CENTER\'>, \'CLEANUP\': <class \'gluon.validators.CLEANUP\'>, ...}, layer=\'/home/adrian/web2py/applications/CygnusCloud/models/db.py\')'
p3807
sS'func'
p3808
S'restricted'
p3809
sa(dp3810
g3785
S'/home/adrian/web2py/applications/CygnusCloud/models/db.py'
p3811
sg3787
(dp3812
S'userDB'
p3813
S'<DAL uri="mysql://******:cygnuscloud2012@localhost/UserDB">'
p3814
sS'first_name'
p3815
S'undefined'
p3816
sS'last_name'
p3817
g3816
sS'userDB.auth_user.insert'
p3818
S'<bound method Table.insert of <Table auth_user (...tration_key,reset_password_key,registration_id)>>'
p3819
sS'u1'
p3820
g3816
sS'userDB.auth_user.password'
p3821
S'<gluon.dal.Field object>'
p3822
sS'userDB.auth_user.password.validate'
p3823
S'<bound method Field.validate of <gluon.dal.Field object>>'
p3824
sS'userDB.auth_user'
p3825
S'<Table auth_user (id,first_name,last_name,email,...stration_key,reset_password_key,registration_id)>'
p3826
sS'password'
p3827
g3816
sS'email'
p3828
g3816
ssg3793
I19
sg3794
(dp3829
I14
S'auth.define_tables(migrate = True)'
p3830
sI15
S''
sI16
S''
sI17
S''
sI18
S'#Usuario de prueba'
p3831
sI19
S"u1 = userDB.auth_user.insert(password = userDB.auth_user.password.validate('1234')[0],email = 'Admin1@ucm.es',first_name='Bertoldo',last_name='Pedralbes')"
p3832
sI20
S''
sI21
S''
sI22
S''
sI23
S''
ssg3806
S'()'
p3833
sg3808
S'<module>'
p3834
sa(dp3835
g3785
S'/home/adrian/web2py/gluon/dal.py'
p3836
sg3787
(dp3837
S'self._listify'
p3838
S'<bound method Table._listify of <Table auth_user...tration_key,reset_password_key,registration_id)>>'
p3839
sS'fields'
p3840
S"{'email': 'Admin1@ucm.es', 'first_name': 'Bertoldo', 'last_name': 'Pedralbes', 'password': <gluon.validators.LazyCrypt object>, 'registration_id': '', 'registration_key': '', 'reset_password_key': ''}"
p3841
sS'self'
p3842
S'<Table auth_user (id,first_name,last_name,email,...stration_key,reset_password_key,registration_id)>'
p3843
sS'ret'
p3844
g3816
sS'self._db._adapter'
p3845
S'<gluon.dal.MySQLAdapter object>'
p3846
sS'self._db._adapter.insert'
p3847
S'<bound method MySQLAdapter.insert of <gluon.dal.MySQLAdapter object>>'
p3848
sS'self._db'
p3849
S'<DAL uri="mysql://******:cygnuscloud2012@localhost/UserDB">'
p3850
ssg3793
I7918
sg3794
(dp3851
I7913
S'        return self._db._adapter._insert(self,self._listify(fields))'
p3852
sI7914
S''
sI7915
S'    def insert(self, **fields):'
p3853
sI7916
S'        self._attempt_upload(fields)'
p3854
sI7917
S'        if any(f(fields) for f in self._before_insert): return 0'
p3855
sI7918
S'        ret =  self._db._adapter.insert(self,self._listify(fields))'
p3856
sI7919
S'        if ret and self._after_insert:'
p3857
sI7920
S'            fields = Row(fields)'
p3858
sI7921
S'            [f(fields,ret) for f in self._after_insert]'
p3859
sI7922
S'        return ret'
p3860
ssg3806
S"(self=<Table auth_user (id,first_name,last_name,email,...stration_key,reset_password_key,registration_id)>, **fields={'email': 'Admin1@ucm.es', 'first_name': 'Bertoldo', 'last_name': 'Pedralbes', 'password': <gluon.validators.LazyCrypt object>, 'registration_id': '', 'registration_key': '', 'reset_password_key': ''})"
p3861
sg3808
S'insert'
p3862
sa(dp3863
g3785
S'/home/adrian/web2py/gluon/dal.py'
p3864
sg3787
(dp3865
S'e'
S'ProgrammingError(1146, "Table \'UserDB.auth_user\' doesn\'t exist")'
p3866
ssg3793
I1176
sg3794
(dp3867
I1171
S'            self.execute(query)'
p3868
sI1172
S'        except Exception:'
p3869
sI1173
S'            e = sys.exc_info()[1]'
p3870
sI1174
S'            if isinstance(e,self.integrity_error_class()):'
p3871
sI1175
S'                return None'
p3872
sI1176
S'            raise e'
p3873
sI1177
S"        if hasattr(table,'_primarykey'):"
p3874
sI1178
S'            return dict([(k[0].name, k[1]) for k in fields \\'
p3875
sI1179
S'                             if k[0].name in table._primarykey])'
p3876
sI1180
S'        id = self.lastrowid(table)'
p3877
ssg3806
S"(self=<gluon.dal.MySQLAdapter object>, table=<Table auth_user (id,first_name,last_name,email,...stration_key,reset_password_key,registration_id)>, fields=[(<gluon.dal.Field object>, 'Bertoldo'), (<gluon.dal.Field object>, 'Pedralbes'), (<gluon.dal.Field object>, ''), (<gluon.dal.Field object>, ''), (<gluon.dal.Field object>, <gluon.validators.LazyCrypt object>), (<gluon.dal.Field object>, ''), (<gluon.dal.Field object>, 'Admin1@ucm.es')])"
p3878
sg3808
g3862
sasS'pyver'
p3879
S'Python 2.7.3: /usr/bin/python'
p3880
sS'session'
p3881
g61
(g62
g63
NtRp3882
(dp3883
g66
(dp3884
sg68
(lp3885
g61
(g70
g63
NtRp3886
(dp3887
g66
(dp3888
g74
I5
ssg75
Nsg68
(lp3889
g61
(g77
g63
NtRp3890
(dp3891
g66
(dp3892
sg75
g3886
sg68
(lp3893
g61
(g82
g63
NtRp3894
(dp3895
g66
(dp3896
g86
g87
ssg75
g3890
sg68
(lp3897
S'flash'
p3898
asbag61
(g82
g63
NtRp3899
(dp3900
g66
(dp3901
g93
g94
ssg75
g3890
sg68
(lp3902
S':'
asbag61
(g82
g63
NtRp3903
(dp3904
g66
(dp3905
sg75
g3890
sg68
(lp3906
g61
(g62
g63
NtRp3907
(dp3908
g66
(dp3909
g74
I5
ssg75
g3903
sg68
(lp3910
S'None'
p3911
asbasbasbag61
(g77
g63
NtRp3912
(dp3913
g66
(dp3914
sg75
g3886
sg68
(lp3915
g61
(g82
g63
NtRp3916
(dp3917
g66
(dp3918
g86
g87
ssg75
g3912
sg68
(lp3919
S'last_orderby'
p3920
asbag61
(g82
g63
NtRp3921
(dp3922
g66
(dp3923
g93
g94
ssg75
g3912
sg68
(lp3924
S':'
asbag61
(g82
g63
NtRp3925
(dp3926
g66
(dp3927
sg75
g3912
sg68
(lp3928
g61
(g62
g63
NtRp3929
(dp3930
g66
(dp3931
g74
I5
ssg75
g3925
sg68
(lp3932
S'None'
p3933
asbasbasbag61
(g77
g63
NtRp3934
(dp3935
g66
(dp3936
sg75
g3886
sg68
(lp3937
g61
(g82
g63
NtRp3938
(dp3939
g66
(dp3940
g86
g87
ssg75
g3934
sg68
(lp3941
S'last_query'
p3942
asbag61
(g82
g63
NtRp3943
(dp3944
g66
(dp3945
g93
g94
ssg75
g3934
sg68
(lp3946
S':'
asbag61
(g82
g63
NtRp3947
(dp3948
g66
(dp3949
sg75
g3934
sg68
(lp3950
g61
(g62
g63
NtRp3951
(dp3952
g66
(dp3953
g74
I5
ssg75
g3947
sg68
(lp3954
S'userDB.auth_user.id>0'
p3955
asbasbasbasbasbsS'etype'
p3956
S"<class '_mysql_exceptions.ProgrammingError'>"
p3957
sS'date'
p3958
S'Tue Feb  5 20:22:10 2013'
p3959
sS'response'
p3960
g61
(g62
g63
NtRp3961
(dp3962
g66
(dp3963
sg68
(lp3964
g61
(g70
g63
NtRp3965
(dp3966
g66
(dp3967
g74
I5
ssg75
Nsg68
(lp3968
g61
(g77
g63
NtRp3969
(dp3970
g66
(dp3971
sg75
g3965
sg68
(lp3972
g61
(g82
g63
NtRp3973
(dp3974
g66
(dp3975
g86
g87
ssg75
g3969
sg68
(lp3976
g172
asbag61
(g82
g63
NtRp3977
(dp3978
g66
(dp3979
g93
g94
ssg75
g3969
sg68
(lp3980
S':'
asbag61
(g82
g63
NtRp3981
(dp3982
g66
(dp3983
sg75
g3969
sg68
(lp3984
g61
(g62
g63
NtRp3985
(dp3986
g66
(dp3987
g74
I5
ssg75
g3981
sg68
(lp3988
S'<cStringIO.StringO object at 0x7f237c147c00>'
p3989
asbasbasbag61
(g77
g63
NtRp3990
(dp3991
g66
(dp3992
sg75
g3965
sg68
(lp3993
g61
(g82
g63
NtRp3994
(dp3995
g66
(dp3996
g86
g87
ssg75
g3990
sg68
(lp3997
g260
asbag61
(g82
g63
NtRp3998
(dp3999
g66
(dp4000
g93
g94
ssg75
g3990
sg68
(lp4001
S':'
asbag61
(g82
g63
NtRp4002
(dp4003
g66
(dp4004
sg75
g3990
sg68
(lp4005
g61
(g62
g63
NtRp4006
(dp4007
g66
(dp4008
g74
I5
ssg75
g4002
sg68
(lp4009
g61
(g70
g63
NtRp4010
(dp4011
g66
(dp4012
g74
I4
ssg75
Nsg68
(lp4013
g61
(g77
g63
NtRp4014
(dp4015
g66
(dp4016
sg75
g4010
sg68
(lp4017
g61
(g82
g63
NtRp4018
(dp4019
g66
(dp4020
g86
g87
ssg75
g4014
sg68
(lp4021
S'session_id_cygnuscloud'
p4022
asbag61
(g82
g63
NtRp4023
(dp4024
g66
(dp4025
g93
g94
ssg75
g4014
sg68
(lp4026
S':'
asbag61
(g82
g63
NtRp4027
(dp4028
g66
(dp4029
sg75
g4014
sg68
(lp4030
g61
(g62
g63
NtRp4031
(dp4032
g66
(dp4033
g74
I4
ssg75
g4027
sg68
(lp4034
g492
ag61
(g70
g63
NtRp4035
(dp4036
g66
(dp4037
g74
I3
ssg75
Nsg68
(lp4038
g61
(g77
g63
NtRp4039
(dp4040
g66
(dp4041
sg75
g4035
sg68
(lp4042
g61
(g82
g63
NtRp4043
(dp4044
g66
(dp4045
g86
g87
ssg75
g4039
sg68
(lp4046
g311
asbag61
(g82
g63
NtRp4047
(dp4048
g66
(dp4049
g93
g94
ssg75
g4039
sg68
(lp4050
S':'
asbag61
(g82
g63
NtRp4051
(dp4052
g66
(dp4053
sg75
g4039
sg68
(lp4054
g61
(g62
g63
NtRp4055
(dp4056
g66
(dp4057
g74
I3
ssg75
g4051
sg68
(lp4058
S''
asbasbasbag61
(g77
g63
NtRp4059
(dp4060
g66
(dp4061
sg75
g4035
sg68
(lp4062
g61
(g82
g63
NtRp4063
(dp4064
g66
(dp4065
g86
g87
ssg75
g4059
sg68
(lp4066
g332
asbag61
(g82
g63
NtRp4067
(dp4068
g66
(dp4069
g93
g94
ssg75
g4059
sg68
(lp4070
S':'
asbag61
(g82
g63
NtRp4071
(dp4072
g66
(dp4073
sg75
g4059
sg68
(lp4074
g61
(g62
g63
NtRp4075
(dp4076
g66
(dp4077
g74
I3
ssg75
g4071
sg68
(lp4078
S''
asbasbasbag61
(g77
g63
NtRp4079
(dp4080
g66
(dp4081
sg75
g4035
sg68
(lp4082
g61
(g82
g63
NtRp4083
(dp4084
g66
(dp4085
g86
g87
ssg75
g4079
sg68
(lp4086
g353
asbag61
(g82
g63
NtRp4087
(dp4088
g66
(dp4089
g93
g94
ssg75
g4079
sg68
(lp4090
S':'
asbag61
(g82
g63
NtRp4091
(dp4092
g66
(dp4093
sg75
g4079
sg68
(lp4094
g61
(g62
g63
NtRp4095
(dp4096
g66
(dp4097
g74
I3
ssg75
g4091
sg68
(lp4098
S''
asbasbasbag61
(g77
g63
NtRp4099
(dp4100
g66
(dp4101
sg75
g4035
sg68
(lp4102
g61
(g82
g63
NtRp4103
(dp4104
g66
(dp4105
g86
g87
ssg75
g4099
sg68
(lp4106
g374
asbag61
(g82
g63
NtRp4107
(dp4108
g66
(dp4109
g93
g94
ssg75
g4099
sg68
(lp4110
S':'
asbag61
(g82
g63
NtRp4111
(dp4112
g66
(dp4113
sg75
g4099
sg68
(lp4114
g61
(g62
g63
NtRp4115
(dp4116
g66
(dp4117
g74
I3
ssg75
g4111
sg68
(lp4118
S''
asbasbasbag61
(g77
g63
NtRp4119
(dp4120
g66
(dp4121
sg75
g4035
sg68
(lp4122
g61
(g82
g63
NtRp4123
(dp4124
g66
(dp4125
g86
g87
ssg75
g4119
sg68
(lp4126
g395
asbag61
(g82
g63
NtRp4127
(dp4128
g66
(dp4129
g93
g94
ssg75
g4119
sg68
(lp4130
S':'
asbag61
(g82
g63
NtRp4131
(dp4132
g66
(dp4133
sg75
g4119
sg68
(lp4134
g61
(g62
g63
NtRp4135
(dp4136
g66
(dp4137
g74
I3
ssg75
g4131
sg68
(lp4138
S''
asbasbasbag61
(g77
g63
NtRp4139
(dp4140
g66
(dp4141
sg75
g4035
sg68
(lp4142
g61
(g82
g63
NtRp4143
(dp4144
g66
(dp4145
g86
g87
ssg75
g4139
sg68
(lp4146
g416
asbag61
(g82
g63
NtRp4147
(dp4148
g66
(dp4149
g93
g94
ssg75
g4139
sg68
(lp4150
S':'
asbag61
(g82
g63
NtRp4151
(dp4152
g66
(dp4153
sg75
g4139
sg68
(lp4154
g61
(g62
g63
NtRp4155
(dp4156
g66
(dp4157
g74
I3
ssg75
g4151
sg68
(lp4158
S'/'
asbasbasbag61
(g77
g63
NtRp4159
(dp4160
g66
(dp4161
sg75
g4035
sg68
(lp4162
g61
(g82
g63
NtRp4163
(dp4164
g66
(dp4165
g86
g87
ssg75
g4159
sg68
(lp4166
g437
asbag61
(g82
g63
NtRp4167
(dp4168
g66
(dp4169
g93
g94
ssg75
g4159
sg68
(lp4170
S':'
asbag61
(g82
g63
NtRp4171
(dp4172
g66
(dp4173
sg75
g4159
sg68
(lp4174
g61
(g62
g63
NtRp4175
(dp4176
g66
(dp4177
g74
I3
ssg75
g4171
sg68
(lp4178
S''
asbasbasbag61
(g77
g63
NtRp4179
(dp4180
g66
(dp4181
sg75
g4035
sg68
(lp4182
g61
(g82
g63
NtRp4183
(dp4184
g66
(dp4185
g86
g87
ssg75
g4179
sg68
(lp4186
g458
asbag61
(g82
g63
NtRp4187
(dp4188
g66
(dp4189
g93
g94
ssg75
g4179
sg68
(lp4190
S':'
asbag61
(g82
g63
NtRp4191
(dp4192
g66
(dp4193
sg75
g4179
sg68
(lp4194
g61
(g62
g63
NtRp4195
(dp4196
g66
(dp4197
g74
I3
ssg75
g4191
sg68
(lp4198
S''
asbasbasbasbasbasbasbasbasbasbasbag61
(g77
g63
NtRp4199
(dp4200
g66
(dp4201
sg75
g3965
sg68
(lp4202
g61
(g82
g63
NtRp4203
(dp4204
g66
(dp4205
g86
g87
ssg75
g4199
sg68
(lp4206
S'delimiters'
p4207
asbag61
(g82
g63
NtRp4208
(dp4209
g66
(dp4210
g93
g94
ssg75
g4199
sg68
(lp4211
S':'
asbag61
(g82
g63
NtRp4212
(dp4213
g66
(dp4214
sg75
g4199
sg68
(lp4215
g61
(g62
g63
NtRp4216
(dp4217
g66
(dp4218
g74
I5
ssg75
g4212
sg68
(lp4219
g61
(g70
g63
NtRp4220
(dp4221
g66
(dp4222
g74
I4
ssg75
Nsg68
(lp4223
g61
(g77
g63
NtRp4224
(dp4225
g66
(dp4226
sg75
g4220
sg68
(lp4227
g61
(g82
g63
NtRp4228
(dp4229
g66
(dp4230
sg75
g4224
sg68
(lp4231
g61
(g62
g63
NtRp4232
(dp4233
g66
(dp4234
g74
I4
ssg75
g4228
sg68
(lp4235
S'{{'
p4236
asbasbasbag61
(g77
g63
NtRp4237
(dp4238
g66
(dp4239
sg75
g4220
sg68
(lp4240
g61
(g82
g63
NtRp4241
(dp4242
g66
(dp4243
sg75
g4237
sg68
(lp4244
g61
(g62
g63
NtRp4245
(dp4246
g66
(dp4247
g74
I4
ssg75
g4241
sg68
(lp4248
S'}}'
p4249
asbasbasbasbasbasbasbag61
(g77
g63
NtRp4250
(dp4251
g66
(dp4252
sg75
g3965
sg68
(lp4253
g61
(g82
g63
NtRp4254
(dp4255
g66
(dp4256
g86
g87
ssg75
g4250
sg68
(lp4257
S'files'
p4258
asbag61
(g82
g63
NtRp4259
(dp4260
g66
(dp4261
g93
g94
ssg75
g4250
sg68
(lp4262
S':'
asbag61
(g82
g63
NtRp4263
(dp4264
g66
(dp4265
sg75
g4250
sg68
(lp4266
g61
(g62
g63
NtRp4267
(dp4268
g66
(dp4269
g74
I5
ssg75
g4263
sg68
(lp4270
g61
(g70
g63
NtRp4271
(dp4272
g66
(dp4273
g74
I4
ssg75
Nsg68
(lp4274
sbasbasbasbag61
(g77
g63
NtRp4275
(dp4276
g66
(dp4277
sg75
g3965
sg68
(lp4278
g61
(g82
g63
NtRp4279
(dp4280
g66
(dp4281
g86
g87
ssg75
g4275
sg68
(lp4282
S'flash'
p4283
asbag61
(g82
g63
NtRp4284
(dp4285
g66
(dp4286
g93
g94
ssg75
g4275
sg68
(lp4287
S':'
asbag61
(g82
g63
NtRp4288
(dp4289
g66
(dp4290
sg75
g4275
sg68
(lp4291
g61
(g62
g63
NtRp4292
(dp4293
g66
(dp4294
g74
I5
ssg75
g4288
sg68
(lp4295
S''
asbasbasbag61
(g77
g63
NtRp4296
(dp4297
g66
(dp4298
sg75
g3965
sg68
(lp4299
g61
(g82
g63
NtRp4300
(dp4301
g66
(dp4302
g86
g87
ssg75
g4296
sg68
(lp4303
S'generic_patterns'
p4304
asbag61
(g82
g63
NtRp4305
(dp4306
g66
(dp4307
g93
g94
ssg75
g4296
sg68
(lp4308
S':'
asbag61
(g82
g63
NtRp4309
(dp4310
g66
(dp4311
sg75
g4296
sg68
(lp4312
g61
(g62
g63
NtRp4313
(dp4314
g66
(dp4315
g74
I5
ssg75
g4309
sg68
(lp4316
g61
(g70
g63
NtRp4317
(dp4318
g66
(dp4319
g74
I4
ssg75
Nsg68
(lp4320
sbasbasbasbag61
(g77
g63
NtRp4321
(dp4322
g66
(dp4323
sg75
g3965
sg68
(lp4324
g61
(g82
g63
NtRp4325
(dp4326
g66
(dp4327
g86
g87
ssg75
g4321
sg68
(lp4328
S'headers'
p4329
asbag61
(g82
g63
NtRp4330
(dp4331
g66
(dp4332
g93
g94
ssg75
g4321
sg68
(lp4333
S':'
asbag61
(g82
g63
NtRp4334
(dp4335
g66
(dp4336
sg75
g4321
sg68
(lp4337
g61
(g62
g63
NtRp4338
(dp4339
g66
(dp4340
g74
I5
ssg75
g4334
sg68
(lp4341
g61
(g70
g63
NtRp4342
(dp4343
g66
(dp4344
g74
I4
ssg75
Nsg68
(lp4345
g61
(g77
g63
NtRp4346
(dp4347
g66
(dp4348
sg75
g4342
sg68
(lp4349
g61
(g82
g63
NtRp4350
(dp4351
g66
(dp4352
g86
g87
ssg75
g4346
sg68
(lp4353
S'X-Powered-By'
p4354
asbag61
(g82
g63
NtRp4355
(dp4356
g66
(dp4357
g93
g94
ssg75
g4346
sg68
(lp4358
S':'
asbag61
(g82
g63
NtRp4359
(dp4360
g66
(dp4361
sg75
g4346
sg68
(lp4362
g61
(g62
g63
NtRp4363
(dp4364
g66
(dp4365
g74
I4
ssg75
g4359
sg68
(lp4366
S'web2py'
p4367
asbasbasbasbasbasbasbag61
(g77
g63
NtRp4368
(dp4369
g66
(dp4370
sg75
g3965
sg68
(lp4371
g61
(g82
g63
NtRp4372
(dp4373
g66
(dp4374
g86
g87
ssg75
g4368
sg68
(lp4375
S'menu'
p4376
asbag61
(g82
g63
NtRp4377
(dp4378
g66
(dp4379
g93
g94
ssg75
g4368
sg68
(lp4380
S':'
asbag61
(g82
g63
NtRp4381
(dp4382
g66
(dp4383
sg75
g4368
sg68
(lp4384
g61
(g62
g63
NtRp4385
(dp4386
g66
(dp4387
g74
I5
ssg75
g4381
sg68
(lp4388
g61
(g70
g63
NtRp4389
(dp4390
g66
(dp4391
g74
I4
ssg75
Nsg68
(lp4392
sbasbasbasbag61
(g77
g63
NtRp4393
(dp4394
g66
(dp4395
sg75
g3965
sg68
(lp4396
g61
(g82
g63
NtRp4397
(dp4398
g66
(dp4399
g86
g87
ssg75
g4393
sg68
(lp4400
S'meta'
p4401
asbag61
(g82
g63
NtRp4402
(dp4403
g66
(dp4404
g93
g94
ssg75
g4393
sg68
(lp4405
S':'
asbag61
(g82
g63
NtRp4406
(dp4407
g66
(dp4408
sg75
g4393
sg68
(lp4409
g61
(g62
g63
NtRp4410
(dp4411
g66
(dp4412
g74
I5
ssg75
g4406
sg68
(lp4413
g61
(g70
g63
NtRp4414
(dp4415
g66
(dp4416
g74
I4
ssg75
Nsg68
(lp4417
sbasbasbasbag61
(g77
g63
NtRp4418
(dp4419
g66
(dp4420
sg75
g3965
sg68
(lp4421
g61
(g82
g63
NtRp4422
(dp4423
g66
(dp4424
g86
g87
ssg75
g4418
sg68
(lp4425
S'models_to_run'
p4426
asbag61
(g82
g63
NtRp4427
(dp4428
g66
(dp4429
g93
g94
ssg75
g4418
sg68
(lp4430
S':'
asbag61
(g82
g63
NtRp4431
(dp4432
g66
(dp4433
sg75
g4418
sg68
(lp4434
g61
(g62
g63
NtRp4435
(dp4436
g66
(dp4437
g74
I5
ssg75
g4431
sg68
(lp4438
g61
(g70
g63
NtRp4439
(dp4440
g66
(dp4441
g74
I4
ssg75
Nsg68
(lp4442
g61
(g77
g63
NtRp4443
(dp4444
g66
(dp4445
sg75
g4439
sg68
(lp4446
g61
(g82
g63
NtRp4447
(dp4448
g66
(dp4449
sg75
g4443
sg68
(lp4450
g61
(g62
g63
NtRp4451
(dp4452
g66
(dp4453
g74
I4
ssg75
g4447
sg68
(lp4454
S'^\\w+\\.py$'
p4455
asbasbasbag61
(g77
g63
NtRp4456
(dp4457
g66
(dp4458
sg75
g4439
sg68
(lp4459
g61
(g82
g63
NtRp4460
(dp4461
g66
(dp4462
sg75
g4456
sg68
(lp4463
g61
(g62
g63
NtRp4464
(dp4465
g66
(dp4466
g74
I4
ssg75
g4460
sg68
(lp4467
S'^appadmin/\\w+\\.py$'
p4468
asbasbasbag61
(g77
g63
NtRp4469
(dp4470
g66
(dp4471
sg75
g4439
sg68
(lp4472
g61
(g82
g63
NtRp4473
(dp4474
g66
(dp4475
sg75
g4469
sg68
(lp4476
g61
(g62
g63
NtRp4477
(dp4478
g66
(dp4479
g74
I4
ssg75
g4473
sg68
(lp4480
S'^appadmin/select/\\w+\\.py$'
p4481
asbasbasbasbasbasbasbag61
(g77
g63
NtRp4482
(dp4483
g66
(dp4484
sg75
g3965
sg68
(lp4485
g61
(g82
g63
NtRp4486
(dp4487
g66
(dp4488
g86
g87
ssg75
g4482
sg68
(lp4489
S'postprocessing'
p4490
asbag61
(g82
g63
NtRp4491
(dp4492
g66
(dp4493
g93
g94
ssg75
g4482
sg68
(lp4494
S':'
asbag61
(g82
g63
NtRp4495
(dp4496
g66
(dp4497
sg75
g4482
sg68
(lp4498
g61
(g62
g63
NtRp4499
(dp4500
g66
(dp4501
g74
I5
ssg75
g4495
sg68
(lp4502
g61
(g70
g63
NtRp4503
(dp4504
g66
(dp4505
g74
I4
ssg75
Nsg68
(lp4506
sbasbasbasbag61
(g77
g63
NtRp4507
(dp4508
g66
(dp4509
sg75
g3965
sg68
(lp4510
g61
(g82
g63
NtRp4511
(dp4512
g66
(dp4513
g86
g87
ssg75
g4507
sg68
(lp4514
S'session_cookie_expires'
p4515
asbag61
(g82
g63
NtRp4516
(dp4517
g66
(dp4518
g93
g94
ssg75
g4507
sg68
(lp4519
S':'
asbag61
(g82
g63
NtRp4520
(dp4521
g66
(dp4522
sg75
g4507
sg68
(lp4523
g61
(g62
g63
NtRp4524
(dp4525
g66
(dp4526
g74
I5
ssg75
g4520
sg68
(lp4527
S'None'
p4528
asbasbasbag61
(g77
g63
NtRp4529
(dp4530
g66
(dp4531
sg75
g3965
sg68
(lp4532
g61
(g82
g63
NtRp4533
(dp4534
g66
(dp4535
g86
g87
ssg75
g4529
sg68
(lp4536
S'session_data_name'
p4537
asbag61
(g82
g63
NtRp4538
(dp4539
g66
(dp4540
g93
g94
ssg75
g4529
sg68
(lp4541
S':'
asbag61
(g82
g63
NtRp4542
(dp4543
g66
(dp4544
sg75
g4529
sg68
(lp4545
g61
(g62
g63
NtRp4546
(dp4547
g66
(dp4548
g74
I5
ssg75
g4542
sg68
(lp4549
S'session_data_cygnuscloud'
p4550
asbasbasbag61
(g77
g63
NtRp4551
(dp4552
g66
(dp4553
sg75
g3965
sg68
(lp4554
g61
(g82
g63
NtRp4555
(dp4556
g66
(dp4557
g86
g87
ssg75
g4551
sg68
(lp4558
S'session_file'
p4559
asbag61
(g82
g63
NtRp4560
(dp4561
g66
(dp4562
g93
g94
ssg75
g4551
sg68
(lp4563
S':'
asbag61
(g82
g63
NtRp4564
(dp4565
g66
(dp4566
sg75
g4551
sg68
(lp4567
g61
(g62
g63
NtRp4568
(dp4569
g66
(dp4570
g74
I5
ssg75
g4564
sg68
(lp4571
S"<open file '/home/adrian/web2py/applications/CygnusCloud/sessions/127.0.0.1-791acaf2-7386-46dc-b011-4810dc00037c', mode 'rb+' at 0x7f237c1414b0>"
p4572
asbasbasbag61
(g77
g63
NtRp4573
(dp4574
g66
(dp4575
sg75
g3965
sg68
(lp4576
g61
(g82
g63
NtRp4577
(dp4578
g66
(dp4579
g86
g87
ssg75
g4573
sg68
(lp4580
S'session_filename'
p4581
asbag61
(g82
g63
NtRp4582
(dp4583
g66
(dp4584
g93
g94
ssg75
g4573
sg68
(lp4585
S':'
asbag61
(g82
g63
NtRp4586
(dp4587
g66
(dp4588
sg75
g4573
sg68
(lp4589
g61
(g62
g63
NtRp4590
(dp4591
g66
(dp4592
g74
I5
ssg75
g4586
sg68
(lp4593
S'/home/adrian/web2py/applications/CygnusCloud/sessions/127.0.0.1-791acaf2-7386-46dc-b011-4810dc00037c'
p4594
asbasbasbag61
(g77
g63
NtRp4595
(dp4596
g66
(dp4597
sg75
g3965
sg68
(lp4598
g61
(g82
g63
NtRp4599
(dp4600
g66
(dp4601
g86
g87
ssg75
g4595
sg68
(lp4602
S'session_id'
p4603
asbag61
(g82
g63
NtRp4604
(dp4605
g66
(dp4606
g93
g94
ssg75
g4595
sg68
(lp4607
S':'
asbag61
(g82
g63
NtRp4608
(dp4609
g66
(dp4610
sg75
g4595
sg68
(lp4611
g61
(g62
g63
NtRp4612
(dp4613
g66
(dp4614
g74
I5
ssg75
g4608
sg68
(lp4615
g492
asbasbasbag61
(g77
g63
NtRp4616
(dp4617
g66
(dp4618
sg75
g3965
sg68
(lp4619
g61
(g82
g63
NtRp4620
(dp4621
g66
(dp4622
g86
g87
ssg75
g4616
sg68
(lp4623
S'session_id_name'
p4624
asbag61
(g82
g63
NtRp4625
(dp4626
g66
(dp4627
g93
g94
ssg75
g4616
sg68
(lp4628
S':'
asbag61
(g82
g63
NtRp4629
(dp4630
g66
(dp4631
sg75
g4616
sg68
(lp4632
g61
(g62
g63
NtRp4633
(dp4634
g66
(dp4635
g74
I5
ssg75
g4629
sg68
(lp4636
g4022
asbasbasbag61
(g77
g63
NtRp4637
(dp4638
g66
(dp4639
sg75
g3965
sg68
(lp4640
g61
(g82
g63
NtRp4641
(dp4642
g66
(dp4643
g86
g87
ssg75
g4637
sg68
(lp4644
S'session_locked'
p4645
asbag61
(g82
g63
NtRp4646
(dp4647
g66
(dp4648
g93
g94
ssg75
g4637
sg68
(lp4649
S':'
asbag61
(g82
g63
NtRp4650
(dp4651
g66
(dp4652
sg75
g4637
sg68
(lp4653
g61
(g62
g63
NtRp4654
(dp4655
g66
(dp4656
g74
I5
ssg75
g4650
sg68
(lp4657
g2124
asbasbasbag61
(g77
g63
NtRp4658
(dp4659
g66
(dp4660
sg75
g3965
sg68
(lp4661
g61
(g82
g63
NtRp4662
(dp4663
g66
(dp4664
g86
g87
ssg75
g4658
sg68
(lp4665
S'session_new'
p4666
asbag61
(g82
g63
NtRp4667
(dp4668
g66
(dp4669
g93
g94
ssg75
g4658
sg68
(lp4670
S':'
asbag61
(g82
g63
NtRp4671
(dp4672
g66
(dp4673
sg75
g4658
sg68
(lp4674
g61
(g62
g63
NtRp4675
(dp4676
g66
(dp4677
g74
I5
ssg75
g4671
sg68
(lp4678
g104
asbasbasbag61
(g77
g63
NtRp4679
(dp4680
g66
(dp4681
sg75
g3965
sg68
(lp4682
g61
(g82
g63
NtRp4683
(dp4684
g66
(dp4685
g86
g87
ssg75
g4679
sg68
(lp4686
S'session_storage_type'
p4687
asbag61
(g82
g63
NtRp4688
(dp4689
g66
(dp4690
g93
g94
ssg75
g4679
sg68
(lp4691
S':'
asbag61
(g82
g63
NtRp4692
(dp4693
g66
(dp4694
sg75
g4679
sg68
(lp4695
g61
(g62
g63
NtRp4696
(dp4697
g66
(dp4698
g74
I5
ssg75
g4692
sg68
(lp4699
g3785
asbasbasbag61
(g77
g63
NtRp4700
(dp4701
g66
(dp4702
sg75
g3965
sg68
(lp4703
g61
(g82
g63
NtRp4704
(dp4705
g66
(dp4706
g86
g87
ssg75
g4700
sg68
(lp4707
S'status'
p4708
asbag61
(g82
g63
NtRp4709
(dp4710
g66
(dp4711
g93
g94
ssg75
g4700
sg68
(lp4712
S':'
asbag61
(g82
g63
NtRp4713
(dp4714
g66
(dp4715
sg75
g4700
sg68
(lp4716
g61
(g62
g63
NtRp4717
(dp4718
g66
(dp4719
g74
I5
ssg75
g4713
sg68
(lp4720
S'200'
p4721
asbasbasbag61
(g77
g63
NtRp4722
(dp4723
g66
(dp4724
sg75
g3965
sg68
(lp4725
g61
(g82
g63
NtRp4726
(dp4727
g66
(dp4728
g86
g87
ssg75
g4722
sg68
(lp4729
S'view'
p4730
asbag61
(g82
g63
NtRp4731
(dp4732
g66
(dp4733
g93
g94
ssg75
g4722
sg68
(lp4734
S':'
asbag61
(g82
g63
NtRp4735
(dp4736
g66
(dp4737
sg75
g4722
sg68
(lp4738
g61
(g62
g63
NtRp4739
(dp4740
g66
(dp4741
g74
I5
ssg75
g4735
sg68
(lp4742
S'appadmin/select.html'
p4743
asbasbasbasbasbsS'locals'
p4744
(dp4745
S'query'
p4746
S'"INSERT INTO auth_user(first_name,last_name,regis...eecf491002d72edd703ac989661\',\'\',\'Admin1@ucm.es\');"'
p4747
sS'self'
p4748
S'<gluon.dal.MySQLAdapter object>'
p4749
sS'e'
S'ProgrammingError(1146, "Table \'UserDB.auth_user\' doesn\'t exist")'
p4750
sS'fields'
p4751
S"[(<gluon.dal.Field object>, 'Bertoldo'), (<gluon.dal.Field object>, 'Pedralbes'), (<gluon.dal.Field object>, ''), (<gluon.dal.Field object>, ''), (<gluon.dal.Field object>, <gluon.validators.LazyCrypt object>), (<gluon.dal.Field object>, ''), (<gluon.dal.Field object>, 'Admin1@ucm.es')]"
p4752
sS'table'
p4753
S'<Table auth_user (id,first_name,last_name,email,...stration_key,reset_password_key,registration_id)>'
p4754
sssS'traceback'
p4755
S'Traceback (most recent call last):\n  File "/home/adrian/web2py/gluon/restricted.py", line 212, in restricted\n    exec ccode in environment\n  File "/home/adrian/web2py/applications/CygnusCloud/models/db.py", line 19, in <module>\n    u1 = userDB.auth_user.insert(password = userDB.auth_user.password.validate(\'1234\')[0],email = \'Admin1@ucm.es\',first_name=\'Bertoldo\',last_name=\'Pedralbes\')\n  File "/home/adrian/web2py/gluon/dal.py", line 7918, in insert\n    ret =  self._db._adapter.insert(self,self._listify(fields))\n  File "/home/adrian/web2py/gluon/dal.py", line 1176, in insert\n    raise e\nProgrammingError: (1146, "Table \'UserDB.auth_user\' doesn\'t exist")\n'
p4756
s.