(dp1
S'output'
p2
S'Unable to open included view file: /home/adrian/web2py/applications/CygnusCloud/views/translateMenu.py'
p3
sS'layer'
p4
S"'layout.html'"
p5
sS'code'
p6
S'<!DOCTYPE html>\n<!-- paulirish.com/2008/conditional-stylesheets-vs-css-hacks-answer-neither/ -->\n<!--[if lt IE 7]><html class="ie ie6 ie-lte9 ie-lte8 ie-lte7 no-js" lang="{{=T.accepted_language or \'en\'}}"> <![endif]-->\n<!--[if IE 7]><html class="ie ie7 ie-lte9 ie-lte8 ie-lte7 no-js" lang="{{=T.accepted_language or \'en\'}}"> <![endif]-->\n<!--[if IE 8]><html class="ie ie8 ie-lte9 ie-lte8 no-js" lang="{{=T.accepted_language or \'en\'}}"> <![endif]-->\n<!--[if IE 9]><html class="ie9 ie-lte9 no-js" lang="{{=T.accepted_language or \'en\'}}"> <![endif]-->\n<!--[if (gt IE 9)|!(IE)]><!--> <html class="no-js" lang="{{=T.accepted_language or \'en\'}}"> <!--<![endif]-->\n\n<head>\n  <meta charset="utf-8" />\n  <!-- www.phpied.com/conditional-comments-block-downloads/ -->\n  <!-- Always force latest IE rendering engine\n       (even in intranet) & Chrome Frame\n       Remove this if you use the .htaccess -->\n  <!--[if IE]>\n      <meta http-equiv="X-UA-Compatible" content="IE=edge{{=not request.is_local and \',chrome=1\' or \'\'}}">\n      <![endif]-->\n\n  <title>{{=response.title or request.application}}</title>\n\n  <!-- http://dev.w3.org/html5/markup/meta.name.html -->\n  <meta name="application-name" content="{{=request.application}}" />\n\n  <!-- Speaking of Google, don\'t forget to set your site up:\n       http://google.com/webmasters -->\n  <meta name="google-site-verification" content="" />\n\n  <!--  Mobile Viewport Fix\n        j.mp/mobileviewport & davidbcalhoun.com/2010/viewport-metatag\n        device-width: Occupy full width of the screen in its current orientation\n        initial-scale = 1.0 retains dimensions instead of zooming out if page height > device height\n        user-scalable = yes allows the user to zoom in -->\n  <meta name="viewport" content="width=device-width, initial-scale=1.0" />\n\n  <link rel="shortcut icon" href="{{=URL(\'static\',\'images/favicon.ico\')}}" type="image/x-icon">\n  <link rel="apple-touch-icon" href="{{=URL(\'static\',\'images/favicon.png\')}}">\n\n  <!-- All JavaScript at the bottom, except for Modernizr which enables\n       HTML5 elements & feature detects -->\n  <script src="{{=URL(\'static\',\'js/modernizr.custom.js\')}}"></script>\n\n  <!-- include stylesheets -->\n  {{  \n  response.files.append(URL(\'static\',\'css/web2py.css\'))\n  response.files.append(URL(\'static\',\'css/bootstrap.min.css\'))\n  response.files.append(URL(\'static\',\'css/bootstrap-responsive.min.css\'))\n  response.files.append(URL(\'static\',\'css/web2py_bootstrap.css\'))\n  }}\n\n  {{include \'web2py_ajax.html\'}}\n\n  {{\n  # using sidebars need to know what sidebar you want to use\n  left_sidebar_enabled = globals().get(\'left_sidebar_enabled\',False)\n  right_sidebar_enabled = globals().get(\'right_sidebar_enabled\',False)\n  middle_columns = {0:\'span12\',1:\'span9\',2:\'span6\'}[\n    (left_sidebar_enabled and 1 or 0)+(right_sidebar_enabled and 1 or 0)]\n  }}\n\n  <!-- uncomment here to load jquery-ui\n       <link rel="stylesheet" href="http://ajax.googleapis.com/ajax/libs/jqueryui/1.8.16/themes/base/jquery-ui.css" type="text/css" media="all" />\n       <script src="http://ajax.googleapis.com/ajax/libs/jqueryui/1.8.16/jquery-ui.min.js" type="text/javascript"></script>\n       uncomment to load jquery-ui //-->\n  <noscript><link href="{{=URL(\'static\', \'css/web2py_bootstrap_nojs.css\')}}" rel="stylesheet" type="text/css" /></noscript>\n  {{block head}}{{end}}\n</head>\n\n<body>\n\n\n  <!-- Navbar ================================================== -->\n  <div class="navbar navbar-inverse navbar-fixed-top">\n    <div class="flash">{{=response.flash or \'\'}}</div>\n    <div class="navbar-inner">\n      <div class="container">\n          {{include \'translateMenu.py\'}}\n          {{=plugin_translate(languages=[(\'en\',\'English\'),(\'es\',\'Spanish\'),(\'fr\',\'French\'),(\'de\',\'German\')])}}\n          <ul id="navbar" class="nav pull-right">{{=\'auth\' in globals() and auth.navbar(mode="dropdown") or \'\'}}</ul>\n          <br/>\n          <br/>\n        <!-- the next tag is necessary for bootstrap menus, do not remove -->\n        <button type="button" class="btn btn-navbar" data-toggle="collapse" data-target=".nav-collapse">\n          <span class="icon-bar"></span>\n          <span class="icon-bar"></span>\n          <span class="icon-bar"></span>\n        </button>\n\t{{=response.logo or \'\'}}\n        <div class="nav-collapse">\n          {{is_mobile=request.user_agent().is_mobile}}\n          {{if response.menu:}}\n          {{=MENU(response.menu, _class=\'mobile-menu nav\' if is_mobile else \'nav\',mobile=is_mobile,li_class=\'dropdown\',ul_class=\'dropdown-menu\')}}\n          {{pass}}\n          <!--Translate bar -->\n        </div><!--/.nav-collapse -->\n      </div>\n    </div>\n  </div><!--/top navbar -->\n\n  <div class="container">\n    <!-- Masthead ================================================== -->\n    <header class="mastheader row" id="header">\n        <div class="span12">\n            <div class="page-header">\n                <h1>\n                    {{=response.title or request.application}}\n                    <small>{{=response.subtitle or \'\'}}</small>\n                </h1>\n            </div>\n        </div>\n    </header>\n\n    <section id="main" class="main row">\n        {{if left_sidebar_enabled:}}\n        <div class="span3 left-sidebar">\n            {{block left_sidebar}}\n            <h3>Left Sidebar</h3>\n            <p></p>\n            {{end}}\n        </div>\n        {{pass}}\n\n        <div class="{{=middle_columns}}">\n            {{block center}}\n            {{include}}\n            {{end}}\n        </div>\n\n        {{if right_sidebar_enabled:}}\n        <div class="span3">\n            {{block right_sidebar}}\n            <h3>Right Sidebar</h3>\n            <p></p>\n            {{end}}\n        </div>\n        {{pass}}\n    </section><!--/main-->\n\n    <!-- Footer ================================================== -->\n    <div class="row">\n        <footer class="footer span12" id="footer">\n            <div class="footer-content">\n                {{block footer}} <!-- this is default footer -->\n                <div class="copyright pull-left">{{=T(\'Copyright\')}} &#169; {{=request.now.year}}</div>\n                <div id="poweredBy" class="pull-right">\n                    {{=T(\'Powered by\')}}\n                    <a href="http://www.web2py.com/">web2py</a>\n                </div>\n                {{end}}\n            </div>\n        </footer>\n    </div>\n\n  </div> <!-- /container -->\n\n  <!-- The javascript =============================================\n       (Placed at the end of the document so the pages load faster) -->\n  <script src="{{=URL(\'static\',\'js/bootstrap.min.js\')}}"></script>\n  <script src="{{=URL(\'static\',\'js/web2py_bootstrap.js\')}}"></script>\n  <!--[if lt IE 7 ]>\n      <script src="{{=URL(\'static\',\'js/dd_belatedpng.js\')}}"></script>\n      <script> DD_belatedPNG.fix(\'img, .png_bg\'); //fix any <img> or .png_bg background-images </script>\n      <![endif]-->\n  \n  {{if response.google_analytics_id:}}\n  <script src="{{=URL(\'static\',\'js/analytics.js\')}}"></script>\n  <script type="text/javascript">\n  analytics.initialize({\n    \'Google Analytics\':{trackingId:\'{{=response.google_analytics_id}}\'} \n  });</script>\n  {{pass}}\n  <script src="{{=URL(\'static\',\'js/share.js\',vars=dict(static=URL(\'static\',\'images\')))}}"></script>\n</body>\n</html>\n'
p7
sS'snapshot'
p8
(dp9
S'exception'
p10
(dp11
S'__getslice__'
p12
S"<method-wrapper '__getslice__' of exceptions.IOError object>"
p13
sS'__str__'
p14
S"<method-wrapper '__str__' of exceptions.IOError object>"
p15
sS'__reduce__'
p16
S'<built-in method __reduce__ of exceptions.IOError object>'
p17
sS'__dict__'
p18
S'{}'
p19
sS'__sizeof__'
p20
S'<built-in method __sizeof__ of exceptions.IOError object>'
p21
sS'__init__'
p22
S"<method-wrapper '__init__' of exceptions.IOError object>"
p23
sS'__setattr__'
p24
S"<method-wrapper '__setattr__' of exceptions.IOError object>"
p25
sS'__reduce_ex__'
p26
S'<built-in method __reduce_ex__ of exceptions.IOError object>'
p27
sS'__new__'
p28
S'<built-in method __new__ of type object>'
p29
sS'errno'
p30
S'2'
sS'__format__'
p31
S'<built-in method __format__ of exceptions.IOError object>'
p32
sS'__class__'
p33
S"<type 'exceptions.IOError'>"
p34
sS'filename'
p35
S"'/home/adrian/web2py/applications/CygnusCloud/views/translateMenu.py'"
p36
sS'__doc__'
p37
S"'I/O operation failed.'"
p38
sS'__getitem__'
p39
S"<method-wrapper '__getitem__' of exceptions.IOError object>"
p40
sS'__setstate__'
p41
S'<built-in method __setstate__ of exceptions.IOError object>'
p42
sS'__getattribute__'
p43
S"<method-wrapper '__getattribute__' of exceptions.IOError object>"
p44
sS'args'
p45
S"(2, 'No such file or directory')"
p46
sS'__subclasshook__'
p47
S'<built-in method __subclasshook__ of type object>'
p48
sS'__unicode__'
p49
S'<built-in method __unicode__ of exceptions.IOError object>'
p50
sS'strerror'
p51
S"'No such file or directory'"
p52
sS'__delattr__'
p53
S"<method-wrapper '__delattr__' of exceptions.IOError object>"
p54
sS'__repr__'
p55
S"<method-wrapper '__repr__' of exceptions.IOError object>"
p56
sS'__hash__'
p57
S"<method-wrapper '__hash__' of exceptions.IOError object>"
p58
ssS'evalue'
p59
S"[Errno 2] No such file or directory: '/home/adrian/web2py/applications/CygnusCloud/views/translateMenu.py'"
p60
sS'frames'
p61
(lp62
(dp63
S'file'
p64
S'/home/adrian/web2py/gluon/template.py'
p65
sS'dump'
p66
(dp67
S'builtinopen'
p68
S'<built-in function open>'
p69
sS'fileobj'
p70
S'undefined'
p71
sS'filepath'
p72
S"'/home/adrian/web2py/applications/CygnusCloud/views/translateMenu.py'"
p73
ssS'lnum'
p74
I443
sS'lines'
p75
(dp76
I438
S'        # Get the path of the file on the system.'
p77
sI439
S'        filepath = self.path and os.path.join(self.path, filename) or filename'
p78
sI440
S''
sI441
S'        # try to read the text.'
p79
sI442
S'        try:'
p80
sI443
S"            fileobj = open(filepath, 'rb')"
p81
sI444
S'            text = fileobj.read()'
p82
sI445
S'            fileobj.close()'
p83
sI446
S'        except IOError:'
p84
sI447
S"            self._raise_error('Unable to open included view file: ' + filepath)"
p85
ssS'call'
p86
S"(self=<gluon.template.TemplateParser object>, filename='translateMenu.py')"
p87
sS'func'
p88
S'_get_file_text'
p89
sasS'pyver'
p90
S'Python 2.7.3: /usr/bin/python'
p91
sS'etype'
p92
S"<type 'exceptions.IOError'>"
p93
sS'date'
p94
S'Mon Feb  4 17:07:47 2013'
p95
sS'locals'
p96
(dp97
S'self'
p98
S'<gluon.template.TemplateParser object>'
p99
sS'filepath'
p100
S"'/home/adrian/web2py/applications/CygnusCloud/views/translateMenu.py'"
p101
sS'context'
p102
S"{'A': <class 'gluon.html.A'>, 'Auth': <class 'gluon.tools.Auth'>, 'B': <class 'gluon.html.B'>, 'BEAUTIFY': <class 'gluon.html.BEAUTIFY'>, 'BODY': <class 'gluon.html.BODY'>, 'BR': <class 'gluon.html.BR'>, 'BUTTON': <class 'gluon.html.BUTTON'>, 'CAT': <class 'gluon.html.CAT'>, 'CENTER': <class 'gluon.html.CENTER'>, 'CLEANUP': <class 'gluon.validators.CLEANUP'>, ...}"
p103
sg35
S"'translateMenu.py'"
p104
sssS'traceback'
p105
S'Traceback (most recent call last):\n  File "/home/adrian/web2py/gluon/template.py", line 443, in _get_file_text\n    fileobj = open(filepath, \'rb\')\nIOError: [Errno 2] No such file or directory: \'/home/adrian/web2py/applications/CygnusCloud/views/translateMenu.py\'\n'
p106
s.