(dp1
S'output'
p2
S"<type 'exceptions.IOError'> [Errno 2] No such file or directory: '../../private/WebServerDB.sql'"
p3
sS'layer'
p4
S'/home/adrian/web2py/applications/CygnusCloud/models/db.py'
p5
sS'code'
p6
S"# -*- coding: utf-8 -*-\nfrom configuration import DBConfigurator\n\n\nconf = DBConfigurator('170590ucm')\nconf.createDatabase('userDB')\nconf.runSQLScript('userDB','../../private/WebServerDB.sql','CygnusCloud','cygnuscloud2012')\nuserDB = DAL('mysql://CygnusCloud:cygnuscloud2012@localhost/userDB')\n\n# Autentication\nfrom gluon.tools import Auth\nauth = Auth(db)\nauth.define_tables()\n#auth.settings.table_user_name = 'Users'\n#auth.settings.table_group_name = 'UserType'\n#auth.settings.table_membership_name = 'TypeOf'\n"
p7
sS'snapshot'
p8
(dp9
S'exception'
p10
(dp11
S'__getslice__'
p12
S"<method-wrapper '__getslice__' of exceptions.IOError object>"
p13
sS'__str__'
p14
S"<method-wrapper '__str__' of exceptions.IOError object>"
p15
sS'__reduce__'
p16
S'<built-in method __reduce__ of exceptions.IOError object>'
p17
sS'__dict__'
p18
S'{}'
p19
sS'__sizeof__'
p20
S'<built-in method __sizeof__ of exceptions.IOError object>'
p21
sS'__init__'
p22
S"<method-wrapper '__init__' of exceptions.IOError object>"
p23
sS'__setattr__'
p24
S"<method-wrapper '__setattr__' of exceptions.IOError object>"
p25
sS'__reduce_ex__'
p26
S'<built-in method __reduce_ex__ of exceptions.IOError object>'
p27
sS'__new__'
p28
S'<built-in method __new__ of type object>'
p29
sS'errno'
p30
S'2'
sS'__format__'
p31
S'<built-in method __format__ of exceptions.IOError object>'
p32
sS'__class__'
p33
S"<type 'exceptions.IOError'>"
p34
sS'filename'
p35
S"'../../private/WebServerDB.sql'"
p36
sS'__doc__'
p37
S"'I/O operation failed.'"
p38
sS'__getitem__'
p39
S"<method-wrapper '__getitem__' of exceptions.IOError object>"
p40
sS'__setstate__'
p41
S'<built-in method __setstate__ of exceptions.IOError object>'
p42
sS'__getattribute__'
p43
S"<method-wrapper '__getattribute__' of exceptions.IOError object>"
p44
sS'args'
p45
S"(2, 'No such file or directory')"
p46
sS'__subclasshook__'
p47
S'<built-in method __subclasshook__ of type object>'
p48
sS'__unicode__'
p49
S'<built-in method __unicode__ of exceptions.IOError object>'
p50
sS'strerror'
p51
S"'No such file or directory'"
p52
sS'__delattr__'
p53
S"<method-wrapper '__delattr__' of exceptions.IOError object>"
p54
sS'__repr__'
p55
S"<method-wrapper '__repr__' of exceptions.IOError object>"
p56
sS'__hash__'
p57
S"<method-wrapper '__hash__' of exceptions.IOError object>"
p58
ssS'evalue'
p59
S"[Errno 2] No such file or directory: '../../private/WebServerDB.sql'"
p60
sS'request'
p61
ccopy_reg
_reconstructor
p62
(cgluon.html
BEAUTIFY
p63
c__builtin__
object
p64
NtRp65
(dp66
S'attributes'
p67
(dp68
sS'components'
p69
(lp70
g62
(cgluon.html
TABLE
p71
g64
NtRp72
(dp73
g67
(dp74
S'level'
p75
I5
ssS'parent'
p76
Nsg69
(lp77
g62
(cgluon.html
TR
p78
g64
NtRp79
(dp80
g67
(dp81
sg76
g72
sg69
(lp82
g62
(cgluon.html
TD
p83
g64
NtRp84
(dp85
g67
(dp86
S'_style'
p87
S'font-weight:bold;vertical-align:top'
p88
ssg76
g79
sg69
(lp89
S'ajax'
p90
asbag62
(g83
g64
NtRp91
(dp92
g67
(dp93
S'_valign'
p94
S'top'
p95
ssg76
g79
sg69
(lp96
S':'
asbag62
(g83
g64
NtRp97
(dp98
g67
(dp99
sg76
g79
sg69
(lp100
g62
(g63
g64
NtRp101
(dp102
g67
(dp103
g75
I5
ssg76
g97
sg69
(lp104
S'False'
p105
asbasbasbag62
(g78
g64
NtRp106
(dp107
g67
(dp108
sg76
g72
sg69
(lp109
g62
(g83
g64
NtRp110
(dp111
g67
(dp112
g87
g88
ssg76
g106
sg69
(lp113
S'application'
p114
asbag62
(g83
g64
NtRp115
(dp116
g67
(dp117
g94
g95
ssg76
g106
sg69
(lp118
S':'
asbag62
(g83
g64
NtRp119
(dp120
g67
(dp121
sg76
g106
sg69
(lp122
g62
(g63
g64
NtRp123
(dp124
g67
(dp125
g75
I5
ssg76
g119
sg69
(lp126
S'CygnusCloud'
p127
asbasbasbag62
(g78
g64
NtRp128
(dp129
g67
(dp130
sg76
g72
sg69
(lp131
g62
(g83
g64
NtRp132
(dp133
g67
(dp134
g87
g88
ssg76
g128
sg69
(lp135
g45
asbag62
(g83
g64
NtRp136
(dp137
g67
(dp138
g94
g95
ssg76
g128
sg69
(lp139
S':'
asbag62
(g83
g64
NtRp140
(dp141
g67
(dp142
sg76
g128
sg69
(lp143
g62
(g63
g64
NtRp144
(dp145
g67
(dp146
g75
I5
ssg76
g140
sg69
(lp147
g62
(g71
g64
NtRp148
(dp149
g67
(dp150
g75
I4
ssg76
Nsg69
(lp151
sbasbasbasbag62
(g78
g64
NtRp152
(dp153
g67
(dp154
sg76
g72
sg69
(lp155
g62
(g83
g64
NtRp156
(dp157
g67
(dp158
g87
g88
ssg76
g152
sg69
(lp159
S'body'
p160
asbag62
(g83
g64
NtRp161
(dp162
g67
(dp163
g94
g95
ssg76
g152
sg69
(lp164
S':'
asbag62
(g83
g64
NtRp165
(dp166
g67
(dp167
sg76
g152
sg69
(lp168
g62
(g63
g64
NtRp169
(dp170
g67
(dp171
g75
I5
ssg76
g165
sg69
(lp172
S'<cStringIO.StringO object at 0x7f138036cd50>'
p173
asbasbasbag62
(g78
g64
NtRp174
(dp175
g67
(dp176
sg76
g72
sg69
(lp177
g62
(g83
g64
NtRp178
(dp179
g67
(dp180
g87
g88
ssg76
g174
sg69
(lp181
S'cid'
p182
asbag62
(g83
g64
NtRp183
(dp184
g67
(dp185
g94
g95
ssg76
g174
sg69
(lp186
S':'
asbag62
(g83
g64
NtRp187
(dp188
g67
(dp189
sg76
g174
sg69
(lp190
g62
(g63
g64
NtRp191
(dp192
g67
(dp193
g75
I5
ssg76
g187
sg69
(lp194
S'None'
p195
asbasbasbag62
(g78
g64
NtRp196
(dp197
g67
(dp198
sg76
g72
sg69
(lp199
g62
(g83
g64
NtRp200
(dp201
g67
(dp202
g87
g88
ssg76
g196
sg69
(lp203
S'client'
p204
asbag62
(g83
g64
NtRp205
(dp206
g67
(dp207
g94
g95
ssg76
g196
sg69
(lp208
S':'
asbag62
(g83
g64
NtRp209
(dp210
g67
(dp211
sg76
g196
sg69
(lp212
g62
(g63
g64
NtRp213
(dp214
g67
(dp215
g75
I5
ssg76
g209
sg69
(lp216
S'127.0.0.1'
p217
asbasbasbag62
(g78
g64
NtRp218
(dp219
g67
(dp220
sg76
g72
sg69
(lp221
g62
(g83
g64
NtRp222
(dp223
g67
(dp224
g87
g88
ssg76
g218
sg69
(lp225
S'controller'
p226
asbag62
(g83
g64
NtRp227
(dp228
g67
(dp229
g94
g95
ssg76
g218
sg69
(lp230
S':'
asbag62
(g83
g64
NtRp231
(dp232
g67
(dp233
sg76
g218
sg69
(lp234
g62
(g63
g64
NtRp235
(dp236
g67
(dp237
g75
I5
ssg76
g231
sg69
(lp238
S'main'
p239
asbasbasbag62
(g78
g64
NtRp240
(dp241
g67
(dp242
sg76
g72
sg69
(lp243
g62
(g83
g64
NtRp244
(dp245
g67
(dp246
g87
g88
ssg76
g240
sg69
(lp247
S'cookies'
p248
asbag62
(g83
g64
NtRp249
(dp250
g67
(dp251
g94
g95
ssg76
g240
sg69
(lp252
S':'
asbag62
(g83
g64
NtRp253
(dp254
g67
(dp255
sg76
g240
sg69
(lp256
g62
(g63
g64
NtRp257
(dp258
g67
(dp259
g75
I5
ssg76
g253
sg69
(lp260
g62
(g71
g64
NtRp261
(dp262
g67
(dp263
g75
I4
ssg76
Nsg69
(lp264
g62
(g78
g64
NtRp265
(dp266
g67
(dp267
sg76
g261
sg69
(lp268
g62
(g83
g64
NtRp269
(dp270
g67
(dp271
g87
g88
ssg76
g265
sg69
(lp272
S'session_id_admin'
p273
asbag62
(g83
g64
NtRp274
(dp275
g67
(dp276
g94
g95
ssg76
g265
sg69
(lp277
S':'
asbag62
(g83
g64
NtRp278
(dp279
g67
(dp280
sg76
g265
sg69
(lp281
g62
(g63
g64
NtRp282
(dp283
g67
(dp284
g75
I4
ssg76
g278
sg69
(lp285
S'127.0.0.1-55f52477-473c-42b8-b923-a29e2f1fa64b'
p286
ag62
(g71
g64
NtRp287
(dp288
g67
(dp289
g75
I3
ssg76
Nsg69
(lp290
g62
(g78
g64
NtRp291
(dp292
g67
(dp293
sg76
g287
sg69
(lp294
g62
(g83
g64
NtRp295
(dp296
g67
(dp297
g87
g88
ssg76
g291
sg69
(lp298
S'comment'
p299
asbag62
(g83
g64
NtRp300
(dp301
g67
(dp302
g94
g95
ssg76
g291
sg69
(lp303
S':'
asbag62
(g83
g64
NtRp304
(dp305
g67
(dp306
sg76
g291
sg69
(lp307
g62
(g63
g64
NtRp308
(dp309
g67
(dp310
g75
I3
ssg76
g304
sg69
(lp311
S''
asbasbasbag62
(g78
g64
NtRp312
(dp313
g67
(dp314
sg76
g287
sg69
(lp315
g62
(g83
g64
NtRp316
(dp317
g67
(dp318
g87
g88
ssg76
g312
sg69
(lp319
S'domain'
p320
asbag62
(g83
g64
NtRp321
(dp322
g67
(dp323
g94
g95
ssg76
g312
sg69
(lp324
S':'
asbag62
(g83
g64
NtRp325
(dp326
g67
(dp327
sg76
g312
sg69
(lp328
g62
(g63
g64
NtRp329
(dp330
g67
(dp331
g75
I3
ssg76
g325
sg69
(lp332
S''
asbasbasbag62
(g78
g64
NtRp333
(dp334
g67
(dp335
sg76
g287
sg69
(lp336
g62
(g83
g64
NtRp337
(dp338
g67
(dp339
g87
g88
ssg76
g333
sg69
(lp340
S'expires'
p341
asbag62
(g83
g64
NtRp342
(dp343
g67
(dp344
g94
g95
ssg76
g333
sg69
(lp345
S':'
asbag62
(g83
g64
NtRp346
(dp347
g67
(dp348
sg76
g333
sg69
(lp349
g62
(g63
g64
NtRp350
(dp351
g67
(dp352
g75
I3
ssg76
g346
sg69
(lp353
S''
asbasbasbag62
(g78
g64
NtRp354
(dp355
g67
(dp356
sg76
g287
sg69
(lp357
g62
(g83
g64
NtRp358
(dp359
g67
(dp360
g87
g88
ssg76
g354
sg69
(lp361
S'httponly'
p362
asbag62
(g83
g64
NtRp363
(dp364
g67
(dp365
g94
g95
ssg76
g354
sg69
(lp366
S':'
asbag62
(g83
g64
NtRp367
(dp368
g67
(dp369
sg76
g354
sg69
(lp370
g62
(g63
g64
NtRp371
(dp372
g67
(dp373
g75
I3
ssg76
g367
sg69
(lp374
S''
asbasbasbag62
(g78
g64
NtRp375
(dp376
g67
(dp377
sg76
g287
sg69
(lp378
g62
(g83
g64
NtRp379
(dp380
g67
(dp381
g87
g88
ssg76
g375
sg69
(lp382
S'max-age'
p383
asbag62
(g83
g64
NtRp384
(dp385
g67
(dp386
g94
g95
ssg76
g375
sg69
(lp387
S':'
asbag62
(g83
g64
NtRp388
(dp389
g67
(dp390
sg76
g375
sg69
(lp391
g62
(g63
g64
NtRp392
(dp393
g67
(dp394
g75
I3
ssg76
g388
sg69
(lp395
S''
asbasbasbag62
(g78
g64
NtRp396
(dp397
g67
(dp398
sg76
g287
sg69
(lp399
g62
(g83
g64
NtRp400
(dp401
g67
(dp402
g87
g88
ssg76
g396
sg69
(lp403
S'path'
p404
asbag62
(g83
g64
NtRp405
(dp406
g67
(dp407
g94
g95
ssg76
g396
sg69
(lp408
S':'
asbag62
(g83
g64
NtRp409
(dp410
g67
(dp411
sg76
g396
sg69
(lp412
g62
(g63
g64
NtRp413
(dp414
g67
(dp415
g75
I3
ssg76
g409
sg69
(lp416
S''
asbasbasbag62
(g78
g64
NtRp417
(dp418
g67
(dp419
sg76
g287
sg69
(lp420
g62
(g83
g64
NtRp421
(dp422
g67
(dp423
g87
g88
ssg76
g417
sg69
(lp424
S'secure'
p425
asbag62
(g83
g64
NtRp426
(dp427
g67
(dp428
g94
g95
ssg76
g417
sg69
(lp429
S':'
asbag62
(g83
g64
NtRp430
(dp431
g67
(dp432
sg76
g417
sg69
(lp433
g62
(g63
g64
NtRp434
(dp435
g67
(dp436
g75
I3
ssg76
g430
sg69
(lp437
S''
asbasbasbag62
(g78
g64
NtRp438
(dp439
g67
(dp440
sg76
g287
sg69
(lp441
g62
(g83
g64
NtRp442
(dp443
g67
(dp444
g87
g88
ssg76
g438
sg69
(lp445
S'version'
p446
asbag62
(g83
g64
NtRp447
(dp448
g67
(dp449
g94
g95
ssg76
g438
sg69
(lp450
S':'
asbag62
(g83
g64
NtRp451
(dp452
g67
(dp453
sg76
g438
sg69
(lp454
g62
(g63
g64
NtRp455
(dp456
g67
(dp457
g75
I3
ssg76
g451
sg69
(lp458
S''
asbasbasbasbasbasbasbag62
(g78
g64
NtRp459
(dp460
g67
(dp461
sg76
g261
sg69
(lp462
g62
(g83
g64
NtRp463
(dp464
g67
(dp465
g87
g88
ssg76
g459
sg69
(lp466
S'session_id_cygnuscloud'
p467
asbag62
(g83
g64
NtRp468
(dp469
g67
(dp470
g94
g95
ssg76
g459
sg69
(lp471
S':'
asbag62
(g83
g64
NtRp472
(dp473
g67
(dp474
sg76
g459
sg69
(lp475
g62
(g63
g64
NtRp476
(dp477
g67
(dp478
g75
I4
ssg76
g472
sg69
(lp479
S'127.0.0.1-791acaf2-7386-46dc-b011-4810dc00037c'
p480
ag62
(g71
g64
NtRp481
(dp482
g67
(dp483
g75
I3
ssg76
Nsg69
(lp484
g62
(g78
g64
NtRp485
(dp486
g67
(dp487
sg76
g481
sg69
(lp488
g62
(g83
g64
NtRp489
(dp490
g67
(dp491
g87
g88
ssg76
g485
sg69
(lp492
g299
asbag62
(g83
g64
NtRp493
(dp494
g67
(dp495
g94
g95
ssg76
g485
sg69
(lp496
S':'
asbag62
(g83
g64
NtRp497
(dp498
g67
(dp499
sg76
g485
sg69
(lp500
g62
(g63
g64
NtRp501
(dp502
g67
(dp503
g75
I3
ssg76
g497
sg69
(lp504
S''
asbasbasbag62
(g78
g64
NtRp505
(dp506
g67
(dp507
sg76
g481
sg69
(lp508
g62
(g83
g64
NtRp509
(dp510
g67
(dp511
g87
g88
ssg76
g505
sg69
(lp512
g320
asbag62
(g83
g64
NtRp513
(dp514
g67
(dp515
g94
g95
ssg76
g505
sg69
(lp516
S':'
asbag62
(g83
g64
NtRp517
(dp518
g67
(dp519
sg76
g505
sg69
(lp520
g62
(g63
g64
NtRp521
(dp522
g67
(dp523
g75
I3
ssg76
g517
sg69
(lp524
S''
asbasbasbag62
(g78
g64
NtRp525
(dp526
g67
(dp527
sg76
g481
sg69
(lp528
g62
(g83
g64
NtRp529
(dp530
g67
(dp531
g87
g88
ssg76
g525
sg69
(lp532
g341
asbag62
(g83
g64
NtRp533
(dp534
g67
(dp535
g94
g95
ssg76
g525
sg69
(lp536
S':'
asbag62
(g83
g64
NtRp537
(dp538
g67
(dp539
sg76
g525
sg69
(lp540
g62
(g63
g64
NtRp541
(dp542
g67
(dp543
g75
I3
ssg76
g537
sg69
(lp544
S''
asbasbasbag62
(g78
g64
NtRp545
(dp546
g67
(dp547
sg76
g481
sg69
(lp548
g62
(g83
g64
NtRp549
(dp550
g67
(dp551
g87
g88
ssg76
g545
sg69
(lp552
g362
asbag62
(g83
g64
NtRp553
(dp554
g67
(dp555
g94
g95
ssg76
g545
sg69
(lp556
S':'
asbag62
(g83
g64
NtRp557
(dp558
g67
(dp559
sg76
g545
sg69
(lp560
g62
(g63
g64
NtRp561
(dp562
g67
(dp563
g75
I3
ssg76
g557
sg69
(lp564
S''
asbasbasbag62
(g78
g64
NtRp565
(dp566
g67
(dp567
sg76
g481
sg69
(lp568
g62
(g83
g64
NtRp569
(dp570
g67
(dp571
g87
g88
ssg76
g565
sg69
(lp572
g383
asbag62
(g83
g64
NtRp573
(dp574
g67
(dp575
g94
g95
ssg76
g565
sg69
(lp576
S':'
asbag62
(g83
g64
NtRp577
(dp578
g67
(dp579
sg76
g565
sg69
(lp580
g62
(g63
g64
NtRp581
(dp582
g67
(dp583
g75
I3
ssg76
g577
sg69
(lp584
S''
asbasbasbag62
(g78
g64
NtRp585
(dp586
g67
(dp587
sg76
g481
sg69
(lp588
g62
(g83
g64
NtRp589
(dp590
g67
(dp591
g87
g88
ssg76
g585
sg69
(lp592
g404
asbag62
(g83
g64
NtRp593
(dp594
g67
(dp595
g94
g95
ssg76
g585
sg69
(lp596
S':'
asbag62
(g83
g64
NtRp597
(dp598
g67
(dp599
sg76
g585
sg69
(lp600
g62
(g63
g64
NtRp601
(dp602
g67
(dp603
g75
I3
ssg76
g597
sg69
(lp604
S''
asbasbasbag62
(g78
g64
NtRp605
(dp606
g67
(dp607
sg76
g481
sg69
(lp608
g62
(g83
g64
NtRp609
(dp610
g67
(dp611
g87
g88
ssg76
g605
sg69
(lp612
g425
asbag62
(g83
g64
NtRp613
(dp614
g67
(dp615
g94
g95
ssg76
g605
sg69
(lp616
S':'
asbag62
(g83
g64
NtRp617
(dp618
g67
(dp619
sg76
g605
sg69
(lp620
g62
(g63
g64
NtRp621
(dp622
g67
(dp623
g75
I3
ssg76
g617
sg69
(lp624
S''
asbasbasbag62
(g78
g64
NtRp625
(dp626
g67
(dp627
sg76
g481
sg69
(lp628
g62
(g83
g64
NtRp629
(dp630
g67
(dp631
g87
g88
ssg76
g625
sg69
(lp632
g446
asbag62
(g83
g64
NtRp633
(dp634
g67
(dp635
g94
g95
ssg76
g625
sg69
(lp636
S':'
asbag62
(g83
g64
NtRp637
(dp638
g67
(dp639
sg76
g625
sg69
(lp640
g62
(g63
g64
NtRp641
(dp642
g67
(dp643
g75
I3
ssg76
g637
sg69
(lp644
S''
asbasbasbasbasbasbasbag62
(g78
g64
NtRp645
(dp646
g67
(dp647
sg76
g261
sg69
(lp648
g62
(g83
g64
NtRp649
(dp650
g67
(dp651
g87
g88
ssg76
g645
sg69
(lp652
S'session_id_welcome'
p653
asbag62
(g83
g64
NtRp654
(dp655
g67
(dp656
g94
g95
ssg76
g645
sg69
(lp657
S':'
asbag62
(g83
g64
NtRp658
(dp659
g67
(dp660
sg76
g645
sg69
(lp661
g62
(g63
g64
NtRp662
(dp663
g67
(dp664
g75
I4
ssg76
g658
sg69
(lp665
S'127.0.0.1-ed3399df-33a9-4506-9f65-53bddd2578f7'
p666
ag62
(g71
g64
NtRp667
(dp668
g67
(dp669
g75
I3
ssg76
Nsg69
(lp670
g62
(g78
g64
NtRp671
(dp672
g67
(dp673
sg76
g667
sg69
(lp674
g62
(g83
g64
NtRp675
(dp676
g67
(dp677
g87
g88
ssg76
g671
sg69
(lp678
g299
asbag62
(g83
g64
NtRp679
(dp680
g67
(dp681
g94
g95
ssg76
g671
sg69
(lp682
S':'
asbag62
(g83
g64
NtRp683
(dp684
g67
(dp685
sg76
g671
sg69
(lp686
g62
(g63
g64
NtRp687
(dp688
g67
(dp689
g75
I3
ssg76
g683
sg69
(lp690
S''
asbasbasbag62
(g78
g64
NtRp691
(dp692
g67
(dp693
sg76
g667
sg69
(lp694
g62
(g83
g64
NtRp695
(dp696
g67
(dp697
g87
g88
ssg76
g691
sg69
(lp698
g320
asbag62
(g83
g64
NtRp699
(dp700
g67
(dp701
g94
g95
ssg76
g691
sg69
(lp702
S':'
asbag62
(g83
g64
NtRp703
(dp704
g67
(dp705
sg76
g691
sg69
(lp706
g62
(g63
g64
NtRp707
(dp708
g67
(dp709
g75
I3
ssg76
g703
sg69
(lp710
S''
asbasbasbag62
(g78
g64
NtRp711
(dp712
g67
(dp713
sg76
g667
sg69
(lp714
g62
(g83
g64
NtRp715
(dp716
g67
(dp717
g87
g88
ssg76
g711
sg69
(lp718
g341
asbag62
(g83
g64
NtRp719
(dp720
g67
(dp721
g94
g95
ssg76
g711
sg69
(lp722
S':'
asbag62
(g83
g64
NtRp723
(dp724
g67
(dp725
sg76
g711
sg69
(lp726
g62
(g63
g64
NtRp727
(dp728
g67
(dp729
g75
I3
ssg76
g723
sg69
(lp730
S''
asbasbasbag62
(g78
g64
NtRp731
(dp732
g67
(dp733
sg76
g667
sg69
(lp734
g62
(g83
g64
NtRp735
(dp736
g67
(dp737
g87
g88
ssg76
g731
sg69
(lp738
g362
asbag62
(g83
g64
NtRp739
(dp740
g67
(dp741
g94
g95
ssg76
g731
sg69
(lp742
S':'
asbag62
(g83
g64
NtRp743
(dp744
g67
(dp745
sg76
g731
sg69
(lp746
g62
(g63
g64
NtRp747
(dp748
g67
(dp749
g75
I3
ssg76
g743
sg69
(lp750
S''
asbasbasbag62
(g78
g64
NtRp751
(dp752
g67
(dp753
sg76
g667
sg69
(lp754
g62
(g83
g64
NtRp755
(dp756
g67
(dp757
g87
g88
ssg76
g751
sg69
(lp758
g383
asbag62
(g83
g64
NtRp759
(dp760
g67
(dp761
g94
g95
ssg76
g751
sg69
(lp762
S':'
asbag62
(g83
g64
NtRp763
(dp764
g67
(dp765
sg76
g751
sg69
(lp766
g62
(g63
g64
NtRp767
(dp768
g67
(dp769
g75
I3
ssg76
g763
sg69
(lp770
S''
asbasbasbag62
(g78
g64
NtRp771
(dp772
g67
(dp773
sg76
g667
sg69
(lp774
g62
(g83
g64
NtRp775
(dp776
g67
(dp777
g87
g88
ssg76
g771
sg69
(lp778
g404
asbag62
(g83
g64
NtRp779
(dp780
g67
(dp781
g94
g95
ssg76
g771
sg69
(lp782
S':'
asbag62
(g83
g64
NtRp783
(dp784
g67
(dp785
sg76
g771
sg69
(lp786
g62
(g63
g64
NtRp787
(dp788
g67
(dp789
g75
I3
ssg76
g783
sg69
(lp790
S''
asbasbasbag62
(g78
g64
NtRp791
(dp792
g67
(dp793
sg76
g667
sg69
(lp794
g62
(g83
g64
NtRp795
(dp796
g67
(dp797
g87
g88
ssg76
g791
sg69
(lp798
g425
asbag62
(g83
g64
NtRp799
(dp800
g67
(dp801
g94
g95
ssg76
g791
sg69
(lp802
S':'
asbag62
(g83
g64
NtRp803
(dp804
g67
(dp805
sg76
g791
sg69
(lp806
g62
(g63
g64
NtRp807
(dp808
g67
(dp809
g75
I3
ssg76
g803
sg69
(lp810
S''
asbasbasbag62
(g78
g64
NtRp811
(dp812
g67
(dp813
sg76
g667
sg69
(lp814
g62
(g83
g64
NtRp815
(dp816
g67
(dp817
g87
g88
ssg76
g811
sg69
(lp818
g446
asbag62
(g83
g64
NtRp819
(dp820
g67
(dp821
g94
g95
ssg76
g811
sg69
(lp822
S':'
asbag62
(g83
g64
NtRp823
(dp824
g67
(dp825
sg76
g811
sg69
(lp826
g62
(g63
g64
NtRp827
(dp828
g67
(dp829
g75
I3
ssg76
g823
sg69
(lp830
S''
asbasbasbasbasbasbasbasbasbasbasbag62
(g78
g64
NtRp831
(dp832
g67
(dp833
sg76
g72
sg69
(lp834
g62
(g83
g64
NtRp835
(dp836
g67
(dp837
g87
g88
ssg76
g831
sg69
(lp838
S'env'
p839
asbag62
(g83
g64
NtRp840
(dp841
g67
(dp842
g94
g95
ssg76
g831
sg69
(lp843
S':'
asbag62
(g83
g64
NtRp844
(dp845
g67
(dp846
sg76
g831
sg69
(lp847
g62
(g63
g64
NtRp848
(dp849
g67
(dp850
g75
I5
ssg76
g844
sg69
(lp851
g62
(g71
g64
NtRp852
(dp853
g67
(dp854
g75
I4
ssg76
Nsg69
(lp855
g62
(g78
g64
NtRp856
(dp857
g67
(dp858
sg76
g852
sg69
(lp859
g62
(g83
g64
NtRp860
(dp861
g67
(dp862
g87
g88
ssg76
g856
sg69
(lp863
S'app_folders'
p864
asbag62
(g83
g64
NtRp865
(dp866
g67
(dp867
g94
g95
ssg76
g856
sg69
(lp868
S':'
asbag62
(g83
g64
NtRp869
(dp870
g67
(dp871
sg76
g856
sg69
(lp872
g62
(g63
g64
NtRp873
(dp874
g67
(dp875
g75
I4
ssg76
g869
sg69
(lp876
S"set(['/home/adrian/web2py/applications/admin/', '/home/adrian/web2py/applications/welcome/', '/home/adrian/web2py/applications/CygnusCloud/'])"
p877
asbasbasbag62
(g78
g64
NtRp878
(dp879
g67
(dp880
sg76
g852
sg69
(lp881
g62
(g83
g64
NtRp882
(dp883
g67
(dp884
g87
g88
ssg76
g878
sg69
(lp885
S'applications_parent'
p886
asbag62
(g83
g64
NtRp887
(dp888
g67
(dp889
g94
g95
ssg76
g878
sg69
(lp890
S':'
asbag62
(g83
g64
NtRp891
(dp892
g67
(dp893
sg76
g878
sg69
(lp894
g62
(g63
g64
NtRp895
(dp896
g67
(dp897
g75
I4
ssg76
g891
sg69
(lp898
S'/home/adrian/web2py'
p899
asbasbasbag62
(g78
g64
NtRp900
(dp901
g67
(dp902
sg76
g852
sg69
(lp903
g62
(g83
g64
NtRp904
(dp905
g67
(dp906
g87
g88
ssg76
g900
sg69
(lp907
S'cmd_args'
p908
asbag62
(g83
g64
NtRp909
(dp910
g67
(dp911
g94
g95
ssg76
g900
sg69
(lp912
S':'
asbag62
(g83
g64
NtRp913
(dp914
g67
(dp915
sg76
g900
sg69
(lp916
g62
(g63
g64
NtRp917
(dp918
g67
(dp919
g75
I4
ssg76
g913
sg69
(lp920
g62
(g71
g64
NtRp921
(dp922
g67
(dp923
g75
I3
ssg76
Nsg69
(lp924
sbasbasbasbag62
(g78
g64
NtRp925
(dp926
g67
(dp927
sg76
g852
sg69
(lp928
g62
(g83
g64
NtRp929
(dp930
g67
(dp931
g87
g88
ssg76
g925
sg69
(lp932
S'cmd_options'
p933
asbag62
(g83
g64
NtRp934
(dp935
g67
(dp936
g94
g95
ssg76
g925
sg69
(lp937
S':'
asbag62
(g83
g64
NtRp938
(dp939
g67
(dp940
sg76
g925
sg69
(lp941
g62
(g63
g64
NtRp942
(dp943
g67
(dp944
g75
I4
ssg76
g938
sg69
(lp945
S"<Values at 0x2a81bd8: {'verbose': False, 'ip': '127.0.0.1', 'with_scheduler': False, 'ips': [], 'shutdown_timeout': 5, 'taskbar': False, 'port': 8000, 'maxthreads': None, 'softcron': False, 'server_name': 'adri-EasyNote', 'bpython': False, 'nogui': False, 'pid_filename': 'httpserver.pid', 'extcron': False, 'runcron': False, 'run_system_tests': False, 'test': None, 'folder': '/home/adrian/web2py', 'config': '', 'minthreads': None, 'winservice': '', 'shell': None, 'run': '', 'log_filename': 'httpserver.log', 'debuglevel': 30, 'args': [''], 'socket_timeout': 5, 'ssl_ca_certificate': None, 'scheduler': None, 'profiler_filename': None, 'ssl_private_key': '', 'scheduler_groups': None, 'password': 'cygnuscloud2012', 'request_queue_size': 5, 'ssl_certificate': '', 'cronjob': False, 'numthreads': None, 'quiet': False, 'interfaces': None, 'import_models': False, 'timeout': 10, 'plain': False, 'nobanner': False}>"
p946
asbasbasbag62
(g78
g64
NtRp947
(dp948
g67
(dp949
sg76
g852
sg69
(lp950
g62
(g83
g64
NtRp951
(dp952
g67
(dp953
g87
g88
ssg76
g947
sg69
(lp954
S'db_sessions'
p955
asbag62
(g83
g64
NtRp956
(dp957
g67
(dp958
g94
g95
ssg76
g947
sg69
(lp959
S':'
asbag62
(g83
g64
NtRp960
(dp961
g67
(dp962
sg76
g947
sg69
(lp963
g62
(g63
g64
NtRp964
(dp965
g67
(dp966
g75
I4
ssg76
g960
sg69
(lp967
S'set([])'
p968
asbasbasbag62
(g78
g64
NtRp969
(dp970
g67
(dp971
sg76
g852
sg69
(lp972
g62
(g83
g64
NtRp973
(dp974
g67
(dp975
g87
g88
ssg76
g969
sg69
(lp976
S'debugging'
p977
asbag62
(g83
g64
NtRp978
(dp979
g67
(dp980
g94
g95
ssg76
g969
sg69
(lp981
S':'
asbag62
(g83
g64
NtRp982
(dp983
g67
(dp984
sg76
g969
sg69
(lp985
g62
(g63
g64
NtRp986
(dp987
g67
(dp988
g75
I4
ssg76
g982
sg69
(lp989
g105
asbasbasbag62
(g78
g64
NtRp990
(dp991
g67
(dp992
sg76
g852
sg69
(lp993
g62
(g83
g64
NtRp994
(dp995
g67
(dp996
g87
g88
ssg76
g990
sg69
(lp997
S'gluon_parent'
p998
asbag62
(g83
g64
NtRp999
(dp1000
g67
(dp1001
g94
g95
ssg76
g990
sg69
(lp1002
S':'
asbag62
(g83
g64
NtRp1003
(dp1004
g67
(dp1005
sg76
g990
sg69
(lp1006
g62
(g63
g64
NtRp1007
(dp1008
g67
(dp1009
g75
I4
ssg76
g1003
sg69
(lp1010
S'/home/adrian/web2py'
p1011
asbasbasbag62
(g78
g64
NtRp1012
(dp1013
g67
(dp1014
sg76
g852
sg69
(lp1015
g62
(g83
g64
NtRp1016
(dp1017
g67
(dp1018
g87
g88
ssg76
g1012
sg69
(lp1019
S'http_accept'
p1020
asbag62
(g83
g64
NtRp1021
(dp1022
g67
(dp1023
g94
g95
ssg76
g1012
sg69
(lp1024
S':'
asbag62
(g83
g64
NtRp1025
(dp1026
g67
(dp1027
sg76
g1012
sg69
(lp1028
g62
(g63
g64
NtRp1029
(dp1030
g67
(dp1031
g75
I4
ssg76
g1025
sg69
(lp1032
S'text/html,application/xhtml+xml,application/xml;q=0.9,*/*;q=0.8'
p1033
asbasbasbag62
(g78
g64
NtRp1034
(dp1035
g67
(dp1036
sg76
g852
sg69
(lp1037
g62
(g83
g64
NtRp1038
(dp1039
g67
(dp1040
g87
g88
ssg76
g1034
sg69
(lp1041
S'http_accept_charset'
p1042
asbag62
(g83
g64
NtRp1043
(dp1044
g67
(dp1045
g94
g95
ssg76
g1034
sg69
(lp1046
S':'
asbag62
(g83
g64
NtRp1047
(dp1048
g67
(dp1049
sg76
g1034
sg69
(lp1050
g62
(g63
g64
NtRp1051
(dp1052
g67
(dp1053
g75
I4
ssg76
g1047
sg69
(lp1054
S'ISO-8859-1,utf-8;q=0.7,*;q=0.3'
p1055
asbasbasbag62
(g78
g64
NtRp1056
(dp1057
g67
(dp1058
sg76
g852
sg69
(lp1059
g62
(g83
g64
NtRp1060
(dp1061
g67
(dp1062
g87
g88
ssg76
g1056
sg69
(lp1063
S'http_accept_encoding'
p1064
asbag62
(g83
g64
NtRp1065
(dp1066
g67
(dp1067
g94
g95
ssg76
g1056
sg69
(lp1068
S':'
asbag62
(g83
g64
NtRp1069
(dp1070
g67
(dp1071
sg76
g1056
sg69
(lp1072
g62
(g63
g64
NtRp1073
(dp1074
g67
(dp1075
g75
I4
ssg76
g1069
sg69
(lp1076
S'gzip,deflate,sdch'
p1077
asbasbasbag62
(g78
g64
NtRp1078
(dp1079
g67
(dp1080
sg76
g852
sg69
(lp1081
g62
(g83
g64
NtRp1082
(dp1083
g67
(dp1084
g87
g88
ssg76
g1078
sg69
(lp1085
S'http_accept_language'
p1086
asbag62
(g83
g64
NtRp1087
(dp1088
g67
(dp1089
g94
g95
ssg76
g1078
sg69
(lp1090
S':'
asbag62
(g83
g64
NtRp1091
(dp1092
g67
(dp1093
sg76
g1078
sg69
(lp1094
g62
(g63
g64
NtRp1095
(dp1096
g67
(dp1097
g75
I4
ssg76
g1091
sg69
(lp1098
S'es-ES,es;q=0.8'
p1099
asbasbasbag62
(g78
g64
NtRp1100
(dp1101
g67
(dp1102
sg76
g852
sg69
(lp1103
g62
(g83
g64
NtRp1104
(dp1105
g67
(dp1106
g87
g88
ssg76
g1100
sg69
(lp1107
S'http_cache_control'
p1108
asbag62
(g83
g64
NtRp1109
(dp1110
g67
(dp1111
g94
g95
ssg76
g1100
sg69
(lp1112
S':'
asbag62
(g83
g64
NtRp1113
(dp1114
g67
(dp1115
sg76
g1100
sg69
(lp1116
g62
(g63
g64
NtRp1117
(dp1118
g67
(dp1119
g75
I4
ssg76
g1113
sg69
(lp1120
S'max-age=0'
p1121
asbasbasbag62
(g78
g64
NtRp1122
(dp1123
g67
(dp1124
sg76
g852
sg69
(lp1125
g62
(g83
g64
NtRp1126
(dp1127
g67
(dp1128
g87
g88
ssg76
g1122
sg69
(lp1129
S'http_connection'
p1130
asbag62
(g83
g64
NtRp1131
(dp1132
g67
(dp1133
g94
g95
ssg76
g1122
sg69
(lp1134
S':'
asbag62
(g83
g64
NtRp1135
(dp1136
g67
(dp1137
sg76
g1122
sg69
(lp1138
g62
(g63
g64
NtRp1139
(dp1140
g67
(dp1141
g75
I4
ssg76
g1135
sg69
(lp1142
S'keep-alive'
p1143
asbasbasbag62
(g78
g64
NtRp1144
(dp1145
g67
(dp1146
sg76
g852
sg69
(lp1147
g62
(g83
g64
NtRp1148
(dp1149
g67
(dp1150
g87
g88
ssg76
g1144
sg69
(lp1151
S'http_cookie'
p1152
asbag62
(g83
g64
NtRp1153
(dp1154
g67
(dp1155
g94
g95
ssg76
g1144
sg69
(lp1156
S':'
asbag62
(g83
g64
NtRp1157
(dp1158
g67
(dp1159
sg76
g1144
sg69
(lp1160
g62
(g63
g64
NtRp1161
(dp1162
g67
(dp1163
g75
I4
ssg76
g1157
sg69
(lp1164
S'session_id_welcome=127.0.0.1-ed3399df-33a9-4506-9f65-53bddd2578f7; session_id_cygnuscloud=127.0.0.1-791acaf2-7386-46dc-b011-4810dc00037c; session_id_admin=127.0.0.1-55f52477-473c-42b8-b923-a29e2f1fa64b'
p1165
asbasbasbag62
(g78
g64
NtRp1166
(dp1167
g67
(dp1168
sg76
g852
sg69
(lp1169
g62
(g83
g64
NtRp1170
(dp1171
g67
(dp1172
g87
g88
ssg76
g1166
sg69
(lp1173
S'http_host'
p1174
asbag62
(g83
g64
NtRp1175
(dp1176
g67
(dp1177
g94
g95
ssg76
g1166
sg69
(lp1178
S':'
asbag62
(g83
g64
NtRp1179
(dp1180
g67
(dp1181
sg76
g1166
sg69
(lp1182
g62
(g63
g64
NtRp1183
(dp1184
g67
(dp1185
g75
I4
ssg76
g1179
sg69
(lp1186
S'127.0.0.1:8000'
p1187
asbasbasbag62
(g78
g64
NtRp1188
(dp1189
g67
(dp1190
sg76
g852
sg69
(lp1191
g62
(g83
g64
NtRp1192
(dp1193
g67
(dp1194
g87
g88
ssg76
g1188
sg69
(lp1195
S'http_user_agent'
p1196
asbag62
(g83
g64
NtRp1197
(dp1198
g67
(dp1199
g94
g95
ssg76
g1188
sg69
(lp1200
S':'
asbag62
(g83
g64
NtRp1201
(dp1202
g67
(dp1203
sg76
g1188
sg69
(lp1204
g62
(g63
g64
NtRp1205
(dp1206
g67
(dp1207
g75
I4
ssg76
g1201
sg69
(lp1208
S'Mozilla/5.0 (X11; Linux x86_64) AppleWebKit/537.11 (KHTML, like Gecko) Chrome/23.0.1271.64 Safari/537.11'
p1209
asbasbasbag62
(g78
g64
NtRp1210
(dp1211
g67
(dp1212
sg76
g852
sg69
(lp1213
g62
(g83
g64
NtRp1214
(dp1215
g67
(dp1216
g87
g88
ssg76
g1210
sg69
(lp1217
S'is_jython'
p1218
asbag62
(g83
g64
NtRp1219
(dp1220
g67
(dp1221
g94
g95
ssg76
g1210
sg69
(lp1222
S':'
asbag62
(g83
g64
NtRp1223
(dp1224
g67
(dp1225
sg76
g1210
sg69
(lp1226
g62
(g63
g64
NtRp1227
(dp1228
g67
(dp1229
g75
I4
ssg76
g1223
sg69
(lp1230
g105
asbasbasbag62
(g78
g64
NtRp1231
(dp1232
g67
(dp1233
sg76
g852
sg69
(lp1234
g62
(g83
g64
NtRp1235
(dp1236
g67
(dp1237
g87
g88
ssg76
g1231
sg69
(lp1238
S'is_pypy'
p1239
asbag62
(g83
g64
NtRp1240
(dp1241
g67
(dp1242
g94
g95
ssg76
g1231
sg69
(lp1243
S':'
asbag62
(g83
g64
NtRp1244
(dp1245
g67
(dp1246
sg76
g1231
sg69
(lp1247
g62
(g63
g64
NtRp1248
(dp1249
g67
(dp1250
g75
I4
ssg76
g1244
sg69
(lp1251
g105
asbasbasbag62
(g78
g64
NtRp1252
(dp1253
g67
(dp1254
sg76
g852
sg69
(lp1255
g62
(g83
g64
NtRp1256
(dp1257
g67
(dp1258
g87
g88
ssg76
g1252
sg69
(lp1259
S'local_hosts'
p1260
asbag62
(g83
g64
NtRp1261
(dp1262
g67
(dp1263
g94
g95
ssg76
g1252
sg69
(lp1264
S':'
asbag62
(g83
g64
NtRp1265
(dp1266
g67
(dp1267
sg76
g1252
sg69
(lp1268
g62
(g63
g64
NtRp1269
(dp1270
g67
(dp1271
g75
I4
ssg76
g1265
sg69
(lp1272
g62
(g71
g64
NtRp1273
(dp1274
g67
(dp1275
g75
I3
ssg76
Nsg69
(lp1276
g62
(g78
g64
NtRp1277
(dp1278
g67
(dp1279
sg76
g1273
sg69
(lp1280
g62
(g83
g64
NtRp1281
(dp1282
g67
(dp1283
sg76
g1277
sg69
(lp1284
g62
(g63
g64
NtRp1285
(dp1286
g67
(dp1287
g75
I3
ssg76
g1281
sg69
(lp1288
S'adri-EasyNote'
p1289
asbasbasbag62
(g78
g64
NtRp1290
(dp1291
g67
(dp1292
sg76
g1273
sg69
(lp1293
g62
(g83
g64
NtRp1294
(dp1295
g67
(dp1296
sg76
g1290
sg69
(lp1297
g62
(g63
g64
NtRp1298
(dp1299
g67
(dp1300
g75
I3
ssg76
g1294
sg69
(lp1301
S'::1'
p1302
asbasbasbag62
(g78
g64
NtRp1303
(dp1304
g67
(dp1305
sg76
g1273
sg69
(lp1306
g62
(g83
g64
NtRp1307
(dp1308
g67
(dp1309
sg76
g1303
sg69
(lp1310
g62
(g63
g64
NtRp1311
(dp1312
g67
(dp1313
g75
I3
ssg76
g1307
sg69
(lp1314
S'127.0.1.1'
p1315
asbasbasbag62
(g78
g64
NtRp1316
(dp1317
g67
(dp1318
sg76
g1273
sg69
(lp1319
g62
(g83
g64
NtRp1320
(dp1321
g67
(dp1322
sg76
g1316
sg69
(lp1323
g62
(g63
g64
NtRp1324
(dp1325
g67
(dp1326
g75
I3
ssg76
g1320
sg69
(lp1327
S'::ffff:127.0.0.1'
p1328
asbasbasbag62
(g78
g64
NtRp1329
(dp1330
g67
(dp1331
sg76
g1273
sg69
(lp1332
g62
(g83
g64
NtRp1333
(dp1334
g67
(dp1335
sg76
g1329
sg69
(lp1336
g62
(g63
g64
NtRp1337
(dp1338
g67
(dp1339
g75
I3
ssg76
g1333
sg69
(lp1340
S'127.0.0.1'
p1341
asbasbasbasbasbasbasbag62
(g78
g64
NtRp1342
(dp1343
g67
(dp1344
sg76
g852
sg69
(lp1345
g62
(g83
g64
NtRp1346
(dp1347
g67
(dp1348
g87
g88
ssg76
g1342
sg69
(lp1349
S'path_info'
p1350
asbag62
(g83
g64
NtRp1351
(dp1352
g67
(dp1353
g94
g95
ssg76
g1342
sg69
(lp1354
S':'
asbag62
(g83
g64
NtRp1355
(dp1356
g67
(dp1357
sg76
g1342
sg69
(lp1358
g62
(g63
g64
NtRp1359
(dp1360
g67
(dp1361
g75
I4
ssg76
g1355
sg69
(lp1362
S'/CygnusCloud/main/login'
p1363
asbasbasbag62
(g78
g64
NtRp1364
(dp1365
g67
(dp1366
sg76
g852
sg69
(lp1367
g62
(g83
g64
NtRp1368
(dp1369
g67
(dp1370
g87
g88
ssg76
g1364
sg69
(lp1371
S'query_string'
p1372
asbag62
(g83
g64
NtRp1373
(dp1374
g67
(dp1375
g94
g95
ssg76
g1364
sg69
(lp1376
S':'
asbag62
(g83
g64
NtRp1377
(dp1378
g67
(dp1379
sg76
g1364
sg69
(lp1380
g62
(g63
g64
NtRp1381
(dp1382
g67
(dp1383
g75
I4
ssg76
g1377
sg69
(lp1384
S''
asbasbasbag62
(g78
g64
NtRp1385
(dp1386
g67
(dp1387
sg76
g852
sg69
(lp1388
g62
(g83
g64
NtRp1389
(dp1390
g67
(dp1391
g87
g88
ssg76
g1385
sg69
(lp1392
S'remote_addr'
p1393
asbag62
(g83
g64
NtRp1394
(dp1395
g67
(dp1396
g94
g95
ssg76
g1385
sg69
(lp1397
S':'
asbag62
(g83
g64
NtRp1398
(dp1399
g67
(dp1400
sg76
g1385
sg69
(lp1401
g62
(g63
g64
NtRp1402
(dp1403
g67
(dp1404
g75
I4
ssg76
g1398
sg69
(lp1405
g217
asbasbasbag62
(g78
g64
NtRp1406
(dp1407
g67
(dp1408
sg76
g852
sg69
(lp1409
g62
(g83
g64
NtRp1410
(dp1411
g67
(dp1412
g87
g88
ssg76
g1406
sg69
(lp1413
S'remote_port'
p1414
asbag62
(g83
g64
NtRp1415
(dp1416
g67
(dp1417
g94
g95
ssg76
g1406
sg69
(lp1418
S':'
asbag62
(g83
g64
NtRp1419
(dp1420
g67
(dp1421
sg76
g1406
sg69
(lp1422
g62
(g63
g64
NtRp1423
(dp1424
g67
(dp1425
g75
I4
ssg76
g1419
sg69
(lp1426
S'36310'
p1427
asbasbasbag62
(g78
g64
NtRp1428
(dp1429
g67
(dp1430
sg76
g852
sg69
(lp1431
g62
(g83
g64
NtRp1432
(dp1433
g67
(dp1434
g87
g88
ssg76
g1428
sg69
(lp1435
S'request_method'
p1436
asbag62
(g83
g64
NtRp1437
(dp1438
g67
(dp1439
g94
g95
ssg76
g1428
sg69
(lp1440
S':'
asbag62
(g83
g64
NtRp1441
(dp1442
g67
(dp1443
sg76
g1428
sg69
(lp1444
g62
(g63
g64
NtRp1445
(dp1446
g67
(dp1447
g75
I4
ssg76
g1441
sg69
(lp1448
S'GET'
p1449
asbasbasbag62
(g78
g64
NtRp1450
(dp1451
g67
(dp1452
sg76
g852
sg69
(lp1453
g62
(g83
g64
NtRp1454
(dp1455
g67
(dp1456
g87
g88
ssg76
g1450
sg69
(lp1457
S'request_uri'
p1458
asbag62
(g83
g64
NtRp1459
(dp1460
g67
(dp1461
g94
g95
ssg76
g1450
sg69
(lp1462
S':'
asbag62
(g83
g64
NtRp1463
(dp1464
g67
(dp1465
sg76
g1450
sg69
(lp1466
g62
(g63
g64
NtRp1467
(dp1468
g67
(dp1469
g75
I4
ssg76
g1463
sg69
(lp1470
g1363
asbasbasbag62
(g78
g64
NtRp1471
(dp1472
g67
(dp1473
sg76
g852
sg69
(lp1474
g62
(g83
g64
NtRp1475
(dp1476
g67
(dp1477
g87
g88
ssg76
g1471
sg69
(lp1478
S'script_name'
p1479
asbag62
(g83
g64
NtRp1480
(dp1481
g67
(dp1482
g94
g95
ssg76
g1471
sg69
(lp1483
S':'
asbag62
(g83
g64
NtRp1484
(dp1485
g67
(dp1486
sg76
g1471
sg69
(lp1487
g62
(g63
g64
NtRp1488
(dp1489
g67
(dp1490
g75
I4
ssg76
g1484
sg69
(lp1491
S''
asbasbasbag62
(g78
g64
NtRp1492
(dp1493
g67
(dp1494
sg76
g852
sg69
(lp1495
g62
(g83
g64
NtRp1496
(dp1497
g67
(dp1498
g87
g88
ssg76
g1492
sg69
(lp1499
S'server_name'
p1500
asbag62
(g83
g64
NtRp1501
(dp1502
g67
(dp1503
g94
g95
ssg76
g1492
sg69
(lp1504
S':'
asbag62
(g83
g64
NtRp1505
(dp1506
g67
(dp1507
sg76
g1492
sg69
(lp1508
g62
(g63
g64
NtRp1509
(dp1510
g67
(dp1511
g75
I4
ssg76
g1505
sg69
(lp1512
S'adri-EasyNote'
p1513
asbasbasbag62
(g78
g64
NtRp1514
(dp1515
g67
(dp1516
sg76
g852
sg69
(lp1517
g62
(g83
g64
NtRp1518
(dp1519
g67
(dp1520
g87
g88
ssg76
g1514
sg69
(lp1521
S'server_port'
p1522
asbag62
(g83
g64
NtRp1523
(dp1524
g67
(dp1525
g94
g95
ssg76
g1514
sg69
(lp1526
S':'
asbag62
(g83
g64
NtRp1527
(dp1528
g67
(dp1529
sg76
g1514
sg69
(lp1530
g62
(g63
g64
NtRp1531
(dp1532
g67
(dp1533
g75
I4
ssg76
g1527
sg69
(lp1534
S'8000'
p1535
asbasbasbag62
(g78
g64
NtRp1536
(dp1537
g67
(dp1538
sg76
g852
sg69
(lp1539
g62
(g83
g64
NtRp1540
(dp1541
g67
(dp1542
g87
g88
ssg76
g1536
sg69
(lp1543
S'server_protocol'
p1544
asbag62
(g83
g64
NtRp1545
(dp1546
g67
(dp1547
g94
g95
ssg76
g1536
sg69
(lp1548
S':'
asbag62
(g83
g64
NtRp1549
(dp1550
g67
(dp1551
sg76
g1536
sg69
(lp1552
g62
(g63
g64
NtRp1553
(dp1554
g67
(dp1555
g75
I4
ssg76
g1549
sg69
(lp1556
S'HTTP/1.1'
p1557
asbasbasbag62
(g78
g64
NtRp1558
(dp1559
g67
(dp1560
sg76
g852
sg69
(lp1561
g62
(g83
g64
NtRp1562
(dp1563
g67
(dp1564
g87
g88
ssg76
g1558
sg69
(lp1565
S'server_software'
p1566
asbag62
(g83
g64
NtRp1567
(dp1568
g67
(dp1569
g94
g95
ssg76
g1558
sg69
(lp1570
S':'
asbag62
(g83
g64
NtRp1571
(dp1572
g67
(dp1573
sg76
g1558
sg69
(lp1574
g62
(g63
g64
NtRp1575
(dp1576
g67
(dp1577
g75
I4
ssg76
g1571
sg69
(lp1578
S'Rocket 1.2.6'
p1579
asbasbasbag62
(g78
g64
NtRp1580
(dp1581
g67
(dp1582
sg76
g852
sg69
(lp1583
g62
(g83
g64
NtRp1584
(dp1585
g67
(dp1586
g87
g88
ssg76
g1580
sg69
(lp1587
S'web2py_path'
p1588
asbag62
(g83
g64
NtRp1589
(dp1590
g67
(dp1591
g94
g95
ssg76
g1580
sg69
(lp1592
S':'
asbag62
(g83
g64
NtRp1593
(dp1594
g67
(dp1595
sg76
g1580
sg69
(lp1596
g62
(g63
g64
NtRp1597
(dp1598
g67
(dp1599
g75
I4
ssg76
g1593
sg69
(lp1600
g899
asbasbasbag62
(g78
g64
NtRp1601
(dp1602
g67
(dp1603
sg76
g852
sg69
(lp1604
g62
(g83
g64
NtRp1605
(dp1606
g67
(dp1607
g87
g88
ssg76
g1601
sg69
(lp1608
S'web2py_version'
p1609
asbag62
(g83
g64
NtRp1610
(dp1611
g67
(dp1612
g94
g95
ssg76
g1601
sg69
(lp1613
S':'
asbag62
(g83
g64
NtRp1614
(dp1615
g67
(dp1616
sg76
g1601
sg69
(lp1617
g62
(g63
g64
NtRp1618
(dp1619
g67
(dp1620
g75
I4
ssg76
g1614
sg69
(lp1621
g62
(g71
g64
NtRp1622
(dp1623
g67
(dp1624
g75
I3
ssg76
Nsg69
(lp1625
g62
(g78
g64
NtRp1626
(dp1627
g67
(dp1628
sg76
g1622
sg69
(lp1629
g62
(g83
g64
NtRp1630
(dp1631
g67
(dp1632
sg76
g1626
sg69
(lp1633
g62
(g63
g64
NtRp1634
(dp1635
g67
(dp1636
g75
I3
ssg76
g1630
sg69
(lp1637
S'2'
asbasbasbag62
(g78
g64
NtRp1638
(dp1639
g67
(dp1640
sg76
g1622
sg69
(lp1641
g62
(g83
g64
NtRp1642
(dp1643
g67
(dp1644
sg76
g1638
sg69
(lp1645
g62
(g63
g64
NtRp1646
(dp1647
g67
(dp1648
g75
I3
ssg76
g1642
sg69
(lp1649
S'3'
asbasbasbag62
(g78
g64
NtRp1650
(dp1651
g67
(dp1652
sg76
g1622
sg69
(lp1653
g62
(g83
g64
NtRp1654
(dp1655
g67
(dp1656
sg76
g1650
sg69
(lp1657
g62
(g63
g64
NtRp1658
(dp1659
g67
(dp1660
g75
I3
ssg76
g1654
sg69
(lp1661
S'2'
asbasbasbag62
(g78
g64
NtRp1662
(dp1663
g67
(dp1664
sg76
g1622
sg69
(lp1665
g62
(g83
g64
NtRp1666
(dp1667
g67
(dp1668
sg76
g1662
sg69
(lp1669
g62
(g63
g64
NtRp1670
(dp1671
g67
(dp1672
g75
I3
ssg76
g1666
sg69
(lp1673
S'datetime.datetime(2012, 12, 17, 15, 3, 30)'
p1674
asbasbasbag62
(g78
g64
NtRp1675
(dp1676
g67
(dp1677
sg76
g1622
sg69
(lp1678
g62
(g83
g64
NtRp1679
(dp1680
g67
(dp1681
sg76
g1675
sg69
(lp1682
g62
(g63
g64
NtRp1683
(dp1684
g67
(dp1685
g75
I3
ssg76
g1679
sg69
(lp1686
S'stable'
p1687
asbasbasbasbasbasbasbag62
(g78
g64
NtRp1688
(dp1689
g67
(dp1690
sg76
g852
sg69
(lp1691
g62
(g83
g64
NtRp1692
(dp1693
g67
(dp1694
g87
g88
ssg76
g1688
sg69
(lp1695
S'wsgi_errors'
p1696
asbag62
(g83
g64
NtRp1697
(dp1698
g67
(dp1699
g94
g95
ssg76
g1688
sg69
(lp1700
S':'
asbag62
(g83
g64
NtRp1701
(dp1702
g67
(dp1703
sg76
g1688
sg69
(lp1704
g62
(g63
g64
NtRp1705
(dp1706
g67
(dp1707
g75
I4
ssg76
g1701
sg69
(lp1708
S"<open file '<stderr>', mode 'w' at 0x7f13978c7270>"
p1709
asbasbasbag62
(g78
g64
NtRp1710
(dp1711
g67
(dp1712
sg76
g852
sg69
(lp1713
g62
(g83
g64
NtRp1714
(dp1715
g67
(dp1716
g87
g88
ssg76
g1710
sg69
(lp1717
S'wsgi_file_wrapper'
p1718
asbag62
(g83
g64
NtRp1719
(dp1720
g67
(dp1721
g94
g95
ssg76
g1710
sg69
(lp1722
S':'
asbag62
(g83
g64
NtRp1723
(dp1724
g67
(dp1725
sg76
g1710
sg69
(lp1726
g62
(g63
g64
NtRp1727
(dp1728
g67
(dp1729
g75
I4
ssg76
g1723
sg69
(lp1730
S'<class wsgiref.util.FileWrapper at 0x29b5db8>'
p1731
asbasbasbag62
(g78
g64
NtRp1732
(dp1733
g67
(dp1734
sg76
g852
sg69
(lp1735
g62
(g83
g64
NtRp1736
(dp1737
g67
(dp1738
g87
g88
ssg76
g1732
sg69
(lp1739
S'wsgi_input'
p1740
asbag62
(g83
g64
NtRp1741
(dp1742
g67
(dp1743
g94
g95
ssg76
g1732
sg69
(lp1744
S':'
asbag62
(g83
g64
NtRp1745
(dp1746
g67
(dp1747
sg76
g1732
sg69
(lp1748
g62
(g63
g64
NtRp1749
(dp1750
g67
(dp1751
g75
I4
ssg76
g1745
sg69
(lp1752
S'<socket._fileobject object at 0x7f13802105d0>'
p1753
asbasbasbag62
(g78
g64
NtRp1754
(dp1755
g67
(dp1756
sg76
g852
sg69
(lp1757
g62
(g83
g64
NtRp1758
(dp1759
g67
(dp1760
g87
g88
ssg76
g1754
sg69
(lp1761
S'wsgi_multiprocess'
p1762
asbag62
(g83
g64
NtRp1763
(dp1764
g67
(dp1765
g94
g95
ssg76
g1754
sg69
(lp1766
S':'
asbag62
(g83
g64
NtRp1767
(dp1768
g67
(dp1769
sg76
g1754
sg69
(lp1770
g62
(g63
g64
NtRp1771
(dp1772
g67
(dp1773
g75
I4
ssg76
g1767
sg69
(lp1774
g105
asbasbasbag62
(g78
g64
NtRp1775
(dp1776
g67
(dp1777
sg76
g852
sg69
(lp1778
g62
(g83
g64
NtRp1779
(dp1780
g67
(dp1781
g87
g88
ssg76
g1775
sg69
(lp1782
S'wsgi_multithread'
p1783
asbag62
(g83
g64
NtRp1784
(dp1785
g67
(dp1786
g94
g95
ssg76
g1775
sg69
(lp1787
S':'
asbag62
(g83
g64
NtRp1788
(dp1789
g67
(dp1790
sg76
g1775
sg69
(lp1791
g62
(g63
g64
NtRp1792
(dp1793
g67
(dp1794
g75
I4
ssg76
g1788
sg69
(lp1795
S'True'
p1796
asbasbasbag62
(g78
g64
NtRp1797
(dp1798
g67
(dp1799
sg76
g852
sg69
(lp1800
g62
(g83
g64
NtRp1801
(dp1802
g67
(dp1803
g87
g88
ssg76
g1797
sg69
(lp1804
S'wsgi_run_once'
p1805
asbag62
(g83
g64
NtRp1806
(dp1807
g67
(dp1808
g94
g95
ssg76
g1797
sg69
(lp1809
S':'
asbag62
(g83
g64
NtRp1810
(dp1811
g67
(dp1812
sg76
g1797
sg69
(lp1813
g62
(g63
g64
NtRp1814
(dp1815
g67
(dp1816
g75
I4
ssg76
g1810
sg69
(lp1817
g105
asbasbasbag62
(g78
g64
NtRp1818
(dp1819
g67
(dp1820
sg76
g852
sg69
(lp1821
g62
(g83
g64
NtRp1822
(dp1823
g67
(dp1824
g87
g88
ssg76
g1818
sg69
(lp1825
S'wsgi_url_scheme'
p1826
asbag62
(g83
g64
NtRp1827
(dp1828
g67
(dp1829
g94
g95
ssg76
g1818
sg69
(lp1830
S':'
asbag62
(g83
g64
NtRp1831
(dp1832
g67
(dp1833
sg76
g1818
sg69
(lp1834
g62
(g63
g64
NtRp1835
(dp1836
g67
(dp1837
g75
I4
ssg76
g1831
sg69
(lp1838
S'http'
p1839
asbasbasbag62
(g78
g64
NtRp1840
(dp1841
g67
(dp1842
sg76
g852
sg69
(lp1843
g62
(g83
g64
NtRp1844
(dp1845
g67
(dp1846
g87
g88
ssg76
g1840
sg69
(lp1847
S'wsgi_version'
p1848
asbag62
(g83
g64
NtRp1849
(dp1850
g67
(dp1851
g94
g95
ssg76
g1840
sg69
(lp1852
S':'
asbag62
(g83
g64
NtRp1853
(dp1854
g67
(dp1855
sg76
g1840
sg69
(lp1856
g62
(g63
g64
NtRp1857
(dp1858
g67
(dp1859
g75
I4
ssg76
g1853
sg69
(lp1860
g62
(g71
g64
NtRp1861
(dp1862
g67
(dp1863
g75
I3
ssg76
Nsg69
(lp1864
g62
(g78
g64
NtRp1865
(dp1866
g67
(dp1867
sg76
g1861
sg69
(lp1868
g62
(g83
g64
NtRp1869
(dp1870
g67
(dp1871
sg76
g1865
sg69
(lp1872
g62
(g63
g64
NtRp1873
(dp1874
g67
(dp1875
g75
I3
ssg76
g1869
sg69
(lp1876
S'1'
asbasbasbag62
(g78
g64
NtRp1877
(dp1878
g67
(dp1879
sg76
g1861
sg69
(lp1880
g62
(g83
g64
NtRp1881
(dp1882
g67
(dp1883
sg76
g1877
sg69
(lp1884
g62
(g63
g64
NtRp1885
(dp1886
g67
(dp1887
g75
I3
ssg76
g1881
sg69
(lp1888
S'0'
asbasbasbasbasbasbasbasbasbasbasbag62
(g78
g64
NtRp1889
(dp1890
g67
(dp1891
sg76
g72
sg69
(lp1892
g62
(g83
g64
NtRp1893
(dp1894
g67
(dp1895
g87
g88
ssg76
g1889
sg69
(lp1896
S'extension'
p1897
asbag62
(g83
g64
NtRp1898
(dp1899
g67
(dp1900
g94
g95
ssg76
g1889
sg69
(lp1901
S':'
asbag62
(g83
g64
NtRp1902
(dp1903
g67
(dp1904
sg76
g1889
sg69
(lp1905
g62
(g63
g64
NtRp1906
(dp1907
g67
(dp1908
g75
I5
ssg76
g1902
sg69
(lp1909
S'html'
p1910
asbasbasbag62
(g78
g64
NtRp1911
(dp1912
g67
(dp1913
sg76
g72
sg69
(lp1914
g62
(g83
g64
NtRp1915
(dp1916
g67
(dp1917
g87
g88
ssg76
g1911
sg69
(lp1918
S'folder'
p1919
asbag62
(g83
g64
NtRp1920
(dp1921
g67
(dp1922
g94
g95
ssg76
g1911
sg69
(lp1923
S':'
asbag62
(g83
g64
NtRp1924
(dp1925
g67
(dp1926
sg76
g1911
sg69
(lp1927
g62
(g63
g64
NtRp1928
(dp1929
g67
(dp1930
g75
I5
ssg76
g1924
sg69
(lp1931
S'/home/adrian/web2py/applications/CygnusCloud/'
p1932
asbasbasbag62
(g78
g64
NtRp1933
(dp1934
g67
(dp1935
sg76
g72
sg69
(lp1936
g62
(g83
g64
NtRp1937
(dp1938
g67
(dp1939
g87
g88
ssg76
g1933
sg69
(lp1940
S'function'
p1941
asbag62
(g83
g64
NtRp1942
(dp1943
g67
(dp1944
g94
g95
ssg76
g1933
sg69
(lp1945
S':'
asbag62
(g83
g64
NtRp1946
(dp1947
g67
(dp1948
sg76
g1933
sg69
(lp1949
g62
(g63
g64
NtRp1950
(dp1951
g67
(dp1952
g75
I5
ssg76
g1946
sg69
(lp1953
S'login'
p1954
asbasbasbag62
(g78
g64
NtRp1955
(dp1956
g67
(dp1957
sg76
g72
sg69
(lp1958
g62
(g83
g64
NtRp1959
(dp1960
g67
(dp1961
g87
g88
ssg76
g1955
sg69
(lp1962
S'get_vars'
p1963
asbag62
(g83
g64
NtRp1964
(dp1965
g67
(dp1966
g94
g95
ssg76
g1955
sg69
(lp1967
S':'
asbag62
(g83
g64
NtRp1968
(dp1969
g67
(dp1970
sg76
g1955
sg69
(lp1971
g62
(g63
g64
NtRp1972
(dp1973
g67
(dp1974
g75
I5
ssg76
g1968
sg69
(lp1975
g62
(g71
g64
NtRp1976
(dp1977
g67
(dp1978
g75
I4
ssg76
Nsg69
(lp1979
sbasbasbasbag62
(g78
g64
NtRp1980
(dp1981
g67
(dp1982
sg76
g72
sg69
(lp1983
g62
(g83
g64
NtRp1984
(dp1985
g67
(dp1986
g87
g88
ssg76
g1980
sg69
(lp1987
S'global_settings'
p1988
asbag62
(g83
g64
NtRp1989
(dp1990
g67
(dp1991
g94
g95
ssg76
g1980
sg69
(lp1992
S':'
asbag62
(g83
g64
NtRp1993
(dp1994
g67
(dp1995
sg76
g1980
sg69
(lp1996
g62
(g63
g64
NtRp1997
(dp1998
g67
(dp1999
g75
I5
ssg76
g1993
sg69
(lp2000
g62
(g71
g64
NtRp2001
(dp2002
g67
(dp2003
g75
I4
ssg76
Nsg69
(lp2004
g62
(g78
g64
NtRp2005
(dp2006
g67
(dp2007
sg76
g2001
sg69
(lp2008
g62
(g83
g64
NtRp2009
(dp2010
g67
(dp2011
g87
g88
ssg76
g2005
sg69
(lp2012
g864
asbag62
(g83
g64
NtRp2013
(dp2014
g67
(dp2015
g94
g95
ssg76
g2005
sg69
(lp2016
S':'
asbag62
(g83
g64
NtRp2017
(dp2018
g67
(dp2019
sg76
g2005
sg69
(lp2020
g62
(g63
g64
NtRp2021
(dp2022
g67
(dp2023
g75
I4
ssg76
g2017
sg69
(lp2024
S"set(['/home/adrian/web2py/applications/admin/', '/home/adrian/web2py/applications/welcome/', '/home/adrian/web2py/applications/CygnusCloud/'])"
p2025
asbasbasbag62
(g78
g64
NtRp2026
(dp2027
g67
(dp2028
sg76
g2001
sg69
(lp2029
g62
(g83
g64
NtRp2030
(dp2031
g67
(dp2032
g87
g88
ssg76
g2026
sg69
(lp2033
g886
asbag62
(g83
g64
NtRp2034
(dp2035
g67
(dp2036
g94
g95
ssg76
g2026
sg69
(lp2037
S':'
asbag62
(g83
g64
NtRp2038
(dp2039
g67
(dp2040
sg76
g2026
sg69
(lp2041
g62
(g63
g64
NtRp2042
(dp2043
g67
(dp2044
g75
I4
ssg76
g2038
sg69
(lp2045
g899
asbasbasbag62
(g78
g64
NtRp2046
(dp2047
g67
(dp2048
sg76
g2001
sg69
(lp2049
g62
(g83
g64
NtRp2050
(dp2051
g67
(dp2052
g87
g88
ssg76
g2046
sg69
(lp2053
g908
asbag62
(g83
g64
NtRp2054
(dp2055
g67
(dp2056
g94
g95
ssg76
g2046
sg69
(lp2057
S':'
asbag62
(g83
g64
NtRp2058
(dp2059
g67
(dp2060
sg76
g2046
sg69
(lp2061
g62
(g63
g64
NtRp2062
(dp2063
g67
(dp2064
g75
I4
ssg76
g2058
sg69
(lp2065
g62
(g71
g64
NtRp2066
(dp2067
g67
(dp2068
g75
I3
ssg76
Nsg69
(lp2069
sbasbasbasbag62
(g78
g64
NtRp2070
(dp2071
g67
(dp2072
sg76
g2001
sg69
(lp2073
g62
(g83
g64
NtRp2074
(dp2075
g67
(dp2076
g87
g88
ssg76
g2070
sg69
(lp2077
g933
asbag62
(g83
g64
NtRp2078
(dp2079
g67
(dp2080
g94
g95
ssg76
g2070
sg69
(lp2081
S':'
asbag62
(g83
g64
NtRp2082
(dp2083
g67
(dp2084
sg76
g2070
sg69
(lp2085
g62
(g63
g64
NtRp2086
(dp2087
g67
(dp2088
g75
I4
ssg76
g2082
sg69
(lp2089
S"<Values at 0x2a81bd8: {'verbose': False, 'ip': '127.0.0.1', 'with_scheduler': False, 'ips': [], 'shutdown_timeout': 5, 'taskbar': False, 'port': 8000, 'maxthreads': None, 'softcron': False, 'server_name': 'adri-EasyNote', 'bpython': False, 'nogui': False, 'pid_filename': 'httpserver.pid', 'extcron': False, 'runcron': False, 'run_system_tests': False, 'test': None, 'folder': '/home/adrian/web2py', 'config': '', 'minthreads': None, 'winservice': '', 'shell': None, 'run': '', 'log_filename': 'httpserver.log', 'debuglevel': 30, 'args': [''], 'socket_timeout': 5, 'ssl_ca_certificate': None, 'scheduler': None, 'profiler_filename': None, 'ssl_private_key': '', 'scheduler_groups': None, 'password': 'cygnuscloud2012', 'request_queue_size': 5, 'ssl_certificate': '', 'cronjob': False, 'numthreads': None, 'quiet': False, 'interfaces': None, 'import_models': False, 'timeout': 10, 'plain': False, 'nobanner': False}>"
p2090
asbasbasbag62
(g78
g64
NtRp2091
(dp2092
g67
(dp2093
sg76
g2001
sg69
(lp2094
g62
(g83
g64
NtRp2095
(dp2096
g67
(dp2097
g87
g88
ssg76
g2091
sg69
(lp2098
g955
asbag62
(g83
g64
NtRp2099
(dp2100
g67
(dp2101
g94
g95
ssg76
g2091
sg69
(lp2102
S':'
asbag62
(g83
g64
NtRp2103
(dp2104
g67
(dp2105
sg76
g2091
sg69
(lp2106
g62
(g63
g64
NtRp2107
(dp2108
g67
(dp2109
g75
I4
ssg76
g2103
sg69
(lp2110
S'set([])'
p2111
asbasbasbag62
(g78
g64
NtRp2112
(dp2113
g67
(dp2114
sg76
g2001
sg69
(lp2115
g62
(g83
g64
NtRp2116
(dp2117
g67
(dp2118
g87
g88
ssg76
g2112
sg69
(lp2119
g977
asbag62
(g83
g64
NtRp2120
(dp2121
g67
(dp2122
g94
g95
ssg76
g2112
sg69
(lp2123
S':'
asbag62
(g83
g64
NtRp2124
(dp2125
g67
(dp2126
sg76
g2112
sg69
(lp2127
g62
(g63
g64
NtRp2128
(dp2129
g67
(dp2130
g75
I4
ssg76
g2124
sg69
(lp2131
g105
asbasbasbag62
(g78
g64
NtRp2132
(dp2133
g67
(dp2134
sg76
g2001
sg69
(lp2135
g62
(g83
g64
NtRp2136
(dp2137
g67
(dp2138
g87
g88
ssg76
g2132
sg69
(lp2139
g998
asbag62
(g83
g64
NtRp2140
(dp2141
g67
(dp2142
g94
g95
ssg76
g2132
sg69
(lp2143
S':'
asbag62
(g83
g64
NtRp2144
(dp2145
g67
(dp2146
sg76
g2132
sg69
(lp2147
g62
(g63
g64
NtRp2148
(dp2149
g67
(dp2150
g75
I4
ssg76
g2144
sg69
(lp2151
g1011
asbasbasbag62
(g78
g64
NtRp2152
(dp2153
g67
(dp2154
sg76
g2001
sg69
(lp2155
g62
(g83
g64
NtRp2156
(dp2157
g67
(dp2158
g87
g88
ssg76
g2152
sg69
(lp2159
g1218
asbag62
(g83
g64
NtRp2160
(dp2161
g67
(dp2162
g94
g95
ssg76
g2152
sg69
(lp2163
S':'
asbag62
(g83
g64
NtRp2164
(dp2165
g67
(dp2166
sg76
g2152
sg69
(lp2167
g62
(g63
g64
NtRp2168
(dp2169
g67
(dp2170
g75
I4
ssg76
g2164
sg69
(lp2171
g105
asbasbasbag62
(g78
g64
NtRp2172
(dp2173
g67
(dp2174
sg76
g2001
sg69
(lp2175
g62
(g83
g64
NtRp2176
(dp2177
g67
(dp2178
g87
g88
ssg76
g2172
sg69
(lp2179
g1239
asbag62
(g83
g64
NtRp2180
(dp2181
g67
(dp2182
g94
g95
ssg76
g2172
sg69
(lp2183
S':'
asbag62
(g83
g64
NtRp2184
(dp2185
g67
(dp2186
sg76
g2172
sg69
(lp2187
g62
(g63
g64
NtRp2188
(dp2189
g67
(dp2190
g75
I4
ssg76
g2184
sg69
(lp2191
g105
asbasbasbag62
(g78
g64
NtRp2192
(dp2193
g67
(dp2194
sg76
g2001
sg69
(lp2195
g62
(g83
g64
NtRp2196
(dp2197
g67
(dp2198
g87
g88
ssg76
g2192
sg69
(lp2199
g1260
asbag62
(g83
g64
NtRp2200
(dp2201
g67
(dp2202
g94
g95
ssg76
g2192
sg69
(lp2203
S':'
asbag62
(g83
g64
NtRp2204
(dp2205
g67
(dp2206
sg76
g2192
sg69
(lp2207
g62
(g63
g64
NtRp2208
(dp2209
g67
(dp2210
g75
I4
ssg76
g2204
sg69
(lp2211
g62
(g71
g64
NtRp2212
(dp2213
g67
(dp2214
g75
I3
ssg76
Nsg69
(lp2215
g62
(g78
g64
NtRp2216
(dp2217
g67
(dp2218
sg76
g2212
sg69
(lp2219
g62
(g83
g64
NtRp2220
(dp2221
g67
(dp2222
sg76
g2216
sg69
(lp2223
g62
(g63
g64
NtRp2224
(dp2225
g67
(dp2226
g75
I3
ssg76
g2220
sg69
(lp2227
g1289
asbasbasbag62
(g78
g64
NtRp2228
(dp2229
g67
(dp2230
sg76
g2212
sg69
(lp2231
g62
(g83
g64
NtRp2232
(dp2233
g67
(dp2234
sg76
g2228
sg69
(lp2235
g62
(g63
g64
NtRp2236
(dp2237
g67
(dp2238
g75
I3
ssg76
g2232
sg69
(lp2239
g1302
asbasbasbag62
(g78
g64
NtRp2240
(dp2241
g67
(dp2242
sg76
g2212
sg69
(lp2243
g62
(g83
g64
NtRp2244
(dp2245
g67
(dp2246
sg76
g2240
sg69
(lp2247
g62
(g63
g64
NtRp2248
(dp2249
g67
(dp2250
g75
I3
ssg76
g2244
sg69
(lp2251
g1315
asbasbasbag62
(g78
g64
NtRp2252
(dp2253
g67
(dp2254
sg76
g2212
sg69
(lp2255
g62
(g83
g64
NtRp2256
(dp2257
g67
(dp2258
sg76
g2252
sg69
(lp2259
g62
(g63
g64
NtRp2260
(dp2261
g67
(dp2262
g75
I3
ssg76
g2256
sg69
(lp2263
g1328
asbasbasbag62
(g78
g64
NtRp2264
(dp2265
g67
(dp2266
sg76
g2212
sg69
(lp2267
g62
(g83
g64
NtRp2268
(dp2269
g67
(dp2270
sg76
g2264
sg69
(lp2271
g62
(g63
g64
NtRp2272
(dp2273
g67
(dp2274
g75
I3
ssg76
g2268
sg69
(lp2275
g1341
asbasbasbasbasbasbasbag62
(g78
g64
NtRp2276
(dp2277
g67
(dp2278
sg76
g2001
sg69
(lp2279
g62
(g83
g64
NtRp2280
(dp2281
g67
(dp2282
g87
g88
ssg76
g2276
sg69
(lp2283
g1609
asbag62
(g83
g64
NtRp2284
(dp2285
g67
(dp2286
g94
g95
ssg76
g2276
sg69
(lp2287
S':'
asbag62
(g83
g64
NtRp2288
(dp2289
g67
(dp2290
sg76
g2276
sg69
(lp2291
g62
(g63
g64
NtRp2292
(dp2293
g67
(dp2294
g75
I4
ssg76
g2288
sg69
(lp2295
g62
(g71
g64
NtRp2296
(dp2297
g67
(dp2298
g75
I3
ssg76
Nsg69
(lp2299
g62
(g78
g64
NtRp2300
(dp2301
g67
(dp2302
sg76
g2296
sg69
(lp2303
g62
(g83
g64
NtRp2304
(dp2305
g67
(dp2306
sg76
g2300
sg69
(lp2307
g62
(g63
g64
NtRp2308
(dp2309
g67
(dp2310
g75
I3
ssg76
g2304
sg69
(lp2311
S'2'
asbasbasbag62
(g78
g64
NtRp2312
(dp2313
g67
(dp2314
sg76
g2296
sg69
(lp2315
g62
(g83
g64
NtRp2316
(dp2317
g67
(dp2318
sg76
g2312
sg69
(lp2319
g62
(g63
g64
NtRp2320
(dp2321
g67
(dp2322
g75
I3
ssg76
g2316
sg69
(lp2323
S'3'
asbasbasbag62
(g78
g64
NtRp2324
(dp2325
g67
(dp2326
sg76
g2296
sg69
(lp2327
g62
(g83
g64
NtRp2328
(dp2329
g67
(dp2330
sg76
g2324
sg69
(lp2331
g62
(g63
g64
NtRp2332
(dp2333
g67
(dp2334
g75
I3
ssg76
g2328
sg69
(lp2335
S'2'
asbasbasbag62
(g78
g64
NtRp2336
(dp2337
g67
(dp2338
sg76
g2296
sg69
(lp2339
g62
(g83
g64
NtRp2340
(dp2341
g67
(dp2342
sg76
g2336
sg69
(lp2343
g62
(g63
g64
NtRp2344
(dp2345
g67
(dp2346
g75
I3
ssg76
g2340
sg69
(lp2347
S'datetime.datetime(2012, 12, 17, 15, 3, 30)'
p2348
asbasbasbag62
(g78
g64
NtRp2349
(dp2350
g67
(dp2351
sg76
g2296
sg69
(lp2352
g62
(g83
g64
NtRp2353
(dp2354
g67
(dp2355
sg76
g2349
sg69
(lp2356
g62
(g63
g64
NtRp2357
(dp2358
g67
(dp2359
g75
I3
ssg76
g2353
sg69
(lp2360
g1687
asbasbasbasbasbasbasbasbasbasbasbag62
(g78
g64
NtRp2361
(dp2362
g67
(dp2363
sg76
g72
sg69
(lp2364
g62
(g83
g64
NtRp2365
(dp2366
g67
(dp2367
g87
g88
ssg76
g2361
sg69
(lp2368
S'is_https'
p2369
asbag62
(g83
g64
NtRp2370
(dp2371
g67
(dp2372
g94
g95
ssg76
g2361
sg69
(lp2373
S':'
asbag62
(g83
g64
NtRp2374
(dp2375
g67
(dp2376
sg76
g2361
sg69
(lp2377
g62
(g63
g64
NtRp2378
(dp2379
g67
(dp2380
g75
I5
ssg76
g2374
sg69
(lp2381
g105
asbasbasbag62
(g78
g64
NtRp2382
(dp2383
g67
(dp2384
sg76
g72
sg69
(lp2385
g62
(g83
g64
NtRp2386
(dp2387
g67
(dp2388
g87
g88
ssg76
g2382
sg69
(lp2389
S'is_local'
p2390
asbag62
(g83
g64
NtRp2391
(dp2392
g67
(dp2393
g94
g95
ssg76
g2382
sg69
(lp2394
S':'
asbag62
(g83
g64
NtRp2395
(dp2396
g67
(dp2397
sg76
g2382
sg69
(lp2398
g62
(g63
g64
NtRp2399
(dp2400
g67
(dp2401
g75
I5
ssg76
g2395
sg69
(lp2402
g1796
asbasbasbag62
(g78
g64
NtRp2403
(dp2404
g67
(dp2405
sg76
g72
sg69
(lp2406
g62
(g83
g64
NtRp2407
(dp2408
g67
(dp2409
g87
g88
ssg76
g2403
sg69
(lp2410
S'is_restful'
p2411
asbag62
(g83
g64
NtRp2412
(dp2413
g67
(dp2414
g94
g95
ssg76
g2403
sg69
(lp2415
S':'
asbag62
(g83
g64
NtRp2416
(dp2417
g67
(dp2418
sg76
g2403
sg69
(lp2419
g62
(g63
g64
NtRp2420
(dp2421
g67
(dp2422
g75
I5
ssg76
g2416
sg69
(lp2423
g105
asbasbasbag62
(g78
g64
NtRp2424
(dp2425
g67
(dp2426
sg76
g72
sg69
(lp2427
g62
(g83
g64
NtRp2428
(dp2429
g67
(dp2430
g87
g88
ssg76
g2424
sg69
(lp2431
S'now'
p2432
asbag62
(g83
g64
NtRp2433
(dp2434
g67
(dp2435
g94
g95
ssg76
g2424
sg69
(lp2436
S':'
asbag62
(g83
g64
NtRp2437
(dp2438
g67
(dp2439
sg76
g2424
sg69
(lp2440
g62
(g63
g64
NtRp2441
(dp2442
g67
(dp2443
g75
I5
ssg76
g2437
sg69
(lp2444
S'datetime.datetime(2013, 2, 5, 14, 3, 19, 757249)'
p2445
asbasbasbag62
(g78
g64
NtRp2446
(dp2447
g67
(dp2448
sg76
g72
sg69
(lp2449
g62
(g83
g64
NtRp2450
(dp2451
g67
(dp2452
g87
g88
ssg76
g2446
sg69
(lp2453
S'post_vars'
p2454
asbag62
(g83
g64
NtRp2455
(dp2456
g67
(dp2457
g94
g95
ssg76
g2446
sg69
(lp2458
S':'
asbag62
(g83
g64
NtRp2459
(dp2460
g67
(dp2461
sg76
g2446
sg69
(lp2462
g62
(g63
g64
NtRp2463
(dp2464
g67
(dp2465
g75
I5
ssg76
g2459
sg69
(lp2466
g62
(g71
g64
NtRp2467
(dp2468
g67
(dp2469
g75
I4
ssg76
Nsg69
(lp2470
sbasbasbasbag62
(g78
g64
NtRp2471
(dp2472
g67
(dp2473
sg76
g72
sg69
(lp2474
g62
(g83
g64
NtRp2475
(dp2476
g67
(dp2477
g87
g88
ssg76
g2471
sg69
(lp2478
S'raw_args'
p2479
asbag62
(g83
g64
NtRp2480
(dp2481
g67
(dp2482
g94
g95
ssg76
g2471
sg69
(lp2483
S':'
asbag62
(g83
g64
NtRp2484
(dp2485
g67
(dp2486
sg76
g2471
sg69
(lp2487
g62
(g63
g64
NtRp2488
(dp2489
g67
(dp2490
g75
I5
ssg76
g2484
sg69
(lp2491
S''
asbasbasbag62
(g78
g64
NtRp2492
(dp2493
g67
(dp2494
sg76
g72
sg69
(lp2495
g62
(g83
g64
NtRp2496
(dp2497
g67
(dp2498
g87
g88
ssg76
g2492
sg69
(lp2499
S'raw_extension'
p2500
asbag62
(g83
g64
NtRp2501
(dp2502
g67
(dp2503
g94
g95
ssg76
g2492
sg69
(lp2504
S':'
asbag62
(g83
g64
NtRp2505
(dp2506
g67
(dp2507
sg76
g2492
sg69
(lp2508
g62
(g63
g64
NtRp2509
(dp2510
g67
(dp2511
g75
I5
ssg76
g2505
sg69
(lp2512
S'None'
p2513
asbasbasbag62
(g78
g64
NtRp2514
(dp2515
g67
(dp2516
sg76
g72
sg69
(lp2517
g62
(g83
g64
NtRp2518
(dp2519
g67
(dp2520
g87
g88
ssg76
g2514
sg69
(lp2521
S'url'
p2522
asbag62
(g83
g64
NtRp2523
(dp2524
g67
(dp2525
g94
g95
ssg76
g2514
sg69
(lp2526
S':'
asbag62
(g83
g64
NtRp2527
(dp2528
g67
(dp2529
sg76
g2514
sg69
(lp2530
g62
(g63
g64
NtRp2531
(dp2532
g67
(dp2533
g75
I5
ssg76
g2527
sg69
(lp2534
g1363
asbasbasbag62
(g78
g64
NtRp2535
(dp2536
g67
(dp2537
sg76
g72
sg69
(lp2538
g62
(g83
g64
NtRp2539
(dp2540
g67
(dp2541
g87
g88
ssg76
g2535
sg69
(lp2542
S'utcnow'
p2543
asbag62
(g83
g64
NtRp2544
(dp2545
g67
(dp2546
g94
g95
ssg76
g2535
sg69
(lp2547
S':'
asbag62
(g83
g64
NtRp2548
(dp2549
g67
(dp2550
sg76
g2535
sg69
(lp2551
g62
(g63
g64
NtRp2552
(dp2553
g67
(dp2554
g75
I5
ssg76
g2548
sg69
(lp2555
S'datetime.datetime(2013, 2, 5, 13, 3, 19, 757285)'
p2556
asbasbasbag62
(g78
g64
NtRp2557
(dp2558
g67
(dp2559
sg76
g72
sg69
(lp2560
g62
(g83
g64
NtRp2561
(dp2562
g67
(dp2563
g87
g88
ssg76
g2557
sg69
(lp2564
S'uuid'
p2565
asbag62
(g83
g64
NtRp2566
(dp2567
g67
(dp2568
g94
g95
ssg76
g2557
sg69
(lp2569
S':'
asbag62
(g83
g64
NtRp2570
(dp2571
g67
(dp2572
sg76
g2557
sg69
(lp2573
g62
(g63
g64
NtRp2574
(dp2575
g67
(dp2576
g75
I5
ssg76
g2570
sg69
(lp2577
S'CygnusCloud/127.0.0.1.2013-02-05.14-03-19.6eb4f106-8aa4-4402-949f-f556b234c097'
p2578
asbasbasbag62
(g78
g64
NtRp2579
(dp2580
g67
(dp2581
sg76
g72
sg69
(lp2582
g62
(g83
g64
NtRp2583
(dp2584
g67
(dp2585
g87
g88
ssg76
g2579
sg69
(lp2586
S'vars'
p2587
asbag62
(g83
g64
NtRp2588
(dp2589
g67
(dp2590
g94
g95
ssg76
g2579
sg69
(lp2591
S':'
asbag62
(g83
g64
NtRp2592
(dp2593
g67
(dp2594
sg76
g2579
sg69
(lp2595
g62
(g63
g64
NtRp2596
(dp2597
g67
(dp2598
g75
I5
ssg76
g2592
sg69
(lp2599
g62
(g71
g64
NtRp2600
(dp2601
g67
(dp2602
g75
I4
ssg76
Nsg69
(lp2603
sbasbasbasbag62
(g78
g64
NtRp2604
(dp2605
g67
(dp2606
sg76
g72
sg69
(lp2607
g62
(g83
g64
NtRp2608
(dp2609
g67
(dp2610
g87
g88
ssg76
g2604
sg69
(lp2611
S'wsgi'
p2612
asbag62
(g83
g64
NtRp2613
(dp2614
g67
(dp2615
g94
g95
ssg76
g2604
sg69
(lp2616
S':'
asbag62
(g83
g64
NtRp2617
(dp2618
g67
(dp2619
sg76
g2604
sg69
(lp2620
g62
(g63
g64
NtRp2621
(dp2622
g67
(dp2623
g75
I5
ssg76
g2617
sg69
(lp2624
g62
(g71
g64
NtRp2625
(dp2626
g67
(dp2627
g75
I4
ssg76
Nsg69
(lp2628
g62
(g78
g64
NtRp2629
(dp2630
g67
(dp2631
sg76
g2625
sg69
(lp2632
g62
(g83
g64
NtRp2633
(dp2634
g67
(dp2635
g87
g88
ssg76
g2629
sg69
(lp2636
S'environ'
p2637
asbag62
(g83
g64
NtRp2638
(dp2639
g67
(dp2640
g94
g95
ssg76
g2629
sg69
(lp2641
S':'
asbag62
(g83
g64
NtRp2642
(dp2643
g67
(dp2644
sg76
g2629
sg69
(lp2645
g62
(g63
g64
NtRp2646
(dp2647
g67
(dp2648
g75
I4
ssg76
g2642
sg69
(lp2649
g62
(g71
g64
NtRp2650
(dp2651
g67
(dp2652
g75
I3
ssg76
Nsg69
(lp2653
g62
(g78
g64
NtRp2654
(dp2655
g67
(dp2656
sg76
g2650
sg69
(lp2657
g62
(g83
g64
NtRp2658
(dp2659
g67
(dp2660
g87
g88
ssg76
g2654
sg69
(lp2661
S'HTTP_ACCEPT'
p2662
asbag62
(g83
g64
NtRp2663
(dp2664
g67
(dp2665
g94
g95
ssg76
g2654
sg69
(lp2666
S':'
asbag62
(g83
g64
NtRp2667
(dp2668
g67
(dp2669
sg76
g2654
sg69
(lp2670
g62
(g63
g64
NtRp2671
(dp2672
g67
(dp2673
g75
I3
ssg76
g2667
sg69
(lp2674
g1033
asbasbasbag62
(g78
g64
NtRp2675
(dp2676
g67
(dp2677
sg76
g2650
sg69
(lp2678
g62
(g83
g64
NtRp2679
(dp2680
g67
(dp2681
g87
g88
ssg76
g2675
sg69
(lp2682
S'HTTP_ACCEPT_CHARSET'
p2683
asbag62
(g83
g64
NtRp2684
(dp2685
g67
(dp2686
g94
g95
ssg76
g2675
sg69
(lp2687
S':'
asbag62
(g83
g64
NtRp2688
(dp2689
g67
(dp2690
sg76
g2675
sg69
(lp2691
g62
(g63
g64
NtRp2692
(dp2693
g67
(dp2694
g75
I3
ssg76
g2688
sg69
(lp2695
g1055
asbasbasbag62
(g78
g64
NtRp2696
(dp2697
g67
(dp2698
sg76
g2650
sg69
(lp2699
g62
(g83
g64
NtRp2700
(dp2701
g67
(dp2702
g87
g88
ssg76
g2696
sg69
(lp2703
S'HTTP_ACCEPT_ENCODING'
p2704
asbag62
(g83
g64
NtRp2705
(dp2706
g67
(dp2707
g94
g95
ssg76
g2696
sg69
(lp2708
S':'
asbag62
(g83
g64
NtRp2709
(dp2710
g67
(dp2711
sg76
g2696
sg69
(lp2712
g62
(g63
g64
NtRp2713
(dp2714
g67
(dp2715
g75
I3
ssg76
g2709
sg69
(lp2716
g1077
asbasbasbag62
(g78
g64
NtRp2717
(dp2718
g67
(dp2719
sg76
g2650
sg69
(lp2720
g62
(g83
g64
NtRp2721
(dp2722
g67
(dp2723
g87
g88
ssg76
g2717
sg69
(lp2724
S'HTTP_ACCEPT_LANGUAGE'
p2725
asbag62
(g83
g64
NtRp2726
(dp2727
g67
(dp2728
g94
g95
ssg76
g2717
sg69
(lp2729
S':'
asbag62
(g83
g64
NtRp2730
(dp2731
g67
(dp2732
sg76
g2717
sg69
(lp2733
g62
(g63
g64
NtRp2734
(dp2735
g67
(dp2736
g75
I3
ssg76
g2730
sg69
(lp2737
g1099
asbasbasbag62
(g78
g64
NtRp2738
(dp2739
g67
(dp2740
sg76
g2650
sg69
(lp2741
g62
(g83
g64
NtRp2742
(dp2743
g67
(dp2744
g87
g88
ssg76
g2738
sg69
(lp2745
S'HTTP_CACHE_CONTROL'
p2746
asbag62
(g83
g64
NtRp2747
(dp2748
g67
(dp2749
g94
g95
ssg76
g2738
sg69
(lp2750
S':'
asbag62
(g83
g64
NtRp2751
(dp2752
g67
(dp2753
sg76
g2738
sg69
(lp2754
g62
(g63
g64
NtRp2755
(dp2756
g67
(dp2757
g75
I3
ssg76
g2751
sg69
(lp2758
g1121
asbasbasbag62
(g78
g64
NtRp2759
(dp2760
g67
(dp2761
sg76
g2650
sg69
(lp2762
g62
(g83
g64
NtRp2763
(dp2764
g67
(dp2765
g87
g88
ssg76
g2759
sg69
(lp2766
S'HTTP_CONNECTION'
p2767
asbag62
(g83
g64
NtRp2768
(dp2769
g67
(dp2770
g94
g95
ssg76
g2759
sg69
(lp2771
S':'
asbag62
(g83
g64
NtRp2772
(dp2773
g67
(dp2774
sg76
g2759
sg69
(lp2775
g62
(g63
g64
NtRp2776
(dp2777
g67
(dp2778
g75
I3
ssg76
g2772
sg69
(lp2779
g1143
asbasbasbag62
(g78
g64
NtRp2780
(dp2781
g67
(dp2782
sg76
g2650
sg69
(lp2783
g62
(g83
g64
NtRp2784
(dp2785
g67
(dp2786
g87
g88
ssg76
g2780
sg69
(lp2787
S'HTTP_COOKIE'
p2788
asbag62
(g83
g64
NtRp2789
(dp2790
g67
(dp2791
g94
g95
ssg76
g2780
sg69
(lp2792
S':'
asbag62
(g83
g64
NtRp2793
(dp2794
g67
(dp2795
sg76
g2780
sg69
(lp2796
g62
(g63
g64
NtRp2797
(dp2798
g67
(dp2799
g75
I3
ssg76
g2793
sg69
(lp2800
g1165
asbasbasbag62
(g78
g64
NtRp2801
(dp2802
g67
(dp2803
sg76
g2650
sg69
(lp2804
g62
(g83
g64
NtRp2805
(dp2806
g67
(dp2807
g87
g88
ssg76
g2801
sg69
(lp2808
S'HTTP_HOST'
p2809
asbag62
(g83
g64
NtRp2810
(dp2811
g67
(dp2812
g94
g95
ssg76
g2801
sg69
(lp2813
S':'
asbag62
(g83
g64
NtRp2814
(dp2815
g67
(dp2816
sg76
g2801
sg69
(lp2817
g62
(g63
g64
NtRp2818
(dp2819
g67
(dp2820
g75
I3
ssg76
g2814
sg69
(lp2821
g1187
asbasbasbag62
(g78
g64
NtRp2822
(dp2823
g67
(dp2824
sg76
g2650
sg69
(lp2825
g62
(g83
g64
NtRp2826
(dp2827
g67
(dp2828
g87
g88
ssg76
g2822
sg69
(lp2829
S'HTTP_USER_AGENT'
p2830
asbag62
(g83
g64
NtRp2831
(dp2832
g67
(dp2833
g94
g95
ssg76
g2822
sg69
(lp2834
S':'
asbag62
(g83
g64
NtRp2835
(dp2836
g67
(dp2837
sg76
g2822
sg69
(lp2838
g62
(g63
g64
NtRp2839
(dp2840
g67
(dp2841
g75
I3
ssg76
g2835
sg69
(lp2842
g1209
asbasbasbag62
(g78
g64
NtRp2843
(dp2844
g67
(dp2845
sg76
g2650
sg69
(lp2846
g62
(g83
g64
NtRp2847
(dp2848
g67
(dp2849
g87
g88
ssg76
g2843
sg69
(lp2850
S'PATH_INFO'
p2851
asbag62
(g83
g64
NtRp2852
(dp2853
g67
(dp2854
g94
g95
ssg76
g2843
sg69
(lp2855
S':'
asbag62
(g83
g64
NtRp2856
(dp2857
g67
(dp2858
sg76
g2843
sg69
(lp2859
g62
(g63
g64
NtRp2860
(dp2861
g67
(dp2862
g75
I3
ssg76
g2856
sg69
(lp2863
g1363
asbasbasbag62
(g78
g64
NtRp2864
(dp2865
g67
(dp2866
sg76
g2650
sg69
(lp2867
g62
(g83
g64
NtRp2868
(dp2869
g67
(dp2870
g87
g88
ssg76
g2864
sg69
(lp2871
S'QUERY_STRING'
p2872
asbag62
(g83
g64
NtRp2873
(dp2874
g67
(dp2875
g94
g95
ssg76
g2864
sg69
(lp2876
S':'
asbag62
(g83
g64
NtRp2877
(dp2878
g67
(dp2879
sg76
g2864
sg69
(lp2880
g62
(g63
g64
NtRp2881
(dp2882
g67
(dp2883
g75
I3
ssg76
g2877
sg69
(lp2884
S''
asbasbasbag62
(g78
g64
NtRp2885
(dp2886
g67
(dp2887
sg76
g2650
sg69
(lp2888
g62
(g83
g64
NtRp2889
(dp2890
g67
(dp2891
g87
g88
ssg76
g2885
sg69
(lp2892
S'REMOTE_ADDR'
p2893
asbag62
(g83
g64
NtRp2894
(dp2895
g67
(dp2896
g94
g95
ssg76
g2885
sg69
(lp2897
S':'
asbag62
(g83
g64
NtRp2898
(dp2899
g67
(dp2900
sg76
g2885
sg69
(lp2901
g62
(g63
g64
NtRp2902
(dp2903
g67
(dp2904
g75
I3
ssg76
g2898
sg69
(lp2905
g217
asbasbasbag62
(g78
g64
NtRp2906
(dp2907
g67
(dp2908
sg76
g2650
sg69
(lp2909
g62
(g83
g64
NtRp2910
(dp2911
g67
(dp2912
g87
g88
ssg76
g2906
sg69
(lp2913
S'REMOTE_PORT'
p2914
asbag62
(g83
g64
NtRp2915
(dp2916
g67
(dp2917
g94
g95
ssg76
g2906
sg69
(lp2918
S':'
asbag62
(g83
g64
NtRp2919
(dp2920
g67
(dp2921
sg76
g2906
sg69
(lp2922
g62
(g63
g64
NtRp2923
(dp2924
g67
(dp2925
g75
I3
ssg76
g2919
sg69
(lp2926
g1427
asbasbasbag62
(g78
g64
NtRp2927
(dp2928
g67
(dp2929
sg76
g2650
sg69
(lp2930
g62
(g83
g64
NtRp2931
(dp2932
g67
(dp2933
g87
g88
ssg76
g2927
sg69
(lp2934
S'REQUEST_METHOD'
p2935
asbag62
(g83
g64
NtRp2936
(dp2937
g67
(dp2938
g94
g95
ssg76
g2927
sg69
(lp2939
S':'
asbag62
(g83
g64
NtRp2940
(dp2941
g67
(dp2942
sg76
g2927
sg69
(lp2943
g62
(g63
g64
NtRp2944
(dp2945
g67
(dp2946
g75
I3
ssg76
g2940
sg69
(lp2947
g1449
asbasbasbag62
(g78
g64
NtRp2948
(dp2949
g67
(dp2950
sg76
g2650
sg69
(lp2951
g62
(g83
g64
NtRp2952
(dp2953
g67
(dp2954
g87
g88
ssg76
g2948
sg69
(lp2955
S'REQUEST_URI'
p2956
asbag62
(g83
g64
NtRp2957
(dp2958
g67
(dp2959
g94
g95
ssg76
g2948
sg69
(lp2960
S':'
asbag62
(g83
g64
NtRp2961
(dp2962
g67
(dp2963
sg76
g2948
sg69
(lp2964
g62
(g63
g64
NtRp2965
(dp2966
g67
(dp2967
g75
I3
ssg76
g2961
sg69
(lp2968
g1363
asbasbasbag62
(g78
g64
NtRp2969
(dp2970
g67
(dp2971
sg76
g2650
sg69
(lp2972
g62
(g83
g64
NtRp2973
(dp2974
g67
(dp2975
g87
g88
ssg76
g2969
sg69
(lp2976
S'SCRIPT_NAME'
p2977
asbag62
(g83
g64
NtRp2978
(dp2979
g67
(dp2980
g94
g95
ssg76
g2969
sg69
(lp2981
S':'
asbag62
(g83
g64
NtRp2982
(dp2983
g67
(dp2984
sg76
g2969
sg69
(lp2985
g62
(g63
g64
NtRp2986
(dp2987
g67
(dp2988
g75
I3
ssg76
g2982
sg69
(lp2989
S''
asbasbasbag62
(g78
g64
NtRp2990
(dp2991
g67
(dp2992
sg76
g2650
sg69
(lp2993
g62
(g83
g64
NtRp2994
(dp2995
g67
(dp2996
g87
g88
ssg76
g2990
sg69
(lp2997
S'SERVER_NAME'
p2998
asbag62
(g83
g64
NtRp2999
(dp3000
g67
(dp3001
g94
g95
ssg76
g2990
sg69
(lp3002
S':'
asbag62
(g83
g64
NtRp3003
(dp3004
g67
(dp3005
sg76
g2990
sg69
(lp3006
g62
(g63
g64
NtRp3007
(dp3008
g67
(dp3009
g75
I3
ssg76
g3003
sg69
(lp3010
g1513
asbasbasbag62
(g78
g64
NtRp3011
(dp3012
g67
(dp3013
sg76
g2650
sg69
(lp3014
g62
(g83
g64
NtRp3015
(dp3016
g67
(dp3017
g87
g88
ssg76
g3011
sg69
(lp3018
S'SERVER_PORT'
p3019
asbag62
(g83
g64
NtRp3020
(dp3021
g67
(dp3022
g94
g95
ssg76
g3011
sg69
(lp3023
S':'
asbag62
(g83
g64
NtRp3024
(dp3025
g67
(dp3026
sg76
g3011
sg69
(lp3027
g62
(g63
g64
NtRp3028
(dp3029
g67
(dp3030
g75
I3
ssg76
g3024
sg69
(lp3031
g1535
asbasbasbag62
(g78
g64
NtRp3032
(dp3033
g67
(dp3034
sg76
g2650
sg69
(lp3035
g62
(g83
g64
NtRp3036
(dp3037
g67
(dp3038
g87
g88
ssg76
g3032
sg69
(lp3039
S'SERVER_PROTOCOL'
p3040
asbag62
(g83
g64
NtRp3041
(dp3042
g67
(dp3043
g94
g95
ssg76
g3032
sg69
(lp3044
S':'
asbag62
(g83
g64
NtRp3045
(dp3046
g67
(dp3047
sg76
g3032
sg69
(lp3048
g62
(g63
g64
NtRp3049
(dp3050
g67
(dp3051
g75
I3
ssg76
g3045
sg69
(lp3052
g1557
asbasbasbag62
(g78
g64
NtRp3053
(dp3054
g67
(dp3055
sg76
g2650
sg69
(lp3056
g62
(g83
g64
NtRp3057
(dp3058
g67
(dp3059
g87
g88
ssg76
g3053
sg69
(lp3060
S'SERVER_SOFTWARE'
p3061
asbag62
(g83
g64
NtRp3062
(dp3063
g67
(dp3064
g94
g95
ssg76
g3053
sg69
(lp3065
S':'
asbag62
(g83
g64
NtRp3066
(dp3067
g67
(dp3068
sg76
g3053
sg69
(lp3069
g62
(g63
g64
NtRp3070
(dp3071
g67
(dp3072
g75
I3
ssg76
g3066
sg69
(lp3073
g1579
asbasbasbag62
(g78
g64
NtRp3074
(dp3075
g67
(dp3076
sg76
g2650
sg69
(lp3077
g62
(g83
g64
NtRp3078
(dp3079
g67
(dp3080
g87
g88
ssg76
g3074
sg69
(lp3081
S'wsgi.errors'
p3082
asbag62
(g83
g64
NtRp3083
(dp3084
g67
(dp3085
g94
g95
ssg76
g3074
sg69
(lp3086
S':'
asbag62
(g83
g64
NtRp3087
(dp3088
g67
(dp3089
sg76
g3074
sg69
(lp3090
g62
(g63
g64
NtRp3091
(dp3092
g67
(dp3093
g75
I3
ssg76
g3087
sg69
(lp3094
S"<open file '<stderr>', mode 'w' at 0x7f13978c7270>"
p3095
asbasbasbag62
(g78
g64
NtRp3096
(dp3097
g67
(dp3098
sg76
g2650
sg69
(lp3099
g62
(g83
g64
NtRp3100
(dp3101
g67
(dp3102
g87
g88
ssg76
g3096
sg69
(lp3103
S'wsgi.file_wrapper'
p3104
asbag62
(g83
g64
NtRp3105
(dp3106
g67
(dp3107
g94
g95
ssg76
g3096
sg69
(lp3108
S':'
asbag62
(g83
g64
NtRp3109
(dp3110
g67
(dp3111
sg76
g3096
sg69
(lp3112
g62
(g63
g64
NtRp3113
(dp3114
g67
(dp3115
g75
I3
ssg76
g3109
sg69
(lp3116
S'<class wsgiref.util.FileWrapper at 0x29b5db8>'
p3117
asbasbasbag62
(g78
g64
NtRp3118
(dp3119
g67
(dp3120
sg76
g2650
sg69
(lp3121
g62
(g83
g64
NtRp3122
(dp3123
g67
(dp3124
g87
g88
ssg76
g3118
sg69
(lp3125
S'wsgi.input'
p3126
asbag62
(g83
g64
NtRp3127
(dp3128
g67
(dp3129
g94
g95
ssg76
g3118
sg69
(lp3130
S':'
asbag62
(g83
g64
NtRp3131
(dp3132
g67
(dp3133
sg76
g3118
sg69
(lp3134
g62
(g63
g64
NtRp3135
(dp3136
g67
(dp3137
g75
I3
ssg76
g3131
sg69
(lp3138
S'<cStringIO.StringO object at 0x7f138036cd50>'
p3139
asbasbasbag62
(g78
g64
NtRp3140
(dp3141
g67
(dp3142
sg76
g2650
sg69
(lp3143
g62
(g83
g64
NtRp3144
(dp3145
g67
(dp3146
g87
g88
ssg76
g3140
sg69
(lp3147
S'wsgi.multiprocess'
p3148
asbag62
(g83
g64
NtRp3149
(dp3150
g67
(dp3151
g94
g95
ssg76
g3140
sg69
(lp3152
S':'
asbag62
(g83
g64
NtRp3153
(dp3154
g67
(dp3155
sg76
g3140
sg69
(lp3156
g62
(g63
g64
NtRp3157
(dp3158
g67
(dp3159
g75
I3
ssg76
g3153
sg69
(lp3160
g105
asbasbasbag62
(g78
g64
NtRp3161
(dp3162
g67
(dp3163
sg76
g2650
sg69
(lp3164
g62
(g83
g64
NtRp3165
(dp3166
g67
(dp3167
g87
g88
ssg76
g3161
sg69
(lp3168
S'wsgi.multithread'
p3169
asbag62
(g83
g64
NtRp3170
(dp3171
g67
(dp3172
g94
g95
ssg76
g3161
sg69
(lp3173
S':'
asbag62
(g83
g64
NtRp3174
(dp3175
g67
(dp3176
sg76
g3161
sg69
(lp3177
g62
(g63
g64
NtRp3178
(dp3179
g67
(dp3180
g75
I3
ssg76
g3174
sg69
(lp3181
g1796
asbasbasbag62
(g78
g64
NtRp3182
(dp3183
g67
(dp3184
sg76
g2650
sg69
(lp3185
g62
(g83
g64
NtRp3186
(dp3187
g67
(dp3188
g87
g88
ssg76
g3182
sg69
(lp3189
S'wsgi.run_once'
p3190
asbag62
(g83
g64
NtRp3191
(dp3192
g67
(dp3193
g94
g95
ssg76
g3182
sg69
(lp3194
S':'
asbag62
(g83
g64
NtRp3195
(dp3196
g67
(dp3197
sg76
g3182
sg69
(lp3198
g62
(g63
g64
NtRp3199
(dp3200
g67
(dp3201
g75
I3
ssg76
g3195
sg69
(lp3202
g105
asbasbasbag62
(g78
g64
NtRp3203
(dp3204
g67
(dp3205
sg76
g2650
sg69
(lp3206
g62
(g83
g64
NtRp3207
(dp3208
g67
(dp3209
g87
g88
ssg76
g3203
sg69
(lp3210
S'wsgi.url_scheme'
p3211
asbag62
(g83
g64
NtRp3212
(dp3213
g67
(dp3214
g94
g95
ssg76
g3203
sg69
(lp3215
S':'
asbag62
(g83
g64
NtRp3216
(dp3217
g67
(dp3218
sg76
g3203
sg69
(lp3219
g62
(g63
g64
NtRp3220
(dp3221
g67
(dp3222
g75
I3
ssg76
g3216
sg69
(lp3223
g1839
asbasbasbag62
(g78
g64
NtRp3224
(dp3225
g67
(dp3226
sg76
g2650
sg69
(lp3227
g62
(g83
g64
NtRp3228
(dp3229
g67
(dp3230
g87
g88
ssg76
g3224
sg69
(lp3231
S'wsgi.version'
p3232
asbag62
(g83
g64
NtRp3233
(dp3234
g67
(dp3235
g94
g95
ssg76
g3224
sg69
(lp3236
S':'
asbag62
(g83
g64
NtRp3237
(dp3238
g67
(dp3239
sg76
g3224
sg69
(lp3240
g62
(g63
g64
NtRp3241
(dp3242
g67
(dp3243
g75
I3
ssg76
g3237
sg69
(lp3244
S'1'
asbasbasbasbasbasbasbasbasbasbasbasbasbsS'frames'
p3245
(lp3246
(dp3247
S'file'
p3248
S'/home/adrian/web2py/gluon/restricted.py'
p3249
sS'dump'
p3250
(dp3251
S'environment'
p3252
S"{'A': <class 'gluon.html.A'>, 'B': <class 'gluon.html.B'>, 'BEAUTIFY': <class 'gluon.html.BEAUTIFY'>, 'BODY': <class 'gluon.html.BODY'>, 'BR': <class 'gluon.html.BR'>, 'BUTTON': <class 'gluon.html.BUTTON'>, 'CAT': <class 'gluon.html.CAT'>, 'CENTER': <class 'gluon.html.CENTER'>, 'CLEANUP': <class 'gluon.validators.CLEANUP'>, 'CODE': <class 'gluon.html.CODE'>, ...}"
p3253
sS'ccode'
p3254
S'<code object <module> at 0x7f138c2c39b0, file "/...y/applications/CygnusCloud/models/db.py", line 2>'
p3255
ssS'lnum'
p3256
I212
sS'lines'
p3257
(dp3258
I207
S'    try:'
p3259
sI208
S'        if isinstance(code, types.CodeType):'
p3260
sI209
S'            ccode = code'
p3261
sI210
S'        else:'
p3262
sI211
S'            ccode = compile2(code, layer)'
p3263
sI212
S'        exec ccode in environment'
p3264
sI213
S'    except HTTP:'
p3265
sI214
S'        raise'
p3266
sI215
S'    except RestrictedError:'
p3267
sI216
S'        # do not encapsulate (obfuscate) the original RestrictedError'
p3268
ssS'call'
p3269
S'(code="# -*- coding: utf-8 -*-\\nfrom configuration impor...\\n#auth.settings.table_membership_name = \'TypeOf\'\\n", environment={\'A\': <class \'gluon.html.A\'>, \'B\': <class \'gluon.html.B\'>, \'BEAUTIFY\': <class \'gluon.html.BEAUTIFY\'>, \'BODY\': <class \'gluon.html.BODY\'>, \'BR\': <class \'gluon.html.BR\'>, \'BUTTON\': <class \'gluon.html.BUTTON\'>, \'CAT\': <class \'gluon.html.CAT\'>, \'CENTER\': <class \'gluon.html.CENTER\'>, \'CLEANUP\': <class \'gluon.validators.CLEANUP\'>, \'CODE\': <class \'gluon.html.CODE\'>, ...}, layer=\'/home/adrian/web2py/applications/CygnusCloud/models/db.py\')'
p3270
sS'func'
p3271
S'restricted'
p3272
sa(dp3273
g3248
S'/home/adrian/web2py/applications/CygnusCloud/models/db.py'
p3274
sg3250
(dp3275
S'conf.runSQLScript'
p3276
S'<bound method DBConfigurator.runSQLScript of <ap...oud.modules.configuration.DBConfigurator object>>'
p3277
sS'conf'
p3278
S'<applications.CygnusCloud.modules.configuration.DBConfigurator object>'
p3279
ssg3256
I7
sg3257
(dp3280
I2
S'from configuration import DBConfigurator'
p3281
sI3
S''
sI4
S''
sI5
S"conf = DBConfigurator('170590ucm')"
p3282
sI6
S"conf.createDatabase('userDB')"
p3283
sI7
S"conf.runSQLScript('userDB','../../private/WebServerDB.sql','CygnusCloud','cygnuscloud2012')"
p3284
sI8
S"userDB = DAL('mysql://CygnusCloud:cygnuscloud2012@localhost/userDB')"
p3285
sI9
S''
sI10
S'# Autentication'
p3286
sI11
S'from gluon.tools import Auth'
p3287
ssg3269
S'()'
p3288
sg3271
S'<module>'
p3289
sa(dp3290
g3248
S'/home/adrian/web2py/applications/CygnusCloud/modules/configuration.py'
p3291
sg3250
(dp3292
S'fp'
p3293
S'undefined'
p3294
sS'sqlFilePath'
p3295
S"'../../private/WebServerDB.sql'"
p3296
sS'builtinopen'
p3297
S'<built-in function open>'
p3298
ssg3256
I78
sg3257
(dp3299
I73
S'            db = MySQLdb.connect(host=\'localhost\',user="root",passwd=self.__rootPassword)'
p3300
sI74
S'        else:'
p3301
sI75
S"            db = MySQLdb.connect(host='localhost',user=username,passwd=password)"
p3302
sI76
S'        cursor=db.cursor()'
p3303
sI77
S''
sI78
S'        fp = open(sqlFilePath)'
p3304
sI79
S'        for line in fp :'
p3305
sI80
S'            fileContent += line'
p3306
sI81
S'        fp.close()'
p3307
sI82
S'        # Tokenize its content'
p3308
ssg3269
S"(self=<applications.CygnusCloud.modules.configuration.DBConfigurator object>, database='userDB', sqlFilePath='../../private/WebServerDB.sql', username='CygnusCloud', password='cygnuscloud2012')"
p3309
sg3271
S'runSQLScript'
p3310
sasS'pyver'
p3311
S'Python 2.7.3: /usr/bin/python'
p3312
sS'session'
p3313
g62
(g63
g64
NtRp3314
(dp3315
g67
(dp3316
sg69
(lp3317
g62
(g71
g64
NtRp3318
(dp3319
g67
(dp3320
g75
I5
ssg76
Nsg69
(lp3321
sbasbsS'etype'
p3322
S"<type 'exceptions.IOError'>"
p3323
sS'date'
p3324
S'Tue Feb  5 14:03:19 2013'
p3325
sS'response'
p3326
g62
(g63
g64
NtRp3327
(dp3328
g67
(dp3329
sg69
(lp3330
g62
(g71
g64
NtRp3331
(dp3332
g67
(dp3333
g75
I5
ssg76
Nsg69
(lp3334
g62
(g78
g64
NtRp3335
(dp3336
g67
(dp3337
sg76
g3331
sg69
(lp3338
g62
(g83
g64
NtRp3339
(dp3340
g67
(dp3341
g87
g88
ssg76
g3335
sg69
(lp3342
g160
asbag62
(g83
g64
NtRp3343
(dp3344
g67
(dp3345
g94
g95
ssg76
g3335
sg69
(lp3346
S':'
asbag62
(g83
g64
NtRp3347
(dp3348
g67
(dp3349
sg76
g3335
sg69
(lp3350
g62
(g63
g64
NtRp3351
(dp3352
g67
(dp3353
g75
I5
ssg76
g3347
sg69
(lp3354
S'<cStringIO.StringO object at 0x7f1380365f48>'
p3355
asbasbasbag62
(g78
g64
NtRp3356
(dp3357
g67
(dp3358
sg76
g3331
sg69
(lp3359
g62
(g83
g64
NtRp3360
(dp3361
g67
(dp3362
g87
g88
ssg76
g3356
sg69
(lp3363
g248
asbag62
(g83
g64
NtRp3364
(dp3365
g67
(dp3366
g94
g95
ssg76
g3356
sg69
(lp3367
S':'
asbag62
(g83
g64
NtRp3368
(dp3369
g67
(dp3370
sg76
g3356
sg69
(lp3371
g62
(g63
g64
NtRp3372
(dp3373
g67
(dp3374
g75
I5
ssg76
g3368
sg69
(lp3375
g62
(g71
g64
NtRp3376
(dp3377
g67
(dp3378
g75
I4
ssg76
Nsg69
(lp3379
g62
(g78
g64
NtRp3380
(dp3381
g67
(dp3382
sg76
g3376
sg69
(lp3383
g62
(g83
g64
NtRp3384
(dp3385
g67
(dp3386
g87
g88
ssg76
g3380
sg69
(lp3387
S'session_id_cygnuscloud'
p3388
asbag62
(g83
g64
NtRp3389
(dp3390
g67
(dp3391
g94
g95
ssg76
g3380
sg69
(lp3392
S':'
asbag62
(g83
g64
NtRp3393
(dp3394
g67
(dp3395
sg76
g3380
sg69
(lp3396
g62
(g63
g64
NtRp3397
(dp3398
g67
(dp3399
g75
I4
ssg76
g3393
sg69
(lp3400
g480
ag62
(g71
g64
NtRp3401
(dp3402
g67
(dp3403
g75
I3
ssg76
Nsg69
(lp3404
g62
(g78
g64
NtRp3405
(dp3406
g67
(dp3407
sg76
g3401
sg69
(lp3408
g62
(g83
g64
NtRp3409
(dp3410
g67
(dp3411
g87
g88
ssg76
g3405
sg69
(lp3412
g299
asbag62
(g83
g64
NtRp3413
(dp3414
g67
(dp3415
g94
g95
ssg76
g3405
sg69
(lp3416
S':'
asbag62
(g83
g64
NtRp3417
(dp3418
g67
(dp3419
sg76
g3405
sg69
(lp3420
g62
(g63
g64
NtRp3421
(dp3422
g67
(dp3423
g75
I3
ssg76
g3417
sg69
(lp3424
S''
asbasbasbag62
(g78
g64
NtRp3425
(dp3426
g67
(dp3427
sg76
g3401
sg69
(lp3428
g62
(g83
g64
NtRp3429
(dp3430
g67
(dp3431
g87
g88
ssg76
g3425
sg69
(lp3432
g320
asbag62
(g83
g64
NtRp3433
(dp3434
g67
(dp3435
g94
g95
ssg76
g3425
sg69
(lp3436
S':'
asbag62
(g83
g64
NtRp3437
(dp3438
g67
(dp3439
sg76
g3425
sg69
(lp3440
g62
(g63
g64
NtRp3441
(dp3442
g67
(dp3443
g75
I3
ssg76
g3437
sg69
(lp3444
S''
asbasbasbag62
(g78
g64
NtRp3445
(dp3446
g67
(dp3447
sg76
g3401
sg69
(lp3448
g62
(g83
g64
NtRp3449
(dp3450
g67
(dp3451
g87
g88
ssg76
g3445
sg69
(lp3452
g341
asbag62
(g83
g64
NtRp3453
(dp3454
g67
(dp3455
g94
g95
ssg76
g3445
sg69
(lp3456
S':'
asbag62
(g83
g64
NtRp3457
(dp3458
g67
(dp3459
sg76
g3445
sg69
(lp3460
g62
(g63
g64
NtRp3461
(dp3462
g67
(dp3463
g75
I3
ssg76
g3457
sg69
(lp3464
S''
asbasbasbag62
(g78
g64
NtRp3465
(dp3466
g67
(dp3467
sg76
g3401
sg69
(lp3468
g62
(g83
g64
NtRp3469
(dp3470
g67
(dp3471
g87
g88
ssg76
g3465
sg69
(lp3472
g362
asbag62
(g83
g64
NtRp3473
(dp3474
g67
(dp3475
g94
g95
ssg76
g3465
sg69
(lp3476
S':'
asbag62
(g83
g64
NtRp3477
(dp3478
g67
(dp3479
sg76
g3465
sg69
(lp3480
g62
(g63
g64
NtRp3481
(dp3482
g67
(dp3483
g75
I3
ssg76
g3477
sg69
(lp3484
S''
asbasbasbag62
(g78
g64
NtRp3485
(dp3486
g67
(dp3487
sg76
g3401
sg69
(lp3488
g62
(g83
g64
NtRp3489
(dp3490
g67
(dp3491
g87
g88
ssg76
g3485
sg69
(lp3492
g383
asbag62
(g83
g64
NtRp3493
(dp3494
g67
(dp3495
g94
g95
ssg76
g3485
sg69
(lp3496
S':'
asbag62
(g83
g64
NtRp3497
(dp3498
g67
(dp3499
sg76
g3485
sg69
(lp3500
g62
(g63
g64
NtRp3501
(dp3502
g67
(dp3503
g75
I3
ssg76
g3497
sg69
(lp3504
S''
asbasbasbag62
(g78
g64
NtRp3505
(dp3506
g67
(dp3507
sg76
g3401
sg69
(lp3508
g62
(g83
g64
NtRp3509
(dp3510
g67
(dp3511
g87
g88
ssg76
g3505
sg69
(lp3512
g404
asbag62
(g83
g64
NtRp3513
(dp3514
g67
(dp3515
g94
g95
ssg76
g3505
sg69
(lp3516
S':'
asbag62
(g83
g64
NtRp3517
(dp3518
g67
(dp3519
sg76
g3505
sg69
(lp3520
g62
(g63
g64
NtRp3521
(dp3522
g67
(dp3523
g75
I3
ssg76
g3517
sg69
(lp3524
S'/'
asbasbasbag62
(g78
g64
NtRp3525
(dp3526
g67
(dp3527
sg76
g3401
sg69
(lp3528
g62
(g83
g64
NtRp3529
(dp3530
g67
(dp3531
g87
g88
ssg76
g3525
sg69
(lp3532
g425
asbag62
(g83
g64
NtRp3533
(dp3534
g67
(dp3535
g94
g95
ssg76
g3525
sg69
(lp3536
S':'
asbag62
(g83
g64
NtRp3537
(dp3538
g67
(dp3539
sg76
g3525
sg69
(lp3540
g62
(g63
g64
NtRp3541
(dp3542
g67
(dp3543
g75
I3
ssg76
g3537
sg69
(lp3544
S''
asbasbasbag62
(g78
g64
NtRp3545
(dp3546
g67
(dp3547
sg76
g3401
sg69
(lp3548
g62
(g83
g64
NtRp3549
(dp3550
g67
(dp3551
g87
g88
ssg76
g3545
sg69
(lp3552
g446
asbag62
(g83
g64
NtRp3553
(dp3554
g67
(dp3555
g94
g95
ssg76
g3545
sg69
(lp3556
S':'
asbag62
(g83
g64
NtRp3557
(dp3558
g67
(dp3559
sg76
g3545
sg69
(lp3560
g62
(g63
g64
NtRp3561
(dp3562
g67
(dp3563
g75
I3
ssg76
g3557
sg69
(lp3564
S''
asbasbasbasbasbasbasbasbasbasbasbag62
(g78
g64
NtRp3565
(dp3566
g67
(dp3567
sg76
g3331
sg69
(lp3568
g62
(g83
g64
NtRp3569
(dp3570
g67
(dp3571
g87
g88
ssg76
g3565
sg69
(lp3572
S'delimiters'
p3573
asbag62
(g83
g64
NtRp3574
(dp3575
g67
(dp3576
g94
g95
ssg76
g3565
sg69
(lp3577
S':'
asbag62
(g83
g64
NtRp3578
(dp3579
g67
(dp3580
sg76
g3565
sg69
(lp3581
g62
(g63
g64
NtRp3582
(dp3583
g67
(dp3584
g75
I5
ssg76
g3578
sg69
(lp3585
g62
(g71
g64
NtRp3586
(dp3587
g67
(dp3588
g75
I4
ssg76
Nsg69
(lp3589
g62
(g78
g64
NtRp3590
(dp3591
g67
(dp3592
sg76
g3586
sg69
(lp3593
g62
(g83
g64
NtRp3594
(dp3595
g67
(dp3596
sg76
g3590
sg69
(lp3597
g62
(g63
g64
NtRp3598
(dp3599
g67
(dp3600
g75
I4
ssg76
g3594
sg69
(lp3601
S'{{'
p3602
asbasbasbag62
(g78
g64
NtRp3603
(dp3604
g67
(dp3605
sg76
g3586
sg69
(lp3606
g62
(g83
g64
NtRp3607
(dp3608
g67
(dp3609
sg76
g3603
sg69
(lp3610
g62
(g63
g64
NtRp3611
(dp3612
g67
(dp3613
g75
I4
ssg76
g3607
sg69
(lp3614
S'}}'
p3615
asbasbasbasbasbasbasbag62
(g78
g64
NtRp3616
(dp3617
g67
(dp3618
sg76
g3331
sg69
(lp3619
g62
(g83
g64
NtRp3620
(dp3621
g67
(dp3622
g87
g88
ssg76
g3616
sg69
(lp3623
S'files'
p3624
asbag62
(g83
g64
NtRp3625
(dp3626
g67
(dp3627
g94
g95
ssg76
g3616
sg69
(lp3628
S':'
asbag62
(g83
g64
NtRp3629
(dp3630
g67
(dp3631
sg76
g3616
sg69
(lp3632
g62
(g63
g64
NtRp3633
(dp3634
g67
(dp3635
g75
I5
ssg76
g3629
sg69
(lp3636
g62
(g71
g64
NtRp3637
(dp3638
g67
(dp3639
g75
I4
ssg76
Nsg69
(lp3640
sbasbasbasbag62
(g78
g64
NtRp3641
(dp3642
g67
(dp3643
sg76
g3331
sg69
(lp3644
g62
(g83
g64
NtRp3645
(dp3646
g67
(dp3647
g87
g88
ssg76
g3641
sg69
(lp3648
S'flash'
p3649
asbag62
(g83
g64
NtRp3650
(dp3651
g67
(dp3652
g94
g95
ssg76
g3641
sg69
(lp3653
S':'
asbag62
(g83
g64
NtRp3654
(dp3655
g67
(dp3656
sg76
g3641
sg69
(lp3657
g62
(g63
g64
NtRp3658
(dp3659
g67
(dp3660
g75
I5
ssg76
g3654
sg69
(lp3661
S''
asbasbasbag62
(g78
g64
NtRp3662
(dp3663
g67
(dp3664
sg76
g3331
sg69
(lp3665
g62
(g83
g64
NtRp3666
(dp3667
g67
(dp3668
g87
g88
ssg76
g3662
sg69
(lp3669
S'generic_patterns'
p3670
asbag62
(g83
g64
NtRp3671
(dp3672
g67
(dp3673
g94
g95
ssg76
g3662
sg69
(lp3674
S':'
asbag62
(g83
g64
NtRp3675
(dp3676
g67
(dp3677
sg76
g3662
sg69
(lp3678
g62
(g63
g64
NtRp3679
(dp3680
g67
(dp3681
g75
I5
ssg76
g3675
sg69
(lp3682
g62
(g71
g64
NtRp3683
(dp3684
g67
(dp3685
g75
I4
ssg76
Nsg69
(lp3686
sbasbasbasbag62
(g78
g64
NtRp3687
(dp3688
g67
(dp3689
sg76
g3331
sg69
(lp3690
g62
(g83
g64
NtRp3691
(dp3692
g67
(dp3693
g87
g88
ssg76
g3687
sg69
(lp3694
S'headers'
p3695
asbag62
(g83
g64
NtRp3696
(dp3697
g67
(dp3698
g94
g95
ssg76
g3687
sg69
(lp3699
S':'
asbag62
(g83
g64
NtRp3700
(dp3701
g67
(dp3702
sg76
g3687
sg69
(lp3703
g62
(g63
g64
NtRp3704
(dp3705
g67
(dp3706
g75
I5
ssg76
g3700
sg69
(lp3707
g62
(g71
g64
NtRp3708
(dp3709
g67
(dp3710
g75
I4
ssg76
Nsg69
(lp3711
g62
(g78
g64
NtRp3712
(dp3713
g67
(dp3714
sg76
g3708
sg69
(lp3715
g62
(g83
g64
NtRp3716
(dp3717
g67
(dp3718
g87
g88
ssg76
g3712
sg69
(lp3719
S'X-Powered-By'
p3720
asbag62
(g83
g64
NtRp3721
(dp3722
g67
(dp3723
g94
g95
ssg76
g3712
sg69
(lp3724
S':'
asbag62
(g83
g64
NtRp3725
(dp3726
g67
(dp3727
sg76
g3712
sg69
(lp3728
g62
(g63
g64
NtRp3729
(dp3730
g67
(dp3731
g75
I4
ssg76
g3725
sg69
(lp3732
S'web2py'
p3733
asbasbasbasbasbasbasbag62
(g78
g64
NtRp3734
(dp3735
g67
(dp3736
sg76
g3331
sg69
(lp3737
g62
(g83
g64
NtRp3738
(dp3739
g67
(dp3740
g87
g88
ssg76
g3734
sg69
(lp3741
S'menu'
p3742
asbag62
(g83
g64
NtRp3743
(dp3744
g67
(dp3745
g94
g95
ssg76
g3734
sg69
(lp3746
S':'
asbag62
(g83
g64
NtRp3747
(dp3748
g67
(dp3749
sg76
g3734
sg69
(lp3750
g62
(g63
g64
NtRp3751
(dp3752
g67
(dp3753
g75
I5
ssg76
g3747
sg69
(lp3754
g62
(g71
g64
NtRp3755
(dp3756
g67
(dp3757
g75
I4
ssg76
Nsg69
(lp3758
sbasbasbasbag62
(g78
g64
NtRp3759
(dp3760
g67
(dp3761
sg76
g3331
sg69
(lp3762
g62
(g83
g64
NtRp3763
(dp3764
g67
(dp3765
g87
g88
ssg76
g3759
sg69
(lp3766
S'meta'
p3767
asbag62
(g83
g64
NtRp3768
(dp3769
g67
(dp3770
g94
g95
ssg76
g3759
sg69
(lp3771
S':'
asbag62
(g83
g64
NtRp3772
(dp3773
g67
(dp3774
sg76
g3759
sg69
(lp3775
g62
(g63
g64
NtRp3776
(dp3777
g67
(dp3778
g75
I5
ssg76
g3772
sg69
(lp3779
g62
(g71
g64
NtRp3780
(dp3781
g67
(dp3782
g75
I4
ssg76
Nsg69
(lp3783
sbasbasbasbag62
(g78
g64
NtRp3784
(dp3785
g67
(dp3786
sg76
g3331
sg69
(lp3787
g62
(g83
g64
NtRp3788
(dp3789
g67
(dp3790
g87
g88
ssg76
g3784
sg69
(lp3791
S'models_to_run'
p3792
asbag62
(g83
g64
NtRp3793
(dp3794
g67
(dp3795
g94
g95
ssg76
g3784
sg69
(lp3796
S':'
asbag62
(g83
g64
NtRp3797
(dp3798
g67
(dp3799
sg76
g3784
sg69
(lp3800
g62
(g63
g64
NtRp3801
(dp3802
g67
(dp3803
g75
I5
ssg76
g3797
sg69
(lp3804
g62
(g71
g64
NtRp3805
(dp3806
g67
(dp3807
g75
I4
ssg76
Nsg69
(lp3808
g62
(g78
g64
NtRp3809
(dp3810
g67
(dp3811
sg76
g3805
sg69
(lp3812
g62
(g83
g64
NtRp3813
(dp3814
g67
(dp3815
sg76
g3809
sg69
(lp3816
g62
(g63
g64
NtRp3817
(dp3818
g67
(dp3819
g75
I4
ssg76
g3813
sg69
(lp3820
S'^\\w+\\.py$'
p3821
asbasbasbag62
(g78
g64
NtRp3822
(dp3823
g67
(dp3824
sg76
g3805
sg69
(lp3825
g62
(g83
g64
NtRp3826
(dp3827
g67
(dp3828
sg76
g3822
sg69
(lp3829
g62
(g63
g64
NtRp3830
(dp3831
g67
(dp3832
g75
I4
ssg76
g3826
sg69
(lp3833
S'^main/\\w+\\.py$'
p3834
asbasbasbag62
(g78
g64
NtRp3835
(dp3836
g67
(dp3837
sg76
g3805
sg69
(lp3838
g62
(g83
g64
NtRp3839
(dp3840
g67
(dp3841
sg76
g3835
sg69
(lp3842
g62
(g63
g64
NtRp3843
(dp3844
g67
(dp3845
g75
I4
ssg76
g3839
sg69
(lp3846
S'^main/login/\\w+\\.py$'
p3847
asbasbasbasbasbasbasbag62
(g78
g64
NtRp3848
(dp3849
g67
(dp3850
sg76
g3331
sg69
(lp3851
g62
(g83
g64
NtRp3852
(dp3853
g67
(dp3854
g87
g88
ssg76
g3848
sg69
(lp3855
S'postprocessing'
p3856
asbag62
(g83
g64
NtRp3857
(dp3858
g67
(dp3859
g94
g95
ssg76
g3848
sg69
(lp3860
S':'
asbag62
(g83
g64
NtRp3861
(dp3862
g67
(dp3863
sg76
g3848
sg69
(lp3864
g62
(g63
g64
NtRp3865
(dp3866
g67
(dp3867
g75
I5
ssg76
g3861
sg69
(lp3868
g62
(g71
g64
NtRp3869
(dp3870
g67
(dp3871
g75
I4
ssg76
Nsg69
(lp3872
sbasbasbasbag62
(g78
g64
NtRp3873
(dp3874
g67
(dp3875
sg76
g3331
sg69
(lp3876
g62
(g83
g64
NtRp3877
(dp3878
g67
(dp3879
g87
g88
ssg76
g3873
sg69
(lp3880
S'session_cookie_expires'
p3881
asbag62
(g83
g64
NtRp3882
(dp3883
g67
(dp3884
g94
g95
ssg76
g3873
sg69
(lp3885
S':'
asbag62
(g83
g64
NtRp3886
(dp3887
g67
(dp3888
sg76
g3873
sg69
(lp3889
g62
(g63
g64
NtRp3890
(dp3891
g67
(dp3892
g75
I5
ssg76
g3886
sg69
(lp3893
S'None'
p3894
asbasbasbag62
(g78
g64
NtRp3895
(dp3896
g67
(dp3897
sg76
g3331
sg69
(lp3898
g62
(g83
g64
NtRp3899
(dp3900
g67
(dp3901
g87
g88
ssg76
g3895
sg69
(lp3902
S'session_data_name'
p3903
asbag62
(g83
g64
NtRp3904
(dp3905
g67
(dp3906
g94
g95
ssg76
g3895
sg69
(lp3907
S':'
asbag62
(g83
g64
NtRp3908
(dp3909
g67
(dp3910
sg76
g3895
sg69
(lp3911
g62
(g63
g64
NtRp3912
(dp3913
g67
(dp3914
g75
I5
ssg76
g3908
sg69
(lp3915
S'session_data_cygnuscloud'
p3916
asbasbasbag62
(g78
g64
NtRp3917
(dp3918
g67
(dp3919
sg76
g3331
sg69
(lp3920
g62
(g83
g64
NtRp3921
(dp3922
g67
(dp3923
g87
g88
ssg76
g3917
sg69
(lp3924
S'session_file'
p3925
asbag62
(g83
g64
NtRp3926
(dp3927
g67
(dp3928
g94
g95
ssg76
g3917
sg69
(lp3929
S':'
asbag62
(g83
g64
NtRp3930
(dp3931
g67
(dp3932
sg76
g3917
sg69
(lp3933
g62
(g63
g64
NtRp3934
(dp3935
g67
(dp3936
g75
I5
ssg76
g3930
sg69
(lp3937
S"<open file '/home/adrian/web2py/applications/CygnusCloud/sessions/127.0.0.1-791acaf2-7386-46dc-b011-4810dc00037c', mode 'rb+' at 0x7f138045e030>"
p3938
asbasbasbag62
(g78
g64
NtRp3939
(dp3940
g67
(dp3941
sg76
g3331
sg69
(lp3942
g62
(g83
g64
NtRp3943
(dp3944
g67
(dp3945
g87
g88
ssg76
g3939
sg69
(lp3946
S'session_filename'
p3947
asbag62
(g83
g64
NtRp3948
(dp3949
g67
(dp3950
g94
g95
ssg76
g3939
sg69
(lp3951
S':'
asbag62
(g83
g64
NtRp3952
(dp3953
g67
(dp3954
sg76
g3939
sg69
(lp3955
g62
(g63
g64
NtRp3956
(dp3957
g67
(dp3958
g75
I5
ssg76
g3952
sg69
(lp3959
S'/home/adrian/web2py/applications/CygnusCloud/sessions/127.0.0.1-791acaf2-7386-46dc-b011-4810dc00037c'
p3960
asbasbasbag62
(g78
g64
NtRp3961
(dp3962
g67
(dp3963
sg76
g3331
sg69
(lp3964
g62
(g83
g64
NtRp3965
(dp3966
g67
(dp3967
g87
g88
ssg76
g3961
sg69
(lp3968
S'session_id'
p3969
asbag62
(g83
g64
NtRp3970
(dp3971
g67
(dp3972
g94
g95
ssg76
g3961
sg69
(lp3973
S':'
asbag62
(g83
g64
NtRp3974
(dp3975
g67
(dp3976
sg76
g3961
sg69
(lp3977
g62
(g63
g64
NtRp3978
(dp3979
g67
(dp3980
g75
I5
ssg76
g3974
sg69
(lp3981
g480
asbasbasbag62
(g78
g64
NtRp3982
(dp3983
g67
(dp3984
sg76
g3331
sg69
(lp3985
g62
(g83
g64
NtRp3986
(dp3987
g67
(dp3988
g87
g88
ssg76
g3982
sg69
(lp3989
S'session_id_name'
p3990
asbag62
(g83
g64
NtRp3991
(dp3992
g67
(dp3993
g94
g95
ssg76
g3982
sg69
(lp3994
S':'
asbag62
(g83
g64
NtRp3995
(dp3996
g67
(dp3997
sg76
g3982
sg69
(lp3998
g62
(g63
g64
NtRp3999
(dp4000
g67
(dp4001
g75
I5
ssg76
g3995
sg69
(lp4002
g3388
asbasbasbag62
(g78
g64
NtRp4003
(dp4004
g67
(dp4005
sg76
g3331
sg69
(lp4006
g62
(g83
g64
NtRp4007
(dp4008
g67
(dp4009
g87
g88
ssg76
g4003
sg69
(lp4010
S'session_locked'
p4011
asbag62
(g83
g64
NtRp4012
(dp4013
g67
(dp4014
g94
g95
ssg76
g4003
sg69
(lp4015
S':'
asbag62
(g83
g64
NtRp4016
(dp4017
g67
(dp4018
sg76
g4003
sg69
(lp4019
g62
(g63
g64
NtRp4020
(dp4021
g67
(dp4022
g75
I5
ssg76
g4016
sg69
(lp4023
g1796
asbasbasbag62
(g78
g64
NtRp4024
(dp4025
g67
(dp4026
sg76
g3331
sg69
(lp4027
g62
(g83
g64
NtRp4028
(dp4029
g67
(dp4030
g87
g88
ssg76
g4024
sg69
(lp4031
S'session_new'
p4032
asbag62
(g83
g64
NtRp4033
(dp4034
g67
(dp4035
g94
g95
ssg76
g4024
sg69
(lp4036
S':'
asbag62
(g83
g64
NtRp4037
(dp4038
g67
(dp4039
sg76
g4024
sg69
(lp4040
g62
(g63
g64
NtRp4041
(dp4042
g67
(dp4043
g75
I5
ssg76
g4037
sg69
(lp4044
g105
asbasbasbag62
(g78
g64
NtRp4045
(dp4046
g67
(dp4047
sg76
g3331
sg69
(lp4048
g62
(g83
g64
NtRp4049
(dp4050
g67
(dp4051
g87
g88
ssg76
g4045
sg69
(lp4052
S'session_storage_type'
p4053
asbag62
(g83
g64
NtRp4054
(dp4055
g67
(dp4056
g94
g95
ssg76
g4045
sg69
(lp4057
S':'
asbag62
(g83
g64
NtRp4058
(dp4059
g67
(dp4060
sg76
g4045
sg69
(lp4061
g62
(g63
g64
NtRp4062
(dp4063
g67
(dp4064
g75
I5
ssg76
g4058
sg69
(lp4065
g3248
asbasbasbag62
(g78
g64
NtRp4066
(dp4067
g67
(dp4068
sg76
g3331
sg69
(lp4069
g62
(g83
g64
NtRp4070
(dp4071
g67
(dp4072
g87
g88
ssg76
g4066
sg69
(lp4073
S'status'
p4074
asbag62
(g83
g64
NtRp4075
(dp4076
g67
(dp4077
g94
g95
ssg76
g4066
sg69
(lp4078
S':'
asbag62
(g83
g64
NtRp4079
(dp4080
g67
(dp4081
sg76
g4066
sg69
(lp4082
g62
(g63
g64
NtRp4083
(dp4084
g67
(dp4085
g75
I5
ssg76
g4079
sg69
(lp4086
S'200'
p4087
asbasbasbag62
(g78
g64
NtRp4088
(dp4089
g67
(dp4090
sg76
g3331
sg69
(lp4091
g62
(g83
g64
NtRp4092
(dp4093
g67
(dp4094
g87
g88
ssg76
g4088
sg69
(lp4095
S'view'
p4096
asbag62
(g83
g64
NtRp4097
(dp4098
g67
(dp4099
g94
g95
ssg76
g4088
sg69
(lp4100
S':'
asbag62
(g83
g64
NtRp4101
(dp4102
g67
(dp4103
sg76
g4088
sg69
(lp4104
g62
(g63
g64
NtRp4105
(dp4106
g67
(dp4107
g75
I5
ssg76
g4101
sg69
(lp4108
S'main/login.html'
p4109
asbasbasbasbasbsS'locals'
p4110
(dp4111
S'username'
p4112
S"'CygnusCloud'"
p4113
sS'database'
p4114
S"'userDB'"
p4115
sS'sqlFilePath'
p4116
S"'../../private/WebServerDB.sql'"
p4117
sS'self'
p4118
S'<applications.CygnusCloud.modules.configuration.DBConfigurator object>'
p4119
sS'db'
p4120
S"<_mysql.connection open to 'localhost' at 7f13700a62a0>"
p4121
sS'cursor'
p4122
S'<MySQLdb.cursors.Cursor object>'
p4123
sS'password'
p4124
S"'cygnuscloud2012'"
p4125
sssS'traceback'
p4126
S'Traceback (most recent call last):\n  File "/home/adrian/web2py/gluon/restricted.py", line 212, in restricted\n    exec ccode in environment\n  File "/home/adrian/web2py/applications/CygnusCloud/models/db.py", line 7, in <module>\n    conf.runSQLScript(\'userDB\',\'../../private/WebServerDB.sql\',\'CygnusCloud\',\'cygnuscloud2012\')\n  File "applications/CygnusCloud/modules/configuration.py", line 78, in runSQLScript\n    fp = open(sqlFilePath)\nIOError: [Errno 2] No such file or directory: \'../../private/WebServerDB.sql\'\n'
p4127
s.