(dp1
S'output'
p2
S"<class '_mysql_exceptions.IntegrityError'> (1452, 'Cannot add or update a child row: a foreign key constraint fails (`UseresDB`.`auth_event`, CONSTRAINT `auth_event_ibfk_1` FOREIGN KEY (`user_id`) REFERENCES `auth_user` (`id`) ON DELETE CASCADE)')"
p3
sS'layer'
p4
S'/home/adrian/web2py/applications/CygnusCloud/models/db.py'
p5
sS'code'
p6
S"# -*- coding: utf-8 -*-\nfrom configuration import DBConfigurator\nfrom gluon.tools import Auth\n\nconf = DBConfigurator('170590ucm')\nconf.createDatabase('UseresDB')\n#conf.addUser('CygnusCloud','cygnuscloud2012', 'UserDB')\nuserDB = DAL('mysql://CygnusCloud:cygnuscloud2012@localhost/UseresDB',migrate_enabled=True, pool_size=0)\n\n# Autentication\n\nauth = Auth(userDB)\nauth.define_tables(migrate = True)\n\n\nuserDB.auth_user.email.requires = IS_NOT_IN_DB(userDB, userDB.auth_user.email)\n\n\n\n\nuserDB.define_table('UserGroup',\n   Field('yearGroup','integer', 'reference Users'),\n   Field('cod','integer','reference subjects'),\n   Field('curse','integer'),\n   Field('curseGroup', length=1),\n   primarykey=['cod','curseGroup'],migrate= True)\n\nuserDB.define_table('ClassGroup',\n   Field('userId','integer', 'reference auth_user' ),\n   Field('cod','integer','reference UserGroup'),\n   Field('curseGroup','reference UserGroup',length=1 ),\n   primarykey=['cod','curseGroup','userId'],migrate= True)\n\nuserDB.define_table('Subjects',\n   Field('code','integer'),\n   Field('name',length=15),migrate= True)\n\n\n\nuserDB.define_table('VMByGroup',\n   Field('VMName',length=20),\n   Field('cod','integer','reference UserGroup'),\n   Field('curseGroup','reference UserGroup',length=1 ),\n   primarykey=['cod','curseGroup','VMName'],migrate= True)\n\n#Usuario de prueba\n#u1 = userDB.auth_user.insert(password = userDB.auth_user.password.validate('1234')[0],email = 'Admin1@ucm.es',first_name='Bertoldo',last_name='Pedralbes')\n#A\xc3\xb1adimos los grupos\nauth.add_group('Student', 'Only run virtual machines available')\n#auth.add_group('Administrator', 'All privilages available')\n#Enlazamos los usuarios a los grupos\n#auth.add_membership('Administrator',u1)\nprint userDB.tables\n"
p7
sS'snapshot'
p8
(dp9
S'exception'
p10
(dp11
S'__module__'
p12
S"'_mysql_exceptions'"
p13
sS'__getslice__'
p14
S"<method-wrapper '__getslice__' of IntegrityError object>"
p15
sS'__str__'
p16
S"<method-wrapper '__str__' of IntegrityError object>"
p17
sS'__reduce__'
p18
S'<built-in method __reduce__ of IntegrityError object>'
p19
sS'__dict__'
p20
S'{}'
p21
sS'__sizeof__'
p22
S'<built-in method __sizeof__ of IntegrityError object>'
p23
sS'__weakref__'
p24
S'None'
p25
sS'__init__'
p26
S"<method-wrapper '__init__' of IntegrityError object>"
p27
sS'__setattr__'
p28
S"<method-wrapper '__setattr__' of IntegrityError object>"
p29
sS'__reduce_ex__'
p30
S'<built-in method __reduce_ex__ of IntegrityError object>'
p31
sS'__new__'
p32
S'<built-in method __new__ of type object>'
p33
sS'__format__'
p34
S'<built-in method __format__ of IntegrityError object>'
p35
sS'__class__'
p36
S"<class '_mysql_exceptions.IntegrityError'>"
p37
sS'__doc__'
p38
S"'Exception raised when the relational integrity o... foreign key check fails, duplicate key,\\n    etc.'"
p39
sS'__getitem__'
p40
S"<method-wrapper '__getitem__' of IntegrityError object>"
p41
sS'__setstate__'
p42
S'<built-in method __setstate__ of IntegrityError object>'
p43
sS'__getattribute__'
p44
S"<method-wrapper '__getattribute__' of IntegrityError object>"
p45
sS'args'
p46
S"(1452, 'Cannot add or update a child row: a foreign key ... REFERENCES `auth_user` (`id`) ON DELETE CASCADE)')"
p47
sS'__subclasshook__'
p48
S'<built-in method __subclasshook__ of type object>'
p49
sS'__unicode__'
p50
S'<built-in method __unicode__ of IntegrityError object>'
p51
sS'__delattr__'
p52
S"<method-wrapper '__delattr__' of IntegrityError object>"
p53
sS'__repr__'
p54
S"<method-wrapper '__repr__' of IntegrityError object>"
p55
sS'__hash__'
p56
S"<method-wrapper '__hash__' of IntegrityError object>"
p57
ssS'evalue'
p58
S"(1452, 'Cannot add or update a child row: a foreign key constraint fails (`UseresDB`.`auth_event`, CONSTRAINT `auth_event_ibfk_1` FOREIGN KEY (`user_id`) REFERENCES `auth_user` (`id`) ON DELETE CASCADE)')"
p59
sS'request'
p60
ccopy_reg
_reconstructor
p61
(cgluon.html
BEAUTIFY
p62
c__builtin__
object
p63
NtRp64
(dp65
S'attributes'
p66
(dp67
sS'components'
p68
(lp69
g61
(cgluon.html
TABLE
p70
g63
NtRp71
(dp72
g66
(dp73
S'level'
p74
I5
ssS'parent'
p75
Nsg68
(lp76
g61
(cgluon.html
TR
p77
g63
NtRp78
(dp79
g66
(dp80
sg75
g71
sg68
(lp81
g61
(cgluon.html
TD
p82
g63
NtRp83
(dp84
g66
(dp85
S'_style'
p86
S'font-weight:bold;vertical-align:top'
p87
ssg75
g78
sg68
(lp88
S'ajax'
p89
asbag61
(g82
g63
NtRp90
(dp91
g66
(dp92
S'_valign'
p93
S'top'
p94
ssg75
g78
sg68
(lp95
S':'
asbag61
(g82
g63
NtRp96
(dp97
g66
(dp98
sg75
g78
sg68
(lp99
g61
(g62
g63
NtRp100
(dp101
g66
(dp102
g74
I5
ssg75
g96
sg68
(lp103
S'False'
p104
asbasbasbag61
(g77
g63
NtRp105
(dp106
g66
(dp107
sg75
g71
sg68
(lp108
g61
(g82
g63
NtRp109
(dp110
g66
(dp111
g86
g87
ssg75
g105
sg68
(lp112
S'application'
p113
asbag61
(g82
g63
NtRp114
(dp115
g66
(dp116
g93
g94
ssg75
g105
sg68
(lp117
S':'
asbag61
(g82
g63
NtRp118
(dp119
g66
(dp120
sg75
g105
sg68
(lp121
g61
(g62
g63
NtRp122
(dp123
g66
(dp124
g74
I5
ssg75
g118
sg68
(lp125
S'CygnusCloud'
p126
asbasbasbag61
(g77
g63
NtRp127
(dp128
g66
(dp129
sg75
g71
sg68
(lp130
g61
(g82
g63
NtRp131
(dp132
g66
(dp133
g86
g87
ssg75
g127
sg68
(lp134
g46
asbag61
(g82
g63
NtRp135
(dp136
g66
(dp137
g93
g94
ssg75
g127
sg68
(lp138
S':'
asbag61
(g82
g63
NtRp139
(dp140
g66
(dp141
sg75
g127
sg68
(lp142
g61
(g62
g63
NtRp143
(dp144
g66
(dp145
g74
I5
ssg75
g139
sg68
(lp146
g61
(g70
g63
NtRp147
(dp148
g66
(dp149
g74
I4
ssg75
Nsg68
(lp150
g61
(g77
g63
NtRp151
(dp152
g66
(dp153
sg75
g147
sg68
(lp154
g61
(g82
g63
NtRp155
(dp156
g66
(dp157
sg75
g151
sg68
(lp158
g61
(g62
g63
NtRp159
(dp160
g66
(dp161
g74
I4
ssg75
g155
sg68
(lp162
S'userDB'
p163
asbasbasbasbasbasbasbag61
(g77
g63
NtRp164
(dp165
g66
(dp166
sg75
g71
sg68
(lp167
g61
(g82
g63
NtRp168
(dp169
g66
(dp170
g86
g87
ssg75
g164
sg68
(lp171
S'body'
p172
asbag61
(g82
g63
NtRp173
(dp174
g66
(dp175
g93
g94
ssg75
g164
sg68
(lp176
S':'
asbag61
(g82
g63
NtRp177
(dp178
g66
(dp179
sg75
g164
sg68
(lp180
g61
(g62
g63
NtRp181
(dp182
g66
(dp183
g74
I5
ssg75
g177
sg68
(lp184
S'<cStringIO.StringO object at 0x7f236c346420>'
p185
asbasbasbag61
(g77
g63
NtRp186
(dp187
g66
(dp188
sg75
g71
sg68
(lp189
g61
(g82
g63
NtRp190
(dp191
g66
(dp192
g86
g87
ssg75
g186
sg68
(lp193
S'cid'
p194
asbag61
(g82
g63
NtRp195
(dp196
g66
(dp197
g93
g94
ssg75
g186
sg68
(lp198
S':'
asbag61
(g82
g63
NtRp199
(dp200
g66
(dp201
sg75
g186
sg68
(lp202
g61
(g62
g63
NtRp203
(dp204
g66
(dp205
g74
I5
ssg75
g199
sg68
(lp206
S'None'
p207
asbasbasbag61
(g77
g63
NtRp208
(dp209
g66
(dp210
sg75
g71
sg68
(lp211
g61
(g82
g63
NtRp212
(dp213
g66
(dp214
g86
g87
ssg75
g208
sg68
(lp215
S'client'
p216
asbag61
(g82
g63
NtRp217
(dp218
g66
(dp219
g93
g94
ssg75
g208
sg68
(lp220
S':'
asbag61
(g82
g63
NtRp221
(dp222
g66
(dp223
sg75
g208
sg68
(lp224
g61
(g62
g63
NtRp225
(dp226
g66
(dp227
g74
I5
ssg75
g221
sg68
(lp228
S'127.0.0.1'
p229
asbasbasbag61
(g77
g63
NtRp230
(dp231
g66
(dp232
sg75
g71
sg68
(lp233
g61
(g82
g63
NtRp234
(dp235
g66
(dp236
g86
g87
ssg75
g230
sg68
(lp237
S'controller'
p238
asbag61
(g82
g63
NtRp239
(dp240
g66
(dp241
g93
g94
ssg75
g230
sg68
(lp242
S':'
asbag61
(g82
g63
NtRp243
(dp244
g66
(dp245
sg75
g230
sg68
(lp246
g61
(g62
g63
NtRp247
(dp248
g66
(dp249
g74
I5
ssg75
g243
sg68
(lp250
S'appadmin'
p251
asbasbasbag61
(g77
g63
NtRp252
(dp253
g66
(dp254
sg75
g71
sg68
(lp255
g61
(g82
g63
NtRp256
(dp257
g66
(dp258
g86
g87
ssg75
g252
sg68
(lp259
S'cookies'
p260
asbag61
(g82
g63
NtRp261
(dp262
g66
(dp263
g93
g94
ssg75
g252
sg68
(lp264
S':'
asbag61
(g82
g63
NtRp265
(dp266
g66
(dp267
sg75
g252
sg68
(lp268
g61
(g62
g63
NtRp269
(dp270
g66
(dp271
g74
I5
ssg75
g265
sg68
(lp272
g61
(g70
g63
NtRp273
(dp274
g66
(dp275
g74
I4
ssg75
Nsg68
(lp276
g61
(g77
g63
NtRp277
(dp278
g66
(dp279
sg75
g273
sg68
(lp280
g61
(g82
g63
NtRp281
(dp282
g66
(dp283
g86
g87
ssg75
g277
sg68
(lp284
S'session_id_admin'
p285
asbag61
(g82
g63
NtRp286
(dp287
g66
(dp288
g93
g94
ssg75
g277
sg68
(lp289
S':'
asbag61
(g82
g63
NtRp290
(dp291
g66
(dp292
sg75
g277
sg68
(lp293
g61
(g62
g63
NtRp294
(dp295
g66
(dp296
g74
I4
ssg75
g290
sg68
(lp297
S'127.0.0.1-55f52477-473c-42b8-b923-a29e2f1fa64b'
p298
ag61
(g70
g63
NtRp299
(dp300
g66
(dp301
g74
I3
ssg75
Nsg68
(lp302
g61
(g77
g63
NtRp303
(dp304
g66
(dp305
sg75
g299
sg68
(lp306
g61
(g82
g63
NtRp307
(dp308
g66
(dp309
g86
g87
ssg75
g303
sg68
(lp310
S'comment'
p311
asbag61
(g82
g63
NtRp312
(dp313
g66
(dp314
g93
g94
ssg75
g303
sg68
(lp315
S':'
asbag61
(g82
g63
NtRp316
(dp317
g66
(dp318
sg75
g303
sg68
(lp319
g61
(g62
g63
NtRp320
(dp321
g66
(dp322
g74
I3
ssg75
g316
sg68
(lp323
S''
asbasbasbag61
(g77
g63
NtRp324
(dp325
g66
(dp326
sg75
g299
sg68
(lp327
g61
(g82
g63
NtRp328
(dp329
g66
(dp330
g86
g87
ssg75
g324
sg68
(lp331
S'domain'
p332
asbag61
(g82
g63
NtRp333
(dp334
g66
(dp335
g93
g94
ssg75
g324
sg68
(lp336
S':'
asbag61
(g82
g63
NtRp337
(dp338
g66
(dp339
sg75
g324
sg68
(lp340
g61
(g62
g63
NtRp341
(dp342
g66
(dp343
g74
I3
ssg75
g337
sg68
(lp344
S''
asbasbasbag61
(g77
g63
NtRp345
(dp346
g66
(dp347
sg75
g299
sg68
(lp348
g61
(g82
g63
NtRp349
(dp350
g66
(dp351
g86
g87
ssg75
g345
sg68
(lp352
S'expires'
p353
asbag61
(g82
g63
NtRp354
(dp355
g66
(dp356
g93
g94
ssg75
g345
sg68
(lp357
S':'
asbag61
(g82
g63
NtRp358
(dp359
g66
(dp360
sg75
g345
sg68
(lp361
g61
(g62
g63
NtRp362
(dp363
g66
(dp364
g74
I3
ssg75
g358
sg68
(lp365
S''
asbasbasbag61
(g77
g63
NtRp366
(dp367
g66
(dp368
sg75
g299
sg68
(lp369
g61
(g82
g63
NtRp370
(dp371
g66
(dp372
g86
g87
ssg75
g366
sg68
(lp373
S'httponly'
p374
asbag61
(g82
g63
NtRp375
(dp376
g66
(dp377
g93
g94
ssg75
g366
sg68
(lp378
S':'
asbag61
(g82
g63
NtRp379
(dp380
g66
(dp381
sg75
g366
sg68
(lp382
g61
(g62
g63
NtRp383
(dp384
g66
(dp385
g74
I3
ssg75
g379
sg68
(lp386
S''
asbasbasbag61
(g77
g63
NtRp387
(dp388
g66
(dp389
sg75
g299
sg68
(lp390
g61
(g82
g63
NtRp391
(dp392
g66
(dp393
g86
g87
ssg75
g387
sg68
(lp394
S'max-age'
p395
asbag61
(g82
g63
NtRp396
(dp397
g66
(dp398
g93
g94
ssg75
g387
sg68
(lp399
S':'
asbag61
(g82
g63
NtRp400
(dp401
g66
(dp402
sg75
g387
sg68
(lp403
g61
(g62
g63
NtRp404
(dp405
g66
(dp406
g74
I3
ssg75
g400
sg68
(lp407
S''
asbasbasbag61
(g77
g63
NtRp408
(dp409
g66
(dp410
sg75
g299
sg68
(lp411
g61
(g82
g63
NtRp412
(dp413
g66
(dp414
g86
g87
ssg75
g408
sg68
(lp415
S'path'
p416
asbag61
(g82
g63
NtRp417
(dp418
g66
(dp419
g93
g94
ssg75
g408
sg68
(lp420
S':'
asbag61
(g82
g63
NtRp421
(dp422
g66
(dp423
sg75
g408
sg68
(lp424
g61
(g62
g63
NtRp425
(dp426
g66
(dp427
g74
I3
ssg75
g421
sg68
(lp428
S''
asbasbasbag61
(g77
g63
NtRp429
(dp430
g66
(dp431
sg75
g299
sg68
(lp432
g61
(g82
g63
NtRp433
(dp434
g66
(dp435
g86
g87
ssg75
g429
sg68
(lp436
S'secure'
p437
asbag61
(g82
g63
NtRp438
(dp439
g66
(dp440
g93
g94
ssg75
g429
sg68
(lp441
S':'
asbag61
(g82
g63
NtRp442
(dp443
g66
(dp444
sg75
g429
sg68
(lp445
g61
(g62
g63
NtRp446
(dp447
g66
(dp448
g74
I3
ssg75
g442
sg68
(lp449
S''
asbasbasbag61
(g77
g63
NtRp450
(dp451
g66
(dp452
sg75
g299
sg68
(lp453
g61
(g82
g63
NtRp454
(dp455
g66
(dp456
g86
g87
ssg75
g450
sg68
(lp457
S'version'
p458
asbag61
(g82
g63
NtRp459
(dp460
g66
(dp461
g93
g94
ssg75
g450
sg68
(lp462
S':'
asbag61
(g82
g63
NtRp463
(dp464
g66
(dp465
sg75
g450
sg68
(lp466
g61
(g62
g63
NtRp467
(dp468
g66
(dp469
g74
I3
ssg75
g463
sg68
(lp470
S''
asbasbasbasbasbasbasbag61
(g77
g63
NtRp471
(dp472
g66
(dp473
sg75
g273
sg68
(lp474
g61
(g82
g63
NtRp475
(dp476
g66
(dp477
g86
g87
ssg75
g471
sg68
(lp478
S'session_id_cygnuscloud'
p479
asbag61
(g82
g63
NtRp480
(dp481
g66
(dp482
g93
g94
ssg75
g471
sg68
(lp483
S':'
asbag61
(g82
g63
NtRp484
(dp485
g66
(dp486
sg75
g471
sg68
(lp487
g61
(g62
g63
NtRp488
(dp489
g66
(dp490
g74
I4
ssg75
g484
sg68
(lp491
S'127.0.0.1-791acaf2-7386-46dc-b011-4810dc00037c'
p492
ag61
(g70
g63
NtRp493
(dp494
g66
(dp495
g74
I3
ssg75
Nsg68
(lp496
g61
(g77
g63
NtRp497
(dp498
g66
(dp499
sg75
g493
sg68
(lp500
g61
(g82
g63
NtRp501
(dp502
g66
(dp503
g86
g87
ssg75
g497
sg68
(lp504
g311
asbag61
(g82
g63
NtRp505
(dp506
g66
(dp507
g93
g94
ssg75
g497
sg68
(lp508
S':'
asbag61
(g82
g63
NtRp509
(dp510
g66
(dp511
sg75
g497
sg68
(lp512
g61
(g62
g63
NtRp513
(dp514
g66
(dp515
g74
I3
ssg75
g509
sg68
(lp516
S''
asbasbasbag61
(g77
g63
NtRp517
(dp518
g66
(dp519
sg75
g493
sg68
(lp520
g61
(g82
g63
NtRp521
(dp522
g66
(dp523
g86
g87
ssg75
g517
sg68
(lp524
g332
asbag61
(g82
g63
NtRp525
(dp526
g66
(dp527
g93
g94
ssg75
g517
sg68
(lp528
S':'
asbag61
(g82
g63
NtRp529
(dp530
g66
(dp531
sg75
g517
sg68
(lp532
g61
(g62
g63
NtRp533
(dp534
g66
(dp535
g74
I3
ssg75
g529
sg68
(lp536
S''
asbasbasbag61
(g77
g63
NtRp537
(dp538
g66
(dp539
sg75
g493
sg68
(lp540
g61
(g82
g63
NtRp541
(dp542
g66
(dp543
g86
g87
ssg75
g537
sg68
(lp544
g353
asbag61
(g82
g63
NtRp545
(dp546
g66
(dp547
g93
g94
ssg75
g537
sg68
(lp548
S':'
asbag61
(g82
g63
NtRp549
(dp550
g66
(dp551
sg75
g537
sg68
(lp552
g61
(g62
g63
NtRp553
(dp554
g66
(dp555
g74
I3
ssg75
g549
sg68
(lp556
S''
asbasbasbag61
(g77
g63
NtRp557
(dp558
g66
(dp559
sg75
g493
sg68
(lp560
g61
(g82
g63
NtRp561
(dp562
g66
(dp563
g86
g87
ssg75
g557
sg68
(lp564
g374
asbag61
(g82
g63
NtRp565
(dp566
g66
(dp567
g93
g94
ssg75
g557
sg68
(lp568
S':'
asbag61
(g82
g63
NtRp569
(dp570
g66
(dp571
sg75
g557
sg68
(lp572
g61
(g62
g63
NtRp573
(dp574
g66
(dp575
g74
I3
ssg75
g569
sg68
(lp576
S''
asbasbasbag61
(g77
g63
NtRp577
(dp578
g66
(dp579
sg75
g493
sg68
(lp580
g61
(g82
g63
NtRp581
(dp582
g66
(dp583
g86
g87
ssg75
g577
sg68
(lp584
g395
asbag61
(g82
g63
NtRp585
(dp586
g66
(dp587
g93
g94
ssg75
g577
sg68
(lp588
S':'
asbag61
(g82
g63
NtRp589
(dp590
g66
(dp591
sg75
g577
sg68
(lp592
g61
(g62
g63
NtRp593
(dp594
g66
(dp595
g74
I3
ssg75
g589
sg68
(lp596
S''
asbasbasbag61
(g77
g63
NtRp597
(dp598
g66
(dp599
sg75
g493
sg68
(lp600
g61
(g82
g63
NtRp601
(dp602
g66
(dp603
g86
g87
ssg75
g597
sg68
(lp604
g416
asbag61
(g82
g63
NtRp605
(dp606
g66
(dp607
g93
g94
ssg75
g597
sg68
(lp608
S':'
asbag61
(g82
g63
NtRp609
(dp610
g66
(dp611
sg75
g597
sg68
(lp612
g61
(g62
g63
NtRp613
(dp614
g66
(dp615
g74
I3
ssg75
g609
sg68
(lp616
S''
asbasbasbag61
(g77
g63
NtRp617
(dp618
g66
(dp619
sg75
g493
sg68
(lp620
g61
(g82
g63
NtRp621
(dp622
g66
(dp623
g86
g87
ssg75
g617
sg68
(lp624
g437
asbag61
(g82
g63
NtRp625
(dp626
g66
(dp627
g93
g94
ssg75
g617
sg68
(lp628
S':'
asbag61
(g82
g63
NtRp629
(dp630
g66
(dp631
sg75
g617
sg68
(lp632
g61
(g62
g63
NtRp633
(dp634
g66
(dp635
g74
I3
ssg75
g629
sg68
(lp636
S''
asbasbasbag61
(g77
g63
NtRp637
(dp638
g66
(dp639
sg75
g493
sg68
(lp640
g61
(g82
g63
NtRp641
(dp642
g66
(dp643
g86
g87
ssg75
g637
sg68
(lp644
g458
asbag61
(g82
g63
NtRp645
(dp646
g66
(dp647
g93
g94
ssg75
g637
sg68
(lp648
S':'
asbag61
(g82
g63
NtRp649
(dp650
g66
(dp651
sg75
g637
sg68
(lp652
g61
(g62
g63
NtRp653
(dp654
g66
(dp655
g74
I3
ssg75
g649
sg68
(lp656
S''
asbasbasbasbasbasbasbag61
(g77
g63
NtRp657
(dp658
g66
(dp659
sg75
g273
sg68
(lp660
g61
(g82
g63
NtRp661
(dp662
g66
(dp663
g86
g87
ssg75
g657
sg68
(lp664
S'session_id_images'
p665
asbag61
(g82
g63
NtRp666
(dp667
g66
(dp668
g93
g94
ssg75
g657
sg68
(lp669
S':'
asbag61
(g82
g63
NtRp670
(dp671
g66
(dp672
sg75
g657
sg68
(lp673
g61
(g62
g63
NtRp674
(dp675
g66
(dp676
g74
I4
ssg75
g670
sg68
(lp677
S'127.0.0.1-86f6c98f-4fbb-4841-b606-44c0d90442c6'
p678
ag61
(g70
g63
NtRp679
(dp680
g66
(dp681
g74
I3
ssg75
Nsg68
(lp682
g61
(g77
g63
NtRp683
(dp684
g66
(dp685
sg75
g679
sg68
(lp686
g61
(g82
g63
NtRp687
(dp688
g66
(dp689
g86
g87
ssg75
g683
sg68
(lp690
g311
asbag61
(g82
g63
NtRp691
(dp692
g66
(dp693
g93
g94
ssg75
g683
sg68
(lp694
S':'
asbag61
(g82
g63
NtRp695
(dp696
g66
(dp697
sg75
g683
sg68
(lp698
g61
(g62
g63
NtRp699
(dp700
g66
(dp701
g74
I3
ssg75
g695
sg68
(lp702
S''
asbasbasbag61
(g77
g63
NtRp703
(dp704
g66
(dp705
sg75
g679
sg68
(lp706
g61
(g82
g63
NtRp707
(dp708
g66
(dp709
g86
g87
ssg75
g703
sg68
(lp710
g332
asbag61
(g82
g63
NtRp711
(dp712
g66
(dp713
g93
g94
ssg75
g703
sg68
(lp714
S':'
asbag61
(g82
g63
NtRp715
(dp716
g66
(dp717
sg75
g703
sg68
(lp718
g61
(g62
g63
NtRp719
(dp720
g66
(dp721
g74
I3
ssg75
g715
sg68
(lp722
S''
asbasbasbag61
(g77
g63
NtRp723
(dp724
g66
(dp725
sg75
g679
sg68
(lp726
g61
(g82
g63
NtRp727
(dp728
g66
(dp729
g86
g87
ssg75
g723
sg68
(lp730
g353
asbag61
(g82
g63
NtRp731
(dp732
g66
(dp733
g93
g94
ssg75
g723
sg68
(lp734
S':'
asbag61
(g82
g63
NtRp735
(dp736
g66
(dp737
sg75
g723
sg68
(lp738
g61
(g62
g63
NtRp739
(dp740
g66
(dp741
g74
I3
ssg75
g735
sg68
(lp742
S''
asbasbasbag61
(g77
g63
NtRp743
(dp744
g66
(dp745
sg75
g679
sg68
(lp746
g61
(g82
g63
NtRp747
(dp748
g66
(dp749
g86
g87
ssg75
g743
sg68
(lp750
g374
asbag61
(g82
g63
NtRp751
(dp752
g66
(dp753
g93
g94
ssg75
g743
sg68
(lp754
S':'
asbag61
(g82
g63
NtRp755
(dp756
g66
(dp757
sg75
g743
sg68
(lp758
g61
(g62
g63
NtRp759
(dp760
g66
(dp761
g74
I3
ssg75
g755
sg68
(lp762
S''
asbasbasbag61
(g77
g63
NtRp763
(dp764
g66
(dp765
sg75
g679
sg68
(lp766
g61
(g82
g63
NtRp767
(dp768
g66
(dp769
g86
g87
ssg75
g763
sg68
(lp770
g395
asbag61
(g82
g63
NtRp771
(dp772
g66
(dp773
g93
g94
ssg75
g763
sg68
(lp774
S':'
asbag61
(g82
g63
NtRp775
(dp776
g66
(dp777
sg75
g763
sg68
(lp778
g61
(g62
g63
NtRp779
(dp780
g66
(dp781
g74
I3
ssg75
g775
sg68
(lp782
S''
asbasbasbag61
(g77
g63
NtRp783
(dp784
g66
(dp785
sg75
g679
sg68
(lp786
g61
(g82
g63
NtRp787
(dp788
g66
(dp789
g86
g87
ssg75
g783
sg68
(lp790
g416
asbag61
(g82
g63
NtRp791
(dp792
g66
(dp793
g93
g94
ssg75
g783
sg68
(lp794
S':'
asbag61
(g82
g63
NtRp795
(dp796
g66
(dp797
sg75
g783
sg68
(lp798
g61
(g62
g63
NtRp799
(dp800
g66
(dp801
g74
I3
ssg75
g795
sg68
(lp802
S''
asbasbasbag61
(g77
g63
NtRp803
(dp804
g66
(dp805
sg75
g679
sg68
(lp806
g61
(g82
g63
NtRp807
(dp808
g66
(dp809
g86
g87
ssg75
g803
sg68
(lp810
g437
asbag61
(g82
g63
NtRp811
(dp812
g66
(dp813
g93
g94
ssg75
g803
sg68
(lp814
S':'
asbag61
(g82
g63
NtRp815
(dp816
g66
(dp817
sg75
g803
sg68
(lp818
g61
(g62
g63
NtRp819
(dp820
g66
(dp821
g74
I3
ssg75
g815
sg68
(lp822
S''
asbasbasbag61
(g77
g63
NtRp823
(dp824
g66
(dp825
sg75
g679
sg68
(lp826
g61
(g82
g63
NtRp827
(dp828
g66
(dp829
g86
g87
ssg75
g823
sg68
(lp830
g458
asbag61
(g82
g63
NtRp831
(dp832
g66
(dp833
g93
g94
ssg75
g823
sg68
(lp834
S':'
asbag61
(g82
g63
NtRp835
(dp836
g66
(dp837
sg75
g823
sg68
(lp838
g61
(g62
g63
NtRp839
(dp840
g66
(dp841
g74
I3
ssg75
g835
sg68
(lp842
S''
asbasbasbasbasbasbasbag61
(g77
g63
NtRp843
(dp844
g66
(dp845
sg75
g273
sg68
(lp846
g61
(g82
g63
NtRp847
(dp848
g66
(dp849
g86
g87
ssg75
g843
sg68
(lp850
S'session_id_mywiki'
p851
asbag61
(g82
g63
NtRp852
(dp853
g66
(dp854
g93
g94
ssg75
g843
sg68
(lp855
S':'
asbag61
(g82
g63
NtRp856
(dp857
g66
(dp858
sg75
g843
sg68
(lp859
g61
(g62
g63
NtRp860
(dp861
g66
(dp862
g74
I4
ssg75
g856
sg68
(lp863
S'127.0.0.1-5985911a-1127-4d96-9157-dcf724a3d27c'
p864
ag61
(g70
g63
NtRp865
(dp866
g66
(dp867
g74
I3
ssg75
Nsg68
(lp868
g61
(g77
g63
NtRp869
(dp870
g66
(dp871
sg75
g865
sg68
(lp872
g61
(g82
g63
NtRp873
(dp874
g66
(dp875
g86
g87
ssg75
g869
sg68
(lp876
g311
asbag61
(g82
g63
NtRp877
(dp878
g66
(dp879
g93
g94
ssg75
g869
sg68
(lp880
S':'
asbag61
(g82
g63
NtRp881
(dp882
g66
(dp883
sg75
g869
sg68
(lp884
g61
(g62
g63
NtRp885
(dp886
g66
(dp887
g74
I3
ssg75
g881
sg68
(lp888
S''
asbasbasbag61
(g77
g63
NtRp889
(dp890
g66
(dp891
sg75
g865
sg68
(lp892
g61
(g82
g63
NtRp893
(dp894
g66
(dp895
g86
g87
ssg75
g889
sg68
(lp896
g332
asbag61
(g82
g63
NtRp897
(dp898
g66
(dp899
g93
g94
ssg75
g889
sg68
(lp900
S':'
asbag61
(g82
g63
NtRp901
(dp902
g66
(dp903
sg75
g889
sg68
(lp904
g61
(g62
g63
NtRp905
(dp906
g66
(dp907
g74
I3
ssg75
g901
sg68
(lp908
S''
asbasbasbag61
(g77
g63
NtRp909
(dp910
g66
(dp911
sg75
g865
sg68
(lp912
g61
(g82
g63
NtRp913
(dp914
g66
(dp915
g86
g87
ssg75
g909
sg68
(lp916
g353
asbag61
(g82
g63
NtRp917
(dp918
g66
(dp919
g93
g94
ssg75
g909
sg68
(lp920
S':'
asbag61
(g82
g63
NtRp921
(dp922
g66
(dp923
sg75
g909
sg68
(lp924
g61
(g62
g63
NtRp925
(dp926
g66
(dp927
g74
I3
ssg75
g921
sg68
(lp928
S''
asbasbasbag61
(g77
g63
NtRp929
(dp930
g66
(dp931
sg75
g865
sg68
(lp932
g61
(g82
g63
NtRp933
(dp934
g66
(dp935
g86
g87
ssg75
g929
sg68
(lp936
g374
asbag61
(g82
g63
NtRp937
(dp938
g66
(dp939
g93
g94
ssg75
g929
sg68
(lp940
S':'
asbag61
(g82
g63
NtRp941
(dp942
g66
(dp943
sg75
g929
sg68
(lp944
g61
(g62
g63
NtRp945
(dp946
g66
(dp947
g74
I3
ssg75
g941
sg68
(lp948
S''
asbasbasbag61
(g77
g63
NtRp949
(dp950
g66
(dp951
sg75
g865
sg68
(lp952
g61
(g82
g63
NtRp953
(dp954
g66
(dp955
g86
g87
ssg75
g949
sg68
(lp956
g395
asbag61
(g82
g63
NtRp957
(dp958
g66
(dp959
g93
g94
ssg75
g949
sg68
(lp960
S':'
asbag61
(g82
g63
NtRp961
(dp962
g66
(dp963
sg75
g949
sg68
(lp964
g61
(g62
g63
NtRp965
(dp966
g66
(dp967
g74
I3
ssg75
g961
sg68
(lp968
S''
asbasbasbag61
(g77
g63
NtRp969
(dp970
g66
(dp971
sg75
g865
sg68
(lp972
g61
(g82
g63
NtRp973
(dp974
g66
(dp975
g86
g87
ssg75
g969
sg68
(lp976
g416
asbag61
(g82
g63
NtRp977
(dp978
g66
(dp979
g93
g94
ssg75
g969
sg68
(lp980
S':'
asbag61
(g82
g63
NtRp981
(dp982
g66
(dp983
sg75
g969
sg68
(lp984
g61
(g62
g63
NtRp985
(dp986
g66
(dp987
g74
I3
ssg75
g981
sg68
(lp988
S''
asbasbasbag61
(g77
g63
NtRp989
(dp990
g66
(dp991
sg75
g865
sg68
(lp992
g61
(g82
g63
NtRp993
(dp994
g66
(dp995
g86
g87
ssg75
g989
sg68
(lp996
g437
asbag61
(g82
g63
NtRp997
(dp998
g66
(dp999
g93
g94
ssg75
g989
sg68
(lp1000
S':'
asbag61
(g82
g63
NtRp1001
(dp1002
g66
(dp1003
sg75
g989
sg68
(lp1004
g61
(g62
g63
NtRp1005
(dp1006
g66
(dp1007
g74
I3
ssg75
g1001
sg68
(lp1008
S''
asbasbasbag61
(g77
g63
NtRp1009
(dp1010
g66
(dp1011
sg75
g865
sg68
(lp1012
g61
(g82
g63
NtRp1013
(dp1014
g66
(dp1015
g86
g87
ssg75
g1009
sg68
(lp1016
g458
asbag61
(g82
g63
NtRp1017
(dp1018
g66
(dp1019
g93
g94
ssg75
g1009
sg68
(lp1020
S':'
asbag61
(g82
g63
NtRp1021
(dp1022
g66
(dp1023
sg75
g1009
sg68
(lp1024
g61
(g62
g63
NtRp1025
(dp1026
g66
(dp1027
g74
I3
ssg75
g1021
sg68
(lp1028
S''
asbasbasbasbasbasbasbag61
(g77
g63
NtRp1029
(dp1030
g66
(dp1031
sg75
g273
sg68
(lp1032
g61
(g82
g63
NtRp1033
(dp1034
g66
(dp1035
g86
g87
ssg75
g1029
sg68
(lp1036
S'session_id_welcome'
p1037
asbag61
(g82
g63
NtRp1038
(dp1039
g66
(dp1040
g93
g94
ssg75
g1029
sg68
(lp1041
S':'
asbag61
(g82
g63
NtRp1042
(dp1043
g66
(dp1044
sg75
g1029
sg68
(lp1045
g61
(g62
g63
NtRp1046
(dp1047
g66
(dp1048
g74
I4
ssg75
g1042
sg68
(lp1049
S'127.0.0.1-ed3399df-33a9-4506-9f65-53bddd2578f7'
p1050
ag61
(g70
g63
NtRp1051
(dp1052
g66
(dp1053
g74
I3
ssg75
Nsg68
(lp1054
g61
(g77
g63
NtRp1055
(dp1056
g66
(dp1057
sg75
g1051
sg68
(lp1058
g61
(g82
g63
NtRp1059
(dp1060
g66
(dp1061
g86
g87
ssg75
g1055
sg68
(lp1062
g311
asbag61
(g82
g63
NtRp1063
(dp1064
g66
(dp1065
g93
g94
ssg75
g1055
sg68
(lp1066
S':'
asbag61
(g82
g63
NtRp1067
(dp1068
g66
(dp1069
sg75
g1055
sg68
(lp1070
g61
(g62
g63
NtRp1071
(dp1072
g66
(dp1073
g74
I3
ssg75
g1067
sg68
(lp1074
S''
asbasbasbag61
(g77
g63
NtRp1075
(dp1076
g66
(dp1077
sg75
g1051
sg68
(lp1078
g61
(g82
g63
NtRp1079
(dp1080
g66
(dp1081
g86
g87
ssg75
g1075
sg68
(lp1082
g332
asbag61
(g82
g63
NtRp1083
(dp1084
g66
(dp1085
g93
g94
ssg75
g1075
sg68
(lp1086
S':'
asbag61
(g82
g63
NtRp1087
(dp1088
g66
(dp1089
sg75
g1075
sg68
(lp1090
g61
(g62
g63
NtRp1091
(dp1092
g66
(dp1093
g74
I3
ssg75
g1087
sg68
(lp1094
S''
asbasbasbag61
(g77
g63
NtRp1095
(dp1096
g66
(dp1097
sg75
g1051
sg68
(lp1098
g61
(g82
g63
NtRp1099
(dp1100
g66
(dp1101
g86
g87
ssg75
g1095
sg68
(lp1102
g353
asbag61
(g82
g63
NtRp1103
(dp1104
g66
(dp1105
g93
g94
ssg75
g1095
sg68
(lp1106
S':'
asbag61
(g82
g63
NtRp1107
(dp1108
g66
(dp1109
sg75
g1095
sg68
(lp1110
g61
(g62
g63
NtRp1111
(dp1112
g66
(dp1113
g74
I3
ssg75
g1107
sg68
(lp1114
S''
asbasbasbag61
(g77
g63
NtRp1115
(dp1116
g66
(dp1117
sg75
g1051
sg68
(lp1118
g61
(g82
g63
NtRp1119
(dp1120
g66
(dp1121
g86
g87
ssg75
g1115
sg68
(lp1122
g374
asbag61
(g82
g63
NtRp1123
(dp1124
g66
(dp1125
g93
g94
ssg75
g1115
sg68
(lp1126
S':'
asbag61
(g82
g63
NtRp1127
(dp1128
g66
(dp1129
sg75
g1115
sg68
(lp1130
g61
(g62
g63
NtRp1131
(dp1132
g66
(dp1133
g74
I3
ssg75
g1127
sg68
(lp1134
S''
asbasbasbag61
(g77
g63
NtRp1135
(dp1136
g66
(dp1137
sg75
g1051
sg68
(lp1138
g61
(g82
g63
NtRp1139
(dp1140
g66
(dp1141
g86
g87
ssg75
g1135
sg68
(lp1142
g395
asbag61
(g82
g63
NtRp1143
(dp1144
g66
(dp1145
g93
g94
ssg75
g1135
sg68
(lp1146
S':'
asbag61
(g82
g63
NtRp1147
(dp1148
g66
(dp1149
sg75
g1135
sg68
(lp1150
g61
(g62
g63
NtRp1151
(dp1152
g66
(dp1153
g74
I3
ssg75
g1147
sg68
(lp1154
S''
asbasbasbag61
(g77
g63
NtRp1155
(dp1156
g66
(dp1157
sg75
g1051
sg68
(lp1158
g61
(g82
g63
NtRp1159
(dp1160
g66
(dp1161
g86
g87
ssg75
g1155
sg68
(lp1162
g416
asbag61
(g82
g63
NtRp1163
(dp1164
g66
(dp1165
g93
g94
ssg75
g1155
sg68
(lp1166
S':'
asbag61
(g82
g63
NtRp1167
(dp1168
g66
(dp1169
sg75
g1155
sg68
(lp1170
g61
(g62
g63
NtRp1171
(dp1172
g66
(dp1173
g74
I3
ssg75
g1167
sg68
(lp1174
S''
asbasbasbag61
(g77
g63
NtRp1175
(dp1176
g66
(dp1177
sg75
g1051
sg68
(lp1178
g61
(g82
g63
NtRp1179
(dp1180
g66
(dp1181
g86
g87
ssg75
g1175
sg68
(lp1182
g437
asbag61
(g82
g63
NtRp1183
(dp1184
g66
(dp1185
g93
g94
ssg75
g1175
sg68
(lp1186
S':'
asbag61
(g82
g63
NtRp1187
(dp1188
g66
(dp1189
sg75
g1175
sg68
(lp1190
g61
(g62
g63
NtRp1191
(dp1192
g66
(dp1193
g74
I3
ssg75
g1187
sg68
(lp1194
S''
asbasbasbag61
(g77
g63
NtRp1195
(dp1196
g66
(dp1197
sg75
g1051
sg68
(lp1198
g61
(g82
g63
NtRp1199
(dp1200
g66
(dp1201
g86
g87
ssg75
g1195
sg68
(lp1202
g458
asbag61
(g82
g63
NtRp1203
(dp1204
g66
(dp1205
g93
g94
ssg75
g1195
sg68
(lp1206
S':'
asbag61
(g82
g63
NtRp1207
(dp1208
g66
(dp1209
sg75
g1195
sg68
(lp1210
g61
(g62
g63
NtRp1211
(dp1212
g66
(dp1213
g74
I3
ssg75
g1207
sg68
(lp1214
S''
asbasbasbasbasbasbasbasbasbasbasbag61
(g77
g63
NtRp1215
(dp1216
g66
(dp1217
sg75
g71
sg68
(lp1218
g61
(g82
g63
NtRp1219
(dp1220
g66
(dp1221
g86
g87
ssg75
g1215
sg68
(lp1222
S'env'
p1223
asbag61
(g82
g63
NtRp1224
(dp1225
g66
(dp1226
g93
g94
ssg75
g1215
sg68
(lp1227
S':'
asbag61
(g82
g63
NtRp1228
(dp1229
g66
(dp1230
sg75
g1215
sg68
(lp1231
g61
(g62
g63
NtRp1232
(dp1233
g66
(dp1234
g74
I5
ssg75
g1228
sg68
(lp1235
g61
(g70
g63
NtRp1236
(dp1237
g66
(dp1238
g74
I4
ssg75
Nsg68
(lp1239
g61
(g77
g63
NtRp1240
(dp1241
g66
(dp1242
sg75
g1236
sg68
(lp1243
g61
(g82
g63
NtRp1244
(dp1245
g66
(dp1246
g86
g87
ssg75
g1240
sg68
(lp1247
S'app_folders'
p1248
asbag61
(g82
g63
NtRp1249
(dp1250
g66
(dp1251
g93
g94
ssg75
g1240
sg68
(lp1252
S':'
asbag61
(g82
g63
NtRp1253
(dp1254
g66
(dp1255
sg75
g1240
sg68
(lp1256
g61
(g62
g63
NtRp1257
(dp1258
g66
(dp1259
g74
I4
ssg75
g1253
sg68
(lp1260
S"set(['/home/adrian/web2py/applications/admin/', '/home/adrian/web2py/applications/welcome/', '/home/adrian/web2py/applications/mywiki/', '/home/adrian/web2py/applications/images/', '/home/adrian/web2py/applications/CygnusCloud/'])"
p1261
asbasbasbag61
(g77
g63
NtRp1262
(dp1263
g66
(dp1264
sg75
g1236
sg68
(lp1265
g61
(g82
g63
NtRp1266
(dp1267
g66
(dp1268
g86
g87
ssg75
g1262
sg68
(lp1269
S'applications_parent'
p1270
asbag61
(g82
g63
NtRp1271
(dp1272
g66
(dp1273
g93
g94
ssg75
g1262
sg68
(lp1274
S':'
asbag61
(g82
g63
NtRp1275
(dp1276
g66
(dp1277
sg75
g1262
sg68
(lp1278
g61
(g62
g63
NtRp1279
(dp1280
g66
(dp1281
g74
I4
ssg75
g1275
sg68
(lp1282
S'/home/adrian/web2py'
p1283
asbasbasbag61
(g77
g63
NtRp1284
(dp1285
g66
(dp1286
sg75
g1236
sg68
(lp1287
g61
(g82
g63
NtRp1288
(dp1289
g66
(dp1290
g86
g87
ssg75
g1284
sg68
(lp1291
S'cmd_args'
p1292
asbag61
(g82
g63
NtRp1293
(dp1294
g66
(dp1295
g93
g94
ssg75
g1284
sg68
(lp1296
S':'
asbag61
(g82
g63
NtRp1297
(dp1298
g66
(dp1299
sg75
g1284
sg68
(lp1300
g61
(g62
g63
NtRp1301
(dp1302
g66
(dp1303
g74
I4
ssg75
g1297
sg68
(lp1304
g61
(g70
g63
NtRp1305
(dp1306
g66
(dp1307
g74
I3
ssg75
Nsg68
(lp1308
sbasbasbasbag61
(g77
g63
NtRp1309
(dp1310
g66
(dp1311
sg75
g1236
sg68
(lp1312
g61
(g82
g63
NtRp1313
(dp1314
g66
(dp1315
g86
g87
ssg75
g1309
sg68
(lp1316
S'cmd_options'
p1317
asbag61
(g82
g63
NtRp1318
(dp1319
g66
(dp1320
g93
g94
ssg75
g1309
sg68
(lp1321
S':'
asbag61
(g82
g63
NtRp1322
(dp1323
g66
(dp1324
sg75
g1309
sg68
(lp1325
g61
(g62
g63
NtRp1326
(dp1327
g66
(dp1328
g74
I4
ssg75
g1322
sg68
(lp1329
S"<Values at 0x172fbd8: {'verbose': False, 'ip': '127.0.0.1', 'with_scheduler': False, 'ips': [], 'shutdown_timeout': 5, 'taskbar': False, 'port': 8000, 'maxthreads': None, 'softcron': False, 'server_name': 'adri-EasyNote', 'bpython': False, 'nogui': False, 'pid_filename': 'httpserver.pid', 'extcron': False, 'runcron': False, 'run_system_tests': False, 'test': None, 'folder': '/home/adrian/web2py', 'config': '', 'minthreads': None, 'winservice': '', 'shell': None, 'run': '', 'log_filename': 'httpserver.log', 'debuglevel': 30, 'args': [''], 'socket_timeout': 5, 'ssl_ca_certificate': None, 'scheduler': None, 'profiler_filename': None, 'ssl_private_key': '', 'scheduler_groups': None, 'password': 'cygnuscloud2012', 'request_queue_size': 5, 'ssl_certificate': '', 'cronjob': False, 'numthreads': None, 'quiet': False, 'interfaces': None, 'import_models': False, 'timeout': 10, 'plain': False, 'nobanner': False}>"
p1330
asbasbasbag61
(g77
g63
NtRp1331
(dp1332
g66
(dp1333
sg75
g1236
sg68
(lp1334
g61
(g82
g63
NtRp1335
(dp1336
g66
(dp1337
g86
g87
ssg75
g1331
sg68
(lp1338
S'db_sessions'
p1339
asbag61
(g82
g63
NtRp1340
(dp1341
g66
(dp1342
g93
g94
ssg75
g1331
sg68
(lp1343
S':'
asbag61
(g82
g63
NtRp1344
(dp1345
g66
(dp1346
sg75
g1331
sg68
(lp1347
g61
(g62
g63
NtRp1348
(dp1349
g66
(dp1350
g74
I4
ssg75
g1344
sg68
(lp1351
S'set([])'
p1352
asbasbasbag61
(g77
g63
NtRp1353
(dp1354
g66
(dp1355
sg75
g1236
sg68
(lp1356
g61
(g82
g63
NtRp1357
(dp1358
g66
(dp1359
g86
g87
ssg75
g1353
sg68
(lp1360
S'debugging'
p1361
asbag61
(g82
g63
NtRp1362
(dp1363
g66
(dp1364
g93
g94
ssg75
g1353
sg68
(lp1365
S':'
asbag61
(g82
g63
NtRp1366
(dp1367
g66
(dp1368
sg75
g1353
sg68
(lp1369
g61
(g62
g63
NtRp1370
(dp1371
g66
(dp1372
g74
I4
ssg75
g1366
sg68
(lp1373
g104
asbasbasbag61
(g77
g63
NtRp1374
(dp1375
g66
(dp1376
sg75
g1236
sg68
(lp1377
g61
(g82
g63
NtRp1378
(dp1379
g66
(dp1380
g86
g87
ssg75
g1374
sg68
(lp1381
S'gluon_parent'
p1382
asbag61
(g82
g63
NtRp1383
(dp1384
g66
(dp1385
g93
g94
ssg75
g1374
sg68
(lp1386
S':'
asbag61
(g82
g63
NtRp1387
(dp1388
g66
(dp1389
sg75
g1374
sg68
(lp1390
g61
(g62
g63
NtRp1391
(dp1392
g66
(dp1393
g74
I4
ssg75
g1387
sg68
(lp1394
S'/home/adrian/web2py'
p1395
asbasbasbag61
(g77
g63
NtRp1396
(dp1397
g66
(dp1398
sg75
g1236
sg68
(lp1399
g61
(g82
g63
NtRp1400
(dp1401
g66
(dp1402
g86
g87
ssg75
g1396
sg68
(lp1403
S'http_accept'
p1404
asbag61
(g82
g63
NtRp1405
(dp1406
g66
(dp1407
g93
g94
ssg75
g1396
sg68
(lp1408
S':'
asbag61
(g82
g63
NtRp1409
(dp1410
g66
(dp1411
sg75
g1396
sg68
(lp1412
g61
(g62
g63
NtRp1413
(dp1414
g66
(dp1415
g74
I4
ssg75
g1409
sg68
(lp1416
S'text/html,application/xhtml+xml,application/xml;q=0.9,*/*;q=0.8'
p1417
asbasbasbag61
(g77
g63
NtRp1418
(dp1419
g66
(dp1420
sg75
g1236
sg68
(lp1421
g61
(g82
g63
NtRp1422
(dp1423
g66
(dp1424
g86
g87
ssg75
g1418
sg68
(lp1425
S'http_accept_charset'
p1426
asbag61
(g82
g63
NtRp1427
(dp1428
g66
(dp1429
g93
g94
ssg75
g1418
sg68
(lp1430
S':'
asbag61
(g82
g63
NtRp1431
(dp1432
g66
(dp1433
sg75
g1418
sg68
(lp1434
g61
(g62
g63
NtRp1435
(dp1436
g66
(dp1437
g74
I4
ssg75
g1431
sg68
(lp1438
S'ISO-8859-1,utf-8;q=0.7,*;q=0.3'
p1439
asbasbasbag61
(g77
g63
NtRp1440
(dp1441
g66
(dp1442
sg75
g1236
sg68
(lp1443
g61
(g82
g63
NtRp1444
(dp1445
g66
(dp1446
g86
g87
ssg75
g1440
sg68
(lp1447
S'http_accept_encoding'
p1448
asbag61
(g82
g63
NtRp1449
(dp1450
g66
(dp1451
g93
g94
ssg75
g1440
sg68
(lp1452
S':'
asbag61
(g82
g63
NtRp1453
(dp1454
g66
(dp1455
sg75
g1440
sg68
(lp1456
g61
(g62
g63
NtRp1457
(dp1458
g66
(dp1459
g74
I4
ssg75
g1453
sg68
(lp1460
S'gzip,deflate,sdch'
p1461
asbasbasbag61
(g77
g63
NtRp1462
(dp1463
g66
(dp1464
sg75
g1236
sg68
(lp1465
g61
(g82
g63
NtRp1466
(dp1467
g66
(dp1468
g86
g87
ssg75
g1462
sg68
(lp1469
S'http_accept_language'
p1470
asbag61
(g82
g63
NtRp1471
(dp1472
g66
(dp1473
g93
g94
ssg75
g1462
sg68
(lp1474
S':'
asbag61
(g82
g63
NtRp1475
(dp1476
g66
(dp1477
sg75
g1462
sg68
(lp1478
g61
(g62
g63
NtRp1479
(dp1480
g66
(dp1481
g74
I4
ssg75
g1475
sg68
(lp1482
S'es-ES,es;q=0.8'
p1483
asbasbasbag61
(g77
g63
NtRp1484
(dp1485
g66
(dp1486
sg75
g1236
sg68
(lp1487
g61
(g82
g63
NtRp1488
(dp1489
g66
(dp1490
g86
g87
ssg75
g1484
sg68
(lp1491
S'http_connection'
p1492
asbag61
(g82
g63
NtRp1493
(dp1494
g66
(dp1495
g93
g94
ssg75
g1484
sg68
(lp1496
S':'
asbag61
(g82
g63
NtRp1497
(dp1498
g66
(dp1499
sg75
g1484
sg68
(lp1500
g61
(g62
g63
NtRp1501
(dp1502
g66
(dp1503
g74
I4
ssg75
g1497
sg68
(lp1504
S'keep-alive'
p1505
asbasbasbag61
(g77
g63
NtRp1506
(dp1507
g66
(dp1508
sg75
g1236
sg68
(lp1509
g61
(g82
g63
NtRp1510
(dp1511
g66
(dp1512
g86
g87
ssg75
g1506
sg68
(lp1513
S'http_cookie'
p1514
asbag61
(g82
g63
NtRp1515
(dp1516
g66
(dp1517
g93
g94
ssg75
g1506
sg68
(lp1518
S':'
asbag61
(g82
g63
NtRp1519
(dp1520
g66
(dp1521
sg75
g1506
sg68
(lp1522
g61
(g62
g63
NtRp1523
(dp1524
g66
(dp1525
g74
I4
ssg75
g1519
sg68
(lp1526
S'session_id_welcome=127.0.0.1-ed3399df-33a9-4506-9f65-53bddd2578f7; session_id_mywiki=127.0.0.1-5985911a-1127-4d96-9157-dcf724a3d27c; session_id_images=127.0.0.1-86f6c98f-4fbb-4841-b606-44c0d90442c6; session_id_cygnuscloud=127.0.0.1-791acaf2-7386-46dc-b011-4810dc00037c; session_id_admin=127.0.0.1-55f52477-473c-42b8-b923-a29e2f1fa64b'
p1527
asbasbasbag61
(g77
g63
NtRp1528
(dp1529
g66
(dp1530
sg75
g1236
sg68
(lp1531
g61
(g82
g63
NtRp1532
(dp1533
g66
(dp1534
g86
g87
ssg75
g1528
sg68
(lp1535
S'http_host'
p1536
asbag61
(g82
g63
NtRp1537
(dp1538
g66
(dp1539
g93
g94
ssg75
g1528
sg68
(lp1540
S':'
asbag61
(g82
g63
NtRp1541
(dp1542
g66
(dp1543
sg75
g1528
sg68
(lp1544
g61
(g62
g63
NtRp1545
(dp1546
g66
(dp1547
g74
I4
ssg75
g1541
sg68
(lp1548
S'127.0.0.1:8000'
p1549
asbasbasbag61
(g77
g63
NtRp1550
(dp1551
g66
(dp1552
sg75
g1236
sg68
(lp1553
g61
(g82
g63
NtRp1554
(dp1555
g66
(dp1556
g86
g87
ssg75
g1550
sg68
(lp1557
S'http_referer'
p1558
asbag61
(g82
g63
NtRp1559
(dp1560
g66
(dp1561
g93
g94
ssg75
g1550
sg68
(lp1562
S':'
asbag61
(g82
g63
NtRp1563
(dp1564
g66
(dp1565
sg75
g1550
sg68
(lp1566
g61
(g62
g63
NtRp1567
(dp1568
g66
(dp1569
g74
I4
ssg75
g1563
sg68
(lp1570
S'http://127.0.0.1:8000/CygnusCloud/appadmin/index'
p1571
asbasbasbag61
(g77
g63
NtRp1572
(dp1573
g66
(dp1574
sg75
g1236
sg68
(lp1575
g61
(g82
g63
NtRp1576
(dp1577
g66
(dp1578
g86
g87
ssg75
g1572
sg68
(lp1579
S'http_user_agent'
p1580
asbag61
(g82
g63
NtRp1581
(dp1582
g66
(dp1583
g93
g94
ssg75
g1572
sg68
(lp1584
S':'
asbag61
(g82
g63
NtRp1585
(dp1586
g66
(dp1587
sg75
g1572
sg68
(lp1588
g61
(g62
g63
NtRp1589
(dp1590
g66
(dp1591
g74
I4
ssg75
g1585
sg68
(lp1592
S'Mozilla/5.0 (X11; Linux x86_64) AppleWebKit/537.11 (KHTML, like Gecko) Chrome/23.0.1271.64 Safari/537.11'
p1593
asbasbasbag61
(g77
g63
NtRp1594
(dp1595
g66
(dp1596
sg75
g1236
sg68
(lp1597
g61
(g82
g63
NtRp1598
(dp1599
g66
(dp1600
g86
g87
ssg75
g1594
sg68
(lp1601
S'is_jython'
p1602
asbag61
(g82
g63
NtRp1603
(dp1604
g66
(dp1605
g93
g94
ssg75
g1594
sg68
(lp1606
S':'
asbag61
(g82
g63
NtRp1607
(dp1608
g66
(dp1609
sg75
g1594
sg68
(lp1610
g61
(g62
g63
NtRp1611
(dp1612
g66
(dp1613
g74
I4
ssg75
g1607
sg68
(lp1614
g104
asbasbasbag61
(g77
g63
NtRp1615
(dp1616
g66
(dp1617
sg75
g1236
sg68
(lp1618
g61
(g82
g63
NtRp1619
(dp1620
g66
(dp1621
g86
g87
ssg75
g1615
sg68
(lp1622
S'is_pypy'
p1623
asbag61
(g82
g63
NtRp1624
(dp1625
g66
(dp1626
g93
g94
ssg75
g1615
sg68
(lp1627
S':'
asbag61
(g82
g63
NtRp1628
(dp1629
g66
(dp1630
sg75
g1615
sg68
(lp1631
g61
(g62
g63
NtRp1632
(dp1633
g66
(dp1634
g74
I4
ssg75
g1628
sg68
(lp1635
g104
asbasbasbag61
(g77
g63
NtRp1636
(dp1637
g66
(dp1638
sg75
g1236
sg68
(lp1639
g61
(g82
g63
NtRp1640
(dp1641
g66
(dp1642
g86
g87
ssg75
g1636
sg68
(lp1643
S'local_hosts'
p1644
asbag61
(g82
g63
NtRp1645
(dp1646
g66
(dp1647
g93
g94
ssg75
g1636
sg68
(lp1648
S':'
asbag61
(g82
g63
NtRp1649
(dp1650
g66
(dp1651
sg75
g1636
sg68
(lp1652
g61
(g62
g63
NtRp1653
(dp1654
g66
(dp1655
g74
I4
ssg75
g1649
sg68
(lp1656
g61
(g70
g63
NtRp1657
(dp1658
g66
(dp1659
g74
I3
ssg75
Nsg68
(lp1660
g61
(g77
g63
NtRp1661
(dp1662
g66
(dp1663
sg75
g1657
sg68
(lp1664
g61
(g82
g63
NtRp1665
(dp1666
g66
(dp1667
sg75
g1661
sg68
(lp1668
g61
(g62
g63
NtRp1669
(dp1670
g66
(dp1671
g74
I3
ssg75
g1665
sg68
(lp1672
S'adri-EasyNote'
p1673
asbasbasbag61
(g77
g63
NtRp1674
(dp1675
g66
(dp1676
sg75
g1657
sg68
(lp1677
g61
(g82
g63
NtRp1678
(dp1679
g66
(dp1680
sg75
g1674
sg68
(lp1681
g61
(g62
g63
NtRp1682
(dp1683
g66
(dp1684
g74
I3
ssg75
g1678
sg68
(lp1685
S'::1'
p1686
asbasbasbag61
(g77
g63
NtRp1687
(dp1688
g66
(dp1689
sg75
g1657
sg68
(lp1690
g61
(g82
g63
NtRp1691
(dp1692
g66
(dp1693
sg75
g1687
sg68
(lp1694
g61
(g62
g63
NtRp1695
(dp1696
g66
(dp1697
g74
I3
ssg75
g1691
sg68
(lp1698
S'127.0.1.1'
p1699
asbasbasbag61
(g77
g63
NtRp1700
(dp1701
g66
(dp1702
sg75
g1657
sg68
(lp1703
g61
(g82
g63
NtRp1704
(dp1705
g66
(dp1706
sg75
g1700
sg68
(lp1707
g61
(g62
g63
NtRp1708
(dp1709
g66
(dp1710
g74
I3
ssg75
g1704
sg68
(lp1711
S'::ffff:127.0.0.1'
p1712
asbasbasbag61
(g77
g63
NtRp1713
(dp1714
g66
(dp1715
sg75
g1657
sg68
(lp1716
g61
(g82
g63
NtRp1717
(dp1718
g66
(dp1719
sg75
g1713
sg68
(lp1720
g61
(g62
g63
NtRp1721
(dp1722
g66
(dp1723
g74
I3
ssg75
g1717
sg68
(lp1724
S'127.0.0.1'
p1725
asbasbasbasbasbasbasbag61
(g77
g63
NtRp1726
(dp1727
g66
(dp1728
sg75
g1236
sg68
(lp1729
g61
(g82
g63
NtRp1730
(dp1731
g66
(dp1732
g86
g87
ssg75
g1726
sg68
(lp1733
S'path_info'
p1734
asbag61
(g82
g63
NtRp1735
(dp1736
g66
(dp1737
g93
g94
ssg75
g1726
sg68
(lp1738
S':'
asbag61
(g82
g63
NtRp1739
(dp1740
g66
(dp1741
sg75
g1726
sg68
(lp1742
g61
(g62
g63
NtRp1743
(dp1744
g66
(dp1745
g74
I4
ssg75
g1739
sg68
(lp1746
S'/CygnusCloud/appadmin/select/userDB'
p1747
asbasbasbag61
(g77
g63
NtRp1748
(dp1749
g66
(dp1750
sg75
g1236
sg68
(lp1751
g61
(g82
g63
NtRp1752
(dp1753
g66
(dp1754
g86
g87
ssg75
g1748
sg68
(lp1755
S'query_string'
p1756
asbag61
(g82
g63
NtRp1757
(dp1758
g66
(dp1759
g93
g94
ssg75
g1748
sg68
(lp1760
S':'
asbag61
(g82
g63
NtRp1761
(dp1762
g66
(dp1763
sg75
g1748
sg68
(lp1764
g61
(g62
g63
NtRp1765
(dp1766
g66
(dp1767
g74
I4
ssg75
g1761
sg68
(lp1768
S'query=userDB.auth_permission.id%3E0'
p1769
asbasbasbag61
(g77
g63
NtRp1770
(dp1771
g66
(dp1772
sg75
g1236
sg68
(lp1773
g61
(g82
g63
NtRp1774
(dp1775
g66
(dp1776
g86
g87
ssg75
g1770
sg68
(lp1777
S'remote_addr'
p1778
asbag61
(g82
g63
NtRp1779
(dp1780
g66
(dp1781
g93
g94
ssg75
g1770
sg68
(lp1782
S':'
asbag61
(g82
g63
NtRp1783
(dp1784
g66
(dp1785
sg75
g1770
sg68
(lp1786
g61
(g62
g63
NtRp1787
(dp1788
g66
(dp1789
g74
I4
ssg75
g1783
sg68
(lp1790
g229
asbasbasbag61
(g77
g63
NtRp1791
(dp1792
g66
(dp1793
sg75
g1236
sg68
(lp1794
g61
(g82
g63
NtRp1795
(dp1796
g66
(dp1797
g86
g87
ssg75
g1791
sg68
(lp1798
S'remote_port'
p1799
asbag61
(g82
g63
NtRp1800
(dp1801
g66
(dp1802
g93
g94
ssg75
g1791
sg68
(lp1803
S':'
asbag61
(g82
g63
NtRp1804
(dp1805
g66
(dp1806
sg75
g1791
sg68
(lp1807
g61
(g62
g63
NtRp1808
(dp1809
g66
(dp1810
g74
I4
ssg75
g1804
sg68
(lp1811
S'55067'
p1812
asbasbasbag61
(g77
g63
NtRp1813
(dp1814
g66
(dp1815
sg75
g1236
sg68
(lp1816
g61
(g82
g63
NtRp1817
(dp1818
g66
(dp1819
g86
g87
ssg75
g1813
sg68
(lp1820
S'request_method'
p1821
asbag61
(g82
g63
NtRp1822
(dp1823
g66
(dp1824
g93
g94
ssg75
g1813
sg68
(lp1825
S':'
asbag61
(g82
g63
NtRp1826
(dp1827
g66
(dp1828
sg75
g1813
sg68
(lp1829
g61
(g62
g63
NtRp1830
(dp1831
g66
(dp1832
g74
I4
ssg75
g1826
sg68
(lp1833
S'GET'
p1834
asbasbasbag61
(g77
g63
NtRp1835
(dp1836
g66
(dp1837
sg75
g1236
sg68
(lp1838
g61
(g82
g63
NtRp1839
(dp1840
g66
(dp1841
g86
g87
ssg75
g1835
sg68
(lp1842
S'request_uri'
p1843
asbag61
(g82
g63
NtRp1844
(dp1845
g66
(dp1846
g93
g94
ssg75
g1835
sg68
(lp1847
S':'
asbag61
(g82
g63
NtRp1848
(dp1849
g66
(dp1850
sg75
g1835
sg68
(lp1851
g61
(g62
g63
NtRp1852
(dp1853
g66
(dp1854
g74
I4
ssg75
g1848
sg68
(lp1855
S'/CygnusCloud/appadmin/select/userDB?query=userDB.auth_permission.id%3E0'
p1856
asbasbasbag61
(g77
g63
NtRp1857
(dp1858
g66
(dp1859
sg75
g1236
sg68
(lp1860
g61
(g82
g63
NtRp1861
(dp1862
g66
(dp1863
g86
g87
ssg75
g1857
sg68
(lp1864
S'script_name'
p1865
asbag61
(g82
g63
NtRp1866
(dp1867
g66
(dp1868
g93
g94
ssg75
g1857
sg68
(lp1869
S':'
asbag61
(g82
g63
NtRp1870
(dp1871
g66
(dp1872
sg75
g1857
sg68
(lp1873
g61
(g62
g63
NtRp1874
(dp1875
g66
(dp1876
g74
I4
ssg75
g1870
sg68
(lp1877
S''
asbasbasbag61
(g77
g63
NtRp1878
(dp1879
g66
(dp1880
sg75
g1236
sg68
(lp1881
g61
(g82
g63
NtRp1882
(dp1883
g66
(dp1884
g86
g87
ssg75
g1878
sg68
(lp1885
S'server_name'
p1886
asbag61
(g82
g63
NtRp1887
(dp1888
g66
(dp1889
g93
g94
ssg75
g1878
sg68
(lp1890
S':'
asbag61
(g82
g63
NtRp1891
(dp1892
g66
(dp1893
sg75
g1878
sg68
(lp1894
g61
(g62
g63
NtRp1895
(dp1896
g66
(dp1897
g74
I4
ssg75
g1891
sg68
(lp1898
S'adri-EasyNote'
p1899
asbasbasbag61
(g77
g63
NtRp1900
(dp1901
g66
(dp1902
sg75
g1236
sg68
(lp1903
g61
(g82
g63
NtRp1904
(dp1905
g66
(dp1906
g86
g87
ssg75
g1900
sg68
(lp1907
S'server_port'
p1908
asbag61
(g82
g63
NtRp1909
(dp1910
g66
(dp1911
g93
g94
ssg75
g1900
sg68
(lp1912
S':'
asbag61
(g82
g63
NtRp1913
(dp1914
g66
(dp1915
sg75
g1900
sg68
(lp1916
g61
(g62
g63
NtRp1917
(dp1918
g66
(dp1919
g74
I4
ssg75
g1913
sg68
(lp1920
S'8000'
p1921
asbasbasbag61
(g77
g63
NtRp1922
(dp1923
g66
(dp1924
sg75
g1236
sg68
(lp1925
g61
(g82
g63
NtRp1926
(dp1927
g66
(dp1928
g86
g87
ssg75
g1922
sg68
(lp1929
S'server_protocol'
p1930
asbag61
(g82
g63
NtRp1931
(dp1932
g66
(dp1933
g93
g94
ssg75
g1922
sg68
(lp1934
S':'
asbag61
(g82
g63
NtRp1935
(dp1936
g66
(dp1937
sg75
g1922
sg68
(lp1938
g61
(g62
g63
NtRp1939
(dp1940
g66
(dp1941
g74
I4
ssg75
g1935
sg68
(lp1942
S'HTTP/1.1'
p1943
asbasbasbag61
(g77
g63
NtRp1944
(dp1945
g66
(dp1946
sg75
g1236
sg68
(lp1947
g61
(g82
g63
NtRp1948
(dp1949
g66
(dp1950
g86
g87
ssg75
g1944
sg68
(lp1951
S'server_software'
p1952
asbag61
(g82
g63
NtRp1953
(dp1954
g66
(dp1955
g93
g94
ssg75
g1944
sg68
(lp1956
S':'
asbag61
(g82
g63
NtRp1957
(dp1958
g66
(dp1959
sg75
g1944
sg68
(lp1960
g61
(g62
g63
NtRp1961
(dp1962
g66
(dp1963
g74
I4
ssg75
g1957
sg68
(lp1964
S'Rocket 1.2.6'
p1965
asbasbasbag61
(g77
g63
NtRp1966
(dp1967
g66
(dp1968
sg75
g1236
sg68
(lp1969
g61
(g82
g63
NtRp1970
(dp1971
g66
(dp1972
g86
g87
ssg75
g1966
sg68
(lp1973
S'web2py_path'
p1974
asbag61
(g82
g63
NtRp1975
(dp1976
g66
(dp1977
g93
g94
ssg75
g1966
sg68
(lp1978
S':'
asbag61
(g82
g63
NtRp1979
(dp1980
g66
(dp1981
sg75
g1966
sg68
(lp1982
g61
(g62
g63
NtRp1983
(dp1984
g66
(dp1985
g74
I4
ssg75
g1979
sg68
(lp1986
g1283
asbasbasbag61
(g77
g63
NtRp1987
(dp1988
g66
(dp1989
sg75
g1236
sg68
(lp1990
g61
(g82
g63
NtRp1991
(dp1992
g66
(dp1993
g86
g87
ssg75
g1987
sg68
(lp1994
S'web2py_version'
p1995
asbag61
(g82
g63
NtRp1996
(dp1997
g66
(dp1998
g93
g94
ssg75
g1987
sg68
(lp1999
S':'
asbag61
(g82
g63
NtRp2000
(dp2001
g66
(dp2002
sg75
g1987
sg68
(lp2003
g61
(g62
g63
NtRp2004
(dp2005
g66
(dp2006
g74
I4
ssg75
g2000
sg68
(lp2007
g61
(g70
g63
NtRp2008
(dp2009
g66
(dp2010
g74
I3
ssg75
Nsg68
(lp2011
g61
(g77
g63
NtRp2012
(dp2013
g66
(dp2014
sg75
g2008
sg68
(lp2015
g61
(g82
g63
NtRp2016
(dp2017
g66
(dp2018
sg75
g2012
sg68
(lp2019
g61
(g62
g63
NtRp2020
(dp2021
g66
(dp2022
g74
I3
ssg75
g2016
sg68
(lp2023
S'2'
asbasbasbag61
(g77
g63
NtRp2024
(dp2025
g66
(dp2026
sg75
g2008
sg68
(lp2027
g61
(g82
g63
NtRp2028
(dp2029
g66
(dp2030
sg75
g2024
sg68
(lp2031
g61
(g62
g63
NtRp2032
(dp2033
g66
(dp2034
g74
I3
ssg75
g2028
sg68
(lp2035
S'3'
asbasbasbag61
(g77
g63
NtRp2036
(dp2037
g66
(dp2038
sg75
g2008
sg68
(lp2039
g61
(g82
g63
NtRp2040
(dp2041
g66
(dp2042
sg75
g2036
sg68
(lp2043
g61
(g62
g63
NtRp2044
(dp2045
g66
(dp2046
g74
I3
ssg75
g2040
sg68
(lp2047
S'2'
asbasbasbag61
(g77
g63
NtRp2048
(dp2049
g66
(dp2050
sg75
g2008
sg68
(lp2051
g61
(g82
g63
NtRp2052
(dp2053
g66
(dp2054
sg75
g2048
sg68
(lp2055
g61
(g62
g63
NtRp2056
(dp2057
g66
(dp2058
g74
I3
ssg75
g2052
sg68
(lp2059
S'datetime.datetime(2012, 12, 17, 15, 3, 30)'
p2060
asbasbasbag61
(g77
g63
NtRp2061
(dp2062
g66
(dp2063
sg75
g2008
sg68
(lp2064
g61
(g82
g63
NtRp2065
(dp2066
g66
(dp2067
sg75
g2061
sg68
(lp2068
g61
(g62
g63
NtRp2069
(dp2070
g66
(dp2071
g74
I3
ssg75
g2065
sg68
(lp2072
S'stable'
p2073
asbasbasbasbasbasbasbag61
(g77
g63
NtRp2074
(dp2075
g66
(dp2076
sg75
g1236
sg68
(lp2077
g61
(g82
g63
NtRp2078
(dp2079
g66
(dp2080
g86
g87
ssg75
g2074
sg68
(lp2081
S'wsgi_errors'
p2082
asbag61
(g82
g63
NtRp2083
(dp2084
g66
(dp2085
g93
g94
ssg75
g2074
sg68
(lp2086
S':'
asbag61
(g82
g63
NtRp2087
(dp2088
g66
(dp2089
sg75
g2074
sg68
(lp2090
g61
(g62
g63
NtRp2091
(dp2092
g66
(dp2093
g74
I4
ssg75
g2087
sg68
(lp2094
S"<open file '<stderr>', mode 'w' at 0x7f239539e270>"
p2095
asbasbasbag61
(g77
g63
NtRp2096
(dp2097
g66
(dp2098
sg75
g1236
sg68
(lp2099
g61
(g82
g63
NtRp2100
(dp2101
g66
(dp2102
g86
g87
ssg75
g2096
sg68
(lp2103
S'wsgi_file_wrapper'
p2104
asbag61
(g82
g63
NtRp2105
(dp2106
g66
(dp2107
g93
g94
ssg75
g2096
sg68
(lp2108
S':'
asbag61
(g82
g63
NtRp2109
(dp2110
g66
(dp2111
sg75
g2096
sg68
(lp2112
g61
(g62
g63
NtRp2113
(dp2114
g66
(dp2115
g74
I4
ssg75
g2109
sg68
(lp2116
S'<class wsgiref.util.FileWrapper at 0x1663db8>'
p2117
asbasbasbag61
(g77
g63
NtRp2118
(dp2119
g66
(dp2120
sg75
g1236
sg68
(lp2121
g61
(g82
g63
NtRp2122
(dp2123
g66
(dp2124
g86
g87
ssg75
g2118
sg68
(lp2125
S'wsgi_input'
p2126
asbag61
(g82
g63
NtRp2127
(dp2128
g66
(dp2129
g93
g94
ssg75
g2118
sg68
(lp2130
S':'
asbag61
(g82
g63
NtRp2131
(dp2132
g66
(dp2133
sg75
g2118
sg68
(lp2134
g61
(g62
g63
NtRp2135
(dp2136
g66
(dp2137
g74
I4
ssg75
g2131
sg68
(lp2138
S'<socket._fileobject object at 0x7f238c53bf50>'
p2139
asbasbasbag61
(g77
g63
NtRp2140
(dp2141
g66
(dp2142
sg75
g1236
sg68
(lp2143
g61
(g82
g63
NtRp2144
(dp2145
g66
(dp2146
g86
g87
ssg75
g2140
sg68
(lp2147
S'wsgi_multiprocess'
p2148
asbag61
(g82
g63
NtRp2149
(dp2150
g66
(dp2151
g93
g94
ssg75
g2140
sg68
(lp2152
S':'
asbag61
(g82
g63
NtRp2153
(dp2154
g66
(dp2155
sg75
g2140
sg68
(lp2156
g61
(g62
g63
NtRp2157
(dp2158
g66
(dp2159
g74
I4
ssg75
g2153
sg68
(lp2160
g104
asbasbasbag61
(g77
g63
NtRp2161
(dp2162
g66
(dp2163
sg75
g1236
sg68
(lp2164
g61
(g82
g63
NtRp2165
(dp2166
g66
(dp2167
g86
g87
ssg75
g2161
sg68
(lp2168
S'wsgi_multithread'
p2169
asbag61
(g82
g63
NtRp2170
(dp2171
g66
(dp2172
g93
g94
ssg75
g2161
sg68
(lp2173
S':'
asbag61
(g82
g63
NtRp2174
(dp2175
g66
(dp2176
sg75
g2161
sg68
(lp2177
g61
(g62
g63
NtRp2178
(dp2179
g66
(dp2180
g74
I4
ssg75
g2174
sg68
(lp2181
S'True'
p2182
asbasbasbag61
(g77
g63
NtRp2183
(dp2184
g66
(dp2185
sg75
g1236
sg68
(lp2186
g61
(g82
g63
NtRp2187
(dp2188
g66
(dp2189
g86
g87
ssg75
g2183
sg68
(lp2190
S'wsgi_run_once'
p2191
asbag61
(g82
g63
NtRp2192
(dp2193
g66
(dp2194
g93
g94
ssg75
g2183
sg68
(lp2195
S':'
asbag61
(g82
g63
NtRp2196
(dp2197
g66
(dp2198
sg75
g2183
sg68
(lp2199
g61
(g62
g63
NtRp2200
(dp2201
g66
(dp2202
g74
I4
ssg75
g2196
sg68
(lp2203
g104
asbasbasbag61
(g77
g63
NtRp2204
(dp2205
g66
(dp2206
sg75
g1236
sg68
(lp2207
g61
(g82
g63
NtRp2208
(dp2209
g66
(dp2210
g86
g87
ssg75
g2204
sg68
(lp2211
S'wsgi_url_scheme'
p2212
asbag61
(g82
g63
NtRp2213
(dp2214
g66
(dp2215
g93
g94
ssg75
g2204
sg68
(lp2216
S':'
asbag61
(g82
g63
NtRp2217
(dp2218
g66
(dp2219
sg75
g2204
sg68
(lp2220
g61
(g62
g63
NtRp2221
(dp2222
g66
(dp2223
g74
I4
ssg75
g2217
sg68
(lp2224
S'http'
p2225
asbasbasbag61
(g77
g63
NtRp2226
(dp2227
g66
(dp2228
sg75
g1236
sg68
(lp2229
g61
(g82
g63
NtRp2230
(dp2231
g66
(dp2232
g86
g87
ssg75
g2226
sg68
(lp2233
S'wsgi_version'
p2234
asbag61
(g82
g63
NtRp2235
(dp2236
g66
(dp2237
g93
g94
ssg75
g2226
sg68
(lp2238
S':'
asbag61
(g82
g63
NtRp2239
(dp2240
g66
(dp2241
sg75
g2226
sg68
(lp2242
g61
(g62
g63
NtRp2243
(dp2244
g66
(dp2245
g74
I4
ssg75
g2239
sg68
(lp2246
g61
(g70
g63
NtRp2247
(dp2248
g66
(dp2249
g74
I3
ssg75
Nsg68
(lp2250
g61
(g77
g63
NtRp2251
(dp2252
g66
(dp2253
sg75
g2247
sg68
(lp2254
g61
(g82
g63
NtRp2255
(dp2256
g66
(dp2257
sg75
g2251
sg68
(lp2258
g61
(g62
g63
NtRp2259
(dp2260
g66
(dp2261
g74
I3
ssg75
g2255
sg68
(lp2262
S'1'
asbasbasbag61
(g77
g63
NtRp2263
(dp2264
g66
(dp2265
sg75
g2247
sg68
(lp2266
g61
(g82
g63
NtRp2267
(dp2268
g66
(dp2269
sg75
g2263
sg68
(lp2270
g61
(g62
g63
NtRp2271
(dp2272
g66
(dp2273
g74
I3
ssg75
g2267
sg68
(lp2274
S'0'
asbasbasbasbasbasbasbasbasbasbasbag61
(g77
g63
NtRp2275
(dp2276
g66
(dp2277
sg75
g71
sg68
(lp2278
g61
(g82
g63
NtRp2279
(dp2280
g66
(dp2281
g86
g87
ssg75
g2275
sg68
(lp2282
S'extension'
p2283
asbag61
(g82
g63
NtRp2284
(dp2285
g66
(dp2286
g93
g94
ssg75
g2275
sg68
(lp2287
S':'
asbag61
(g82
g63
NtRp2288
(dp2289
g66
(dp2290
sg75
g2275
sg68
(lp2291
g61
(g62
g63
NtRp2292
(dp2293
g66
(dp2294
g74
I5
ssg75
g2288
sg68
(lp2295
S'html'
p2296
asbasbasbag61
(g77
g63
NtRp2297
(dp2298
g66
(dp2299
sg75
g71
sg68
(lp2300
g61
(g82
g63
NtRp2301
(dp2302
g66
(dp2303
g86
g87
ssg75
g2297
sg68
(lp2304
S'folder'
p2305
asbag61
(g82
g63
NtRp2306
(dp2307
g66
(dp2308
g93
g94
ssg75
g2297
sg68
(lp2309
S':'
asbag61
(g82
g63
NtRp2310
(dp2311
g66
(dp2312
sg75
g2297
sg68
(lp2313
g61
(g62
g63
NtRp2314
(dp2315
g66
(dp2316
g74
I5
ssg75
g2310
sg68
(lp2317
S'/home/adrian/web2py/applications/CygnusCloud/'
p2318
asbasbasbag61
(g77
g63
NtRp2319
(dp2320
g66
(dp2321
sg75
g71
sg68
(lp2322
g61
(g82
g63
NtRp2323
(dp2324
g66
(dp2325
g86
g87
ssg75
g2319
sg68
(lp2326
S'function'
p2327
asbag61
(g82
g63
NtRp2328
(dp2329
g66
(dp2330
g93
g94
ssg75
g2319
sg68
(lp2331
S':'
asbag61
(g82
g63
NtRp2332
(dp2333
g66
(dp2334
sg75
g2319
sg68
(lp2335
g61
(g62
g63
NtRp2336
(dp2337
g66
(dp2338
g74
I5
ssg75
g2332
sg68
(lp2339
S'select'
p2340
asbasbasbag61
(g77
g63
NtRp2341
(dp2342
g66
(dp2343
sg75
g71
sg68
(lp2344
g61
(g82
g63
NtRp2345
(dp2346
g66
(dp2347
g86
g87
ssg75
g2341
sg68
(lp2348
S'get_vars'
p2349
asbag61
(g82
g63
NtRp2350
(dp2351
g66
(dp2352
g93
g94
ssg75
g2341
sg68
(lp2353
S':'
asbag61
(g82
g63
NtRp2354
(dp2355
g66
(dp2356
sg75
g2341
sg68
(lp2357
g61
(g62
g63
NtRp2358
(dp2359
g66
(dp2360
g74
I5
ssg75
g2354
sg68
(lp2361
g61
(g70
g63
NtRp2362
(dp2363
g66
(dp2364
g74
I4
ssg75
Nsg68
(lp2365
g61
(g77
g63
NtRp2366
(dp2367
g66
(dp2368
sg75
g2362
sg68
(lp2369
g61
(g82
g63
NtRp2370
(dp2371
g66
(dp2372
g86
g87
ssg75
g2366
sg68
(lp2373
S'query'
p2374
asbag61
(g82
g63
NtRp2375
(dp2376
g66
(dp2377
g93
g94
ssg75
g2366
sg68
(lp2378
S':'
asbag61
(g82
g63
NtRp2379
(dp2380
g66
(dp2381
sg75
g2366
sg68
(lp2382
g61
(g62
g63
NtRp2383
(dp2384
g66
(dp2385
g74
I4
ssg75
g2379
sg68
(lp2386
S'userDB.auth_permission.id>0'
p2387
asbasbasbasbasbasbasbag61
(g77
g63
NtRp2388
(dp2389
g66
(dp2390
sg75
g71
sg68
(lp2391
g61
(g82
g63
NtRp2392
(dp2393
g66
(dp2394
g86
g87
ssg75
g2388
sg68
(lp2395
S'global_settings'
p2396
asbag61
(g82
g63
NtRp2397
(dp2398
g66
(dp2399
g93
g94
ssg75
g2388
sg68
(lp2400
S':'
asbag61
(g82
g63
NtRp2401
(dp2402
g66
(dp2403
sg75
g2388
sg68
(lp2404
g61
(g62
g63
NtRp2405
(dp2406
g66
(dp2407
g74
I5
ssg75
g2401
sg68
(lp2408
g61
(g70
g63
NtRp2409
(dp2410
g66
(dp2411
g74
I4
ssg75
Nsg68
(lp2412
g61
(g77
g63
NtRp2413
(dp2414
g66
(dp2415
sg75
g2409
sg68
(lp2416
g61
(g82
g63
NtRp2417
(dp2418
g66
(dp2419
g86
g87
ssg75
g2413
sg68
(lp2420
g1248
asbag61
(g82
g63
NtRp2421
(dp2422
g66
(dp2423
g93
g94
ssg75
g2413
sg68
(lp2424
S':'
asbag61
(g82
g63
NtRp2425
(dp2426
g66
(dp2427
sg75
g2413
sg68
(lp2428
g61
(g62
g63
NtRp2429
(dp2430
g66
(dp2431
g74
I4
ssg75
g2425
sg68
(lp2432
S"set(['/home/adrian/web2py/applications/admin/', '/home/adrian/web2py/applications/welcome/', '/home/adrian/web2py/applications/mywiki/', '/home/adrian/web2py/applications/images/', '/home/adrian/web2py/applications/CygnusCloud/'])"
p2433
asbasbasbag61
(g77
g63
NtRp2434
(dp2435
g66
(dp2436
sg75
g2409
sg68
(lp2437
g61
(g82
g63
NtRp2438
(dp2439
g66
(dp2440
g86
g87
ssg75
g2434
sg68
(lp2441
g1270
asbag61
(g82
g63
NtRp2442
(dp2443
g66
(dp2444
g93
g94
ssg75
g2434
sg68
(lp2445
S':'
asbag61
(g82
g63
NtRp2446
(dp2447
g66
(dp2448
sg75
g2434
sg68
(lp2449
g61
(g62
g63
NtRp2450
(dp2451
g66
(dp2452
g74
I4
ssg75
g2446
sg68
(lp2453
g1283
asbasbasbag61
(g77
g63
NtRp2454
(dp2455
g66
(dp2456
sg75
g2409
sg68
(lp2457
g61
(g82
g63
NtRp2458
(dp2459
g66
(dp2460
g86
g87
ssg75
g2454
sg68
(lp2461
g1292
asbag61
(g82
g63
NtRp2462
(dp2463
g66
(dp2464
g93
g94
ssg75
g2454
sg68
(lp2465
S':'
asbag61
(g82
g63
NtRp2466
(dp2467
g66
(dp2468
sg75
g2454
sg68
(lp2469
g61
(g62
g63
NtRp2470
(dp2471
g66
(dp2472
g74
I4
ssg75
g2466
sg68
(lp2473
g61
(g70
g63
NtRp2474
(dp2475
g66
(dp2476
g74
I3
ssg75
Nsg68
(lp2477
sbasbasbasbag61
(g77
g63
NtRp2478
(dp2479
g66
(dp2480
sg75
g2409
sg68
(lp2481
g61
(g82
g63
NtRp2482
(dp2483
g66
(dp2484
g86
g87
ssg75
g2478
sg68
(lp2485
g1317
asbag61
(g82
g63
NtRp2486
(dp2487
g66
(dp2488
g93
g94
ssg75
g2478
sg68
(lp2489
S':'
asbag61
(g82
g63
NtRp2490
(dp2491
g66
(dp2492
sg75
g2478
sg68
(lp2493
g61
(g62
g63
NtRp2494
(dp2495
g66
(dp2496
g74
I4
ssg75
g2490
sg68
(lp2497
S"<Values at 0x172fbd8: {'verbose': False, 'ip': '127.0.0.1', 'with_scheduler': False, 'ips': [], 'shutdown_timeout': 5, 'taskbar': False, 'port': 8000, 'maxthreads': None, 'softcron': False, 'server_name': 'adri-EasyNote', 'bpython': False, 'nogui': False, 'pid_filename': 'httpserver.pid', 'extcron': False, 'runcron': False, 'run_system_tests': False, 'test': None, 'folder': '/home/adrian/web2py', 'config': '', 'minthreads': None, 'winservice': '', 'shell': None, 'run': '', 'log_filename': 'httpserver.log', 'debuglevel': 30, 'args': [''], 'socket_timeout': 5, 'ssl_ca_certificate': None, 'scheduler': None, 'profiler_filename': None, 'ssl_private_key': '', 'scheduler_groups': None, 'password': 'cygnuscloud2012', 'request_queue_size': 5, 'ssl_certificate': '', 'cronjob': False, 'numthreads': None, 'quiet': False, 'interfaces': None, 'import_models': False, 'timeout': 10, 'plain': False, 'nobanner': False}>"
p2498
asbasbasbag61
(g77
g63
NtRp2499
(dp2500
g66
(dp2501
sg75
g2409
sg68
(lp2502
g61
(g82
g63
NtRp2503
(dp2504
g66
(dp2505
g86
g87
ssg75
g2499
sg68
(lp2506
g1339
asbag61
(g82
g63
NtRp2507
(dp2508
g66
(dp2509
g93
g94
ssg75
g2499
sg68
(lp2510
S':'
asbag61
(g82
g63
NtRp2511
(dp2512
g66
(dp2513
sg75
g2499
sg68
(lp2514
g61
(g62
g63
NtRp2515
(dp2516
g66
(dp2517
g74
I4
ssg75
g2511
sg68
(lp2518
S'set([])'
p2519
asbasbasbag61
(g77
g63
NtRp2520
(dp2521
g66
(dp2522
sg75
g2409
sg68
(lp2523
g61
(g82
g63
NtRp2524
(dp2525
g66
(dp2526
g86
g87
ssg75
g2520
sg68
(lp2527
g1361
asbag61
(g82
g63
NtRp2528
(dp2529
g66
(dp2530
g93
g94
ssg75
g2520
sg68
(lp2531
S':'
asbag61
(g82
g63
NtRp2532
(dp2533
g66
(dp2534
sg75
g2520
sg68
(lp2535
g61
(g62
g63
NtRp2536
(dp2537
g66
(dp2538
g74
I4
ssg75
g2532
sg68
(lp2539
g104
asbasbasbag61
(g77
g63
NtRp2540
(dp2541
g66
(dp2542
sg75
g2409
sg68
(lp2543
g61
(g82
g63
NtRp2544
(dp2545
g66
(dp2546
g86
g87
ssg75
g2540
sg68
(lp2547
g1382
asbag61
(g82
g63
NtRp2548
(dp2549
g66
(dp2550
g93
g94
ssg75
g2540
sg68
(lp2551
S':'
asbag61
(g82
g63
NtRp2552
(dp2553
g66
(dp2554
sg75
g2540
sg68
(lp2555
g61
(g62
g63
NtRp2556
(dp2557
g66
(dp2558
g74
I4
ssg75
g2552
sg68
(lp2559
g1395
asbasbasbag61
(g77
g63
NtRp2560
(dp2561
g66
(dp2562
sg75
g2409
sg68
(lp2563
g61
(g82
g63
NtRp2564
(dp2565
g66
(dp2566
g86
g87
ssg75
g2560
sg68
(lp2567
g1602
asbag61
(g82
g63
NtRp2568
(dp2569
g66
(dp2570
g93
g94
ssg75
g2560
sg68
(lp2571
S':'
asbag61
(g82
g63
NtRp2572
(dp2573
g66
(dp2574
sg75
g2560
sg68
(lp2575
g61
(g62
g63
NtRp2576
(dp2577
g66
(dp2578
g74
I4
ssg75
g2572
sg68
(lp2579
g104
asbasbasbag61
(g77
g63
NtRp2580
(dp2581
g66
(dp2582
sg75
g2409
sg68
(lp2583
g61
(g82
g63
NtRp2584
(dp2585
g66
(dp2586
g86
g87
ssg75
g2580
sg68
(lp2587
g1623
asbag61
(g82
g63
NtRp2588
(dp2589
g66
(dp2590
g93
g94
ssg75
g2580
sg68
(lp2591
S':'
asbag61
(g82
g63
NtRp2592
(dp2593
g66
(dp2594
sg75
g2580
sg68
(lp2595
g61
(g62
g63
NtRp2596
(dp2597
g66
(dp2598
g74
I4
ssg75
g2592
sg68
(lp2599
g104
asbasbasbag61
(g77
g63
NtRp2600
(dp2601
g66
(dp2602
sg75
g2409
sg68
(lp2603
g61
(g82
g63
NtRp2604
(dp2605
g66
(dp2606
g86
g87
ssg75
g2600
sg68
(lp2607
g1644
asbag61
(g82
g63
NtRp2608
(dp2609
g66
(dp2610
g93
g94
ssg75
g2600
sg68
(lp2611
S':'
asbag61
(g82
g63
NtRp2612
(dp2613
g66
(dp2614
sg75
g2600
sg68
(lp2615
g61
(g62
g63
NtRp2616
(dp2617
g66
(dp2618
g74
I4
ssg75
g2612
sg68
(lp2619
g61
(g70
g63
NtRp2620
(dp2621
g66
(dp2622
g74
I3
ssg75
Nsg68
(lp2623
g61
(g77
g63
NtRp2624
(dp2625
g66
(dp2626
sg75
g2620
sg68
(lp2627
g61
(g82
g63
NtRp2628
(dp2629
g66
(dp2630
sg75
g2624
sg68
(lp2631
g61
(g62
g63
NtRp2632
(dp2633
g66
(dp2634
g74
I3
ssg75
g2628
sg68
(lp2635
g1673
asbasbasbag61
(g77
g63
NtRp2636
(dp2637
g66
(dp2638
sg75
g2620
sg68
(lp2639
g61
(g82
g63
NtRp2640
(dp2641
g66
(dp2642
sg75
g2636
sg68
(lp2643
g61
(g62
g63
NtRp2644
(dp2645
g66
(dp2646
g74
I3
ssg75
g2640
sg68
(lp2647
g1686
asbasbasbag61
(g77
g63
NtRp2648
(dp2649
g66
(dp2650
sg75
g2620
sg68
(lp2651
g61
(g82
g63
NtRp2652
(dp2653
g66
(dp2654
sg75
g2648
sg68
(lp2655
g61
(g62
g63
NtRp2656
(dp2657
g66
(dp2658
g74
I3
ssg75
g2652
sg68
(lp2659
g1699
asbasbasbag61
(g77
g63
NtRp2660
(dp2661
g66
(dp2662
sg75
g2620
sg68
(lp2663
g61
(g82
g63
NtRp2664
(dp2665
g66
(dp2666
sg75
g2660
sg68
(lp2667
g61
(g62
g63
NtRp2668
(dp2669
g66
(dp2670
g74
I3
ssg75
g2664
sg68
(lp2671
g1712
asbasbasbag61
(g77
g63
NtRp2672
(dp2673
g66
(dp2674
sg75
g2620
sg68
(lp2675
g61
(g82
g63
NtRp2676
(dp2677
g66
(dp2678
sg75
g2672
sg68
(lp2679
g61
(g62
g63
NtRp2680
(dp2681
g66
(dp2682
g74
I3
ssg75
g2676
sg68
(lp2683
g1725
asbasbasbasbasbasbasbag61
(g77
g63
NtRp2684
(dp2685
g66
(dp2686
sg75
g2409
sg68
(lp2687
g61
(g82
g63
NtRp2688
(dp2689
g66
(dp2690
g86
g87
ssg75
g2684
sg68
(lp2691
g1995
asbag61
(g82
g63
NtRp2692
(dp2693
g66
(dp2694
g93
g94
ssg75
g2684
sg68
(lp2695
S':'
asbag61
(g82
g63
NtRp2696
(dp2697
g66
(dp2698
sg75
g2684
sg68
(lp2699
g61
(g62
g63
NtRp2700
(dp2701
g66
(dp2702
g74
I4
ssg75
g2696
sg68
(lp2703
g61
(g70
g63
NtRp2704
(dp2705
g66
(dp2706
g74
I3
ssg75
Nsg68
(lp2707
g61
(g77
g63
NtRp2708
(dp2709
g66
(dp2710
sg75
g2704
sg68
(lp2711
g61
(g82
g63
NtRp2712
(dp2713
g66
(dp2714
sg75
g2708
sg68
(lp2715
g61
(g62
g63
NtRp2716
(dp2717
g66
(dp2718
g74
I3
ssg75
g2712
sg68
(lp2719
S'2'
asbasbasbag61
(g77
g63
NtRp2720
(dp2721
g66
(dp2722
sg75
g2704
sg68
(lp2723
g61
(g82
g63
NtRp2724
(dp2725
g66
(dp2726
sg75
g2720
sg68
(lp2727
g61
(g62
g63
NtRp2728
(dp2729
g66
(dp2730
g74
I3
ssg75
g2724
sg68
(lp2731
S'3'
asbasbasbag61
(g77
g63
NtRp2732
(dp2733
g66
(dp2734
sg75
g2704
sg68
(lp2735
g61
(g82
g63
NtRp2736
(dp2737
g66
(dp2738
sg75
g2732
sg68
(lp2739
g61
(g62
g63
NtRp2740
(dp2741
g66
(dp2742
g74
I3
ssg75
g2736
sg68
(lp2743
S'2'
asbasbasbag61
(g77
g63
NtRp2744
(dp2745
g66
(dp2746
sg75
g2704
sg68
(lp2747
g61
(g82
g63
NtRp2748
(dp2749
g66
(dp2750
sg75
g2744
sg68
(lp2751
g61
(g62
g63
NtRp2752
(dp2753
g66
(dp2754
g74
I3
ssg75
g2748
sg68
(lp2755
S'datetime.datetime(2012, 12, 17, 15, 3, 30)'
p2756
asbasbasbag61
(g77
g63
NtRp2757
(dp2758
g66
(dp2759
sg75
g2704
sg68
(lp2760
g61
(g82
g63
NtRp2761
(dp2762
g66
(dp2763
sg75
g2757
sg68
(lp2764
g61
(g62
g63
NtRp2765
(dp2766
g66
(dp2767
g74
I3
ssg75
g2761
sg68
(lp2768
g2073
asbasbasbasbasbasbasbasbasbasbasbag61
(g77
g63
NtRp2769
(dp2770
g66
(dp2771
sg75
g71
sg68
(lp2772
g61
(g82
g63
NtRp2773
(dp2774
g66
(dp2775
g86
g87
ssg75
g2769
sg68
(lp2776
S'is_https'
p2777
asbag61
(g82
g63
NtRp2778
(dp2779
g66
(dp2780
g93
g94
ssg75
g2769
sg68
(lp2781
S':'
asbag61
(g82
g63
NtRp2782
(dp2783
g66
(dp2784
sg75
g2769
sg68
(lp2785
g61
(g62
g63
NtRp2786
(dp2787
g66
(dp2788
g74
I5
ssg75
g2782
sg68
(lp2789
g104
asbasbasbag61
(g77
g63
NtRp2790
(dp2791
g66
(dp2792
sg75
g71
sg68
(lp2793
g61
(g82
g63
NtRp2794
(dp2795
g66
(dp2796
g86
g87
ssg75
g2790
sg68
(lp2797
S'is_local'
p2798
asbag61
(g82
g63
NtRp2799
(dp2800
g66
(dp2801
g93
g94
ssg75
g2790
sg68
(lp2802
S':'
asbag61
(g82
g63
NtRp2803
(dp2804
g66
(dp2805
sg75
g2790
sg68
(lp2806
g61
(g62
g63
NtRp2807
(dp2808
g66
(dp2809
g74
I5
ssg75
g2803
sg68
(lp2810
g2182
asbasbasbag61
(g77
g63
NtRp2811
(dp2812
g66
(dp2813
sg75
g71
sg68
(lp2814
g61
(g82
g63
NtRp2815
(dp2816
g66
(dp2817
g86
g87
ssg75
g2811
sg68
(lp2818
S'is_restful'
p2819
asbag61
(g82
g63
NtRp2820
(dp2821
g66
(dp2822
g93
g94
ssg75
g2811
sg68
(lp2823
S':'
asbag61
(g82
g63
NtRp2824
(dp2825
g66
(dp2826
sg75
g2811
sg68
(lp2827
g61
(g62
g63
NtRp2828
(dp2829
g66
(dp2830
g74
I5
ssg75
g2824
sg68
(lp2831
g104
asbasbasbag61
(g77
g63
NtRp2832
(dp2833
g66
(dp2834
sg75
g71
sg68
(lp2835
g61
(g82
g63
NtRp2836
(dp2837
g66
(dp2838
g86
g87
ssg75
g2832
sg68
(lp2839
S'now'
p2840
asbag61
(g82
g63
NtRp2841
(dp2842
g66
(dp2843
g93
g94
ssg75
g2832
sg68
(lp2844
S':'
asbag61
(g82
g63
NtRp2845
(dp2846
g66
(dp2847
sg75
g2832
sg68
(lp2848
g61
(g62
g63
NtRp2849
(dp2850
g66
(dp2851
g74
I5
ssg75
g2845
sg68
(lp2852
S'datetime.datetime(2013, 2, 6, 0, 30, 45, 386241)'
p2853
asbasbasbag61
(g77
g63
NtRp2854
(dp2855
g66
(dp2856
sg75
g71
sg68
(lp2857
g61
(g82
g63
NtRp2858
(dp2859
g66
(dp2860
g86
g87
ssg75
g2854
sg68
(lp2861
S'post_vars'
p2862
asbag61
(g82
g63
NtRp2863
(dp2864
g66
(dp2865
g93
g94
ssg75
g2854
sg68
(lp2866
S':'
asbag61
(g82
g63
NtRp2867
(dp2868
g66
(dp2869
sg75
g2854
sg68
(lp2870
g61
(g62
g63
NtRp2871
(dp2872
g66
(dp2873
g74
I5
ssg75
g2867
sg68
(lp2874
g61
(g70
g63
NtRp2875
(dp2876
g66
(dp2877
g74
I4
ssg75
Nsg68
(lp2878
sbasbasbasbag61
(g77
g63
NtRp2879
(dp2880
g66
(dp2881
sg75
g71
sg68
(lp2882
g61
(g82
g63
NtRp2883
(dp2884
g66
(dp2885
g86
g87
ssg75
g2879
sg68
(lp2886
S'raw_args'
p2887
asbag61
(g82
g63
NtRp2888
(dp2889
g66
(dp2890
g93
g94
ssg75
g2879
sg68
(lp2891
S':'
asbag61
(g82
g63
NtRp2892
(dp2893
g66
(dp2894
sg75
g2879
sg68
(lp2895
g61
(g62
g63
NtRp2896
(dp2897
g66
(dp2898
g74
I5
ssg75
g2892
sg68
(lp2899
g163
asbasbasbag61
(g77
g63
NtRp2900
(dp2901
g66
(dp2902
sg75
g71
sg68
(lp2903
g61
(g82
g63
NtRp2904
(dp2905
g66
(dp2906
g86
g87
ssg75
g2900
sg68
(lp2907
S'raw_extension'
p2908
asbag61
(g82
g63
NtRp2909
(dp2910
g66
(dp2911
g93
g94
ssg75
g2900
sg68
(lp2912
S':'
asbag61
(g82
g63
NtRp2913
(dp2914
g66
(dp2915
sg75
g2900
sg68
(lp2916
g61
(g62
g63
NtRp2917
(dp2918
g66
(dp2919
g74
I5
ssg75
g2913
sg68
(lp2920
S'None'
p2921
asbasbasbag61
(g77
g63
NtRp2922
(dp2923
g66
(dp2924
sg75
g71
sg68
(lp2925
g61
(g82
g63
NtRp2926
(dp2927
g66
(dp2928
g86
g87
ssg75
g2922
sg68
(lp2929
S'url'
p2930
asbag61
(g82
g63
NtRp2931
(dp2932
g66
(dp2933
g93
g94
ssg75
g2922
sg68
(lp2934
S':'
asbag61
(g82
g63
NtRp2935
(dp2936
g66
(dp2937
sg75
g2922
sg68
(lp2938
g61
(g62
g63
NtRp2939
(dp2940
g66
(dp2941
g74
I5
ssg75
g2935
sg68
(lp2942
g1747
asbasbasbag61
(g77
g63
NtRp2943
(dp2944
g66
(dp2945
sg75
g71
sg68
(lp2946
g61
(g82
g63
NtRp2947
(dp2948
g66
(dp2949
g86
g87
ssg75
g2943
sg68
(lp2950
S'utcnow'
p2951
asbag61
(g82
g63
NtRp2952
(dp2953
g66
(dp2954
g93
g94
ssg75
g2943
sg68
(lp2955
S':'
asbag61
(g82
g63
NtRp2956
(dp2957
g66
(dp2958
sg75
g2943
sg68
(lp2959
g61
(g62
g63
NtRp2960
(dp2961
g66
(dp2962
g74
I5
ssg75
g2956
sg68
(lp2963
S'datetime.datetime(2013, 2, 5, 23, 30, 45, 386276)'
p2964
asbasbasbag61
(g77
g63
NtRp2965
(dp2966
g66
(dp2967
sg75
g71
sg68
(lp2968
g61
(g82
g63
NtRp2969
(dp2970
g66
(dp2971
g86
g87
ssg75
g2965
sg68
(lp2972
S'uuid'
p2973
asbag61
(g82
g63
NtRp2974
(dp2975
g66
(dp2976
g93
g94
ssg75
g2965
sg68
(lp2977
S':'
asbag61
(g82
g63
NtRp2978
(dp2979
g66
(dp2980
sg75
g2965
sg68
(lp2981
g61
(g62
g63
NtRp2982
(dp2983
g66
(dp2984
g74
I5
ssg75
g2978
sg68
(lp2985
S'CygnusCloud/127.0.0.1.2013-02-06.00-30-45.ac9a1c3e-e83f-4721-918c-c2b714a2f8d4'
p2986
asbasbasbag61
(g77
g63
NtRp2987
(dp2988
g66
(dp2989
sg75
g71
sg68
(lp2990
g61
(g82
g63
NtRp2991
(dp2992
g66
(dp2993
g86
g87
ssg75
g2987
sg68
(lp2994
S'vars'
p2995
asbag61
(g82
g63
NtRp2996
(dp2997
g66
(dp2998
g93
g94
ssg75
g2987
sg68
(lp2999
S':'
asbag61
(g82
g63
NtRp3000
(dp3001
g66
(dp3002
sg75
g2987
sg68
(lp3003
g61
(g62
g63
NtRp3004
(dp3005
g66
(dp3006
g74
I5
ssg75
g3000
sg68
(lp3007
g61
(g70
g63
NtRp3008
(dp3009
g66
(dp3010
g74
I4
ssg75
Nsg68
(lp3011
g61
(g77
g63
NtRp3012
(dp3013
g66
(dp3014
sg75
g3008
sg68
(lp3015
g61
(g82
g63
NtRp3016
(dp3017
g66
(dp3018
g86
g87
ssg75
g3012
sg68
(lp3019
g2374
asbag61
(g82
g63
NtRp3020
(dp3021
g66
(dp3022
g93
g94
ssg75
g3012
sg68
(lp3023
S':'
asbag61
(g82
g63
NtRp3024
(dp3025
g66
(dp3026
sg75
g3012
sg68
(lp3027
g61
(g62
g63
NtRp3028
(dp3029
g66
(dp3030
g74
I4
ssg75
g3024
sg68
(lp3031
g2387
asbasbasbasbasbasbasbag61
(g77
g63
NtRp3032
(dp3033
g66
(dp3034
sg75
g71
sg68
(lp3035
g61
(g82
g63
NtRp3036
(dp3037
g66
(dp3038
g86
g87
ssg75
g3032
sg68
(lp3039
S'wsgi'
p3040
asbag61
(g82
g63
NtRp3041
(dp3042
g66
(dp3043
g93
g94
ssg75
g3032
sg68
(lp3044
S':'
asbag61
(g82
g63
NtRp3045
(dp3046
g66
(dp3047
sg75
g3032
sg68
(lp3048
g61
(g62
g63
NtRp3049
(dp3050
g66
(dp3051
g74
I5
ssg75
g3045
sg68
(lp3052
g61
(g70
g63
NtRp3053
(dp3054
g66
(dp3055
g74
I4
ssg75
Nsg68
(lp3056
g61
(g77
g63
NtRp3057
(dp3058
g66
(dp3059
sg75
g3053
sg68
(lp3060
g61
(g82
g63
NtRp3061
(dp3062
g66
(dp3063
g86
g87
ssg75
g3057
sg68
(lp3064
S'environ'
p3065
asbag61
(g82
g63
NtRp3066
(dp3067
g66
(dp3068
g93
g94
ssg75
g3057
sg68
(lp3069
S':'
asbag61
(g82
g63
NtRp3070
(dp3071
g66
(dp3072
sg75
g3057
sg68
(lp3073
g61
(g62
g63
NtRp3074
(dp3075
g66
(dp3076
g74
I4
ssg75
g3070
sg68
(lp3077
g61
(g70
g63
NtRp3078
(dp3079
g66
(dp3080
g74
I3
ssg75
Nsg68
(lp3081
g61
(g77
g63
NtRp3082
(dp3083
g66
(dp3084
sg75
g3078
sg68
(lp3085
g61
(g82
g63
NtRp3086
(dp3087
g66
(dp3088
g86
g87
ssg75
g3082
sg68
(lp3089
S'HTTP_ACCEPT'
p3090
asbag61
(g82
g63
NtRp3091
(dp3092
g66
(dp3093
g93
g94
ssg75
g3082
sg68
(lp3094
S':'
asbag61
(g82
g63
NtRp3095
(dp3096
g66
(dp3097
sg75
g3082
sg68
(lp3098
g61
(g62
g63
NtRp3099
(dp3100
g66
(dp3101
g74
I3
ssg75
g3095
sg68
(lp3102
g1417
asbasbasbag61
(g77
g63
NtRp3103
(dp3104
g66
(dp3105
sg75
g3078
sg68
(lp3106
g61
(g82
g63
NtRp3107
(dp3108
g66
(dp3109
g86
g87
ssg75
g3103
sg68
(lp3110
S'HTTP_ACCEPT_CHARSET'
p3111
asbag61
(g82
g63
NtRp3112
(dp3113
g66
(dp3114
g93
g94
ssg75
g3103
sg68
(lp3115
S':'
asbag61
(g82
g63
NtRp3116
(dp3117
g66
(dp3118
sg75
g3103
sg68
(lp3119
g61
(g62
g63
NtRp3120
(dp3121
g66
(dp3122
g74
I3
ssg75
g3116
sg68
(lp3123
g1439
asbasbasbag61
(g77
g63
NtRp3124
(dp3125
g66
(dp3126
sg75
g3078
sg68
(lp3127
g61
(g82
g63
NtRp3128
(dp3129
g66
(dp3130
g86
g87
ssg75
g3124
sg68
(lp3131
S'HTTP_ACCEPT_ENCODING'
p3132
asbag61
(g82
g63
NtRp3133
(dp3134
g66
(dp3135
g93
g94
ssg75
g3124
sg68
(lp3136
S':'
asbag61
(g82
g63
NtRp3137
(dp3138
g66
(dp3139
sg75
g3124
sg68
(lp3140
g61
(g62
g63
NtRp3141
(dp3142
g66
(dp3143
g74
I3
ssg75
g3137
sg68
(lp3144
g1461
asbasbasbag61
(g77
g63
NtRp3145
(dp3146
g66
(dp3147
sg75
g3078
sg68
(lp3148
g61
(g82
g63
NtRp3149
(dp3150
g66
(dp3151
g86
g87
ssg75
g3145
sg68
(lp3152
S'HTTP_ACCEPT_LANGUAGE'
p3153
asbag61
(g82
g63
NtRp3154
(dp3155
g66
(dp3156
g93
g94
ssg75
g3145
sg68
(lp3157
S':'
asbag61
(g82
g63
NtRp3158
(dp3159
g66
(dp3160
sg75
g3145
sg68
(lp3161
g61
(g62
g63
NtRp3162
(dp3163
g66
(dp3164
g74
I3
ssg75
g3158
sg68
(lp3165
g1483
asbasbasbag61
(g77
g63
NtRp3166
(dp3167
g66
(dp3168
sg75
g3078
sg68
(lp3169
g61
(g82
g63
NtRp3170
(dp3171
g66
(dp3172
g86
g87
ssg75
g3166
sg68
(lp3173
S'HTTP_CONNECTION'
p3174
asbag61
(g82
g63
NtRp3175
(dp3176
g66
(dp3177
g93
g94
ssg75
g3166
sg68
(lp3178
S':'
asbag61
(g82
g63
NtRp3179
(dp3180
g66
(dp3181
sg75
g3166
sg68
(lp3182
g61
(g62
g63
NtRp3183
(dp3184
g66
(dp3185
g74
I3
ssg75
g3179
sg68
(lp3186
g1505
asbasbasbag61
(g77
g63
NtRp3187
(dp3188
g66
(dp3189
sg75
g3078
sg68
(lp3190
g61
(g82
g63
NtRp3191
(dp3192
g66
(dp3193
g86
g87
ssg75
g3187
sg68
(lp3194
S'HTTP_COOKIE'
p3195
asbag61
(g82
g63
NtRp3196
(dp3197
g66
(dp3198
g93
g94
ssg75
g3187
sg68
(lp3199
S':'
asbag61
(g82
g63
NtRp3200
(dp3201
g66
(dp3202
sg75
g3187
sg68
(lp3203
g61
(g62
g63
NtRp3204
(dp3205
g66
(dp3206
g74
I3
ssg75
g3200
sg68
(lp3207
g1527
asbasbasbag61
(g77
g63
NtRp3208
(dp3209
g66
(dp3210
sg75
g3078
sg68
(lp3211
g61
(g82
g63
NtRp3212
(dp3213
g66
(dp3214
g86
g87
ssg75
g3208
sg68
(lp3215
S'HTTP_HOST'
p3216
asbag61
(g82
g63
NtRp3217
(dp3218
g66
(dp3219
g93
g94
ssg75
g3208
sg68
(lp3220
S':'
asbag61
(g82
g63
NtRp3221
(dp3222
g66
(dp3223
sg75
g3208
sg68
(lp3224
g61
(g62
g63
NtRp3225
(dp3226
g66
(dp3227
g74
I3
ssg75
g3221
sg68
(lp3228
g1549
asbasbasbag61
(g77
g63
NtRp3229
(dp3230
g66
(dp3231
sg75
g3078
sg68
(lp3232
g61
(g82
g63
NtRp3233
(dp3234
g66
(dp3235
g86
g87
ssg75
g3229
sg68
(lp3236
S'HTTP_REFERER'
p3237
asbag61
(g82
g63
NtRp3238
(dp3239
g66
(dp3240
g93
g94
ssg75
g3229
sg68
(lp3241
S':'
asbag61
(g82
g63
NtRp3242
(dp3243
g66
(dp3244
sg75
g3229
sg68
(lp3245
g61
(g62
g63
NtRp3246
(dp3247
g66
(dp3248
g74
I3
ssg75
g3242
sg68
(lp3249
g1571
asbasbasbag61
(g77
g63
NtRp3250
(dp3251
g66
(dp3252
sg75
g3078
sg68
(lp3253
g61
(g82
g63
NtRp3254
(dp3255
g66
(dp3256
g86
g87
ssg75
g3250
sg68
(lp3257
S'HTTP_USER_AGENT'
p3258
asbag61
(g82
g63
NtRp3259
(dp3260
g66
(dp3261
g93
g94
ssg75
g3250
sg68
(lp3262
S':'
asbag61
(g82
g63
NtRp3263
(dp3264
g66
(dp3265
sg75
g3250
sg68
(lp3266
g61
(g62
g63
NtRp3267
(dp3268
g66
(dp3269
g74
I3
ssg75
g3263
sg68
(lp3270
g1593
asbasbasbag61
(g77
g63
NtRp3271
(dp3272
g66
(dp3273
sg75
g3078
sg68
(lp3274
g61
(g82
g63
NtRp3275
(dp3276
g66
(dp3277
g86
g87
ssg75
g3271
sg68
(lp3278
S'PATH_INFO'
p3279
asbag61
(g82
g63
NtRp3280
(dp3281
g66
(dp3282
g93
g94
ssg75
g3271
sg68
(lp3283
S':'
asbag61
(g82
g63
NtRp3284
(dp3285
g66
(dp3286
sg75
g3271
sg68
(lp3287
g61
(g62
g63
NtRp3288
(dp3289
g66
(dp3290
g74
I3
ssg75
g3284
sg68
(lp3291
g1747
asbasbasbag61
(g77
g63
NtRp3292
(dp3293
g66
(dp3294
sg75
g3078
sg68
(lp3295
g61
(g82
g63
NtRp3296
(dp3297
g66
(dp3298
g86
g87
ssg75
g3292
sg68
(lp3299
S'QUERY_STRING'
p3300
asbag61
(g82
g63
NtRp3301
(dp3302
g66
(dp3303
g93
g94
ssg75
g3292
sg68
(lp3304
S':'
asbag61
(g82
g63
NtRp3305
(dp3306
g66
(dp3307
sg75
g3292
sg68
(lp3308
g61
(g62
g63
NtRp3309
(dp3310
g66
(dp3311
g74
I3
ssg75
g3305
sg68
(lp3312
g1769
asbasbasbag61
(g77
g63
NtRp3313
(dp3314
g66
(dp3315
sg75
g3078
sg68
(lp3316
g61
(g82
g63
NtRp3317
(dp3318
g66
(dp3319
g86
g87
ssg75
g3313
sg68
(lp3320
S'REMOTE_ADDR'
p3321
asbag61
(g82
g63
NtRp3322
(dp3323
g66
(dp3324
g93
g94
ssg75
g3313
sg68
(lp3325
S':'
asbag61
(g82
g63
NtRp3326
(dp3327
g66
(dp3328
sg75
g3313
sg68
(lp3329
g61
(g62
g63
NtRp3330
(dp3331
g66
(dp3332
g74
I3
ssg75
g3326
sg68
(lp3333
g229
asbasbasbag61
(g77
g63
NtRp3334
(dp3335
g66
(dp3336
sg75
g3078
sg68
(lp3337
g61
(g82
g63
NtRp3338
(dp3339
g66
(dp3340
g86
g87
ssg75
g3334
sg68
(lp3341
S'REMOTE_PORT'
p3342
asbag61
(g82
g63
NtRp3343
(dp3344
g66
(dp3345
g93
g94
ssg75
g3334
sg68
(lp3346
S':'
asbag61
(g82
g63
NtRp3347
(dp3348
g66
(dp3349
sg75
g3334
sg68
(lp3350
g61
(g62
g63
NtRp3351
(dp3352
g66
(dp3353
g74
I3
ssg75
g3347
sg68
(lp3354
g1812
asbasbasbag61
(g77
g63
NtRp3355
(dp3356
g66
(dp3357
sg75
g3078
sg68
(lp3358
g61
(g82
g63
NtRp3359
(dp3360
g66
(dp3361
g86
g87
ssg75
g3355
sg68
(lp3362
S'REQUEST_METHOD'
p3363
asbag61
(g82
g63
NtRp3364
(dp3365
g66
(dp3366
g93
g94
ssg75
g3355
sg68
(lp3367
S':'
asbag61
(g82
g63
NtRp3368
(dp3369
g66
(dp3370
sg75
g3355
sg68
(lp3371
g61
(g62
g63
NtRp3372
(dp3373
g66
(dp3374
g74
I3
ssg75
g3368
sg68
(lp3375
g1834
asbasbasbag61
(g77
g63
NtRp3376
(dp3377
g66
(dp3378
sg75
g3078
sg68
(lp3379
g61
(g82
g63
NtRp3380
(dp3381
g66
(dp3382
g86
g87
ssg75
g3376
sg68
(lp3383
S'REQUEST_URI'
p3384
asbag61
(g82
g63
NtRp3385
(dp3386
g66
(dp3387
g93
g94
ssg75
g3376
sg68
(lp3388
S':'
asbag61
(g82
g63
NtRp3389
(dp3390
g66
(dp3391
sg75
g3376
sg68
(lp3392
g61
(g62
g63
NtRp3393
(dp3394
g66
(dp3395
g74
I3
ssg75
g3389
sg68
(lp3396
g1856
asbasbasbag61
(g77
g63
NtRp3397
(dp3398
g66
(dp3399
sg75
g3078
sg68
(lp3400
g61
(g82
g63
NtRp3401
(dp3402
g66
(dp3403
g86
g87
ssg75
g3397
sg68
(lp3404
S'SCRIPT_NAME'
p3405
asbag61
(g82
g63
NtRp3406
(dp3407
g66
(dp3408
g93
g94
ssg75
g3397
sg68
(lp3409
S':'
asbag61
(g82
g63
NtRp3410
(dp3411
g66
(dp3412
sg75
g3397
sg68
(lp3413
g61
(g62
g63
NtRp3414
(dp3415
g66
(dp3416
g74
I3
ssg75
g3410
sg68
(lp3417
S''
asbasbasbag61
(g77
g63
NtRp3418
(dp3419
g66
(dp3420
sg75
g3078
sg68
(lp3421
g61
(g82
g63
NtRp3422
(dp3423
g66
(dp3424
g86
g87
ssg75
g3418
sg68
(lp3425
S'SERVER_NAME'
p3426
asbag61
(g82
g63
NtRp3427
(dp3428
g66
(dp3429
g93
g94
ssg75
g3418
sg68
(lp3430
S':'
asbag61
(g82
g63
NtRp3431
(dp3432
g66
(dp3433
sg75
g3418
sg68
(lp3434
g61
(g62
g63
NtRp3435
(dp3436
g66
(dp3437
g74
I3
ssg75
g3431
sg68
(lp3438
g1899
asbasbasbag61
(g77
g63
NtRp3439
(dp3440
g66
(dp3441
sg75
g3078
sg68
(lp3442
g61
(g82
g63
NtRp3443
(dp3444
g66
(dp3445
g86
g87
ssg75
g3439
sg68
(lp3446
S'SERVER_PORT'
p3447
asbag61
(g82
g63
NtRp3448
(dp3449
g66
(dp3450
g93
g94
ssg75
g3439
sg68
(lp3451
S':'
asbag61
(g82
g63
NtRp3452
(dp3453
g66
(dp3454
sg75
g3439
sg68
(lp3455
g61
(g62
g63
NtRp3456
(dp3457
g66
(dp3458
g74
I3
ssg75
g3452
sg68
(lp3459
g1921
asbasbasbag61
(g77
g63
NtRp3460
(dp3461
g66
(dp3462
sg75
g3078
sg68
(lp3463
g61
(g82
g63
NtRp3464
(dp3465
g66
(dp3466
g86
g87
ssg75
g3460
sg68
(lp3467
S'SERVER_PROTOCOL'
p3468
asbag61
(g82
g63
NtRp3469
(dp3470
g66
(dp3471
g93
g94
ssg75
g3460
sg68
(lp3472
S':'
asbag61
(g82
g63
NtRp3473
(dp3474
g66
(dp3475
sg75
g3460
sg68
(lp3476
g61
(g62
g63
NtRp3477
(dp3478
g66
(dp3479
g74
I3
ssg75
g3473
sg68
(lp3480
g1943
asbasbasbag61
(g77
g63
NtRp3481
(dp3482
g66
(dp3483
sg75
g3078
sg68
(lp3484
g61
(g82
g63
NtRp3485
(dp3486
g66
(dp3487
g86
g87
ssg75
g3481
sg68
(lp3488
S'SERVER_SOFTWARE'
p3489
asbag61
(g82
g63
NtRp3490
(dp3491
g66
(dp3492
g93
g94
ssg75
g3481
sg68
(lp3493
S':'
asbag61
(g82
g63
NtRp3494
(dp3495
g66
(dp3496
sg75
g3481
sg68
(lp3497
g61
(g62
g63
NtRp3498
(dp3499
g66
(dp3500
g74
I3
ssg75
g3494
sg68
(lp3501
g1965
asbasbasbag61
(g77
g63
NtRp3502
(dp3503
g66
(dp3504
sg75
g3078
sg68
(lp3505
g61
(g82
g63
NtRp3506
(dp3507
g66
(dp3508
g86
g87
ssg75
g3502
sg68
(lp3509
S'wsgi.errors'
p3510
asbag61
(g82
g63
NtRp3511
(dp3512
g66
(dp3513
g93
g94
ssg75
g3502
sg68
(lp3514
S':'
asbag61
(g82
g63
NtRp3515
(dp3516
g66
(dp3517
sg75
g3502
sg68
(lp3518
g61
(g62
g63
NtRp3519
(dp3520
g66
(dp3521
g74
I3
ssg75
g3515
sg68
(lp3522
S"<open file '<stderr>', mode 'w' at 0x7f239539e270>"
p3523
asbasbasbag61
(g77
g63
NtRp3524
(dp3525
g66
(dp3526
sg75
g3078
sg68
(lp3527
g61
(g82
g63
NtRp3528
(dp3529
g66
(dp3530
g86
g87
ssg75
g3524
sg68
(lp3531
S'wsgi.file_wrapper'
p3532
asbag61
(g82
g63
NtRp3533
(dp3534
g66
(dp3535
g93
g94
ssg75
g3524
sg68
(lp3536
S':'
asbag61
(g82
g63
NtRp3537
(dp3538
g66
(dp3539
sg75
g3524
sg68
(lp3540
g61
(g62
g63
NtRp3541
(dp3542
g66
(dp3543
g74
I3
ssg75
g3537
sg68
(lp3544
S'<class wsgiref.util.FileWrapper at 0x1663db8>'
p3545
asbasbasbag61
(g77
g63
NtRp3546
(dp3547
g66
(dp3548
sg75
g3078
sg68
(lp3549
g61
(g82
g63
NtRp3550
(dp3551
g66
(dp3552
g86
g87
ssg75
g3546
sg68
(lp3553
S'wsgi.input'
p3554
asbag61
(g82
g63
NtRp3555
(dp3556
g66
(dp3557
g93
g94
ssg75
g3546
sg68
(lp3558
S':'
asbag61
(g82
g63
NtRp3559
(dp3560
g66
(dp3561
sg75
g3546
sg68
(lp3562
g61
(g62
g63
NtRp3563
(dp3564
g66
(dp3565
g74
I3
ssg75
g3559
sg68
(lp3566
S'<cStringIO.StringO object at 0x7f236c346420>'
p3567
asbasbasbag61
(g77
g63
NtRp3568
(dp3569
g66
(dp3570
sg75
g3078
sg68
(lp3571
g61
(g82
g63
NtRp3572
(dp3573
g66
(dp3574
g86
g87
ssg75
g3568
sg68
(lp3575
S'wsgi.multiprocess'
p3576
asbag61
(g82
g63
NtRp3577
(dp3578
g66
(dp3579
g93
g94
ssg75
g3568
sg68
(lp3580
S':'
asbag61
(g82
g63
NtRp3581
(dp3582
g66
(dp3583
sg75
g3568
sg68
(lp3584
g61
(g62
g63
NtRp3585
(dp3586
g66
(dp3587
g74
I3
ssg75
g3581
sg68
(lp3588
g104
asbasbasbag61
(g77
g63
NtRp3589
(dp3590
g66
(dp3591
sg75
g3078
sg68
(lp3592
g61
(g82
g63
NtRp3593
(dp3594
g66
(dp3595
g86
g87
ssg75
g3589
sg68
(lp3596
S'wsgi.multithread'
p3597
asbag61
(g82
g63
NtRp3598
(dp3599
g66
(dp3600
g93
g94
ssg75
g3589
sg68
(lp3601
S':'
asbag61
(g82
g63
NtRp3602
(dp3603
g66
(dp3604
sg75
g3589
sg68
(lp3605
g61
(g62
g63
NtRp3606
(dp3607
g66
(dp3608
g74
I3
ssg75
g3602
sg68
(lp3609
g2182
asbasbasbag61
(g77
g63
NtRp3610
(dp3611
g66
(dp3612
sg75
g3078
sg68
(lp3613
g61
(g82
g63
NtRp3614
(dp3615
g66
(dp3616
g86
g87
ssg75
g3610
sg68
(lp3617
S'wsgi.run_once'
p3618
asbag61
(g82
g63
NtRp3619
(dp3620
g66
(dp3621
g93
g94
ssg75
g3610
sg68
(lp3622
S':'
asbag61
(g82
g63
NtRp3623
(dp3624
g66
(dp3625
sg75
g3610
sg68
(lp3626
g61
(g62
g63
NtRp3627
(dp3628
g66
(dp3629
g74
I3
ssg75
g3623
sg68
(lp3630
g104
asbasbasbag61
(g77
g63
NtRp3631
(dp3632
g66
(dp3633
sg75
g3078
sg68
(lp3634
g61
(g82
g63
NtRp3635
(dp3636
g66
(dp3637
g86
g87
ssg75
g3631
sg68
(lp3638
S'wsgi.url_scheme'
p3639
asbag61
(g82
g63
NtRp3640
(dp3641
g66
(dp3642
g93
g94
ssg75
g3631
sg68
(lp3643
S':'
asbag61
(g82
g63
NtRp3644
(dp3645
g66
(dp3646
sg75
g3631
sg68
(lp3647
g61
(g62
g63
NtRp3648
(dp3649
g66
(dp3650
g74
I3
ssg75
g3644
sg68
(lp3651
g2225
asbasbasbag61
(g77
g63
NtRp3652
(dp3653
g66
(dp3654
sg75
g3078
sg68
(lp3655
g61
(g82
g63
NtRp3656
(dp3657
g66
(dp3658
g86
g87
ssg75
g3652
sg68
(lp3659
S'wsgi.version'
p3660
asbag61
(g82
g63
NtRp3661
(dp3662
g66
(dp3663
g93
g94
ssg75
g3652
sg68
(lp3664
S':'
asbag61
(g82
g63
NtRp3665
(dp3666
g66
(dp3667
sg75
g3652
sg68
(lp3668
g61
(g62
g63
NtRp3669
(dp3670
g66
(dp3671
g74
I3
ssg75
g3665
sg68
(lp3672
S'1'
asbasbasbasbasbasbasbasbasbasbasbasbasbsS'frames'
p3673
(lp3674
(dp3675
S'file'
p3676
S'/home/adrian/web2py/gluon/restricted.py'
p3677
sS'dump'
p3678
(dp3679
S'environment'
p3680
S"{'A': <class 'gluon.html.A'>, 'Auth': <class 'gluon.tools.Auth'>, 'B': <class 'gluon.html.B'>, 'BEAUTIFY': <class 'gluon.html.BEAUTIFY'>, 'BODY': <class 'gluon.html.BODY'>, 'BR': <class 'gluon.html.BR'>, 'BUTTON': <class 'gluon.html.BUTTON'>, 'CAT': <class 'gluon.html.CAT'>, 'CENTER': <class 'gluon.html.CENTER'>, 'CLEANUP': <class 'gluon.validators.CLEANUP'>, ...}"
p3681
sS'ccode'
p3682
S'<code object <module> at 0x7f238c53bc30, file "/...y/applications/CygnusCloud/models/db.py", line 2>'
p3683
ssS'lnum'
p3684
I212
sS'lines'
p3685
(dp3686
I207
S'    try:'
p3687
sI208
S'        if isinstance(code, types.CodeType):'
p3688
sI209
S'            ccode = code'
p3689
sI210
S'        else:'
p3690
sI211
S'            ccode = compile2(code, layer)'
p3691
sI212
S'        exec ccode in environment'
p3692
sI213
S'    except HTTP:'
p3693
sI214
S'        raise'
p3694
sI215
S'    except RestrictedError:'
p3695
sI216
S'        # do not encapsulate (obfuscate) the original RestrictedError'
p3696
ssS'call'
p3697
S'(code="# -*- coding: utf-8 -*-\\nfrom configuration impor...mbership(\'Administrator\',u1)\\nprint userDB.tables\\n", environment={\'A\': <class \'gluon.html.A\'>, \'Auth\': <class \'gluon.tools.Auth\'>, \'B\': <class \'gluon.html.B\'>, \'BEAUTIFY\': <class \'gluon.html.BEAUTIFY\'>, \'BODY\': <class \'gluon.html.BODY\'>, \'BR\': <class \'gluon.html.BR\'>, \'BUTTON\': <class \'gluon.html.BUTTON\'>, \'CAT\': <class \'gluon.html.CAT\'>, \'CENTER\': <class \'gluon.html.CENTER\'>, \'CLEANUP\': <class \'gluon.validators.CLEANUP\'>, ...}, layer=\'/home/adrian/web2py/applications/CygnusCloud/models/db.py\')'
p3698
sS'func'
p3699
S'restricted'
p3700
sa(dp3701
g3676
S'/home/adrian/web2py/applications/CygnusCloud/models/db.py'
p3702
sg3678
(dp3703
S'auth.add_group'
p3704
S'<bound method Auth.add_group of <gluon.tools.Auth object>>'
p3705
sS'auth'
p3706
S'<gluon.tools.Auth object>'
p3707
ssg3684
I49
sg3685
(dp3708
I44
S"   primarykey=['cod','curseGroup','VMName'],migrate= True)"
p3709
sI45
S''
sI46
S'#Usuario de prueba'
p3710
sI47
S"#u1 = userDB.auth_user.insert(password = userDB.auth_user.password.validate('1234')[0],email = 'Admin1@ucm.es',first_name='Bertoldo',last_name='Pedralbes')"
p3711
sI48
S'#A\xc3\xb1adimos los grupos'
p3712
sI49
S"auth.add_group('Student', 'Only run virtual machines available')"
p3713
sI50
S"#auth.add_group('Administrator', 'All privilages available')"
p3714
sI51
S'#Enlazamos los usuarios a los grupos'
p3715
sI52
S"#auth.add_membership('Administrator',u1)"
p3716
sI53
S'print userDB.tables'
p3717
ssg3697
S'()'
p3718
sg3699
S'<module>'
p3719
sa(dp3720
g3676
S'/home/adrian/web2py/gluon/tools.py'
p3721
sg3678
(dp3722
S'group_id'
p3723
S'389'
p3724
sS'role'
p3725
S"'Student'"
p3726
sS'builtindict'
p3727
S"<type 'dict'>"
p3728
ssg3684
I2981
sg3685
(dp3729
I2976
S'        """'
p3730
sI2977
S''
sI2978
S'        group_id = self.table_group().insert('
p3731
sI2979
S'            role=role, description=description)'
p3732
sI2980
S'        self.log_event(self.messages.add_group_log,'
p3733
sI2981
S'                       dict(group_id=group_id, role=role))'
p3734
sI2982
S'        return group_id'
p3735
sI2983
S''
sI2984
S'    def del_group(self, group_id):'
p3736
sI2985
S'        """'
p3737
ssg3697
S"(self=<gluon.tools.Auth object>, role='Student', description='Only run virtual machines available')"
p3738
sg3699
S'add_group'
p3739
sa(dp3740
g3676
S'/home/adrian/web2py/gluon/tools.py'
p3741
sg3678
(dp3742
S'origin'
p3743
S"'auth'"
p3744
sS'user_id'
p3745
S'87'
p3746
ssg3684
I1697
sg3685
(dp3747
I1696
S'            description=str(description % vars),'
p3748
sI1697
S'            origin=origin, user_id=user_id)'
p3749
sI1698
S''
sI1699
S"    def get_or_create_user(self, keys, update_fields=['email']):"
p3750
sI1700
S'        """'
p3751
sI1701
S'        Used for alternate login methods:'
p3752
sI1692
S'        else:'
p3753
sI1693
S'            user_id = None  # user unknown'
p3754
sI1694
S'        vars = vars or {}'
p3755
sI1695
S'        self.table_event().insert('
p3756
ssg3697
S"(self=<gluon.tools.Auth object>, description='Group %(group_id)s created', vars={'group_id': 389, 'role': 'Student'}, origin='auth')"
p3757
sg3699
S'log_event'
p3758
sa(dp3759
g3676
S'/home/adrian/web2py/gluon/dal.py'
p3760
sg3678
(dp3761
S'self._listify'
p3762
S'<bound method Table._listify of <Table auth_even...ime_stamp,client_ip,user_id,origin,description)>>'
p3763
sS'fields'
p3764
S"{'client_ip': '127.0.0.1', 'description': 'Group 389 created', 'origin': 'auth', 'time_stamp': datetime.datetime(2013, 2, 6, 0, 30, 45, 386241), 'user_id': 87}"
p3765
sS'self'
p3766
S'<Table auth_event (id,time_stamp,client_ip,user_id,origin,description)>'
p3767
sS'ret'
p3768
S'undefined'
p3769
sS'self._db._adapter'
p3770
S'<gluon.dal.MySQLAdapter object>'
p3771
sS'self._db._adapter.insert'
p3772
S'<bound method MySQLAdapter.insert of <gluon.dal.MySQLAdapter object>>'
p3773
sS'self._db'
p3774
S'<DAL uri="mysql://******:cygnuscloud2012@localhost/UseresDB">'
p3775
ssg3684
I7918
sg3685
(dp3776
I7913
S'        return self._db._adapter._insert(self,self._listify(fields))'
p3777
sI7914
S''
sI7915
S'    def insert(self, **fields):'
p3778
sI7916
S'        self._attempt_upload(fields)'
p3779
sI7917
S'        if any(f(fields) for f in self._before_insert): return 0'
p3780
sI7918
S'        ret =  self._db._adapter.insert(self,self._listify(fields))'
p3781
sI7919
S'        if ret and self._after_insert:'
p3782
sI7920
S'            fields = Row(fields)'
p3783
sI7921
S'            [f(fields,ret) for f in self._after_insert]'
p3784
sI7922
S'        return ret'
p3785
ssg3697
S"(self=<Table auth_event (id,time_stamp,client_ip,user_id,origin,description)>, **fields={'client_ip': '127.0.0.1', 'description': 'Group 389 created', 'origin': 'auth', 'time_stamp': datetime.datetime(2013, 2, 6, 0, 30, 45, 386241), 'user_id': 87})"
p3786
sg3699
S'insert'
p3787
sa(dp3788
g3676
S'/home/adrian/web2py/gluon/dal.py'
p3789
sg3678
(dp3790
S'e'
S"IntegrityError(1452, 'Cannot add or update a chi...EFERENCES `auth_user` (`id`) ON DELETE CASCADE)')"
p3791
ssg3684
I1176
sg3685
(dp3792
I1171
S'            self.execute(query)'
p3793
sI1172
S'        except Exception:'
p3794
sI1173
S'            e = sys.exc_info()[1]'
p3795
sI1174
S'            if isinstance(e,self.integrity_error_class()):'
p3796
sI1175
S'                return None'
p3797
sI1176
S'            raise e'
p3798
sI1177
S"        if hasattr(table,'_primarykey'):"
p3799
sI1178
S'            return dict([(k[0].name, k[1]) for k in fields \\'
p3800
sI1179
S'                             if k[0].name in table._primarykey])'
p3801
sI1180
S'        id = self.lastrowid(table)'
p3802
ssg3697
S"(self=<gluon.dal.MySQLAdapter object>, table=<Table auth_event (id,time_stamp,client_ip,user_id,origin,description)>, fields=[(<gluon.dal.Field object>, 'auth'), (<gluon.dal.Field object>, datetime.datetime(2013, 2, 6, 0, 30, 45, 386241)), (<gluon.dal.Field object>, '127.0.0.1'), (<gluon.dal.Field object>, 87), (<gluon.dal.Field object>, 'Group 389 created')])"
p3803
sg3699
g3787
sasS'pyver'
p3804
S'Python 2.7.3: /usr/bin/python'
p3805
sS'session'
p3806
g61
(g62
g63
NtRp3807
(dp3808
g66
(dp3809
sg68
(lp3810
g61
(g70
g63
NtRp3811
(dp3812
g66
(dp3813
g74
I5
ssg75
Nsg68
(lp3814
g61
(g77
g63
NtRp3815
(dp3816
g66
(dp3817
sg75
g3811
sg68
(lp3818
g61
(g82
g63
NtRp3819
(dp3820
g66
(dp3821
g86
g87
ssg75
g3815
sg68
(lp3822
S'auth'
p3823
asbag61
(g82
g63
NtRp3824
(dp3825
g66
(dp3826
g93
g94
ssg75
g3815
sg68
(lp3827
S':'
asbag61
(g82
g63
NtRp3828
(dp3829
g66
(dp3830
sg75
g3815
sg68
(lp3831
g61
(g62
g63
NtRp3832
(dp3833
g66
(dp3834
g74
I5
ssg75
g3828
sg68
(lp3835
g61
(g70
g63
NtRp3836
(dp3837
g66
(dp3838
g74
I4
ssg75
Nsg68
(lp3839
g61
(g77
g63
NtRp3840
(dp3841
g66
(dp3842
sg75
g3836
sg68
(lp3843
g61
(g82
g63
NtRp3844
(dp3845
g66
(dp3846
g86
g87
ssg75
g3840
sg68
(lp3847
S'expiration'
p3848
asbag61
(g82
g63
NtRp3849
(dp3850
g66
(dp3851
g93
g94
ssg75
g3840
sg68
(lp3852
S':'
asbag61
(g82
g63
NtRp3853
(dp3854
g66
(dp3855
sg75
g3840
sg68
(lp3856
g61
(g62
g63
NtRp3857
(dp3858
g66
(dp3859
g74
I4
ssg75
g3853
sg68
(lp3860
S'3600'
p3861
asbasbasbag61
(g77
g63
NtRp3862
(dp3863
g66
(dp3864
sg75
g3836
sg68
(lp3865
g61
(g82
g63
NtRp3866
(dp3867
g66
(dp3868
g86
g87
ssg75
g3862
sg68
(lp3869
S'hmac_key'
p3870
asbag61
(g82
g63
NtRp3871
(dp3872
g66
(dp3873
g93
g94
ssg75
g3862
sg68
(lp3874
S':'
asbag61
(g82
g63
NtRp3875
(dp3876
g66
(dp3877
sg75
g3862
sg68
(lp3878
g61
(g62
g63
NtRp3879
(dp3880
g66
(dp3881
g74
I4
ssg75
g3875
sg68
(lp3882
S'0cfa3105-27e2-4747-89ff-ddb2990d43d0'
p3883
asbasbasbag61
(g77
g63
NtRp3884
(dp3885
g66
(dp3886
sg75
g3836
sg68
(lp3887
g61
(g82
g63
NtRp3888
(dp3889
g66
(dp3890
g86
g87
ssg75
g3884
sg68
(lp3891
S'last_visit'
p3892
asbag61
(g82
g63
NtRp3893
(dp3894
g66
(dp3895
g93
g94
ssg75
g3884
sg68
(lp3896
S':'
asbag61
(g82
g63
NtRp3897
(dp3898
g66
(dp3899
sg75
g3884
sg68
(lp3900
g61
(g62
g63
NtRp3901
(dp3902
g66
(dp3903
g74
I4
ssg75
g3897
sg68
(lp3904
S'datetime.datetime(2013, 2, 6, 0, 25, 14, 293591)'
p3905
asbasbasbag61
(g77
g63
NtRp3906
(dp3907
g66
(dp3908
sg75
g3836
sg68
(lp3909
g61
(g82
g63
NtRp3910
(dp3911
g66
(dp3912
g86
g87
ssg75
g3906
sg68
(lp3913
S'remember'
p3914
asbag61
(g82
g63
NtRp3915
(dp3916
g66
(dp3917
g93
g94
ssg75
g3906
sg68
(lp3918
S':'
asbag61
(g82
g63
NtRp3919
(dp3920
g66
(dp3921
sg75
g3906
sg68
(lp3922
g61
(g62
g63
NtRp3923
(dp3924
g66
(dp3925
g74
I4
ssg75
g3919
sg68
(lp3926
g104
asbasbasbag61
(g77
g63
NtRp3927
(dp3928
g66
(dp3929
sg75
g3836
sg68
(lp3930
g61
(g82
g63
NtRp3931
(dp3932
g66
(dp3933
g86
g87
ssg75
g3927
sg68
(lp3934
S'user'
p3935
asbag61
(g82
g63
NtRp3936
(dp3937
g66
(dp3938
g93
g94
ssg75
g3927
sg68
(lp3939
S':'
asbag61
(g82
g63
NtRp3940
(dp3941
g66
(dp3942
sg75
g3927
sg68
(lp3943
g61
(g62
g63
NtRp3944
(dp3945
g66
(dp3946
g74
I4
ssg75
g3940
sg68
(lp3947
g61
(g70
g63
NtRp3948
(dp3949
g66
(dp3950
g74
I3
ssg75
Nsg68
(lp3951
g61
(g77
g63
NtRp3952
(dp3953
g66
(dp3954
sg75
g3948
sg68
(lp3955
g61
(g82
g63
NtRp3956
(dp3957
g66
(dp3958
g86
g87
ssg75
g3952
sg68
(lp3959
S'email'
p3960
asbag61
(g82
g63
NtRp3961
(dp3962
g66
(dp3963
g93
g94
ssg75
g3952
sg68
(lp3964
S':'
asbag61
(g82
g63
NtRp3965
(dp3966
g66
(dp3967
sg75
g3952
sg68
(lp3968
g61
(g62
g63
NtRp3969
(dp3970
g66
(dp3971
g74
I3
ssg75
g3965
sg68
(lp3972
S'Admin1@ucm.es'
p3973
asbasbasbag61
(g77
g63
NtRp3974
(dp3975
g66
(dp3976
sg75
g3948
sg68
(lp3977
g61
(g82
g63
NtRp3978
(dp3979
g66
(dp3980
g86
g87
ssg75
g3974
sg68
(lp3981
S'first_name'
p3982
asbag61
(g82
g63
NtRp3983
(dp3984
g66
(dp3985
g93
g94
ssg75
g3974
sg68
(lp3986
S':'
asbag61
(g82
g63
NtRp3987
(dp3988
g66
(dp3989
sg75
g3974
sg68
(lp3990
g61
(g62
g63
NtRp3991
(dp3992
g66
(dp3993
g74
I3
ssg75
g3987
sg68
(lp3994
S'Bertoldo'
p3995
asbasbasbag61
(g77
g63
NtRp3996
(dp3997
g66
(dp3998
sg75
g3948
sg68
(lp3999
g61
(g82
g63
NtRp4000
(dp4001
g66
(dp4002
g86
g87
ssg75
g3996
sg68
(lp4003
S'id'
p4004
asbag61
(g82
g63
NtRp4005
(dp4006
g66
(dp4007
g93
g94
ssg75
g3996
sg68
(lp4008
S':'
asbag61
(g82
g63
NtRp4009
(dp4010
g66
(dp4011
sg75
g3996
sg68
(lp4012
g61
(g62
g63
NtRp4013
(dp4014
g66
(dp4015
g74
I3
ssg75
g4009
sg68
(lp4016
S'87'
p4017
asbasbasbag61
(g77
g63
NtRp4018
(dp4019
g66
(dp4020
sg75
g3948
sg68
(lp4021
g61
(g82
g63
NtRp4022
(dp4023
g66
(dp4024
g86
g87
ssg75
g4018
sg68
(lp4025
S'last_name'
p4026
asbag61
(g82
g63
NtRp4027
(dp4028
g66
(dp4029
g93
g94
ssg75
g4018
sg68
(lp4030
S':'
asbag61
(g82
g63
NtRp4031
(dp4032
g66
(dp4033
sg75
g4018
sg68
(lp4034
g61
(g62
g63
NtRp4035
(dp4036
g66
(dp4037
g74
I3
ssg75
g4031
sg68
(lp4038
S'Pedralbes'
p4039
asbasbasbag61
(g77
g63
NtRp4040
(dp4041
g66
(dp4042
sg75
g3948
sg68
(lp4043
g61
(g82
g63
NtRp4044
(dp4045
g66
(dp4046
g86
g87
ssg75
g4040
sg68
(lp4047
S'registration_id'
p4048
asbag61
(g82
g63
NtRp4049
(dp4050
g66
(dp4051
g93
g94
ssg75
g4040
sg68
(lp4052
S':'
asbag61
(g82
g63
NtRp4053
(dp4054
g66
(dp4055
sg75
g4040
sg68
(lp4056
g61
(g62
g63
NtRp4057
(dp4058
g66
(dp4059
g74
I3
ssg75
g4053
sg68
(lp4060
S''
asbasbasbag61
(g77
g63
NtRp4061
(dp4062
g66
(dp4063
sg75
g3948
sg68
(lp4064
g61
(g82
g63
NtRp4065
(dp4066
g66
(dp4067
g86
g87
ssg75
g4061
sg68
(lp4068
S'registration_key'
p4069
asbag61
(g82
g63
NtRp4070
(dp4071
g66
(dp4072
g93
g94
ssg75
g4061
sg68
(lp4073
S':'
asbag61
(g82
g63
NtRp4074
(dp4075
g66
(dp4076
sg75
g4061
sg68
(lp4077
g61
(g62
g63
NtRp4078
(dp4079
g66
(dp4080
g74
I3
ssg75
g4074
sg68
(lp4081
S''
asbasbasbag61
(g77
g63
NtRp4082
(dp4083
g66
(dp4084
sg75
g3948
sg68
(lp4085
g61
(g82
g63
NtRp4086
(dp4087
g66
(dp4088
g86
g87
ssg75
g4082
sg68
(lp4089
S'reset_password_key'
p4090
asbag61
(g82
g63
NtRp4091
(dp4092
g66
(dp4093
g93
g94
ssg75
g4082
sg68
(lp4094
S':'
asbag61
(g82
g63
NtRp4095
(dp4096
g66
(dp4097
sg75
g4082
sg68
(lp4098
g61
(g62
g63
NtRp4099
(dp4100
g66
(dp4101
g74
I3
ssg75
g4095
sg68
(lp4102
S''
asbasbasbasbasbasbasbag61
(g77
g63
NtRp4103
(dp4104
g66
(dp4105
sg75
g3836
sg68
(lp4106
g61
(g82
g63
NtRp4107
(dp4108
g66
(dp4109
g86
g87
ssg75
g4103
sg68
(lp4110
S'user_groups'
p4111
asbag61
(g82
g63
NtRp4112
(dp4113
g66
(dp4114
g93
g94
ssg75
g4103
sg68
(lp4115
S':'
asbag61
(g82
g63
NtRp4116
(dp4117
g66
(dp4118
sg75
g4103
sg68
(lp4119
g61
(g62
g63
NtRp4120
(dp4121
g66
(dp4122
g74
I4
ssg75
g4116
sg68
(lp4123
g61
(g70
g63
NtRp4124
(dp4125
g66
(dp4126
g74
I3
ssg75
Nsg68
(lp4127
g61
(g77
g63
NtRp4128
(dp4129
g66
(dp4130
sg75
g4124
sg68
(lp4131
g61
(g82
g63
NtRp4132
(dp4133
g66
(dp4134
g86
g87
ssg75
g4128
sg68
(lp4135
S'100'
p4136
asbag61
(g82
g63
NtRp4137
(dp4138
g66
(dp4139
g93
g94
ssg75
g4128
sg68
(lp4140
S':'
asbag61
(g82
g63
NtRp4141
(dp4142
g66
(dp4143
sg75
g4128
sg68
(lp4144
g61
(g62
g63
NtRp4145
(dp4146
g66
(dp4147
g74
I3
ssg75
g4141
sg68
(lp4148
S'Administrator'
p4149
asbasbasbasbasbasbasbasbasbasbasbag61
(g77
g63
NtRp4150
(dp4151
g66
(dp4152
sg75
g3811
sg68
(lp4153
g61
(g82
g63
NtRp4154
(dp4155
g66
(dp4156
g86
g87
ssg75
g4150
sg68
(lp4157
S'flash'
p4158
asbag61
(g82
g63
NtRp4159
(dp4160
g66
(dp4161
g93
g94
ssg75
g4150
sg68
(lp4162
S':'
asbag61
(g82
g63
NtRp4163
(dp4164
g66
(dp4165
sg75
g4150
sg68
(lp4166
g61
(g62
g63
NtRp4167
(dp4168
g66
(dp4169
g74
I5
ssg75
g4163
sg68
(lp4170
S'None'
p4171
asbasbasbag61
(g77
g63
NtRp4172
(dp4173
g66
(dp4174
sg75
g3811
sg68
(lp4175
g61
(g82
g63
NtRp4176
(dp4177
g66
(dp4178
g86
g87
ssg75
g4172
sg68
(lp4179
S'last_orderby'
p4180
asbag61
(g82
g63
NtRp4181
(dp4182
g66
(dp4183
g93
g94
ssg75
g4172
sg68
(lp4184
S':'
asbag61
(g82
g63
NtRp4185
(dp4186
g66
(dp4187
sg75
g4172
sg68
(lp4188
g61
(g62
g63
NtRp4189
(dp4190
g66
(dp4191
g74
I5
ssg75
g4185
sg68
(lp4192
S'None'
p4193
asbasbasbag61
(g77
g63
NtRp4194
(dp4195
g66
(dp4196
sg75
g3811
sg68
(lp4197
g61
(g82
g63
NtRp4198
(dp4199
g66
(dp4200
g86
g87
ssg75
g4194
sg68
(lp4201
S'last_query'
p4202
asbag61
(g82
g63
NtRp4203
(dp4204
g66
(dp4205
g93
g94
ssg75
g4194
sg68
(lp4206
S':'
asbag61
(g82
g63
NtRp4207
(dp4208
g66
(dp4209
sg75
g4194
sg68
(lp4210
g61
(g62
g63
NtRp4211
(dp4212
g66
(dp4213
g74
I5
ssg75
g4207
sg68
(lp4214
S'userDB.auth_group.id>0'
p4215
asbasbasbasbasbsS'etype'
p4216
S"<class '_mysql_exceptions.IntegrityError'>"
p4217
sS'date'
p4218
S'Wed Feb  6 00:30:45 2013'
p4219
sS'response'
p4220
g61
(g62
g63
NtRp4221
(dp4222
g66
(dp4223
sg68
(lp4224
g61
(g70
g63
NtRp4225
(dp4226
g66
(dp4227
g74
I5
ssg75
Nsg68
(lp4228
g61
(g77
g63
NtRp4229
(dp4230
g66
(dp4231
sg75
g4225
sg68
(lp4232
g61
(g82
g63
NtRp4233
(dp4234
g66
(dp4235
g86
g87
ssg75
g4229
sg68
(lp4236
g172
asbag61
(g82
g63
NtRp4237
(dp4238
g66
(dp4239
g93
g94
ssg75
g4229
sg68
(lp4240
S':'
asbag61
(g82
g63
NtRp4241
(dp4242
g66
(dp4243
sg75
g4229
sg68
(lp4244
g61
(g62
g63
NtRp4245
(dp4246
g66
(dp4247
g74
I5
ssg75
g4241
sg68
(lp4248
S'<cStringIO.StringO object at 0x7f237c131a40>'
p4249
asbasbasbag61
(g77
g63
NtRp4250
(dp4251
g66
(dp4252
sg75
g4225
sg68
(lp4253
g61
(g82
g63
NtRp4254
(dp4255
g66
(dp4256
g86
g87
ssg75
g4250
sg68
(lp4257
g260
asbag61
(g82
g63
NtRp4258
(dp4259
g66
(dp4260
g93
g94
ssg75
g4250
sg68
(lp4261
S':'
asbag61
(g82
g63
NtRp4262
(dp4263
g66
(dp4264
sg75
g4250
sg68
(lp4265
g61
(g62
g63
NtRp4266
(dp4267
g66
(dp4268
g74
I5
ssg75
g4262
sg68
(lp4269
g61
(g70
g63
NtRp4270
(dp4271
g66
(dp4272
g74
I4
ssg75
Nsg68
(lp4273
g61
(g77
g63
NtRp4274
(dp4275
g66
(dp4276
sg75
g4270
sg68
(lp4277
g61
(g82
g63
NtRp4278
(dp4279
g66
(dp4280
g86
g87
ssg75
g4274
sg68
(lp4281
S'session_id_cygnuscloud'
p4282
asbag61
(g82
g63
NtRp4283
(dp4284
g66
(dp4285
g93
g94
ssg75
g4274
sg68
(lp4286
S':'
asbag61
(g82
g63
NtRp4287
(dp4288
g66
(dp4289
sg75
g4274
sg68
(lp4290
g61
(g62
g63
NtRp4291
(dp4292
g66
(dp4293
g74
I4
ssg75
g4287
sg68
(lp4294
g492
ag61
(g70
g63
NtRp4295
(dp4296
g66
(dp4297
g74
I3
ssg75
Nsg68
(lp4298
g61
(g77
g63
NtRp4299
(dp4300
g66
(dp4301
sg75
g4295
sg68
(lp4302
g61
(g82
g63
NtRp4303
(dp4304
g66
(dp4305
g86
g87
ssg75
g4299
sg68
(lp4306
g311
asbag61
(g82
g63
NtRp4307
(dp4308
g66
(dp4309
g93
g94
ssg75
g4299
sg68
(lp4310
S':'
asbag61
(g82
g63
NtRp4311
(dp4312
g66
(dp4313
sg75
g4299
sg68
(lp4314
g61
(g62
g63
NtRp4315
(dp4316
g66
(dp4317
g74
I3
ssg75
g4311
sg68
(lp4318
S''
asbasbasbag61
(g77
g63
NtRp4319
(dp4320
g66
(dp4321
sg75
g4295
sg68
(lp4322
g61
(g82
g63
NtRp4323
(dp4324
g66
(dp4325
g86
g87
ssg75
g4319
sg68
(lp4326
g332
asbag61
(g82
g63
NtRp4327
(dp4328
g66
(dp4329
g93
g94
ssg75
g4319
sg68
(lp4330
S':'
asbag61
(g82
g63
NtRp4331
(dp4332
g66
(dp4333
sg75
g4319
sg68
(lp4334
g61
(g62
g63
NtRp4335
(dp4336
g66
(dp4337
g74
I3
ssg75
g4331
sg68
(lp4338
S''
asbasbasbag61
(g77
g63
NtRp4339
(dp4340
g66
(dp4341
sg75
g4295
sg68
(lp4342
g61
(g82
g63
NtRp4343
(dp4344
g66
(dp4345
g86
g87
ssg75
g4339
sg68
(lp4346
g353
asbag61
(g82
g63
NtRp4347
(dp4348
g66
(dp4349
g93
g94
ssg75
g4339
sg68
(lp4350
S':'
asbag61
(g82
g63
NtRp4351
(dp4352
g66
(dp4353
sg75
g4339
sg68
(lp4354
g61
(g62
g63
NtRp4355
(dp4356
g66
(dp4357
g74
I3
ssg75
g4351
sg68
(lp4358
S''
asbasbasbag61
(g77
g63
NtRp4359
(dp4360
g66
(dp4361
sg75
g4295
sg68
(lp4362
g61
(g82
g63
NtRp4363
(dp4364
g66
(dp4365
g86
g87
ssg75
g4359
sg68
(lp4366
g374
asbag61
(g82
g63
NtRp4367
(dp4368
g66
(dp4369
g93
g94
ssg75
g4359
sg68
(lp4370
S':'
asbag61
(g82
g63
NtRp4371
(dp4372
g66
(dp4373
sg75
g4359
sg68
(lp4374
g61
(g62
g63
NtRp4375
(dp4376
g66
(dp4377
g74
I3
ssg75
g4371
sg68
(lp4378
S''
asbasbasbag61
(g77
g63
NtRp4379
(dp4380
g66
(dp4381
sg75
g4295
sg68
(lp4382
g61
(g82
g63
NtRp4383
(dp4384
g66
(dp4385
g86
g87
ssg75
g4379
sg68
(lp4386
g395
asbag61
(g82
g63
NtRp4387
(dp4388
g66
(dp4389
g93
g94
ssg75
g4379
sg68
(lp4390
S':'
asbag61
(g82
g63
NtRp4391
(dp4392
g66
(dp4393
sg75
g4379
sg68
(lp4394
g61
(g62
g63
NtRp4395
(dp4396
g66
(dp4397
g74
I3
ssg75
g4391
sg68
(lp4398
S''
asbasbasbag61
(g77
g63
NtRp4399
(dp4400
g66
(dp4401
sg75
g4295
sg68
(lp4402
g61
(g82
g63
NtRp4403
(dp4404
g66
(dp4405
g86
g87
ssg75
g4399
sg68
(lp4406
g416
asbag61
(g82
g63
NtRp4407
(dp4408
g66
(dp4409
g93
g94
ssg75
g4399
sg68
(lp4410
S':'
asbag61
(g82
g63
NtRp4411
(dp4412
g66
(dp4413
sg75
g4399
sg68
(lp4414
g61
(g62
g63
NtRp4415
(dp4416
g66
(dp4417
g74
I3
ssg75
g4411
sg68
(lp4418
S'/'
asbasbasbag61
(g77
g63
NtRp4419
(dp4420
g66
(dp4421
sg75
g4295
sg68
(lp4422
g61
(g82
g63
NtRp4423
(dp4424
g66
(dp4425
g86
g87
ssg75
g4419
sg68
(lp4426
g437
asbag61
(g82
g63
NtRp4427
(dp4428
g66
(dp4429
g93
g94
ssg75
g4419
sg68
(lp4430
S':'
asbag61
(g82
g63
NtRp4431
(dp4432
g66
(dp4433
sg75
g4419
sg68
(lp4434
g61
(g62
g63
NtRp4435
(dp4436
g66
(dp4437
g74
I3
ssg75
g4431
sg68
(lp4438
S''
asbasbasbag61
(g77
g63
NtRp4439
(dp4440
g66
(dp4441
sg75
g4295
sg68
(lp4442
g61
(g82
g63
NtRp4443
(dp4444
g66
(dp4445
g86
g87
ssg75
g4439
sg68
(lp4446
g458
asbag61
(g82
g63
NtRp4447
(dp4448
g66
(dp4449
g93
g94
ssg75
g4439
sg68
(lp4450
S':'
asbag61
(g82
g63
NtRp4451
(dp4452
g66
(dp4453
sg75
g4439
sg68
(lp4454
g61
(g62
g63
NtRp4455
(dp4456
g66
(dp4457
g74
I3
ssg75
g4451
sg68
(lp4458
S''
asbasbasbasbasbasbasbasbasbasbasbag61
(g77
g63
NtRp4459
(dp4460
g66
(dp4461
sg75
g4225
sg68
(lp4462
g61
(g82
g63
NtRp4463
(dp4464
g66
(dp4465
g86
g87
ssg75
g4459
sg68
(lp4466
S'delimiters'
p4467
asbag61
(g82
g63
NtRp4468
(dp4469
g66
(dp4470
g93
g94
ssg75
g4459
sg68
(lp4471
S':'
asbag61
(g82
g63
NtRp4472
(dp4473
g66
(dp4474
sg75
g4459
sg68
(lp4475
g61
(g62
g63
NtRp4476
(dp4477
g66
(dp4478
g74
I5
ssg75
g4472
sg68
(lp4479
g61
(g70
g63
NtRp4480
(dp4481
g66
(dp4482
g74
I4
ssg75
Nsg68
(lp4483
g61
(g77
g63
NtRp4484
(dp4485
g66
(dp4486
sg75
g4480
sg68
(lp4487
g61
(g82
g63
NtRp4488
(dp4489
g66
(dp4490
sg75
g4484
sg68
(lp4491
g61
(g62
g63
NtRp4492
(dp4493
g66
(dp4494
g74
I4
ssg75
g4488
sg68
(lp4495
S'{{'
p4496
asbasbasbag61
(g77
g63
NtRp4497
(dp4498
g66
(dp4499
sg75
g4480
sg68
(lp4500
g61
(g82
g63
NtRp4501
(dp4502
g66
(dp4503
sg75
g4497
sg68
(lp4504
g61
(g62
g63
NtRp4505
(dp4506
g66
(dp4507
g74
I4
ssg75
g4501
sg68
(lp4508
S'}}'
p4509
asbasbasbasbasbasbasbag61
(g77
g63
NtRp4510
(dp4511
g66
(dp4512
sg75
g4225
sg68
(lp4513
g61
(g82
g63
NtRp4514
(dp4515
g66
(dp4516
g86
g87
ssg75
g4510
sg68
(lp4517
S'files'
p4518
asbag61
(g82
g63
NtRp4519
(dp4520
g66
(dp4521
g93
g94
ssg75
g4510
sg68
(lp4522
S':'
asbag61
(g82
g63
NtRp4523
(dp4524
g66
(dp4525
sg75
g4510
sg68
(lp4526
g61
(g62
g63
NtRp4527
(dp4528
g66
(dp4529
g74
I5
ssg75
g4523
sg68
(lp4530
g61
(g70
g63
NtRp4531
(dp4532
g66
(dp4533
g74
I4
ssg75
Nsg68
(lp4534
sbasbasbasbag61
(g77
g63
NtRp4535
(dp4536
g66
(dp4537
sg75
g4225
sg68
(lp4538
g61
(g82
g63
NtRp4539
(dp4540
g66
(dp4541
g86
g87
ssg75
g4535
sg68
(lp4542
S'flash'
p4543
asbag61
(g82
g63
NtRp4544
(dp4545
g66
(dp4546
g93
g94
ssg75
g4535
sg68
(lp4547
S':'
asbag61
(g82
g63
NtRp4548
(dp4549
g66
(dp4550
sg75
g4535
sg68
(lp4551
g61
(g62
g63
NtRp4552
(dp4553
g66
(dp4554
g74
I5
ssg75
g4548
sg68
(lp4555
S''
asbasbasbag61
(g77
g63
NtRp4556
(dp4557
g66
(dp4558
sg75
g4225
sg68
(lp4559
g61
(g82
g63
NtRp4560
(dp4561
g66
(dp4562
g86
g87
ssg75
g4556
sg68
(lp4563
S'generic_patterns'
p4564
asbag61
(g82
g63
NtRp4565
(dp4566
g66
(dp4567
g93
g94
ssg75
g4556
sg68
(lp4568
S':'
asbag61
(g82
g63
NtRp4569
(dp4570
g66
(dp4571
sg75
g4556
sg68
(lp4572
g61
(g62
g63
NtRp4573
(dp4574
g66
(dp4575
g74
I5
ssg75
g4569
sg68
(lp4576
g61
(g70
g63
NtRp4577
(dp4578
g66
(dp4579
g74
I4
ssg75
Nsg68
(lp4580
sbasbasbasbag61
(g77
g63
NtRp4581
(dp4582
g66
(dp4583
sg75
g4225
sg68
(lp4584
g61
(g82
g63
NtRp4585
(dp4586
g66
(dp4587
g86
g87
ssg75
g4581
sg68
(lp4588
S'headers'
p4589
asbag61
(g82
g63
NtRp4590
(dp4591
g66
(dp4592
g93
g94
ssg75
g4581
sg68
(lp4593
S':'
asbag61
(g82
g63
NtRp4594
(dp4595
g66
(dp4596
sg75
g4581
sg68
(lp4597
g61
(g62
g63
NtRp4598
(dp4599
g66
(dp4600
g74
I5
ssg75
g4594
sg68
(lp4601
g61
(g70
g63
NtRp4602
(dp4603
g66
(dp4604
g74
I4
ssg75
Nsg68
(lp4605
g61
(g77
g63
NtRp4606
(dp4607
g66
(dp4608
sg75
g4602
sg68
(lp4609
g61
(g82
g63
NtRp4610
(dp4611
g66
(dp4612
g86
g87
ssg75
g4606
sg68
(lp4613
S'X-Powered-By'
p4614
asbag61
(g82
g63
NtRp4615
(dp4616
g66
(dp4617
g93
g94
ssg75
g4606
sg68
(lp4618
S':'
asbag61
(g82
g63
NtRp4619
(dp4620
g66
(dp4621
sg75
g4606
sg68
(lp4622
g61
(g62
g63
NtRp4623
(dp4624
g66
(dp4625
g74
I4
ssg75
g4619
sg68
(lp4626
S'web2py'
p4627
asbasbasbasbasbasbasbag61
(g77
g63
NtRp4628
(dp4629
g66
(dp4630
sg75
g4225
sg68
(lp4631
g61
(g82
g63
NtRp4632
(dp4633
g66
(dp4634
g86
g87
ssg75
g4628
sg68
(lp4635
S'menu'
p4636
asbag61
(g82
g63
NtRp4637
(dp4638
g66
(dp4639
g93
g94
ssg75
g4628
sg68
(lp4640
S':'
asbag61
(g82
g63
NtRp4641
(dp4642
g66
(dp4643
sg75
g4628
sg68
(lp4644
g61
(g62
g63
NtRp4645
(dp4646
g66
(dp4647
g74
I5
ssg75
g4641
sg68
(lp4648
g61
(g70
g63
NtRp4649
(dp4650
g66
(dp4651
g74
I4
ssg75
Nsg68
(lp4652
sbasbasbasbag61
(g77
g63
NtRp4653
(dp4654
g66
(dp4655
sg75
g4225
sg68
(lp4656
g61
(g82
g63
NtRp4657
(dp4658
g66
(dp4659
g86
g87
ssg75
g4653
sg68
(lp4660
S'meta'
p4661
asbag61
(g82
g63
NtRp4662
(dp4663
g66
(dp4664
g93
g94
ssg75
g4653
sg68
(lp4665
S':'
asbag61
(g82
g63
NtRp4666
(dp4667
g66
(dp4668
sg75
g4653
sg68
(lp4669
g61
(g62
g63
NtRp4670
(dp4671
g66
(dp4672
g74
I5
ssg75
g4666
sg68
(lp4673
g61
(g70
g63
NtRp4674
(dp4675
g66
(dp4676
g74
I4
ssg75
Nsg68
(lp4677
sbasbasbasbag61
(g77
g63
NtRp4678
(dp4679
g66
(dp4680
sg75
g4225
sg68
(lp4681
g61
(g82
g63
NtRp4682
(dp4683
g66
(dp4684
g86
g87
ssg75
g4678
sg68
(lp4685
S'models_to_run'
p4686
asbag61
(g82
g63
NtRp4687
(dp4688
g66
(dp4689
g93
g94
ssg75
g4678
sg68
(lp4690
S':'
asbag61
(g82
g63
NtRp4691
(dp4692
g66
(dp4693
sg75
g4678
sg68
(lp4694
g61
(g62
g63
NtRp4695
(dp4696
g66
(dp4697
g74
I5
ssg75
g4691
sg68
(lp4698
g61
(g70
g63
NtRp4699
(dp4700
g66
(dp4701
g74
I4
ssg75
Nsg68
(lp4702
g61
(g77
g63
NtRp4703
(dp4704
g66
(dp4705
sg75
g4699
sg68
(lp4706
g61
(g82
g63
NtRp4707
(dp4708
g66
(dp4709
sg75
g4703
sg68
(lp4710
g61
(g62
g63
NtRp4711
(dp4712
g66
(dp4713
g74
I4
ssg75
g4707
sg68
(lp4714
S'^\\w+\\.py$'
p4715
asbasbasbag61
(g77
g63
NtRp4716
(dp4717
g66
(dp4718
sg75
g4699
sg68
(lp4719
g61
(g82
g63
NtRp4720
(dp4721
g66
(dp4722
sg75
g4716
sg68
(lp4723
g61
(g62
g63
NtRp4724
(dp4725
g66
(dp4726
g74
I4
ssg75
g4720
sg68
(lp4727
S'^appadmin/\\w+\\.py$'
p4728
asbasbasbag61
(g77
g63
NtRp4729
(dp4730
g66
(dp4731
sg75
g4699
sg68
(lp4732
g61
(g82
g63
NtRp4733
(dp4734
g66
(dp4735
sg75
g4729
sg68
(lp4736
g61
(g62
g63
NtRp4737
(dp4738
g66
(dp4739
g74
I4
ssg75
g4733
sg68
(lp4740
S'^appadmin/select/\\w+\\.py$'
p4741
asbasbasbasbasbasbasbag61
(g77
g63
NtRp4742
(dp4743
g66
(dp4744
sg75
g4225
sg68
(lp4745
g61
(g82
g63
NtRp4746
(dp4747
g66
(dp4748
g86
g87
ssg75
g4742
sg68
(lp4749
S'postprocessing'
p4750
asbag61
(g82
g63
NtRp4751
(dp4752
g66
(dp4753
g93
g94
ssg75
g4742
sg68
(lp4754
S':'
asbag61
(g82
g63
NtRp4755
(dp4756
g66
(dp4757
sg75
g4742
sg68
(lp4758
g61
(g62
g63
NtRp4759
(dp4760
g66
(dp4761
g74
I5
ssg75
g4755
sg68
(lp4762
g61
(g70
g63
NtRp4763
(dp4764
g66
(dp4765
g74
I4
ssg75
Nsg68
(lp4766
sbasbasbasbag61
(g77
g63
NtRp4767
(dp4768
g66
(dp4769
sg75
g4225
sg68
(lp4770
g61
(g82
g63
NtRp4771
(dp4772
g66
(dp4773
g86
g87
ssg75
g4767
sg68
(lp4774
S'session_cookie_expires'
p4775
asbag61
(g82
g63
NtRp4776
(dp4777
g66
(dp4778
g93
g94
ssg75
g4767
sg68
(lp4779
S':'
asbag61
(g82
g63
NtRp4780
(dp4781
g66
(dp4782
sg75
g4767
sg68
(lp4783
g61
(g62
g63
NtRp4784
(dp4785
g66
(dp4786
g74
I5
ssg75
g4780
sg68
(lp4787
S'None'
p4788
asbasbasbag61
(g77
g63
NtRp4789
(dp4790
g66
(dp4791
sg75
g4225
sg68
(lp4792
g61
(g82
g63
NtRp4793
(dp4794
g66
(dp4795
g86
g87
ssg75
g4789
sg68
(lp4796
S'session_data_name'
p4797
asbag61
(g82
g63
NtRp4798
(dp4799
g66
(dp4800
g93
g94
ssg75
g4789
sg68
(lp4801
S':'
asbag61
(g82
g63
NtRp4802
(dp4803
g66
(dp4804
sg75
g4789
sg68
(lp4805
g61
(g62
g63
NtRp4806
(dp4807
g66
(dp4808
g74
I5
ssg75
g4802
sg68
(lp4809
S'session_data_cygnuscloud'
p4810
asbasbasbag61
(g77
g63
NtRp4811
(dp4812
g66
(dp4813
sg75
g4225
sg68
(lp4814
g61
(g82
g63
NtRp4815
(dp4816
g66
(dp4817
g86
g87
ssg75
g4811
sg68
(lp4818
S'session_file'
p4819
asbag61
(g82
g63
NtRp4820
(dp4821
g66
(dp4822
g93
g94
ssg75
g4811
sg68
(lp4823
S':'
asbag61
(g82
g63
NtRp4824
(dp4825
g66
(dp4826
sg75
g4811
sg68
(lp4827
g61
(g62
g63
NtRp4828
(dp4829
g66
(dp4830
g74
I5
ssg75
g4824
sg68
(lp4831
S"<open file '/home/adrian/web2py/applications/CygnusCloud/sessions/127.0.0.1-791acaf2-7386-46dc-b011-4810dc00037c', mode 'rb+' at 0x7f237c141f60>"
p4832
asbasbasbag61
(g77
g63
NtRp4833
(dp4834
g66
(dp4835
sg75
g4225
sg68
(lp4836
g61
(g82
g63
NtRp4837
(dp4838
g66
(dp4839
g86
g87
ssg75
g4833
sg68
(lp4840
S'session_filename'
p4841
asbag61
(g82
g63
NtRp4842
(dp4843
g66
(dp4844
g93
g94
ssg75
g4833
sg68
(lp4845
S':'
asbag61
(g82
g63
NtRp4846
(dp4847
g66
(dp4848
sg75
g4833
sg68
(lp4849
g61
(g62
g63
NtRp4850
(dp4851
g66
(dp4852
g74
I5
ssg75
g4846
sg68
(lp4853
S'/home/adrian/web2py/applications/CygnusCloud/sessions/127.0.0.1-791acaf2-7386-46dc-b011-4810dc00037c'
p4854
asbasbasbag61
(g77
g63
NtRp4855
(dp4856
g66
(dp4857
sg75
g4225
sg68
(lp4858
g61
(g82
g63
NtRp4859
(dp4860
g66
(dp4861
g86
g87
ssg75
g4855
sg68
(lp4862
S'session_id'
p4863
asbag61
(g82
g63
NtRp4864
(dp4865
g66
(dp4866
g93
g94
ssg75
g4855
sg68
(lp4867
S':'
asbag61
(g82
g63
NtRp4868
(dp4869
g66
(dp4870
sg75
g4855
sg68
(lp4871
g61
(g62
g63
NtRp4872
(dp4873
g66
(dp4874
g74
I5
ssg75
g4868
sg68
(lp4875
g492
asbasbasbag61
(g77
g63
NtRp4876
(dp4877
g66
(dp4878
sg75
g4225
sg68
(lp4879
g61
(g82
g63
NtRp4880
(dp4881
g66
(dp4882
g86
g87
ssg75
g4876
sg68
(lp4883
S'session_id_name'
p4884
asbag61
(g82
g63
NtRp4885
(dp4886
g66
(dp4887
g93
g94
ssg75
g4876
sg68
(lp4888
S':'
asbag61
(g82
g63
NtRp4889
(dp4890
g66
(dp4891
sg75
g4876
sg68
(lp4892
g61
(g62
g63
NtRp4893
(dp4894
g66
(dp4895
g74
I5
ssg75
g4889
sg68
(lp4896
g4282
asbasbasbag61
(g77
g63
NtRp4897
(dp4898
g66
(dp4899
sg75
g4225
sg68
(lp4900
g61
(g82
g63
NtRp4901
(dp4902
g66
(dp4903
g86
g87
ssg75
g4897
sg68
(lp4904
S'session_locked'
p4905
asbag61
(g82
g63
NtRp4906
(dp4907
g66
(dp4908
g93
g94
ssg75
g4897
sg68
(lp4909
S':'
asbag61
(g82
g63
NtRp4910
(dp4911
g66
(dp4912
sg75
g4897
sg68
(lp4913
g61
(g62
g63
NtRp4914
(dp4915
g66
(dp4916
g74
I5
ssg75
g4910
sg68
(lp4917
g2182
asbasbasbag61
(g77
g63
NtRp4918
(dp4919
g66
(dp4920
sg75
g4225
sg68
(lp4921
g61
(g82
g63
NtRp4922
(dp4923
g66
(dp4924
g86
g87
ssg75
g4918
sg68
(lp4925
S'session_new'
p4926
asbag61
(g82
g63
NtRp4927
(dp4928
g66
(dp4929
g93
g94
ssg75
g4918
sg68
(lp4930
S':'
asbag61
(g82
g63
NtRp4931
(dp4932
g66
(dp4933
sg75
g4918
sg68
(lp4934
g61
(g62
g63
NtRp4935
(dp4936
g66
(dp4937
g74
I5
ssg75
g4931
sg68
(lp4938
g104
asbasbasbag61
(g77
g63
NtRp4939
(dp4940
g66
(dp4941
sg75
g4225
sg68
(lp4942
g61
(g82
g63
NtRp4943
(dp4944
g66
(dp4945
g86
g87
ssg75
g4939
sg68
(lp4946
S'session_storage_type'
p4947
asbag61
(g82
g63
NtRp4948
(dp4949
g66
(dp4950
g93
g94
ssg75
g4939
sg68
(lp4951
S':'
asbag61
(g82
g63
NtRp4952
(dp4953
g66
(dp4954
sg75
g4939
sg68
(lp4955
g61
(g62
g63
NtRp4956
(dp4957
g66
(dp4958
g74
I5
ssg75
g4952
sg68
(lp4959
g3676
asbasbasbag61
(g77
g63
NtRp4960
(dp4961
g66
(dp4962
sg75
g4225
sg68
(lp4963
g61
(g82
g63
NtRp4964
(dp4965
g66
(dp4966
g86
g87
ssg75
g4960
sg68
(lp4967
S'status'
p4968
asbag61
(g82
g63
NtRp4969
(dp4970
g66
(dp4971
g93
g94
ssg75
g4960
sg68
(lp4972
S':'
asbag61
(g82
g63
NtRp4973
(dp4974
g66
(dp4975
sg75
g4960
sg68
(lp4976
g61
(g62
g63
NtRp4977
(dp4978
g66
(dp4979
g74
I5
ssg75
g4973
sg68
(lp4980
S'200'
p4981
asbasbasbag61
(g77
g63
NtRp4982
(dp4983
g66
(dp4984
sg75
g4225
sg68
(lp4985
g61
(g82
g63
NtRp4986
(dp4987
g66
(dp4988
g86
g87
ssg75
g4982
sg68
(lp4989
S'view'
p4990
asbag61
(g82
g63
NtRp4991
(dp4992
g66
(dp4993
g93
g94
ssg75
g4982
sg68
(lp4994
S':'
asbag61
(g82
g63
NtRp4995
(dp4996
g66
(dp4997
sg75
g4982
sg68
(lp4998
g61
(g62
g63
NtRp4999
(dp5000
g66
(dp5001
g74
I5
ssg75
g4995
sg68
(lp5002
S'appadmin/select.html'
p5003
asbasbasbasbasbsS'locals'
p5004
(dp5005
S'query'
p5006
S'"INSERT INTO auth_event(origin,time_stamp,client_...06 00:30:45\',\'127.0.0.1\',87,\'Group 389 created\');"'
p5007
sS'self'
p5008
S'<gluon.dal.MySQLAdapter object>'
p5009
sS'e'
S"IntegrityError(1452, 'Cannot add or update a chi...EFERENCES `auth_user` (`id`) ON DELETE CASCADE)')"
p5010
sS'fields'
p5011
S"[(<gluon.dal.Field object>, 'auth'), (<gluon.dal.Field object>, datetime.datetime(2013, 2, 6, 0, 30, 45, 386241)), (<gluon.dal.Field object>, '127.0.0.1'), (<gluon.dal.Field object>, 87), (<gluon.dal.Field object>, 'Group 389 created')]"
p5012
sS'table'
p5013
S'<Table auth_event (id,time_stamp,client_ip,user_id,origin,description)>'
p5014
sssS'traceback'
p5015
S'Traceback (most recent call last):\n  File "/home/adrian/web2py/gluon/restricted.py", line 212, in restricted\n    exec ccode in environment\n  File "/home/adrian/web2py/applications/CygnusCloud/models/db.py", line 49, in <module>\n    auth.add_group(\'Student\', \'Only run virtual machines available\')\n  File "/home/adrian/web2py/gluon/tools.py", line 2981, in add_group\n    dict(group_id=group_id, role=role))\n  File "/home/adrian/web2py/gluon/tools.py", line 1697, in log_event\n    origin=origin, user_id=user_id)\n  File "/home/adrian/web2py/gluon/dal.py", line 7918, in insert\n    ret =  self._db._adapter.insert(self,self._listify(fields))\n  File "/home/adrian/web2py/gluon/dal.py", line 1176, in insert\n    raise e\nIntegrityError: (1452, \'Cannot add or update a child row: a foreign key constraint fails (`UseresDB`.`auth_event`, CONSTRAINT `auth_event_ibfk_1` FOREIGN KEY (`user_id`) REFERENCES `auth_user` (`id`) ON DELETE CASCADE)\')\n'
p5016
s.