(dp1
S'output'
p2
S"<type 'exceptions.TypeError'> 'str' object is not callable"
p3
sS'layer'
p4
S'/home/adrian/web2py/applications/CygnusCloud/controllers/administrator.py'
p5
sS'code'
p6
S'# coding: utf8\n@auth.requires_membership(\'Administrator\')\ndef runVM():\n    createAdressBar()\n    return dict()\n    \n@auth.requires_membership(\'Administrator\')\ndef servers():\n    createAdressBar()\n    if(request.args(0) == \'add_remove_servers\'):\n        form = FORM(T(\'Servidores\'),SELECT(\'server1\',\'server 2\'))\n        return dict(form = form)\n\n      \n@auth.requires_membership(\'Administrator\')\ndef users():  \n    createAdressBar()\n    if(request.args(0) == \'add\'):\n        #Creamos el primer formulario\n        form = FORM(HR(),H2(T(\'A\xc3\xb1adir un nuevo usuario\')),DIV( T(\'Nombre: \'),BR(),INPUT(_name = \'name\')),\n                DIV( T(\'Contrase\xc3\xb1a: \'),BR(),INPUT(_name =\'password\')),\n                DIV(T(\'Grupo: \'),BR(),SELECT(_name = \'group\',*[OPTION(row.role,_value = T(str(row.role))) \n                for row in userDB().select(userDB.auth_group.role)])),HR(),CENTER(INPUT(_type=\'submit\',_name = \'add\' ,_value=T(\'A\xc3\xb1adir Usuario\'))))                \n        \n        if form.accepts(request.vars,keepvalues=True) and form.vars.add:\n            if(form.vars.name != None) and (form.vars.name != "") and (form.vars.password != None) and (form.vars.password != ""):\n                #Si el email no esta repetido\n                if(userDB(userDB.auth_user.email == form.vars.name).count() == 0):\n                    #A\xc3\xb1adimos el nuevo usuario a la base de datos\n                    userId = userDB.auth_user.insert(email = form.vars.name,password = userDB.auth_user.password.validate(form.vars.password)[0])\n                    groupId = userDB(userDB.auth_group.role == form.vars.group).select(userDB.auth_group.id)[0]\n                    userDB.auth_membership.insert(group_id = groupId, user_id = userId)\n                    \n            #redireccinamos \n            redirect(URL(c=\'administrator\',f=\'users\',args = [\'add\'],vars = dict(usersFind=request.vars.usersFind) ))\n        #Devolvemos el formulario             \n        return dict(form = form)\n        \n    elif(request.args(0) == \'associate_subjects\'):\n        #creamos el primer formulario\n        form1 = createUserSearchForm(request.args(0))\n        #Creamos el segundo formulario\n        listUsers = request.vars.usersFind or []\n        #Comprobamos si se ha tomado como una lista\n        if(isinstance(listUsers,str)):\n            listUsers = []\n            listUsers.append(request.vars.usersFind)\n        #Creamos el segundo formulario    \n        form2 = FORM(H2(T(\'A\xc3\xb1adir asignatura\')),DIV(T(\'Usuario\'),BR(),SELECT(_name = \'usersFind\', *listUsers)),\n              DIV( T(\'C\xc3\xb3digo: \'),BR(),INPUT(_name = \'code\')),DIV( T(\'Grupo de clase: \'),BR(),\n              INPUT(_name =\'classGroup\')),INPUT(_type = \'submit\',_name = \'add\',_value = T(\'A\xc3\xb1adir\')),\n              INPUT(_type="submit",_name = \'remove\',_value=T("Eliminar")))\n             \n\n\n  \n        #Devolvemos el formulario             \n        return dict(form1 = form1,form2 = form2)\n        \n    elif(request.args(0) == \'remove\'):\n        #Creamos el formulario de busqueda\n        form1 = createUserSearchForm(request.args(0))\n        #Creamos el segundo formulario\n        listUsers = request.vars.usersFind or []\n        #Comprobamos si se ha tomado como una lista\n        if(isinstance(listUsers,str)):\n            listUsers = []\n            listUsers.append(request.vars.usersFind)\n        table = createTable(listUsers)\n        #Creamos el formulario\n        form2 = FORM(table,CENTER(INPUT(_type = \'submit\',_name = \'remove\',  _value = T(\'Eliminar seleccionado\'))))\n        \n        if form2.accepts(request.vars,keepvalues=True) and form2.vars.remove:\n            if(form2.vars.selection != ""):\n                #Extraemos el id del usuario\n                userId = userDB(userDB.auth_user.email == listUsers[int(form2.vars.selection)]).select()[0].id\n                #Borramos su referencia en la tabla relacional\n                userDB(userDB.auth_membership.user_id == userId).delete()\n                #Borramos el usuario\n                userDB(userDB.auth_user.id == userId).delete()        \n                #redireccinamos \n                listUsers.remove(listUsers[int(form2.vars.selection)])\n                redirect(URL(c=\'administrator\',f=\'users\',args = [\'remove\'],vars = dict(usersFind=listUsers) ))\n        \n        #Devolvemos los dos formularios\n        return dict(form1 = form1,form2 = form2)\n\n        \n@auth.requires_membership(\'Administrator\')\ndef subjects():\n    createAdressBar()\n    if(request.args(0) == \'add\'):              \n        #Creamos el primer formulario\n        form = FORM(HR(),H2(T(\'A\xc3\xb1adir un nueva asignatura\')),DIV( T(\'C\xc3\xb3digo: \'),BR(),INPUT(_name = \'cod\',_size = \'30px\')),\n                DIV( T(\'Nombre: \'),BR(),INPUT(_name =\'name\')),\n                DIV( T(\'A\xc3\xb1o: \'),BR(),INPUT(_name =\'year\')),\n                DIV( T(\'Curso: \'),BR(),INPUT(_name =\'curse\')),\n                DIV( T(\'Grupo de clase: \'),BR(),INPUT(_name =\'group\')),\n                HR(),CENTER(INPUT(_type=\'submit\',_name = \'add\' ,_value=T(\'A\xc3\xb1adir\'))))                \n        \n        if form.accepts(request.vars) and form.vars.add:\n            if(len(form.vars.cod) >= 4) and (len(form.vars.name) != 0) and (len(form.vars.year) == 4) and (len(form.vars.curse) == 1) and \\\n                (len(form.vars.group) == 1):\n                #Si los valores correspondientes son enteros\n                try:\n                    #Si no existe ya ese grupo\n                    if(userDB((userDB.ClassGroup.cod == form.vars.cod) & (userDB.ClassGroup.curseGroup == form.vars.group)).count() == 0):\n                        #Si no existe la asignatura, la creamos\n                        if(userDB(userDB.Subjects.code == form.vars.cod).count() == 0):\n                            userDB.Subjects.insert(code = int(form.vars.cod),name = form.vars.name)\n                        userDB.ClassGroup.insert(yearGroup = int(form.vars.year),cod = int(form.vars.cod),curse = int(form.vars.curse),\\\n                            curseGroup = form.vars.group)\n                except ValueError:\n                          response.flash(T(\'Formato de n\xc3\xbameros erroneo\'))\n            #redireccinamos \n            redirect(URL(c=\'administrator\',f=\'users\',args = [\'add\'],vars = dict(usersFind=request.vars.usersFind) ))\n        #Devolvemos el formulario             \n        return dict(form = form)    \n    \ndef createAdressBar():\n \n    response.menu=[[SPAN(T(\'Arrancar m\xc3\xa1quina\'), _class=\'highlighted\'), False,URL(\'runVM\'),[]],\n                    [SPAN(T(\'Administrar servidores\'), _class=\'highlighted\'), False, URL(f = \'servers\',args = [\'add_remove_servers\']),[\n                        (T(\'A\xc3\xb1adir/Eliminar\'),False,URL(f = \'servers\',args = [\'add_remove_servers\']))]],\n                    [SPAN(T(\'Administrar usuarios\'), _class=\'highlighted\'), False, URL(f = \'initUsers\',args = [\'remove\']),[\n                        (T(\'Eliminar\'),False,URL(f = \'users\',args = [\'remove\'])),\n                        (T(\'A\xc3\xb1adir\'),False,URL(f = \'users\',args = [\'add\'])),\n                        (T(\'Asociar asignaturas\'),False,URL(f = \'users\',args = [\'associate_subjects\']))]],\n                    [SPAN(T(\'Administrar asignaturas\'), _class=\'highlighted\'), False, URL(f = \'subjects\',args = [\'add\']),[\n                       (T(\'A\xc3\xb1adir\'),False,URL(f = \'subjects\',args = [\'add\'])),\n                       (T(\'Eliminar\'),False,URL(f = \'subjects\',args = [\'remove\'])),\n                       (T(\'Admistrar m\xc3\xa1quinas\'),False,URL(f = \'subjects\',args = [\'addVM\']))]]]\n                       \ndef createUserSearchForm(state):        \n    listTypes = []\n    listTypes.append(OPTION(\'all\',_value = T(\'All\')))\n    for row in userDB().select(userDB.auth_group.role):\n        listTypes.append(OPTION(row.role,_value = T(str(row.role)))) \n        \n    form1 = FORM(HR(),H2(T(\'Buscar un usuario\')),DIV( T(\'Nombre: \'),BR(),INPUT(_name = \'name\')),\n           DIV(T(\'Grupo: \'),BR(),SELECT(_name = \'group\', *listTypes)),\n           INPUT(_type=\'submit\',_name = \'search\',_value=T(\'Buscar\'),_onclick=[]),HR())    \n    \n    if form1.accepts(request.vars,keepvalues=True) and form1.vars.search:\n        query = ""\n        if(form1.vars.group != \'All\'):\n            query =  (userDB.auth_group.role  ==  form1.vars.group) & (userDB.auth_group.id == userDB.auth_membership.group_id) \n            query &= userDB.auth_membership.user_id  ==  userDB.auth_user.id\n                \n        rows = userDB(query).select(userDB.auth_user.email)\n\n        #Extraemos la lista de usuarios \n        listUsersAux = [] \n        for row in rows :                  \n            if(form1.vars.name != "") and (form1.vars.name != None):\n                    if (form1.vars.name in row.email):                    \n                        listUsersAux.append(row.email)\n            else:\n                    listUsersAux.append(row.email)\n        #redireccinamos con los resultados\n        redirect(URL(c=\'administrator\',f=\'users\',args = [state],vars = dict(usersFind=listUsersAux) ))\n     \n    return form1\n\n\ndef createTable(listUsers):\n    table = TABLE(_class=\'data\', _name=\'table\')\n    table.append(TR(TH(\'S.\'),TH(T(\'Nombre\')), TH(T(\'Contrase\xc3\xb1a\')), TH(T(\'Grupo\'))))\n    i = 0\n    for l in listUsers:\n        table.append(TR(\\\n        TD(INPUT(_type=\'radio\',_name = \'selection\',_value = i)),\\\n        TD(LABEL(l)),\\\n        TD(LABEL(userDB(userDB.auth_user.email==l).select(userDB.auth_user.password)[0].password)),\\\n        TD(LABEL(userDB((userDB.auth_user.email==l) & (userDB.auth_membership.user_id == userDB.auth_user.id) \\\n         & (userDB.auth_membership.group_id == userDB.auth_group.id)).select(userDB.auth_group.role)[0].role))))\n        i = i + 1\n    pass\n    return table\n\nresponse._vars=response._caller(subjects)\n'
p7
sS'snapshot'
p8
(dp9
S'exception'
p10
(dp11
S'__hash__'
p12
S"<method-wrapper '__hash__' of exceptions.TypeError object>"
p13
sS'__setattr__'
p14
S"<method-wrapper '__setattr__' of exceptions.TypeError object>"
p15
sS'__reduce_ex__'
p16
S'<built-in method __reduce_ex__ of exceptions.TypeError object>'
p17
sS'__getslice__'
p18
S"<method-wrapper '__getslice__' of exceptions.TypeError object>"
p19
sS'__getitem__'
p20
S"<method-wrapper '__getitem__' of exceptions.TypeError object>"
p21
sS'__setstate__'
p22
S'<built-in method __setstate__ of exceptions.TypeError object>'
p23
sS'args'
p24
S'("\'str\' object is not callable",)'
p25
sS'__reduce__'
p26
S'<built-in method __reduce__ of exceptions.TypeError object>'
p27
sS'__str__'
p28
S"<method-wrapper '__str__' of exceptions.TypeError object>"
p29
sS'__format__'
p30
S'<built-in method __format__ of exceptions.TypeError object>'
p31
sS'__getattribute__'
p32
S"<method-wrapper '__getattribute__' of exceptions.TypeError object>"
p33
sS'__class__'
p34
S"<type 'exceptions.TypeError'>"
p35
sS'__unicode__'
p36
S'<built-in method __unicode__ of exceptions.TypeError object>'
p37
sS'__delattr__'
p38
S"<method-wrapper '__delattr__' of exceptions.TypeError object>"
p39
sS'__subclasshook__'
p40
S'<built-in method __subclasshook__ of type object>'
p41
sS'__repr__'
p42
S"<method-wrapper '__repr__' of exceptions.TypeError object>"
p43
sS'__dict__'
p44
S'{}'
p45
sS'__sizeof__'
p46
S'<built-in method __sizeof__ of exceptions.TypeError object>'
p47
sS'__doc__'
p48
S"'Inappropriate argument type.'"
p49
sS'__init__'
p50
S"<method-wrapper '__init__' of exceptions.TypeError object>"
p51
sS'__new__'
p52
S'<built-in method __new__ of type object>'
p53
ssS'evalue'
p54
S"'str' object is not callable"
p55
sS'request'
p56
ccopy_reg
_reconstructor
p57
(cgluon.html
BEAUTIFY
p58
c__builtin__
object
p59
NtRp60
(dp61
S'attributes'
p62
(dp63
sS'components'
p64
(lp65
g57
(cgluon.html
TABLE
p66
g59
NtRp67
(dp68
g62
(dp69
S'level'
p70
I5
ssS'parent'
p71
Nsg64
(lp72
g57
(cgluon.html
TR
p73
g59
NtRp74
(dp75
g62
(dp76
sg71
g67
sg64
(lp77
g57
(cgluon.html
TD
p78
g59
NtRp79
(dp80
g62
(dp81
S'_style'
p82
S'font-weight:bold;vertical-align:top'
p83
ssg71
g74
sg64
(lp84
S'ajax'
p85
asbag57
(g78
g59
NtRp86
(dp87
g62
(dp88
S'_valign'
p89
S'top'
p90
ssg71
g74
sg64
(lp91
S':'
asbag57
(g78
g59
NtRp92
(dp93
g62
(dp94
sg71
g74
sg64
(lp95
g57
(g58
g59
NtRp96
(dp97
g62
(dp98
g70
I5
ssg71
g92
sg64
(lp99
S'False'
p100
asbasbasbag57
(g73
g59
NtRp101
(dp102
g62
(dp103
sg71
g67
sg64
(lp104
g57
(g78
g59
NtRp105
(dp106
g62
(dp107
g82
g83
ssg71
g101
sg64
(lp108
S'application'
p109
asbag57
(g78
g59
NtRp110
(dp111
g62
(dp112
g89
g90
ssg71
g101
sg64
(lp113
S':'
asbag57
(g78
g59
NtRp114
(dp115
g62
(dp116
sg71
g101
sg64
(lp117
g57
(g58
g59
NtRp118
(dp119
g62
(dp120
g70
I5
ssg71
g114
sg64
(lp121
S'CygnusCloud'
p122
asbasbasbag57
(g73
g59
NtRp123
(dp124
g62
(dp125
sg71
g67
sg64
(lp126
g57
(g78
g59
NtRp127
(dp128
g62
(dp129
g82
g83
ssg71
g123
sg64
(lp130
g24
asbag57
(g78
g59
NtRp131
(dp132
g62
(dp133
g89
g90
ssg71
g123
sg64
(lp134
S':'
asbag57
(g78
g59
NtRp135
(dp136
g62
(dp137
sg71
g123
sg64
(lp138
g57
(g58
g59
NtRp139
(dp140
g62
(dp141
g70
I5
ssg71
g135
sg64
(lp142
g57
(g66
g59
NtRp143
(dp144
g62
(dp145
g70
I4
ssg71
Nsg64
(lp146
g57
(g73
g59
NtRp147
(dp148
g62
(dp149
sg71
g143
sg64
(lp150
g57
(g78
g59
NtRp151
(dp152
g62
(dp153
sg71
g147
sg64
(lp154
g57
(g58
g59
NtRp155
(dp156
g62
(dp157
g70
I4
ssg71
g151
sg64
(lp158
S'add'
p159
asbasbasbasbasbasbasbag57
(g73
g59
NtRp160
(dp161
g62
(dp162
sg71
g67
sg64
(lp163
g57
(g78
g59
NtRp164
(dp165
g62
(dp166
g82
g83
ssg71
g160
sg64
(lp167
S'body'
p168
asbag57
(g78
g59
NtRp169
(dp170
g62
(dp171
g89
g90
ssg71
g160
sg64
(lp172
S':'
asbag57
(g78
g59
NtRp173
(dp174
g62
(dp175
sg71
g160
sg64
(lp176
g57
(g58
g59
NtRp177
(dp178
g62
(dp179
g70
I5
ssg71
g173
sg64
(lp180
S"<open file '<fdopen>', mode 'w+b' at 0x7f5f4c0e80c0>"
p181
asbasbasbag57
(g73
g59
NtRp182
(dp183
g62
(dp184
sg71
g67
sg64
(lp185
g57
(g78
g59
NtRp186
(dp187
g62
(dp188
g82
g83
ssg71
g182
sg64
(lp189
S'cid'
p190
asbag57
(g78
g59
NtRp191
(dp192
g62
(dp193
g89
g90
ssg71
g182
sg64
(lp194
S':'
asbag57
(g78
g59
NtRp195
(dp196
g62
(dp197
sg71
g182
sg64
(lp198
g57
(g58
g59
NtRp199
(dp200
g62
(dp201
g70
I5
ssg71
g195
sg64
(lp202
S'None'
p203
asbasbasbag57
(g73
g59
NtRp204
(dp205
g62
(dp206
sg71
g67
sg64
(lp207
g57
(g78
g59
NtRp208
(dp209
g62
(dp210
g82
g83
ssg71
g204
sg64
(lp211
S'client'
p212
asbag57
(g78
g59
NtRp213
(dp214
g62
(dp215
g89
g90
ssg71
g204
sg64
(lp216
S':'
asbag57
(g78
g59
NtRp217
(dp218
g62
(dp219
sg71
g204
sg64
(lp220
g57
(g58
g59
NtRp221
(dp222
g62
(dp223
g70
I5
ssg71
g217
sg64
(lp224
S'127.0.0.1'
p225
asbasbasbag57
(g73
g59
NtRp226
(dp227
g62
(dp228
sg71
g67
sg64
(lp229
g57
(g78
g59
NtRp230
(dp231
g62
(dp232
g82
g83
ssg71
g226
sg64
(lp233
S'controller'
p234
asbag57
(g78
g59
NtRp235
(dp236
g62
(dp237
g89
g90
ssg71
g226
sg64
(lp238
S':'
asbag57
(g78
g59
NtRp239
(dp240
g62
(dp241
sg71
g226
sg64
(lp242
g57
(g58
g59
NtRp243
(dp244
g62
(dp245
g70
I5
ssg71
g239
sg64
(lp246
S'administrator'
p247
asbasbasbag57
(g73
g59
NtRp248
(dp249
g62
(dp250
sg71
g67
sg64
(lp251
g57
(g78
g59
NtRp252
(dp253
g62
(dp254
g82
g83
ssg71
g248
sg64
(lp255
S'cookies'
p256
asbag57
(g78
g59
NtRp257
(dp258
g62
(dp259
g89
g90
ssg71
g248
sg64
(lp260
S':'
asbag57
(g78
g59
NtRp261
(dp262
g62
(dp263
sg71
g248
sg64
(lp264
g57
(g58
g59
NtRp265
(dp266
g62
(dp267
g70
I5
ssg71
g261
sg64
(lp268
g57
(g66
g59
NtRp269
(dp270
g62
(dp271
g70
I4
ssg71
Nsg64
(lp272
g57
(g73
g59
NtRp273
(dp274
g62
(dp275
sg71
g269
sg64
(lp276
g57
(g78
g59
NtRp277
(dp278
g62
(dp279
g82
g83
ssg71
g273
sg64
(lp280
S'kaej_unique_user'
p281
asbag57
(g78
g59
NtRp282
(dp283
g62
(dp284
g89
g90
ssg71
g273
sg64
(lp285
S':'
asbag57
(g78
g59
NtRp286
(dp287
g62
(dp288
sg71
g273
sg64
(lp289
g57
(g58
g59
NtRp290
(dp291
g62
(dp292
g70
I4
ssg71
g286
sg64
(lp293
S'1'
ag57
(g66
g59
NtRp294
(dp295
g62
(dp296
g70
I3
ssg71
Nsg64
(lp297
g57
(g73
g59
NtRp298
(dp299
g62
(dp300
sg71
g294
sg64
(lp301
g57
(g78
g59
NtRp302
(dp303
g62
(dp304
g82
g83
ssg71
g298
sg64
(lp305
S'comment'
p306
asbag57
(g78
g59
NtRp307
(dp308
g62
(dp309
g89
g90
ssg71
g298
sg64
(lp310
S':'
asbag57
(g78
g59
NtRp311
(dp312
g62
(dp313
sg71
g298
sg64
(lp314
g57
(g58
g59
NtRp315
(dp316
g62
(dp317
g70
I3
ssg71
g311
sg64
(lp318
S''
asbasbasbag57
(g73
g59
NtRp319
(dp320
g62
(dp321
sg71
g294
sg64
(lp322
g57
(g78
g59
NtRp323
(dp324
g62
(dp325
g82
g83
ssg71
g319
sg64
(lp326
S'domain'
p327
asbag57
(g78
g59
NtRp328
(dp329
g62
(dp330
g89
g90
ssg71
g319
sg64
(lp331
S':'
asbag57
(g78
g59
NtRp332
(dp333
g62
(dp334
sg71
g319
sg64
(lp335
g57
(g58
g59
NtRp336
(dp337
g62
(dp338
g70
I3
ssg71
g332
sg64
(lp339
S''
asbasbasbag57
(g73
g59
NtRp340
(dp341
g62
(dp342
sg71
g294
sg64
(lp343
g57
(g78
g59
NtRp344
(dp345
g62
(dp346
g82
g83
ssg71
g340
sg64
(lp347
S'expires'
p348
asbag57
(g78
g59
NtRp349
(dp350
g62
(dp351
g89
g90
ssg71
g340
sg64
(lp352
S':'
asbag57
(g78
g59
NtRp353
(dp354
g62
(dp355
sg71
g340
sg64
(lp356
g57
(g58
g59
NtRp357
(dp358
g62
(dp359
g70
I3
ssg71
g353
sg64
(lp360
S''
asbasbasbag57
(g73
g59
NtRp361
(dp362
g62
(dp363
sg71
g294
sg64
(lp364
g57
(g78
g59
NtRp365
(dp366
g62
(dp367
g82
g83
ssg71
g361
sg64
(lp368
S'httponly'
p369
asbag57
(g78
g59
NtRp370
(dp371
g62
(dp372
g89
g90
ssg71
g361
sg64
(lp373
S':'
asbag57
(g78
g59
NtRp374
(dp375
g62
(dp376
sg71
g361
sg64
(lp377
g57
(g58
g59
NtRp378
(dp379
g62
(dp380
g70
I3
ssg71
g374
sg64
(lp381
S''
asbasbasbag57
(g73
g59
NtRp382
(dp383
g62
(dp384
sg71
g294
sg64
(lp385
g57
(g78
g59
NtRp386
(dp387
g62
(dp388
g82
g83
ssg71
g382
sg64
(lp389
S'max-age'
p390
asbag57
(g78
g59
NtRp391
(dp392
g62
(dp393
g89
g90
ssg71
g382
sg64
(lp394
S':'
asbag57
(g78
g59
NtRp395
(dp396
g62
(dp397
sg71
g382
sg64
(lp398
g57
(g58
g59
NtRp399
(dp400
g62
(dp401
g70
I3
ssg71
g395
sg64
(lp402
S''
asbasbasbag57
(g73
g59
NtRp403
(dp404
g62
(dp405
sg71
g294
sg64
(lp406
g57
(g78
g59
NtRp407
(dp408
g62
(dp409
g82
g83
ssg71
g403
sg64
(lp410
S'path'
p411
asbag57
(g78
g59
NtRp412
(dp413
g62
(dp414
g89
g90
ssg71
g403
sg64
(lp415
S':'
asbag57
(g78
g59
NtRp416
(dp417
g62
(dp418
sg71
g403
sg64
(lp419
g57
(g58
g59
NtRp420
(dp421
g62
(dp422
g70
I3
ssg71
g416
sg64
(lp423
S''
asbasbasbag57
(g73
g59
NtRp424
(dp425
g62
(dp426
sg71
g294
sg64
(lp427
g57
(g78
g59
NtRp428
(dp429
g62
(dp430
g82
g83
ssg71
g424
sg64
(lp431
S'secure'
p432
asbag57
(g78
g59
NtRp433
(dp434
g62
(dp435
g89
g90
ssg71
g424
sg64
(lp436
S':'
asbag57
(g78
g59
NtRp437
(dp438
g62
(dp439
sg71
g424
sg64
(lp440
g57
(g58
g59
NtRp441
(dp442
g62
(dp443
g70
I3
ssg71
g437
sg64
(lp444
S''
asbasbasbag57
(g73
g59
NtRp445
(dp446
g62
(dp447
sg71
g294
sg64
(lp448
g57
(g78
g59
NtRp449
(dp450
g62
(dp451
g82
g83
ssg71
g445
sg64
(lp452
S'version'
p453
asbag57
(g78
g59
NtRp454
(dp455
g62
(dp456
g89
g90
ssg71
g445
sg64
(lp457
S':'
asbag57
(g78
g59
NtRp458
(dp459
g62
(dp460
sg71
g445
sg64
(lp461
g57
(g58
g59
NtRp462
(dp463
g62
(dp464
g70
I3
ssg71
g458
sg64
(lp465
S''
asbasbasbasbasbasbasbag57
(g73
g59
NtRp466
(dp467
g62
(dp468
sg71
g269
sg64
(lp469
g57
(g78
g59
NtRp470
(dp471
g62
(dp472
g82
g83
ssg71
g466
sg64
(lp473
S'session_id_admin'
p474
asbag57
(g78
g59
NtRp475
(dp476
g62
(dp477
g89
g90
ssg71
g466
sg64
(lp478
S':'
asbag57
(g78
g59
NtRp479
(dp480
g62
(dp481
sg71
g466
sg64
(lp482
g57
(g58
g59
NtRp483
(dp484
g62
(dp485
g70
I4
ssg71
g479
sg64
(lp486
S'127.0.0.1-1e4e694e-d5f8-4d88-a93e-f8017e171c5b'
p487
ag57
(g66
g59
NtRp488
(dp489
g62
(dp490
g70
I3
ssg71
Nsg64
(lp491
g57
(g73
g59
NtRp492
(dp493
g62
(dp494
sg71
g488
sg64
(lp495
g57
(g78
g59
NtRp496
(dp497
g62
(dp498
g82
g83
ssg71
g492
sg64
(lp499
g306
asbag57
(g78
g59
NtRp500
(dp501
g62
(dp502
g89
g90
ssg71
g492
sg64
(lp503
S':'
asbag57
(g78
g59
NtRp504
(dp505
g62
(dp506
sg71
g492
sg64
(lp507
g57
(g58
g59
NtRp508
(dp509
g62
(dp510
g70
I3
ssg71
g504
sg64
(lp511
S''
asbasbasbag57
(g73
g59
NtRp512
(dp513
g62
(dp514
sg71
g488
sg64
(lp515
g57
(g78
g59
NtRp516
(dp517
g62
(dp518
g82
g83
ssg71
g512
sg64
(lp519
g327
asbag57
(g78
g59
NtRp520
(dp521
g62
(dp522
g89
g90
ssg71
g512
sg64
(lp523
S':'
asbag57
(g78
g59
NtRp524
(dp525
g62
(dp526
sg71
g512
sg64
(lp527
g57
(g58
g59
NtRp528
(dp529
g62
(dp530
g70
I3
ssg71
g524
sg64
(lp531
S''
asbasbasbag57
(g73
g59
NtRp532
(dp533
g62
(dp534
sg71
g488
sg64
(lp535
g57
(g78
g59
NtRp536
(dp537
g62
(dp538
g82
g83
ssg71
g532
sg64
(lp539
g348
asbag57
(g78
g59
NtRp540
(dp541
g62
(dp542
g89
g90
ssg71
g532
sg64
(lp543
S':'
asbag57
(g78
g59
NtRp544
(dp545
g62
(dp546
sg71
g532
sg64
(lp547
g57
(g58
g59
NtRp548
(dp549
g62
(dp550
g70
I3
ssg71
g544
sg64
(lp551
S''
asbasbasbag57
(g73
g59
NtRp552
(dp553
g62
(dp554
sg71
g488
sg64
(lp555
g57
(g78
g59
NtRp556
(dp557
g62
(dp558
g82
g83
ssg71
g552
sg64
(lp559
g369
asbag57
(g78
g59
NtRp560
(dp561
g62
(dp562
g89
g90
ssg71
g552
sg64
(lp563
S':'
asbag57
(g78
g59
NtRp564
(dp565
g62
(dp566
sg71
g552
sg64
(lp567
g57
(g58
g59
NtRp568
(dp569
g62
(dp570
g70
I3
ssg71
g564
sg64
(lp571
S''
asbasbasbag57
(g73
g59
NtRp572
(dp573
g62
(dp574
sg71
g488
sg64
(lp575
g57
(g78
g59
NtRp576
(dp577
g62
(dp578
g82
g83
ssg71
g572
sg64
(lp579
g390
asbag57
(g78
g59
NtRp580
(dp581
g62
(dp582
g89
g90
ssg71
g572
sg64
(lp583
S':'
asbag57
(g78
g59
NtRp584
(dp585
g62
(dp586
sg71
g572
sg64
(lp587
g57
(g58
g59
NtRp588
(dp589
g62
(dp590
g70
I3
ssg71
g584
sg64
(lp591
S''
asbasbasbag57
(g73
g59
NtRp592
(dp593
g62
(dp594
sg71
g488
sg64
(lp595
g57
(g78
g59
NtRp596
(dp597
g62
(dp598
g82
g83
ssg71
g592
sg64
(lp599
g411
asbag57
(g78
g59
NtRp600
(dp601
g62
(dp602
g89
g90
ssg71
g592
sg64
(lp603
S':'
asbag57
(g78
g59
NtRp604
(dp605
g62
(dp606
sg71
g592
sg64
(lp607
g57
(g58
g59
NtRp608
(dp609
g62
(dp610
g70
I3
ssg71
g604
sg64
(lp611
S''
asbasbasbag57
(g73
g59
NtRp612
(dp613
g62
(dp614
sg71
g488
sg64
(lp615
g57
(g78
g59
NtRp616
(dp617
g62
(dp618
g82
g83
ssg71
g612
sg64
(lp619
g432
asbag57
(g78
g59
NtRp620
(dp621
g62
(dp622
g89
g90
ssg71
g612
sg64
(lp623
S':'
asbag57
(g78
g59
NtRp624
(dp625
g62
(dp626
sg71
g612
sg64
(lp627
g57
(g58
g59
NtRp628
(dp629
g62
(dp630
g70
I3
ssg71
g624
sg64
(lp631
S''
asbasbasbag57
(g73
g59
NtRp632
(dp633
g62
(dp634
sg71
g488
sg64
(lp635
g57
(g78
g59
NtRp636
(dp637
g62
(dp638
g82
g83
ssg71
g632
sg64
(lp639
g453
asbag57
(g78
g59
NtRp640
(dp641
g62
(dp642
g89
g90
ssg71
g632
sg64
(lp643
S':'
asbag57
(g78
g59
NtRp644
(dp645
g62
(dp646
sg71
g632
sg64
(lp647
g57
(g58
g59
NtRp648
(dp649
g62
(dp650
g70
I3
ssg71
g644
sg64
(lp651
S''
asbasbasbasbasbasbasbag57
(g73
g59
NtRp652
(dp653
g62
(dp654
sg71
g269
sg64
(lp655
g57
(g78
g59
NtRp656
(dp657
g62
(dp658
g82
g83
ssg71
g652
sg64
(lp659
S'session_id_cygnuscloud'
p660
asbag57
(g78
g59
NtRp661
(dp662
g62
(dp663
g89
g90
ssg71
g652
sg64
(lp664
S':'
asbag57
(g78
g59
NtRp665
(dp666
g62
(dp667
sg71
g652
sg64
(lp668
g57
(g58
g59
NtRp669
(dp670
g62
(dp671
g70
I4
ssg71
g665
sg64
(lp672
S'127.0.0.1-94b597fa-52b2-4481-ad0f-59b1fd37bc50'
p673
ag57
(g66
g59
NtRp674
(dp675
g62
(dp676
g70
I3
ssg71
Nsg64
(lp677
g57
(g73
g59
NtRp678
(dp679
g62
(dp680
sg71
g674
sg64
(lp681
g57
(g78
g59
NtRp682
(dp683
g62
(dp684
g82
g83
ssg71
g678
sg64
(lp685
g306
asbag57
(g78
g59
NtRp686
(dp687
g62
(dp688
g89
g90
ssg71
g678
sg64
(lp689
S':'
asbag57
(g78
g59
NtRp690
(dp691
g62
(dp692
sg71
g678
sg64
(lp693
g57
(g58
g59
NtRp694
(dp695
g62
(dp696
g70
I3
ssg71
g690
sg64
(lp697
S''
asbasbasbag57
(g73
g59
NtRp698
(dp699
g62
(dp700
sg71
g674
sg64
(lp701
g57
(g78
g59
NtRp702
(dp703
g62
(dp704
g82
g83
ssg71
g698
sg64
(lp705
g327
asbag57
(g78
g59
NtRp706
(dp707
g62
(dp708
g89
g90
ssg71
g698
sg64
(lp709
S':'
asbag57
(g78
g59
NtRp710
(dp711
g62
(dp712
sg71
g698
sg64
(lp713
g57
(g58
g59
NtRp714
(dp715
g62
(dp716
g70
I3
ssg71
g710
sg64
(lp717
S''
asbasbasbag57
(g73
g59
NtRp718
(dp719
g62
(dp720
sg71
g674
sg64
(lp721
g57
(g78
g59
NtRp722
(dp723
g62
(dp724
g82
g83
ssg71
g718
sg64
(lp725
g348
asbag57
(g78
g59
NtRp726
(dp727
g62
(dp728
g89
g90
ssg71
g718
sg64
(lp729
S':'
asbag57
(g78
g59
NtRp730
(dp731
g62
(dp732
sg71
g718
sg64
(lp733
g57
(g58
g59
NtRp734
(dp735
g62
(dp736
g70
I3
ssg71
g730
sg64
(lp737
S''
asbasbasbag57
(g73
g59
NtRp738
(dp739
g62
(dp740
sg71
g674
sg64
(lp741
g57
(g78
g59
NtRp742
(dp743
g62
(dp744
g82
g83
ssg71
g738
sg64
(lp745
g369
asbag57
(g78
g59
NtRp746
(dp747
g62
(dp748
g89
g90
ssg71
g738
sg64
(lp749
S':'
asbag57
(g78
g59
NtRp750
(dp751
g62
(dp752
sg71
g738
sg64
(lp753
g57
(g58
g59
NtRp754
(dp755
g62
(dp756
g70
I3
ssg71
g750
sg64
(lp757
S''
asbasbasbag57
(g73
g59
NtRp758
(dp759
g62
(dp760
sg71
g674
sg64
(lp761
g57
(g78
g59
NtRp762
(dp763
g62
(dp764
g82
g83
ssg71
g758
sg64
(lp765
g390
asbag57
(g78
g59
NtRp766
(dp767
g62
(dp768
g89
g90
ssg71
g758
sg64
(lp769
S':'
asbag57
(g78
g59
NtRp770
(dp771
g62
(dp772
sg71
g758
sg64
(lp773
g57
(g58
g59
NtRp774
(dp775
g62
(dp776
g70
I3
ssg71
g770
sg64
(lp777
S''
asbasbasbag57
(g73
g59
NtRp778
(dp779
g62
(dp780
sg71
g674
sg64
(lp781
g57
(g78
g59
NtRp782
(dp783
g62
(dp784
g82
g83
ssg71
g778
sg64
(lp785
g411
asbag57
(g78
g59
NtRp786
(dp787
g62
(dp788
g89
g90
ssg71
g778
sg64
(lp789
S':'
asbag57
(g78
g59
NtRp790
(dp791
g62
(dp792
sg71
g778
sg64
(lp793
g57
(g58
g59
NtRp794
(dp795
g62
(dp796
g70
I3
ssg71
g790
sg64
(lp797
S''
asbasbasbag57
(g73
g59
NtRp798
(dp799
g62
(dp800
sg71
g674
sg64
(lp801
g57
(g78
g59
NtRp802
(dp803
g62
(dp804
g82
g83
ssg71
g798
sg64
(lp805
g432
asbag57
(g78
g59
NtRp806
(dp807
g62
(dp808
g89
g90
ssg71
g798
sg64
(lp809
S':'
asbag57
(g78
g59
NtRp810
(dp811
g62
(dp812
sg71
g798
sg64
(lp813
g57
(g58
g59
NtRp814
(dp815
g62
(dp816
g70
I3
ssg71
g810
sg64
(lp817
S''
asbasbasbag57
(g73
g59
NtRp818
(dp819
g62
(dp820
sg71
g674
sg64
(lp821
g57
(g78
g59
NtRp822
(dp823
g62
(dp824
g82
g83
ssg71
g818
sg64
(lp825
g453
asbag57
(g78
g59
NtRp826
(dp827
g62
(dp828
g89
g90
ssg71
g818
sg64
(lp829
S':'
asbag57
(g78
g59
NtRp830
(dp831
g62
(dp832
sg71
g818
sg64
(lp833
g57
(g58
g59
NtRp834
(dp835
g62
(dp836
g70
I3
ssg71
g830
sg64
(lp837
S''
asbasbasbasbasbasbasbag57
(g73
g59
NtRp838
(dp839
g62
(dp840
sg71
g269
sg64
(lp841
g57
(g78
g59
NtRp842
(dp843
g62
(dp844
g82
g83
ssg71
g838
sg64
(lp845
S'session_id_welcome'
p846
asbag57
(g78
g59
NtRp847
(dp848
g62
(dp849
g89
g90
ssg71
g838
sg64
(lp850
S':'
asbag57
(g78
g59
NtRp851
(dp852
g62
(dp853
sg71
g838
sg64
(lp854
g57
(g58
g59
NtRp855
(dp856
g62
(dp857
g70
I4
ssg71
g851
sg64
(lp858
S'127.0.0.1-dc424825-7eb3-4a25-8c10-933ddf67e6c2'
p859
ag57
(g66
g59
NtRp860
(dp861
g62
(dp862
g70
I3
ssg71
Nsg64
(lp863
g57
(g73
g59
NtRp864
(dp865
g62
(dp866
sg71
g860
sg64
(lp867
g57
(g78
g59
NtRp868
(dp869
g62
(dp870
g82
g83
ssg71
g864
sg64
(lp871
g306
asbag57
(g78
g59
NtRp872
(dp873
g62
(dp874
g89
g90
ssg71
g864
sg64
(lp875
S':'
asbag57
(g78
g59
NtRp876
(dp877
g62
(dp878
sg71
g864
sg64
(lp879
g57
(g58
g59
NtRp880
(dp881
g62
(dp882
g70
I3
ssg71
g876
sg64
(lp883
S''
asbasbasbag57
(g73
g59
NtRp884
(dp885
g62
(dp886
sg71
g860
sg64
(lp887
g57
(g78
g59
NtRp888
(dp889
g62
(dp890
g82
g83
ssg71
g884
sg64
(lp891
g327
asbag57
(g78
g59
NtRp892
(dp893
g62
(dp894
g89
g90
ssg71
g884
sg64
(lp895
S':'
asbag57
(g78
g59
NtRp896
(dp897
g62
(dp898
sg71
g884
sg64
(lp899
g57
(g58
g59
NtRp900
(dp901
g62
(dp902
g70
I3
ssg71
g896
sg64
(lp903
S''
asbasbasbag57
(g73
g59
NtRp904
(dp905
g62
(dp906
sg71
g860
sg64
(lp907
g57
(g78
g59
NtRp908
(dp909
g62
(dp910
g82
g83
ssg71
g904
sg64
(lp911
g348
asbag57
(g78
g59
NtRp912
(dp913
g62
(dp914
g89
g90
ssg71
g904
sg64
(lp915
S':'
asbag57
(g78
g59
NtRp916
(dp917
g62
(dp918
sg71
g904
sg64
(lp919
g57
(g58
g59
NtRp920
(dp921
g62
(dp922
g70
I3
ssg71
g916
sg64
(lp923
S''
asbasbasbag57
(g73
g59
NtRp924
(dp925
g62
(dp926
sg71
g860
sg64
(lp927
g57
(g78
g59
NtRp928
(dp929
g62
(dp930
g82
g83
ssg71
g924
sg64
(lp931
g369
asbag57
(g78
g59
NtRp932
(dp933
g62
(dp934
g89
g90
ssg71
g924
sg64
(lp935
S':'
asbag57
(g78
g59
NtRp936
(dp937
g62
(dp938
sg71
g924
sg64
(lp939
g57
(g58
g59
NtRp940
(dp941
g62
(dp942
g70
I3
ssg71
g936
sg64
(lp943
S''
asbasbasbag57
(g73
g59
NtRp944
(dp945
g62
(dp946
sg71
g860
sg64
(lp947
g57
(g78
g59
NtRp948
(dp949
g62
(dp950
g82
g83
ssg71
g944
sg64
(lp951
g390
asbag57
(g78
g59
NtRp952
(dp953
g62
(dp954
g89
g90
ssg71
g944
sg64
(lp955
S':'
asbag57
(g78
g59
NtRp956
(dp957
g62
(dp958
sg71
g944
sg64
(lp959
g57
(g58
g59
NtRp960
(dp961
g62
(dp962
g70
I3
ssg71
g956
sg64
(lp963
S''
asbasbasbag57
(g73
g59
NtRp964
(dp965
g62
(dp966
sg71
g860
sg64
(lp967
g57
(g78
g59
NtRp968
(dp969
g62
(dp970
g82
g83
ssg71
g964
sg64
(lp971
g411
asbag57
(g78
g59
NtRp972
(dp973
g62
(dp974
g89
g90
ssg71
g964
sg64
(lp975
S':'
asbag57
(g78
g59
NtRp976
(dp977
g62
(dp978
sg71
g964
sg64
(lp979
g57
(g58
g59
NtRp980
(dp981
g62
(dp982
g70
I3
ssg71
g976
sg64
(lp983
S''
asbasbasbag57
(g73
g59
NtRp984
(dp985
g62
(dp986
sg71
g860
sg64
(lp987
g57
(g78
g59
NtRp988
(dp989
g62
(dp990
g82
g83
ssg71
g984
sg64
(lp991
g432
asbag57
(g78
g59
NtRp992
(dp993
g62
(dp994
g89
g90
ssg71
g984
sg64
(lp995
S':'
asbag57
(g78
g59
NtRp996
(dp997
g62
(dp998
sg71
g984
sg64
(lp999
g57
(g58
g59
NtRp1000
(dp1001
g62
(dp1002
g70
I3
ssg71
g996
sg64
(lp1003
S''
asbasbasbag57
(g73
g59
NtRp1004
(dp1005
g62
(dp1006
sg71
g860
sg64
(lp1007
g57
(g78
g59
NtRp1008
(dp1009
g62
(dp1010
g82
g83
ssg71
g1004
sg64
(lp1011
g453
asbag57
(g78
g59
NtRp1012
(dp1013
g62
(dp1014
g89
g90
ssg71
g1004
sg64
(lp1015
S':'
asbag57
(g78
g59
NtRp1016
(dp1017
g62
(dp1018
sg71
g1004
sg64
(lp1019
g57
(g58
g59
NtRp1020
(dp1021
g62
(dp1022
g70
I3
ssg71
g1016
sg64
(lp1023
S''
asbasbasbasbasbasbasbasbasbasbasbag57
(g73
g59
NtRp1024
(dp1025
g62
(dp1026
sg71
g67
sg64
(lp1027
g57
(g78
g59
NtRp1028
(dp1029
g62
(dp1030
g82
g83
ssg71
g1024
sg64
(lp1031
S'env'
p1032
asbag57
(g78
g59
NtRp1033
(dp1034
g62
(dp1035
g89
g90
ssg71
g1024
sg64
(lp1036
S':'
asbag57
(g78
g59
NtRp1037
(dp1038
g62
(dp1039
sg71
g1024
sg64
(lp1040
g57
(g58
g59
NtRp1041
(dp1042
g62
(dp1043
g70
I5
ssg71
g1037
sg64
(lp1044
g57
(g66
g59
NtRp1045
(dp1046
g62
(dp1047
g70
I4
ssg71
Nsg64
(lp1048
g57
(g73
g59
NtRp1049
(dp1050
g62
(dp1051
sg71
g1045
sg64
(lp1052
g57
(g78
g59
NtRp1053
(dp1054
g62
(dp1055
g82
g83
ssg71
g1049
sg64
(lp1056
S'app_folders'
p1057
asbag57
(g78
g59
NtRp1058
(dp1059
g62
(dp1060
g89
g90
ssg71
g1049
sg64
(lp1061
S':'
asbag57
(g78
g59
NtRp1062
(dp1063
g62
(dp1064
sg71
g1049
sg64
(lp1065
g57
(g58
g59
NtRp1066
(dp1067
g62
(dp1068
g70
I4
ssg71
g1062
sg64
(lp1069
S"set(['/home/adrian/web2py/applications/admin/', '/home/adrian/web2py/applications/CygnusCloud/'])"
p1070
asbasbasbag57
(g73
g59
NtRp1071
(dp1072
g62
(dp1073
sg71
g1045
sg64
(lp1074
g57
(g78
g59
NtRp1075
(dp1076
g62
(dp1077
g82
g83
ssg71
g1071
sg64
(lp1078
S'applications_parent'
p1079
asbag57
(g78
g59
NtRp1080
(dp1081
g62
(dp1082
g89
g90
ssg71
g1071
sg64
(lp1083
S':'
asbag57
(g78
g59
NtRp1084
(dp1085
g62
(dp1086
sg71
g1071
sg64
(lp1087
g57
(g58
g59
NtRp1088
(dp1089
g62
(dp1090
g70
I4
ssg71
g1084
sg64
(lp1091
S'/home/adrian/web2py'
p1092
asbasbasbag57
(g73
g59
NtRp1093
(dp1094
g62
(dp1095
sg71
g1045
sg64
(lp1096
g57
(g78
g59
NtRp1097
(dp1098
g62
(dp1099
g82
g83
ssg71
g1093
sg64
(lp1100
S'cmd_args'
p1101
asbag57
(g78
g59
NtRp1102
(dp1103
g62
(dp1104
g89
g90
ssg71
g1093
sg64
(lp1105
S':'
asbag57
(g78
g59
NtRp1106
(dp1107
g62
(dp1108
sg71
g1093
sg64
(lp1109
g57
(g58
g59
NtRp1110
(dp1111
g62
(dp1112
g70
I4
ssg71
g1106
sg64
(lp1113
g57
(g66
g59
NtRp1114
(dp1115
g62
(dp1116
g70
I3
ssg71
Nsg64
(lp1117
sbasbasbasbag57
(g73
g59
NtRp1118
(dp1119
g62
(dp1120
sg71
g1045
sg64
(lp1121
g57
(g78
g59
NtRp1122
(dp1123
g62
(dp1124
g82
g83
ssg71
g1118
sg64
(lp1125
S'cmd_options'
p1126
asbag57
(g78
g59
NtRp1127
(dp1128
g62
(dp1129
g89
g90
ssg71
g1118
sg64
(lp1130
S':'
asbag57
(g78
g59
NtRp1131
(dp1132
g62
(dp1133
sg71
g1118
sg64
(lp1134
g57
(g58
g59
NtRp1135
(dp1136
g62
(dp1137
g70
I4
ssg71
g1131
sg64
(lp1138
S"<Values at 0x221dbd8: {'verbose': False, 'ip': '127.0.0.1', 'with_scheduler': False, 'ips': [], 'shutdown_timeout': 5, 'taskbar': False, 'port': 8000, 'maxthreads': None, 'softcron': False, 'server_name': 'adri-EasyNote', 'bpython': False, 'nogui': False, 'pid_filename': 'httpserver.pid', 'extcron': False, 'runcron': False, 'run_system_tests': False, 'test': None, 'folder': '/home/adrian/web2py', 'config': '', 'minthreads': None, 'winservice': '', 'shell': None, 'run': '', 'log_filename': 'httpserver.log', 'debuglevel': 30, 'args': [''], 'socket_timeout': 5, 'ssl_ca_certificate': None, 'scheduler': None, 'profiler_filename': None, 'ssl_private_key': '', 'scheduler_groups': None, 'password': 'cygnuscloud2012', 'request_queue_size': 5, 'ssl_certificate': '', 'cronjob': False, 'numthreads': None, 'quiet': False, 'interfaces': None, 'import_models': False, 'timeout': 10, 'plain': False, 'nobanner': False}>"
p1139
asbasbasbag57
(g73
g59
NtRp1140
(dp1141
g62
(dp1142
sg71
g1045
sg64
(lp1143
g57
(g78
g59
NtRp1144
(dp1145
g62
(dp1146
g82
g83
ssg71
g1140
sg64
(lp1147
S'content_length'
p1148
asbag57
(g78
g59
NtRp1149
(dp1150
g62
(dp1151
g89
g90
ssg71
g1140
sg64
(lp1152
S':'
asbag57
(g78
g59
NtRp1153
(dp1154
g62
(dp1155
sg71
g1140
sg64
(lp1156
g57
(g58
g59
NtRp1157
(dp1158
g62
(dp1159
g70
I4
ssg71
g1153
sg64
(lp1160
S'714'
p1161
asbasbasbag57
(g73
g59
NtRp1162
(dp1163
g62
(dp1164
sg71
g1045
sg64
(lp1165
g57
(g78
g59
NtRp1166
(dp1167
g62
(dp1168
g82
g83
ssg71
g1162
sg64
(lp1169
S'content_type'
p1170
asbag57
(g78
g59
NtRp1171
(dp1172
g62
(dp1173
g89
g90
ssg71
g1162
sg64
(lp1174
S':'
asbag57
(g78
g59
NtRp1175
(dp1176
g62
(dp1177
sg71
g1162
sg64
(lp1178
g57
(g58
g59
NtRp1179
(dp1180
g62
(dp1181
g70
I4
ssg71
g1175
sg64
(lp1182
S'multipart/form-data; boundary=----WebKitFormBoundaryTegXa62suPtO1VZP'
p1183
asbasbasbag57
(g73
g59
NtRp1184
(dp1185
g62
(dp1186
sg71
g1045
sg64
(lp1187
g57
(g78
g59
NtRp1188
(dp1189
g62
(dp1190
g82
g83
ssg71
g1184
sg64
(lp1191
S'db_sessions'
p1192
asbag57
(g78
g59
NtRp1193
(dp1194
g62
(dp1195
g89
g90
ssg71
g1184
sg64
(lp1196
S':'
asbag57
(g78
g59
NtRp1197
(dp1198
g62
(dp1199
sg71
g1184
sg64
(lp1200
g57
(g58
g59
NtRp1201
(dp1202
g62
(dp1203
g70
I4
ssg71
g1197
sg64
(lp1204
S'set([])'
p1205
asbasbasbag57
(g73
g59
NtRp1206
(dp1207
g62
(dp1208
sg71
g1045
sg64
(lp1209
g57
(g78
g59
NtRp1210
(dp1211
g62
(dp1212
g82
g83
ssg71
g1206
sg64
(lp1213
S'debugging'
p1214
asbag57
(g78
g59
NtRp1215
(dp1216
g62
(dp1217
g89
g90
ssg71
g1206
sg64
(lp1218
S':'
asbag57
(g78
g59
NtRp1219
(dp1220
g62
(dp1221
sg71
g1206
sg64
(lp1222
g57
(g58
g59
NtRp1223
(dp1224
g62
(dp1225
g70
I4
ssg71
g1219
sg64
(lp1226
g100
asbasbasbag57
(g73
g59
NtRp1227
(dp1228
g62
(dp1229
sg71
g1045
sg64
(lp1230
g57
(g78
g59
NtRp1231
(dp1232
g62
(dp1233
g82
g83
ssg71
g1227
sg64
(lp1234
S'gluon_parent'
p1235
asbag57
(g78
g59
NtRp1236
(dp1237
g62
(dp1238
g89
g90
ssg71
g1227
sg64
(lp1239
S':'
asbag57
(g78
g59
NtRp1240
(dp1241
g62
(dp1242
sg71
g1227
sg64
(lp1243
g57
(g58
g59
NtRp1244
(dp1245
g62
(dp1246
g70
I4
ssg71
g1240
sg64
(lp1247
S'/home/adrian/web2py'
p1248
asbasbasbag57
(g73
g59
NtRp1249
(dp1250
g62
(dp1251
sg71
g1045
sg64
(lp1252
g57
(g78
g59
NtRp1253
(dp1254
g62
(dp1255
g82
g83
ssg71
g1249
sg64
(lp1256
S'http_accept'
p1257
asbag57
(g78
g59
NtRp1258
(dp1259
g62
(dp1260
g89
g90
ssg71
g1249
sg64
(lp1261
S':'
asbag57
(g78
g59
NtRp1262
(dp1263
g62
(dp1264
sg71
g1249
sg64
(lp1265
g57
(g58
g59
NtRp1266
(dp1267
g62
(dp1268
g70
I4
ssg71
g1262
sg64
(lp1269
S'text/html,application/xhtml+xml,application/xml;q=0.9,*/*;q=0.8'
p1270
asbasbasbag57
(g73
g59
NtRp1271
(dp1272
g62
(dp1273
sg71
g1045
sg64
(lp1274
g57
(g78
g59
NtRp1275
(dp1276
g62
(dp1277
g82
g83
ssg71
g1271
sg64
(lp1278
S'http_accept_charset'
p1279
asbag57
(g78
g59
NtRp1280
(dp1281
g62
(dp1282
g89
g90
ssg71
g1271
sg64
(lp1283
S':'
asbag57
(g78
g59
NtRp1284
(dp1285
g62
(dp1286
sg71
g1271
sg64
(lp1287
g57
(g58
g59
NtRp1288
(dp1289
g62
(dp1290
g70
I4
ssg71
g1284
sg64
(lp1291
S'ISO-8859-1,utf-8;q=0.7,*;q=0.3'
p1292
asbasbasbag57
(g73
g59
NtRp1293
(dp1294
g62
(dp1295
sg71
g1045
sg64
(lp1296
g57
(g78
g59
NtRp1297
(dp1298
g62
(dp1299
g82
g83
ssg71
g1293
sg64
(lp1300
S'http_accept_encoding'
p1301
asbag57
(g78
g59
NtRp1302
(dp1303
g62
(dp1304
g89
g90
ssg71
g1293
sg64
(lp1305
S':'
asbag57
(g78
g59
NtRp1306
(dp1307
g62
(dp1308
sg71
g1293
sg64
(lp1309
g57
(g58
g59
NtRp1310
(dp1311
g62
(dp1312
g70
I4
ssg71
g1306
sg64
(lp1313
S'gzip,deflate,sdch'
p1314
asbasbasbag57
(g73
g59
NtRp1315
(dp1316
g62
(dp1317
sg71
g1045
sg64
(lp1318
g57
(g78
g59
NtRp1319
(dp1320
g62
(dp1321
g82
g83
ssg71
g1315
sg64
(lp1322
S'http_accept_language'
p1323
asbag57
(g78
g59
NtRp1324
(dp1325
g62
(dp1326
g89
g90
ssg71
g1315
sg64
(lp1327
S':'
asbag57
(g78
g59
NtRp1328
(dp1329
g62
(dp1330
sg71
g1315
sg64
(lp1331
g57
(g58
g59
NtRp1332
(dp1333
g62
(dp1334
g70
I4
ssg71
g1328
sg64
(lp1335
S'es-ES,es;q=0.8'
p1336
asbasbasbag57
(g73
g59
NtRp1337
(dp1338
g62
(dp1339
sg71
g1045
sg64
(lp1340
g57
(g78
g59
NtRp1341
(dp1342
g62
(dp1343
g82
g83
ssg71
g1337
sg64
(lp1344
S'http_cache_control'
p1345
asbag57
(g78
g59
NtRp1346
(dp1347
g62
(dp1348
g89
g90
ssg71
g1337
sg64
(lp1349
S':'
asbag57
(g78
g59
NtRp1350
(dp1351
g62
(dp1352
sg71
g1337
sg64
(lp1353
g57
(g58
g59
NtRp1354
(dp1355
g62
(dp1356
g70
I4
ssg71
g1350
sg64
(lp1357
S'max-age=0'
p1358
asbasbasbag57
(g73
g59
NtRp1359
(dp1360
g62
(dp1361
sg71
g1045
sg64
(lp1362
g57
(g78
g59
NtRp1363
(dp1364
g62
(dp1365
g82
g83
ssg71
g1359
sg64
(lp1366
S'http_connection'
p1367
asbag57
(g78
g59
NtRp1368
(dp1369
g62
(dp1370
g89
g90
ssg71
g1359
sg64
(lp1371
S':'
asbag57
(g78
g59
NtRp1372
(dp1373
g62
(dp1374
sg71
g1359
sg64
(lp1375
g57
(g58
g59
NtRp1376
(dp1377
g62
(dp1378
g70
I4
ssg71
g1372
sg64
(lp1379
S'keep-alive'
p1380
asbasbasbag57
(g73
g59
NtRp1381
(dp1382
g62
(dp1383
sg71
g1045
sg64
(lp1384
g57
(g78
g59
NtRp1385
(dp1386
g62
(dp1387
g82
g83
ssg71
g1381
sg64
(lp1388
S'http_content_length'
p1389
asbag57
(g78
g59
NtRp1390
(dp1391
g62
(dp1392
g89
g90
ssg71
g1381
sg64
(lp1393
S':'
asbag57
(g78
g59
NtRp1394
(dp1395
g62
(dp1396
sg71
g1381
sg64
(lp1397
g57
(g58
g59
NtRp1398
(dp1399
g62
(dp1400
g70
I4
ssg71
g1394
sg64
(lp1401
g1161
asbasbasbag57
(g73
g59
NtRp1402
(dp1403
g62
(dp1404
sg71
g1045
sg64
(lp1405
g57
(g78
g59
NtRp1406
(dp1407
g62
(dp1408
g82
g83
ssg71
g1402
sg64
(lp1409
S'http_content_type'
p1410
asbag57
(g78
g59
NtRp1411
(dp1412
g62
(dp1413
g89
g90
ssg71
g1402
sg64
(lp1414
S':'
asbag57
(g78
g59
NtRp1415
(dp1416
g62
(dp1417
sg71
g1402
sg64
(lp1418
g57
(g58
g59
NtRp1419
(dp1420
g62
(dp1421
g70
I4
ssg71
g1415
sg64
(lp1422
g1183
asbasbasbag57
(g73
g59
NtRp1423
(dp1424
g62
(dp1425
sg71
g1045
sg64
(lp1426
g57
(g78
g59
NtRp1427
(dp1428
g62
(dp1429
g82
g83
ssg71
g1423
sg64
(lp1430
S'http_cookie'
p1431
asbag57
(g78
g59
NtRp1432
(dp1433
g62
(dp1434
g89
g90
ssg71
g1423
sg64
(lp1435
S':'
asbag57
(g78
g59
NtRp1436
(dp1437
g62
(dp1438
sg71
g1423
sg64
(lp1439
g57
(g58
g59
NtRp1440
(dp1441
g62
(dp1442
g70
I4
ssg71
g1436
sg64
(lp1443
S'kaej_unique_user=1; session_id_welcome=127.0.0.1-dc424825-7eb3-4a25-8c10-933ddf67e6c2; session_id_admin=127.0.0.1-1e4e694e-d5f8-4d88-a93e-f8017e171c5b; session_id_cygnuscloud=127.0.0.1-94b597fa-52b2-4481-ad0f-59b1fd37bc50'
p1444
asbasbasbag57
(g73
g59
NtRp1445
(dp1446
g62
(dp1447
sg71
g1045
sg64
(lp1448
g57
(g78
g59
NtRp1449
(dp1450
g62
(dp1451
g82
g83
ssg71
g1445
sg64
(lp1452
S'http_host'
p1453
asbag57
(g78
g59
NtRp1454
(dp1455
g62
(dp1456
g89
g90
ssg71
g1445
sg64
(lp1457
S':'
asbag57
(g78
g59
NtRp1458
(dp1459
g62
(dp1460
sg71
g1445
sg64
(lp1461
g57
(g58
g59
NtRp1462
(dp1463
g62
(dp1464
g70
I4
ssg71
g1458
sg64
(lp1465
S'127.0.0.1:8000'
p1466
asbasbasbag57
(g73
g59
NtRp1467
(dp1468
g62
(dp1469
sg71
g1045
sg64
(lp1470
g57
(g78
g59
NtRp1471
(dp1472
g62
(dp1473
g82
g83
ssg71
g1467
sg64
(lp1474
S'http_origin'
p1475
asbag57
(g78
g59
NtRp1476
(dp1477
g62
(dp1478
g89
g90
ssg71
g1467
sg64
(lp1479
S':'
asbag57
(g78
g59
NtRp1480
(dp1481
g62
(dp1482
sg71
g1467
sg64
(lp1483
g57
(g58
g59
NtRp1484
(dp1485
g62
(dp1486
g70
I4
ssg71
g1480
sg64
(lp1487
S'http://127.0.0.1:8000'
p1488
asbasbasbag57
(g73
g59
NtRp1489
(dp1490
g62
(dp1491
sg71
g1045
sg64
(lp1492
g57
(g78
g59
NtRp1493
(dp1494
g62
(dp1495
g82
g83
ssg71
g1489
sg64
(lp1496
S'http_referer'
p1497
asbag57
(g78
g59
NtRp1498
(dp1499
g62
(dp1500
g89
g90
ssg71
g1489
sg64
(lp1501
S':'
asbag57
(g78
g59
NtRp1502
(dp1503
g62
(dp1504
sg71
g1489
sg64
(lp1505
g57
(g58
g59
NtRp1506
(dp1507
g62
(dp1508
g70
I4
ssg71
g1502
sg64
(lp1509
S'http://127.0.0.1:8000/CygnusCloud/administrator/subjects/add'
p1510
asbasbasbag57
(g73
g59
NtRp1511
(dp1512
g62
(dp1513
sg71
g1045
sg64
(lp1514
g57
(g78
g59
NtRp1515
(dp1516
g62
(dp1517
g82
g83
ssg71
g1511
sg64
(lp1518
S'http_user_agent'
p1519
asbag57
(g78
g59
NtRp1520
(dp1521
g62
(dp1522
g89
g90
ssg71
g1511
sg64
(lp1523
S':'
asbag57
(g78
g59
NtRp1524
(dp1525
g62
(dp1526
sg71
g1511
sg64
(lp1527
g57
(g58
g59
NtRp1528
(dp1529
g62
(dp1530
g70
I4
ssg71
g1524
sg64
(lp1531
S'Mozilla/5.0 (X11; Linux x86_64) AppleWebKit/537.11 (KHTML, like Gecko) Chrome/23.0.1271.64 Safari/537.11'
p1532
asbasbasbag57
(g73
g59
NtRp1533
(dp1534
g62
(dp1535
sg71
g1045
sg64
(lp1536
g57
(g78
g59
NtRp1537
(dp1538
g62
(dp1539
g82
g83
ssg71
g1533
sg64
(lp1540
S'is_jython'
p1541
asbag57
(g78
g59
NtRp1542
(dp1543
g62
(dp1544
g89
g90
ssg71
g1533
sg64
(lp1545
S':'
asbag57
(g78
g59
NtRp1546
(dp1547
g62
(dp1548
sg71
g1533
sg64
(lp1549
g57
(g58
g59
NtRp1550
(dp1551
g62
(dp1552
g70
I4
ssg71
g1546
sg64
(lp1553
g100
asbasbasbag57
(g73
g59
NtRp1554
(dp1555
g62
(dp1556
sg71
g1045
sg64
(lp1557
g57
(g78
g59
NtRp1558
(dp1559
g62
(dp1560
g82
g83
ssg71
g1554
sg64
(lp1561
S'is_pypy'
p1562
asbag57
(g78
g59
NtRp1563
(dp1564
g62
(dp1565
g89
g90
ssg71
g1554
sg64
(lp1566
S':'
asbag57
(g78
g59
NtRp1567
(dp1568
g62
(dp1569
sg71
g1554
sg64
(lp1570
g57
(g58
g59
NtRp1571
(dp1572
g62
(dp1573
g70
I4
ssg71
g1567
sg64
(lp1574
g100
asbasbasbag57
(g73
g59
NtRp1575
(dp1576
g62
(dp1577
sg71
g1045
sg64
(lp1578
g57
(g78
g59
NtRp1579
(dp1580
g62
(dp1581
g82
g83
ssg71
g1575
sg64
(lp1582
S'local_hosts'
p1583
asbag57
(g78
g59
NtRp1584
(dp1585
g62
(dp1586
g89
g90
ssg71
g1575
sg64
(lp1587
S':'
asbag57
(g78
g59
NtRp1588
(dp1589
g62
(dp1590
sg71
g1575
sg64
(lp1591
g57
(g58
g59
NtRp1592
(dp1593
g62
(dp1594
g70
I4
ssg71
g1588
sg64
(lp1595
g57
(g66
g59
NtRp1596
(dp1597
g62
(dp1598
g70
I3
ssg71
Nsg64
(lp1599
g57
(g73
g59
NtRp1600
(dp1601
g62
(dp1602
sg71
g1596
sg64
(lp1603
g57
(g78
g59
NtRp1604
(dp1605
g62
(dp1606
sg71
g1600
sg64
(lp1607
g57
(g58
g59
NtRp1608
(dp1609
g62
(dp1610
g70
I3
ssg71
g1604
sg64
(lp1611
S'adri-EasyNote'
p1612
asbasbasbag57
(g73
g59
NtRp1613
(dp1614
g62
(dp1615
sg71
g1596
sg64
(lp1616
g57
(g78
g59
NtRp1617
(dp1618
g62
(dp1619
sg71
g1613
sg64
(lp1620
g57
(g58
g59
NtRp1621
(dp1622
g62
(dp1623
g70
I3
ssg71
g1617
sg64
(lp1624
S'::1'
p1625
asbasbasbag57
(g73
g59
NtRp1626
(dp1627
g62
(dp1628
sg71
g1596
sg64
(lp1629
g57
(g78
g59
NtRp1630
(dp1631
g62
(dp1632
sg71
g1626
sg64
(lp1633
g57
(g58
g59
NtRp1634
(dp1635
g62
(dp1636
g70
I3
ssg71
g1630
sg64
(lp1637
S'127.0.1.1'
p1638
asbasbasbag57
(g73
g59
NtRp1639
(dp1640
g62
(dp1641
sg71
g1596
sg64
(lp1642
g57
(g78
g59
NtRp1643
(dp1644
g62
(dp1645
sg71
g1639
sg64
(lp1646
g57
(g58
g59
NtRp1647
(dp1648
g62
(dp1649
g70
I3
ssg71
g1643
sg64
(lp1650
S'::ffff:127.0.0.1'
p1651
asbasbasbag57
(g73
g59
NtRp1652
(dp1653
g62
(dp1654
sg71
g1596
sg64
(lp1655
g57
(g78
g59
NtRp1656
(dp1657
g62
(dp1658
sg71
g1652
sg64
(lp1659
g57
(g58
g59
NtRp1660
(dp1661
g62
(dp1662
g70
I3
ssg71
g1656
sg64
(lp1663
S'127.0.0.1'
p1664
asbasbasbasbasbasbasbag57
(g73
g59
NtRp1665
(dp1666
g62
(dp1667
sg71
g1045
sg64
(lp1668
g57
(g78
g59
NtRp1669
(dp1670
g62
(dp1671
g82
g83
ssg71
g1665
sg64
(lp1672
S'path_info'
p1673
asbag57
(g78
g59
NtRp1674
(dp1675
g62
(dp1676
g89
g90
ssg71
g1665
sg64
(lp1677
S':'
asbag57
(g78
g59
NtRp1678
(dp1679
g62
(dp1680
sg71
g1665
sg64
(lp1681
g57
(g58
g59
NtRp1682
(dp1683
g62
(dp1684
g70
I4
ssg71
g1678
sg64
(lp1685
S'/CygnusCloud/administrator/subjects/add'
p1686
asbasbasbag57
(g73
g59
NtRp1687
(dp1688
g62
(dp1689
sg71
g1045
sg64
(lp1690
g57
(g78
g59
NtRp1691
(dp1692
g62
(dp1693
g82
g83
ssg71
g1687
sg64
(lp1694
S'query_string'
p1695
asbag57
(g78
g59
NtRp1696
(dp1697
g62
(dp1698
g89
g90
ssg71
g1687
sg64
(lp1699
S':'
asbag57
(g78
g59
NtRp1700
(dp1701
g62
(dp1702
sg71
g1687
sg64
(lp1703
g57
(g58
g59
NtRp1704
(dp1705
g62
(dp1706
g70
I4
ssg71
g1700
sg64
(lp1707
S''
asbasbasbag57
(g73
g59
NtRp1708
(dp1709
g62
(dp1710
sg71
g1045
sg64
(lp1711
g57
(g78
g59
NtRp1712
(dp1713
g62
(dp1714
g82
g83
ssg71
g1708
sg64
(lp1715
S'remote_addr'
p1716
asbag57
(g78
g59
NtRp1717
(dp1718
g62
(dp1719
g89
g90
ssg71
g1708
sg64
(lp1720
S':'
asbag57
(g78
g59
NtRp1721
(dp1722
g62
(dp1723
sg71
g1708
sg64
(lp1724
g57
(g58
g59
NtRp1725
(dp1726
g62
(dp1727
g70
I4
ssg71
g1721
sg64
(lp1728
g225
asbasbasbag57
(g73
g59
NtRp1729
(dp1730
g62
(dp1731
sg71
g1045
sg64
(lp1732
g57
(g78
g59
NtRp1733
(dp1734
g62
(dp1735
g82
g83
ssg71
g1729
sg64
(lp1736
S'remote_port'
p1737
asbag57
(g78
g59
NtRp1738
(dp1739
g62
(dp1740
g89
g90
ssg71
g1729
sg64
(lp1741
S':'
asbag57
(g78
g59
NtRp1742
(dp1743
g62
(dp1744
sg71
g1729
sg64
(lp1745
g57
(g58
g59
NtRp1746
(dp1747
g62
(dp1748
g70
I4
ssg71
g1742
sg64
(lp1749
S'48424'
p1750
asbasbasbag57
(g73
g59
NtRp1751
(dp1752
g62
(dp1753
sg71
g1045
sg64
(lp1754
g57
(g78
g59
NtRp1755
(dp1756
g62
(dp1757
g82
g83
ssg71
g1751
sg64
(lp1758
S'request_method'
p1759
asbag57
(g78
g59
NtRp1760
(dp1761
g62
(dp1762
g89
g90
ssg71
g1751
sg64
(lp1763
S':'
asbag57
(g78
g59
NtRp1764
(dp1765
g62
(dp1766
sg71
g1751
sg64
(lp1767
g57
(g58
g59
NtRp1768
(dp1769
g62
(dp1770
g70
I4
ssg71
g1764
sg64
(lp1771
S'POST'
p1772
asbasbasbag57
(g73
g59
NtRp1773
(dp1774
g62
(dp1775
sg71
g1045
sg64
(lp1776
g57
(g78
g59
NtRp1777
(dp1778
g62
(dp1779
g82
g83
ssg71
g1773
sg64
(lp1780
S'request_uri'
p1781
asbag57
(g78
g59
NtRp1782
(dp1783
g62
(dp1784
g89
g90
ssg71
g1773
sg64
(lp1785
S':'
asbag57
(g78
g59
NtRp1786
(dp1787
g62
(dp1788
sg71
g1773
sg64
(lp1789
g57
(g58
g59
NtRp1790
(dp1791
g62
(dp1792
g70
I4
ssg71
g1786
sg64
(lp1793
g1686
asbasbasbag57
(g73
g59
NtRp1794
(dp1795
g62
(dp1796
sg71
g1045
sg64
(lp1797
g57
(g78
g59
NtRp1798
(dp1799
g62
(dp1800
g82
g83
ssg71
g1794
sg64
(lp1801
S'script_name'
p1802
asbag57
(g78
g59
NtRp1803
(dp1804
g62
(dp1805
g89
g90
ssg71
g1794
sg64
(lp1806
S':'
asbag57
(g78
g59
NtRp1807
(dp1808
g62
(dp1809
sg71
g1794
sg64
(lp1810
g57
(g58
g59
NtRp1811
(dp1812
g62
(dp1813
g70
I4
ssg71
g1807
sg64
(lp1814
S''
asbasbasbag57
(g73
g59
NtRp1815
(dp1816
g62
(dp1817
sg71
g1045
sg64
(lp1818
g57
(g78
g59
NtRp1819
(dp1820
g62
(dp1821
g82
g83
ssg71
g1815
sg64
(lp1822
S'server_name'
p1823
asbag57
(g78
g59
NtRp1824
(dp1825
g62
(dp1826
g89
g90
ssg71
g1815
sg64
(lp1827
S':'
asbag57
(g78
g59
NtRp1828
(dp1829
g62
(dp1830
sg71
g1815
sg64
(lp1831
g57
(g58
g59
NtRp1832
(dp1833
g62
(dp1834
g70
I4
ssg71
g1828
sg64
(lp1835
S'adri-EasyNote'
p1836
asbasbasbag57
(g73
g59
NtRp1837
(dp1838
g62
(dp1839
sg71
g1045
sg64
(lp1840
g57
(g78
g59
NtRp1841
(dp1842
g62
(dp1843
g82
g83
ssg71
g1837
sg64
(lp1844
S'server_port'
p1845
asbag57
(g78
g59
NtRp1846
(dp1847
g62
(dp1848
g89
g90
ssg71
g1837
sg64
(lp1849
S':'
asbag57
(g78
g59
NtRp1850
(dp1851
g62
(dp1852
sg71
g1837
sg64
(lp1853
g57
(g58
g59
NtRp1854
(dp1855
g62
(dp1856
g70
I4
ssg71
g1850
sg64
(lp1857
S'8000'
p1858
asbasbasbag57
(g73
g59
NtRp1859
(dp1860
g62
(dp1861
sg71
g1045
sg64
(lp1862
g57
(g78
g59
NtRp1863
(dp1864
g62
(dp1865
g82
g83
ssg71
g1859
sg64
(lp1866
S'server_protocol'
p1867
asbag57
(g78
g59
NtRp1868
(dp1869
g62
(dp1870
g89
g90
ssg71
g1859
sg64
(lp1871
S':'
asbag57
(g78
g59
NtRp1872
(dp1873
g62
(dp1874
sg71
g1859
sg64
(lp1875
g57
(g58
g59
NtRp1876
(dp1877
g62
(dp1878
g70
I4
ssg71
g1872
sg64
(lp1879
S'HTTP/1.1'
p1880
asbasbasbag57
(g73
g59
NtRp1881
(dp1882
g62
(dp1883
sg71
g1045
sg64
(lp1884
g57
(g78
g59
NtRp1885
(dp1886
g62
(dp1887
g82
g83
ssg71
g1881
sg64
(lp1888
S'server_software'
p1889
asbag57
(g78
g59
NtRp1890
(dp1891
g62
(dp1892
g89
g90
ssg71
g1881
sg64
(lp1893
S':'
asbag57
(g78
g59
NtRp1894
(dp1895
g62
(dp1896
sg71
g1881
sg64
(lp1897
g57
(g58
g59
NtRp1898
(dp1899
g62
(dp1900
g70
I4
ssg71
g1894
sg64
(lp1901
S'Rocket 1.2.6'
p1902
asbasbasbag57
(g73
g59
NtRp1903
(dp1904
g62
(dp1905
sg71
g1045
sg64
(lp1906
g57
(g78
g59
NtRp1907
(dp1908
g62
(dp1909
g82
g83
ssg71
g1903
sg64
(lp1910
S'web2py_path'
p1911
asbag57
(g78
g59
NtRp1912
(dp1913
g62
(dp1914
g89
g90
ssg71
g1903
sg64
(lp1915
S':'
asbag57
(g78
g59
NtRp1916
(dp1917
g62
(dp1918
sg71
g1903
sg64
(lp1919
g57
(g58
g59
NtRp1920
(dp1921
g62
(dp1922
g70
I4
ssg71
g1916
sg64
(lp1923
g1092
asbasbasbag57
(g73
g59
NtRp1924
(dp1925
g62
(dp1926
sg71
g1045
sg64
(lp1927
g57
(g78
g59
NtRp1928
(dp1929
g62
(dp1930
g82
g83
ssg71
g1924
sg64
(lp1931
S'web2py_version'
p1932
asbag57
(g78
g59
NtRp1933
(dp1934
g62
(dp1935
g89
g90
ssg71
g1924
sg64
(lp1936
S':'
asbag57
(g78
g59
NtRp1937
(dp1938
g62
(dp1939
sg71
g1924
sg64
(lp1940
g57
(g58
g59
NtRp1941
(dp1942
g62
(dp1943
g70
I4
ssg71
g1937
sg64
(lp1944
g57
(g66
g59
NtRp1945
(dp1946
g62
(dp1947
g70
I3
ssg71
Nsg64
(lp1948
g57
(g73
g59
NtRp1949
(dp1950
g62
(dp1951
sg71
g1945
sg64
(lp1952
g57
(g78
g59
NtRp1953
(dp1954
g62
(dp1955
sg71
g1949
sg64
(lp1956
g57
(g58
g59
NtRp1957
(dp1958
g62
(dp1959
g70
I3
ssg71
g1953
sg64
(lp1960
S'2'
asbasbasbag57
(g73
g59
NtRp1961
(dp1962
g62
(dp1963
sg71
g1945
sg64
(lp1964
g57
(g78
g59
NtRp1965
(dp1966
g62
(dp1967
sg71
g1961
sg64
(lp1968
g57
(g58
g59
NtRp1969
(dp1970
g62
(dp1971
g70
I3
ssg71
g1965
sg64
(lp1972
S'3'
asbasbasbag57
(g73
g59
NtRp1973
(dp1974
g62
(dp1975
sg71
g1945
sg64
(lp1976
g57
(g78
g59
NtRp1977
(dp1978
g62
(dp1979
sg71
g1973
sg64
(lp1980
g57
(g58
g59
NtRp1981
(dp1982
g62
(dp1983
g70
I3
ssg71
g1977
sg64
(lp1984
S'2'
asbasbasbag57
(g73
g59
NtRp1985
(dp1986
g62
(dp1987
sg71
g1945
sg64
(lp1988
g57
(g78
g59
NtRp1989
(dp1990
g62
(dp1991
sg71
g1985
sg64
(lp1992
g57
(g58
g59
NtRp1993
(dp1994
g62
(dp1995
g70
I3
ssg71
g1989
sg64
(lp1996
S'datetime.datetime(2012, 12, 17, 15, 3, 30)'
p1997
asbasbasbag57
(g73
g59
NtRp1998
(dp1999
g62
(dp2000
sg71
g1945
sg64
(lp2001
g57
(g78
g59
NtRp2002
(dp2003
g62
(dp2004
sg71
g1998
sg64
(lp2005
g57
(g58
g59
NtRp2006
(dp2007
g62
(dp2008
g70
I3
ssg71
g2002
sg64
(lp2009
S'stable'
p2010
asbasbasbasbasbasbasbag57
(g73
g59
NtRp2011
(dp2012
g62
(dp2013
sg71
g1045
sg64
(lp2014
g57
(g78
g59
NtRp2015
(dp2016
g62
(dp2017
g82
g83
ssg71
g2011
sg64
(lp2018
S'wsgi_errors'
p2019
asbag57
(g78
g59
NtRp2020
(dp2021
g62
(dp2022
g89
g90
ssg71
g2011
sg64
(lp2023
S':'
asbag57
(g78
g59
NtRp2024
(dp2025
g62
(dp2026
sg71
g2011
sg64
(lp2027
g57
(g58
g59
NtRp2028
(dp2029
g62
(dp2030
g70
I4
ssg71
g2024
sg64
(lp2031
S"<open file '<stderr>', mode 'w' at 0x7f5f77b12270>"
p2032
asbasbasbag57
(g73
g59
NtRp2033
(dp2034
g62
(dp2035
sg71
g1045
sg64
(lp2036
g57
(g78
g59
NtRp2037
(dp2038
g62
(dp2039
g82
g83
ssg71
g2033
sg64
(lp2040
S'wsgi_file_wrapper'
p2041
asbag57
(g78
g59
NtRp2042
(dp2043
g62
(dp2044
g89
g90
ssg71
g2033
sg64
(lp2045
S':'
asbag57
(g78
g59
NtRp2046
(dp2047
g62
(dp2048
sg71
g2033
sg64
(lp2049
g57
(g58
g59
NtRp2050
(dp2051
g62
(dp2052
g70
I4
ssg71
g2046
sg64
(lp2053
S'<class wsgiref.util.FileWrapper at 0x2151db8>'
p2054
asbasbasbag57
(g73
g59
NtRp2055
(dp2056
g62
(dp2057
sg71
g1045
sg64
(lp2058
g57
(g78
g59
NtRp2059
(dp2060
g62
(dp2061
g82
g83
ssg71
g2055
sg64
(lp2062
S'wsgi_input'
p2063
asbag57
(g78
g59
NtRp2064
(dp2065
g62
(dp2066
g89
g90
ssg71
g2055
sg64
(lp2067
S':'
asbag57
(g78
g59
NtRp2068
(dp2069
g62
(dp2070
sg71
g2055
sg64
(lp2071
g57
(g58
g59
NtRp2072
(dp2073
g62
(dp2074
g70
I4
ssg71
g2068
sg64
(lp2075
S'<socket._fileobject object at 0x7f5f6c1db050>'
p2076
asbasbasbag57
(g73
g59
NtRp2077
(dp2078
g62
(dp2079
sg71
g1045
sg64
(lp2080
g57
(g78
g59
NtRp2081
(dp2082
g62
(dp2083
g82
g83
ssg71
g2077
sg64
(lp2084
S'wsgi_multiprocess'
p2085
asbag57
(g78
g59
NtRp2086
(dp2087
g62
(dp2088
g89
g90
ssg71
g2077
sg64
(lp2089
S':'
asbag57
(g78
g59
NtRp2090
(dp2091
g62
(dp2092
sg71
g2077
sg64
(lp2093
g57
(g58
g59
NtRp2094
(dp2095
g62
(dp2096
g70
I4
ssg71
g2090
sg64
(lp2097
g100
asbasbasbag57
(g73
g59
NtRp2098
(dp2099
g62
(dp2100
sg71
g1045
sg64
(lp2101
g57
(g78
g59
NtRp2102
(dp2103
g62
(dp2104
g82
g83
ssg71
g2098
sg64
(lp2105
S'wsgi_multithread'
p2106
asbag57
(g78
g59
NtRp2107
(dp2108
g62
(dp2109
g89
g90
ssg71
g2098
sg64
(lp2110
S':'
asbag57
(g78
g59
NtRp2111
(dp2112
g62
(dp2113
sg71
g2098
sg64
(lp2114
g57
(g58
g59
NtRp2115
(dp2116
g62
(dp2117
g70
I4
ssg71
g2111
sg64
(lp2118
S'True'
p2119
asbasbasbag57
(g73
g59
NtRp2120
(dp2121
g62
(dp2122
sg71
g1045
sg64
(lp2123
g57
(g78
g59
NtRp2124
(dp2125
g62
(dp2126
g82
g83
ssg71
g2120
sg64
(lp2127
S'wsgi_run_once'
p2128
asbag57
(g78
g59
NtRp2129
(dp2130
g62
(dp2131
g89
g90
ssg71
g2120
sg64
(lp2132
S':'
asbag57
(g78
g59
NtRp2133
(dp2134
g62
(dp2135
sg71
g2120
sg64
(lp2136
g57
(g58
g59
NtRp2137
(dp2138
g62
(dp2139
g70
I4
ssg71
g2133
sg64
(lp2140
g100
asbasbasbag57
(g73
g59
NtRp2141
(dp2142
g62
(dp2143
sg71
g1045
sg64
(lp2144
g57
(g78
g59
NtRp2145
(dp2146
g62
(dp2147
g82
g83
ssg71
g2141
sg64
(lp2148
S'wsgi_url_scheme'
p2149
asbag57
(g78
g59
NtRp2150
(dp2151
g62
(dp2152
g89
g90
ssg71
g2141
sg64
(lp2153
S':'
asbag57
(g78
g59
NtRp2154
(dp2155
g62
(dp2156
sg71
g2141
sg64
(lp2157
g57
(g58
g59
NtRp2158
(dp2159
g62
(dp2160
g70
I4
ssg71
g2154
sg64
(lp2161
S'http'
p2162
asbasbasbag57
(g73
g59
NtRp2163
(dp2164
g62
(dp2165
sg71
g1045
sg64
(lp2166
g57
(g78
g59
NtRp2167
(dp2168
g62
(dp2169
g82
g83
ssg71
g2163
sg64
(lp2170
S'wsgi_version'
p2171
asbag57
(g78
g59
NtRp2172
(dp2173
g62
(dp2174
g89
g90
ssg71
g2163
sg64
(lp2175
S':'
asbag57
(g78
g59
NtRp2176
(dp2177
g62
(dp2178
sg71
g2163
sg64
(lp2179
g57
(g58
g59
NtRp2180
(dp2181
g62
(dp2182
g70
I4
ssg71
g2176
sg64
(lp2183
g57
(g66
g59
NtRp2184
(dp2185
g62
(dp2186
g70
I3
ssg71
Nsg64
(lp2187
g57
(g73
g59
NtRp2188
(dp2189
g62
(dp2190
sg71
g2184
sg64
(lp2191
g57
(g78
g59
NtRp2192
(dp2193
g62
(dp2194
sg71
g2188
sg64
(lp2195
g57
(g58
g59
NtRp2196
(dp2197
g62
(dp2198
g70
I3
ssg71
g2192
sg64
(lp2199
S'1'
asbasbasbag57
(g73
g59
NtRp2200
(dp2201
g62
(dp2202
sg71
g2184
sg64
(lp2203
g57
(g78
g59
NtRp2204
(dp2205
g62
(dp2206
sg71
g2200
sg64
(lp2207
g57
(g58
g59
NtRp2208
(dp2209
g62
(dp2210
g70
I3
ssg71
g2204
sg64
(lp2211
S'0'
asbasbasbasbasbasbasbasbasbasbasbag57
(g73
g59
NtRp2212
(dp2213
g62
(dp2214
sg71
g67
sg64
(lp2215
g57
(g78
g59
NtRp2216
(dp2217
g62
(dp2218
g82
g83
ssg71
g2212
sg64
(lp2219
S'extension'
p2220
asbag57
(g78
g59
NtRp2221
(dp2222
g62
(dp2223
g89
g90
ssg71
g2212
sg64
(lp2224
S':'
asbag57
(g78
g59
NtRp2225
(dp2226
g62
(dp2227
sg71
g2212
sg64
(lp2228
g57
(g58
g59
NtRp2229
(dp2230
g62
(dp2231
g70
I5
ssg71
g2225
sg64
(lp2232
S'html'
p2233
asbasbasbag57
(g73
g59
NtRp2234
(dp2235
g62
(dp2236
sg71
g67
sg64
(lp2237
g57
(g78
g59
NtRp2238
(dp2239
g62
(dp2240
g82
g83
ssg71
g2234
sg64
(lp2241
S'folder'
p2242
asbag57
(g78
g59
NtRp2243
(dp2244
g62
(dp2245
g89
g90
ssg71
g2234
sg64
(lp2246
S':'
asbag57
(g78
g59
NtRp2247
(dp2248
g62
(dp2249
sg71
g2234
sg64
(lp2250
g57
(g58
g59
NtRp2251
(dp2252
g62
(dp2253
g70
I5
ssg71
g2247
sg64
(lp2254
S'/home/adrian/web2py/applications/CygnusCloud/'
p2255
asbasbasbag57
(g73
g59
NtRp2256
(dp2257
g62
(dp2258
sg71
g67
sg64
(lp2259
g57
(g78
g59
NtRp2260
(dp2261
g62
(dp2262
g82
g83
ssg71
g2256
sg64
(lp2263
S'function'
p2264
asbag57
(g78
g59
NtRp2265
(dp2266
g62
(dp2267
g89
g90
ssg71
g2256
sg64
(lp2268
S':'
asbag57
(g78
g59
NtRp2269
(dp2270
g62
(dp2271
sg71
g2256
sg64
(lp2272
g57
(g58
g59
NtRp2273
(dp2274
g62
(dp2275
g70
I5
ssg71
g2269
sg64
(lp2276
S'subjects'
p2277
asbasbasbag57
(g73
g59
NtRp2278
(dp2279
g62
(dp2280
sg71
g67
sg64
(lp2281
g57
(g78
g59
NtRp2282
(dp2283
g62
(dp2284
g82
g83
ssg71
g2278
sg64
(lp2285
S'get_vars'
p2286
asbag57
(g78
g59
NtRp2287
(dp2288
g62
(dp2289
g89
g90
ssg71
g2278
sg64
(lp2290
S':'
asbag57
(g78
g59
NtRp2291
(dp2292
g62
(dp2293
sg71
g2278
sg64
(lp2294
g57
(g58
g59
NtRp2295
(dp2296
g62
(dp2297
g70
I5
ssg71
g2291
sg64
(lp2298
g57
(g66
g59
NtRp2299
(dp2300
g62
(dp2301
g70
I4
ssg71
Nsg64
(lp2302
sbasbasbasbag57
(g73
g59
NtRp2303
(dp2304
g62
(dp2305
sg71
g67
sg64
(lp2306
g57
(g78
g59
NtRp2307
(dp2308
g62
(dp2309
g82
g83
ssg71
g2303
sg64
(lp2310
S'global_settings'
p2311
asbag57
(g78
g59
NtRp2312
(dp2313
g62
(dp2314
g89
g90
ssg71
g2303
sg64
(lp2315
S':'
asbag57
(g78
g59
NtRp2316
(dp2317
g62
(dp2318
sg71
g2303
sg64
(lp2319
g57
(g58
g59
NtRp2320
(dp2321
g62
(dp2322
g70
I5
ssg71
g2316
sg64
(lp2323
g57
(g66
g59
NtRp2324
(dp2325
g62
(dp2326
g70
I4
ssg71
Nsg64
(lp2327
g57
(g73
g59
NtRp2328
(dp2329
g62
(dp2330
sg71
g2324
sg64
(lp2331
g57
(g78
g59
NtRp2332
(dp2333
g62
(dp2334
g82
g83
ssg71
g2328
sg64
(lp2335
g1057
asbag57
(g78
g59
NtRp2336
(dp2337
g62
(dp2338
g89
g90
ssg71
g2328
sg64
(lp2339
S':'
asbag57
(g78
g59
NtRp2340
(dp2341
g62
(dp2342
sg71
g2328
sg64
(lp2343
g57
(g58
g59
NtRp2344
(dp2345
g62
(dp2346
g70
I4
ssg71
g2340
sg64
(lp2347
S"set(['/home/adrian/web2py/applications/admin/', '/home/adrian/web2py/applications/CygnusCloud/'])"
p2348
asbasbasbag57
(g73
g59
NtRp2349
(dp2350
g62
(dp2351
sg71
g2324
sg64
(lp2352
g57
(g78
g59
NtRp2353
(dp2354
g62
(dp2355
g82
g83
ssg71
g2349
sg64
(lp2356
g1079
asbag57
(g78
g59
NtRp2357
(dp2358
g62
(dp2359
g89
g90
ssg71
g2349
sg64
(lp2360
S':'
asbag57
(g78
g59
NtRp2361
(dp2362
g62
(dp2363
sg71
g2349
sg64
(lp2364
g57
(g58
g59
NtRp2365
(dp2366
g62
(dp2367
g70
I4
ssg71
g2361
sg64
(lp2368
g1092
asbasbasbag57
(g73
g59
NtRp2369
(dp2370
g62
(dp2371
sg71
g2324
sg64
(lp2372
g57
(g78
g59
NtRp2373
(dp2374
g62
(dp2375
g82
g83
ssg71
g2369
sg64
(lp2376
g1101
asbag57
(g78
g59
NtRp2377
(dp2378
g62
(dp2379
g89
g90
ssg71
g2369
sg64
(lp2380
S':'
asbag57
(g78
g59
NtRp2381
(dp2382
g62
(dp2383
sg71
g2369
sg64
(lp2384
g57
(g58
g59
NtRp2385
(dp2386
g62
(dp2387
g70
I4
ssg71
g2381
sg64
(lp2388
g57
(g66
g59
NtRp2389
(dp2390
g62
(dp2391
g70
I3
ssg71
Nsg64
(lp2392
sbasbasbasbag57
(g73
g59
NtRp2393
(dp2394
g62
(dp2395
sg71
g2324
sg64
(lp2396
g57
(g78
g59
NtRp2397
(dp2398
g62
(dp2399
g82
g83
ssg71
g2393
sg64
(lp2400
g1126
asbag57
(g78
g59
NtRp2401
(dp2402
g62
(dp2403
g89
g90
ssg71
g2393
sg64
(lp2404
S':'
asbag57
(g78
g59
NtRp2405
(dp2406
g62
(dp2407
sg71
g2393
sg64
(lp2408
g57
(g58
g59
NtRp2409
(dp2410
g62
(dp2411
g70
I4
ssg71
g2405
sg64
(lp2412
S"<Values at 0x221dbd8: {'verbose': False, 'ip': '127.0.0.1', 'with_scheduler': False, 'ips': [], 'shutdown_timeout': 5, 'taskbar': False, 'port': 8000, 'maxthreads': None, 'softcron': False, 'server_name': 'adri-EasyNote', 'bpython': False, 'nogui': False, 'pid_filename': 'httpserver.pid', 'extcron': False, 'runcron': False, 'run_system_tests': False, 'test': None, 'folder': '/home/adrian/web2py', 'config': '', 'minthreads': None, 'winservice': '', 'shell': None, 'run': '', 'log_filename': 'httpserver.log', 'debuglevel': 30, 'args': [''], 'socket_timeout': 5, 'ssl_ca_certificate': None, 'scheduler': None, 'profiler_filename': None, 'ssl_private_key': '', 'scheduler_groups': None, 'password': 'cygnuscloud2012', 'request_queue_size': 5, 'ssl_certificate': '', 'cronjob': False, 'numthreads': None, 'quiet': False, 'interfaces': None, 'import_models': False, 'timeout': 10, 'plain': False, 'nobanner': False}>"
p2413
asbasbasbag57
(g73
g59
NtRp2414
(dp2415
g62
(dp2416
sg71
g2324
sg64
(lp2417
g57
(g78
g59
NtRp2418
(dp2419
g62
(dp2420
g82
g83
ssg71
g2414
sg64
(lp2421
g1192
asbag57
(g78
g59
NtRp2422
(dp2423
g62
(dp2424
g89
g90
ssg71
g2414
sg64
(lp2425
S':'
asbag57
(g78
g59
NtRp2426
(dp2427
g62
(dp2428
sg71
g2414
sg64
(lp2429
g57
(g58
g59
NtRp2430
(dp2431
g62
(dp2432
g70
I4
ssg71
g2426
sg64
(lp2433
S'set([])'
p2434
asbasbasbag57
(g73
g59
NtRp2435
(dp2436
g62
(dp2437
sg71
g2324
sg64
(lp2438
g57
(g78
g59
NtRp2439
(dp2440
g62
(dp2441
g82
g83
ssg71
g2435
sg64
(lp2442
g1214
asbag57
(g78
g59
NtRp2443
(dp2444
g62
(dp2445
g89
g90
ssg71
g2435
sg64
(lp2446
S':'
asbag57
(g78
g59
NtRp2447
(dp2448
g62
(dp2449
sg71
g2435
sg64
(lp2450
g57
(g58
g59
NtRp2451
(dp2452
g62
(dp2453
g70
I4
ssg71
g2447
sg64
(lp2454
g100
asbasbasbag57
(g73
g59
NtRp2455
(dp2456
g62
(dp2457
sg71
g2324
sg64
(lp2458
g57
(g78
g59
NtRp2459
(dp2460
g62
(dp2461
g82
g83
ssg71
g2455
sg64
(lp2462
g1235
asbag57
(g78
g59
NtRp2463
(dp2464
g62
(dp2465
g89
g90
ssg71
g2455
sg64
(lp2466
S':'
asbag57
(g78
g59
NtRp2467
(dp2468
g62
(dp2469
sg71
g2455
sg64
(lp2470
g57
(g58
g59
NtRp2471
(dp2472
g62
(dp2473
g70
I4
ssg71
g2467
sg64
(lp2474
g1248
asbasbasbag57
(g73
g59
NtRp2475
(dp2476
g62
(dp2477
sg71
g2324
sg64
(lp2478
g57
(g78
g59
NtRp2479
(dp2480
g62
(dp2481
g82
g83
ssg71
g2475
sg64
(lp2482
g1541
asbag57
(g78
g59
NtRp2483
(dp2484
g62
(dp2485
g89
g90
ssg71
g2475
sg64
(lp2486
S':'
asbag57
(g78
g59
NtRp2487
(dp2488
g62
(dp2489
sg71
g2475
sg64
(lp2490
g57
(g58
g59
NtRp2491
(dp2492
g62
(dp2493
g70
I4
ssg71
g2487
sg64
(lp2494
g100
asbasbasbag57
(g73
g59
NtRp2495
(dp2496
g62
(dp2497
sg71
g2324
sg64
(lp2498
g57
(g78
g59
NtRp2499
(dp2500
g62
(dp2501
g82
g83
ssg71
g2495
sg64
(lp2502
g1562
asbag57
(g78
g59
NtRp2503
(dp2504
g62
(dp2505
g89
g90
ssg71
g2495
sg64
(lp2506
S':'
asbag57
(g78
g59
NtRp2507
(dp2508
g62
(dp2509
sg71
g2495
sg64
(lp2510
g57
(g58
g59
NtRp2511
(dp2512
g62
(dp2513
g70
I4
ssg71
g2507
sg64
(lp2514
g100
asbasbasbag57
(g73
g59
NtRp2515
(dp2516
g62
(dp2517
sg71
g2324
sg64
(lp2518
g57
(g78
g59
NtRp2519
(dp2520
g62
(dp2521
g82
g83
ssg71
g2515
sg64
(lp2522
g1583
asbag57
(g78
g59
NtRp2523
(dp2524
g62
(dp2525
g89
g90
ssg71
g2515
sg64
(lp2526
S':'
asbag57
(g78
g59
NtRp2527
(dp2528
g62
(dp2529
sg71
g2515
sg64
(lp2530
g57
(g58
g59
NtRp2531
(dp2532
g62
(dp2533
g70
I4
ssg71
g2527
sg64
(lp2534
g57
(g66
g59
NtRp2535
(dp2536
g62
(dp2537
g70
I3
ssg71
Nsg64
(lp2538
g57
(g73
g59
NtRp2539
(dp2540
g62
(dp2541
sg71
g2535
sg64
(lp2542
g57
(g78
g59
NtRp2543
(dp2544
g62
(dp2545
sg71
g2539
sg64
(lp2546
g57
(g58
g59
NtRp2547
(dp2548
g62
(dp2549
g70
I3
ssg71
g2543
sg64
(lp2550
g1612
asbasbasbag57
(g73
g59
NtRp2551
(dp2552
g62
(dp2553
sg71
g2535
sg64
(lp2554
g57
(g78
g59
NtRp2555
(dp2556
g62
(dp2557
sg71
g2551
sg64
(lp2558
g57
(g58
g59
NtRp2559
(dp2560
g62
(dp2561
g70
I3
ssg71
g2555
sg64
(lp2562
g1625
asbasbasbag57
(g73
g59
NtRp2563
(dp2564
g62
(dp2565
sg71
g2535
sg64
(lp2566
g57
(g78
g59
NtRp2567
(dp2568
g62
(dp2569
sg71
g2563
sg64
(lp2570
g57
(g58
g59
NtRp2571
(dp2572
g62
(dp2573
g70
I3
ssg71
g2567
sg64
(lp2574
g1638
asbasbasbag57
(g73
g59
NtRp2575
(dp2576
g62
(dp2577
sg71
g2535
sg64
(lp2578
g57
(g78
g59
NtRp2579
(dp2580
g62
(dp2581
sg71
g2575
sg64
(lp2582
g57
(g58
g59
NtRp2583
(dp2584
g62
(dp2585
g70
I3
ssg71
g2579
sg64
(lp2586
g1651
asbasbasbag57
(g73
g59
NtRp2587
(dp2588
g62
(dp2589
sg71
g2535
sg64
(lp2590
g57
(g78
g59
NtRp2591
(dp2592
g62
(dp2593
sg71
g2587
sg64
(lp2594
g57
(g58
g59
NtRp2595
(dp2596
g62
(dp2597
g70
I3
ssg71
g2591
sg64
(lp2598
g1664
asbasbasbasbasbasbasbag57
(g73
g59
NtRp2599
(dp2600
g62
(dp2601
sg71
g2324
sg64
(lp2602
g57
(g78
g59
NtRp2603
(dp2604
g62
(dp2605
g82
g83
ssg71
g2599
sg64
(lp2606
g1932
asbag57
(g78
g59
NtRp2607
(dp2608
g62
(dp2609
g89
g90
ssg71
g2599
sg64
(lp2610
S':'
asbag57
(g78
g59
NtRp2611
(dp2612
g62
(dp2613
sg71
g2599
sg64
(lp2614
g57
(g58
g59
NtRp2615
(dp2616
g62
(dp2617
g70
I4
ssg71
g2611
sg64
(lp2618
g57
(g66
g59
NtRp2619
(dp2620
g62
(dp2621
g70
I3
ssg71
Nsg64
(lp2622
g57
(g73
g59
NtRp2623
(dp2624
g62
(dp2625
sg71
g2619
sg64
(lp2626
g57
(g78
g59
NtRp2627
(dp2628
g62
(dp2629
sg71
g2623
sg64
(lp2630
g57
(g58
g59
NtRp2631
(dp2632
g62
(dp2633
g70
I3
ssg71
g2627
sg64
(lp2634
S'2'
asbasbasbag57
(g73
g59
NtRp2635
(dp2636
g62
(dp2637
sg71
g2619
sg64
(lp2638
g57
(g78
g59
NtRp2639
(dp2640
g62
(dp2641
sg71
g2635
sg64
(lp2642
g57
(g58
g59
NtRp2643
(dp2644
g62
(dp2645
g70
I3
ssg71
g2639
sg64
(lp2646
S'3'
asbasbasbag57
(g73
g59
NtRp2647
(dp2648
g62
(dp2649
sg71
g2619
sg64
(lp2650
g57
(g78
g59
NtRp2651
(dp2652
g62
(dp2653
sg71
g2647
sg64
(lp2654
g57
(g58
g59
NtRp2655
(dp2656
g62
(dp2657
g70
I3
ssg71
g2651
sg64
(lp2658
S'2'
asbasbasbag57
(g73
g59
NtRp2659
(dp2660
g62
(dp2661
sg71
g2619
sg64
(lp2662
g57
(g78
g59
NtRp2663
(dp2664
g62
(dp2665
sg71
g2659
sg64
(lp2666
g57
(g58
g59
NtRp2667
(dp2668
g62
(dp2669
g70
I3
ssg71
g2663
sg64
(lp2670
S'datetime.datetime(2012, 12, 17, 15, 3, 30)'
p2671
asbasbasbag57
(g73
g59
NtRp2672
(dp2673
g62
(dp2674
sg71
g2619
sg64
(lp2675
g57
(g78
g59
NtRp2676
(dp2677
g62
(dp2678
sg71
g2672
sg64
(lp2679
g57
(g58
g59
NtRp2680
(dp2681
g62
(dp2682
g70
I3
ssg71
g2676
sg64
(lp2683
g2010
asbasbasbasbasbasbasbasbasbasbasbag57
(g73
g59
NtRp2684
(dp2685
g62
(dp2686
sg71
g67
sg64
(lp2687
g57
(g78
g59
NtRp2688
(dp2689
g62
(dp2690
g82
g83
ssg71
g2684
sg64
(lp2691
S'is_https'
p2692
asbag57
(g78
g59
NtRp2693
(dp2694
g62
(dp2695
g89
g90
ssg71
g2684
sg64
(lp2696
S':'
asbag57
(g78
g59
NtRp2697
(dp2698
g62
(dp2699
sg71
g2684
sg64
(lp2700
g57
(g58
g59
NtRp2701
(dp2702
g62
(dp2703
g70
I5
ssg71
g2697
sg64
(lp2704
g100
asbasbasbag57
(g73
g59
NtRp2705
(dp2706
g62
(dp2707
sg71
g67
sg64
(lp2708
g57
(g78
g59
NtRp2709
(dp2710
g62
(dp2711
g82
g83
ssg71
g2705
sg64
(lp2712
S'is_local'
p2713
asbag57
(g78
g59
NtRp2714
(dp2715
g62
(dp2716
g89
g90
ssg71
g2705
sg64
(lp2717
S':'
asbag57
(g78
g59
NtRp2718
(dp2719
g62
(dp2720
sg71
g2705
sg64
(lp2721
g57
(g58
g59
NtRp2722
(dp2723
g62
(dp2724
g70
I5
ssg71
g2718
sg64
(lp2725
g2119
asbasbasbag57
(g73
g59
NtRp2726
(dp2727
g62
(dp2728
sg71
g67
sg64
(lp2729
g57
(g78
g59
NtRp2730
(dp2731
g62
(dp2732
g82
g83
ssg71
g2726
sg64
(lp2733
S'is_restful'
p2734
asbag57
(g78
g59
NtRp2735
(dp2736
g62
(dp2737
g89
g90
ssg71
g2726
sg64
(lp2738
S':'
asbag57
(g78
g59
NtRp2739
(dp2740
g62
(dp2741
sg71
g2726
sg64
(lp2742
g57
(g58
g59
NtRp2743
(dp2744
g62
(dp2745
g70
I5
ssg71
g2739
sg64
(lp2746
g100
asbasbasbag57
(g73
g59
NtRp2747
(dp2748
g62
(dp2749
sg71
g67
sg64
(lp2750
g57
(g78
g59
NtRp2751
(dp2752
g62
(dp2753
g82
g83
ssg71
g2747
sg64
(lp2754
S'now'
p2755
asbag57
(g78
g59
NtRp2756
(dp2757
g62
(dp2758
g89
g90
ssg71
g2747
sg64
(lp2759
S':'
asbag57
(g78
g59
NtRp2760
(dp2761
g62
(dp2762
sg71
g2747
sg64
(lp2763
g57
(g58
g59
NtRp2764
(dp2765
g62
(dp2766
g70
I5
ssg71
g2760
sg64
(lp2767
S'datetime.datetime(2013, 2, 11, 16, 21, 12, 840663)'
p2768
asbasbasbag57
(g73
g59
NtRp2769
(dp2770
g62
(dp2771
sg71
g67
sg64
(lp2772
g57
(g78
g59
NtRp2773
(dp2774
g62
(dp2775
g82
g83
ssg71
g2769
sg64
(lp2776
S'post_vars'
p2777
asbag57
(g78
g59
NtRp2778
(dp2779
g62
(dp2780
g89
g90
ssg71
g2769
sg64
(lp2781
S':'
asbag57
(g78
g59
NtRp2782
(dp2783
g62
(dp2784
sg71
g2769
sg64
(lp2785
g57
(g58
g59
NtRp2786
(dp2787
g62
(dp2788
g70
I5
ssg71
g2782
sg64
(lp2789
g57
(g66
g59
NtRp2790
(dp2791
g62
(dp2792
g70
I4
ssg71
Nsg64
(lp2793
g57
(g73
g59
NtRp2794
(dp2795
g62
(dp2796
sg71
g2790
sg64
(lp2797
g57
(g78
g59
NtRp2798
(dp2799
g62
(dp2800
g82
g83
ssg71
g2794
sg64
(lp2801
S'add'
p2802
asbag57
(g78
g59
NtRp2803
(dp2804
g62
(dp2805
g89
g90
ssg71
g2794
sg64
(lp2806
S':'
asbag57
(g78
g59
NtRp2807
(dp2808
g62
(dp2809
sg71
g2794
sg64
(lp2810
g57
(g58
g59
NtRp2811
(dp2812
g62
(dp2813
g70
I4
ssg71
g2807
sg64
(lp2814
S'A\xc3\xb1adir'
p2815
asbasbasbag57
(g73
g59
NtRp2816
(dp2817
g62
(dp2818
sg71
g2790
sg64
(lp2819
g57
(g78
g59
NtRp2820
(dp2821
g62
(dp2822
g82
g83
ssg71
g2816
sg64
(lp2823
S'cod'
p2824
asbag57
(g78
g59
NtRp2825
(dp2826
g62
(dp2827
g89
g90
ssg71
g2816
sg64
(lp2828
S':'
asbag57
(g78
g59
NtRp2829
(dp2830
g62
(dp2831
sg71
g2816
sg64
(lp2832
g57
(g58
g59
NtRp2833
(dp2834
g62
(dp2835
g70
I4
ssg71
g2829
sg64
(lp2836
S'dfgd'
p2837
asbasbasbag57
(g73
g59
NtRp2838
(dp2839
g62
(dp2840
sg71
g2790
sg64
(lp2841
g57
(g78
g59
NtRp2842
(dp2843
g62
(dp2844
g82
g83
ssg71
g2838
sg64
(lp2845
S'curse'
p2846
asbag57
(g78
g59
NtRp2847
(dp2848
g62
(dp2849
g89
g90
ssg71
g2838
sg64
(lp2850
S':'
asbag57
(g78
g59
NtRp2851
(dp2852
g62
(dp2853
sg71
g2838
sg64
(lp2854
g57
(g58
g59
NtRp2855
(dp2856
g62
(dp2857
g70
I4
ssg71
g2851
sg64
(lp2858
S'5'
asbasbasbag57
(g73
g59
NtRp2859
(dp2860
g62
(dp2861
sg71
g2790
sg64
(lp2862
g57
(g78
g59
NtRp2863
(dp2864
g62
(dp2865
g82
g83
ssg71
g2859
sg64
(lp2866
S'group'
p2867
asbag57
(g78
g59
NtRp2868
(dp2869
g62
(dp2870
g89
g90
ssg71
g2859
sg64
(lp2871
S':'
asbag57
(g78
g59
NtRp2872
(dp2873
g62
(dp2874
sg71
g2859
sg64
(lp2875
g57
(g58
g59
NtRp2876
(dp2877
g62
(dp2878
g70
I4
ssg71
g2872
sg64
(lp2879
S'a'
asbasbasbag57
(g73
g59
NtRp2880
(dp2881
g62
(dp2882
sg71
g2790
sg64
(lp2883
g57
(g78
g59
NtRp2884
(dp2885
g62
(dp2886
g82
g83
ssg71
g2880
sg64
(lp2887
S'name'
p2888
asbag57
(g78
g59
NtRp2889
(dp2890
g62
(dp2891
g89
g90
ssg71
g2880
sg64
(lp2892
S':'
asbag57
(g78
g59
NtRp2893
(dp2894
g62
(dp2895
sg71
g2880
sg64
(lp2896
g57
(g58
g59
NtRp2897
(dp2898
g62
(dp2899
g70
I4
ssg71
g2893
sg64
(lp2900
S'sgsg'
p2901
asbasbasbag57
(g73
g59
NtRp2902
(dp2903
g62
(dp2904
sg71
g2790
sg64
(lp2905
g57
(g78
g59
NtRp2906
(dp2907
g62
(dp2908
g82
g83
ssg71
g2902
sg64
(lp2909
S'year'
p2910
asbag57
(g78
g59
NtRp2911
(dp2912
g62
(dp2913
g89
g90
ssg71
g2902
sg64
(lp2914
S':'
asbag57
(g78
g59
NtRp2915
(dp2916
g62
(dp2917
sg71
g2902
sg64
(lp2918
g57
(g58
g59
NtRp2919
(dp2920
g62
(dp2921
g70
I4
ssg71
g2915
sg64
(lp2922
S'2012'
p2923
asbasbasbasbasbasbasbag57
(g73
g59
NtRp2924
(dp2925
g62
(dp2926
sg71
g67
sg64
(lp2927
g57
(g78
g59
NtRp2928
(dp2929
g62
(dp2930
g82
g83
ssg71
g2924
sg64
(lp2931
S'raw_args'
p2932
asbag57
(g78
g59
NtRp2933
(dp2934
g62
(dp2935
g89
g90
ssg71
g2924
sg64
(lp2936
S':'
asbag57
(g78
g59
NtRp2937
(dp2938
g62
(dp2939
sg71
g2924
sg64
(lp2940
g57
(g58
g59
NtRp2941
(dp2942
g62
(dp2943
g70
I5
ssg71
g2937
sg64
(lp2944
g159
asbasbasbag57
(g73
g59
NtRp2945
(dp2946
g62
(dp2947
sg71
g67
sg64
(lp2948
g57
(g78
g59
NtRp2949
(dp2950
g62
(dp2951
g82
g83
ssg71
g2945
sg64
(lp2952
S'raw_extension'
p2953
asbag57
(g78
g59
NtRp2954
(dp2955
g62
(dp2956
g89
g90
ssg71
g2945
sg64
(lp2957
S':'
asbag57
(g78
g59
NtRp2958
(dp2959
g62
(dp2960
sg71
g2945
sg64
(lp2961
g57
(g58
g59
NtRp2962
(dp2963
g62
(dp2964
g70
I5
ssg71
g2958
sg64
(lp2965
S'None'
p2966
asbasbasbag57
(g73
g59
NtRp2967
(dp2968
g62
(dp2969
sg71
g67
sg64
(lp2970
g57
(g78
g59
NtRp2971
(dp2972
g62
(dp2973
g82
g83
ssg71
g2967
sg64
(lp2974
S'url'
p2975
asbag57
(g78
g59
NtRp2976
(dp2977
g62
(dp2978
g89
g90
ssg71
g2967
sg64
(lp2979
S':'
asbag57
(g78
g59
NtRp2980
(dp2981
g62
(dp2982
sg71
g2967
sg64
(lp2983
g57
(g58
g59
NtRp2984
(dp2985
g62
(dp2986
g70
I5
ssg71
g2980
sg64
(lp2987
g1686
asbasbasbag57
(g73
g59
NtRp2988
(dp2989
g62
(dp2990
sg71
g67
sg64
(lp2991
g57
(g78
g59
NtRp2992
(dp2993
g62
(dp2994
g82
g83
ssg71
g2988
sg64
(lp2995
S'utcnow'
p2996
asbag57
(g78
g59
NtRp2997
(dp2998
g62
(dp2999
g89
g90
ssg71
g2988
sg64
(lp3000
S':'
asbag57
(g78
g59
NtRp3001
(dp3002
g62
(dp3003
sg71
g2988
sg64
(lp3004
g57
(g58
g59
NtRp3005
(dp3006
g62
(dp3007
g70
I5
ssg71
g3001
sg64
(lp3008
S'datetime.datetime(2013, 2, 11, 15, 21, 12, 840697)'
p3009
asbasbasbag57
(g73
g59
NtRp3010
(dp3011
g62
(dp3012
sg71
g67
sg64
(lp3013
g57
(g78
g59
NtRp3014
(dp3015
g62
(dp3016
g82
g83
ssg71
g3010
sg64
(lp3017
S'uuid'
p3018
asbag57
(g78
g59
NtRp3019
(dp3020
g62
(dp3021
g89
g90
ssg71
g3010
sg64
(lp3022
S':'
asbag57
(g78
g59
NtRp3023
(dp3024
g62
(dp3025
sg71
g3010
sg64
(lp3026
g57
(g58
g59
NtRp3027
(dp3028
g62
(dp3029
g70
I5
ssg71
g3023
sg64
(lp3030
S'CygnusCloud/127.0.0.1.2013-02-11.16-21-12.da3a2da2-b34c-43a7-8f0d-193c59f3afd3'
p3031
asbasbasbag57
(g73
g59
NtRp3032
(dp3033
g62
(dp3034
sg71
g67
sg64
(lp3035
g57
(g78
g59
NtRp3036
(dp3037
g62
(dp3038
g82
g83
ssg71
g3032
sg64
(lp3039
S'vars'
p3040
asbag57
(g78
g59
NtRp3041
(dp3042
g62
(dp3043
g89
g90
ssg71
g3032
sg64
(lp3044
S':'
asbag57
(g78
g59
NtRp3045
(dp3046
g62
(dp3047
sg71
g3032
sg64
(lp3048
g57
(g58
g59
NtRp3049
(dp3050
g62
(dp3051
g70
I5
ssg71
g3045
sg64
(lp3052
g57
(g66
g59
NtRp3053
(dp3054
g62
(dp3055
g70
I4
ssg71
Nsg64
(lp3056
g57
(g73
g59
NtRp3057
(dp3058
g62
(dp3059
sg71
g3053
sg64
(lp3060
g57
(g78
g59
NtRp3061
(dp3062
g62
(dp3063
g82
g83
ssg71
g3057
sg64
(lp3064
g2802
asbag57
(g78
g59
NtRp3065
(dp3066
g62
(dp3067
g89
g90
ssg71
g3057
sg64
(lp3068
S':'
asbag57
(g78
g59
NtRp3069
(dp3070
g62
(dp3071
sg71
g3057
sg64
(lp3072
g57
(g58
g59
NtRp3073
(dp3074
g62
(dp3075
g70
I4
ssg71
g3069
sg64
(lp3076
g2815
asbasbasbag57
(g73
g59
NtRp3077
(dp3078
g62
(dp3079
sg71
g3053
sg64
(lp3080
g57
(g78
g59
NtRp3081
(dp3082
g62
(dp3083
g82
g83
ssg71
g3077
sg64
(lp3084
g2824
asbag57
(g78
g59
NtRp3085
(dp3086
g62
(dp3087
g89
g90
ssg71
g3077
sg64
(lp3088
S':'
asbag57
(g78
g59
NtRp3089
(dp3090
g62
(dp3091
sg71
g3077
sg64
(lp3092
g57
(g58
g59
NtRp3093
(dp3094
g62
(dp3095
g70
I4
ssg71
g3089
sg64
(lp3096
g2837
asbasbasbag57
(g73
g59
NtRp3097
(dp3098
g62
(dp3099
sg71
g3053
sg64
(lp3100
g57
(g78
g59
NtRp3101
(dp3102
g62
(dp3103
g82
g83
ssg71
g3097
sg64
(lp3104
g2846
asbag57
(g78
g59
NtRp3105
(dp3106
g62
(dp3107
g89
g90
ssg71
g3097
sg64
(lp3108
S':'
asbag57
(g78
g59
NtRp3109
(dp3110
g62
(dp3111
sg71
g3097
sg64
(lp3112
g57
(g58
g59
NtRp3113
(dp3114
g62
(dp3115
g70
I4
ssg71
g3109
sg64
(lp3116
S'5'
asbasbasbag57
(g73
g59
NtRp3117
(dp3118
g62
(dp3119
sg71
g3053
sg64
(lp3120
g57
(g78
g59
NtRp3121
(dp3122
g62
(dp3123
g82
g83
ssg71
g3117
sg64
(lp3124
g2867
asbag57
(g78
g59
NtRp3125
(dp3126
g62
(dp3127
g89
g90
ssg71
g3117
sg64
(lp3128
S':'
asbag57
(g78
g59
NtRp3129
(dp3130
g62
(dp3131
sg71
g3117
sg64
(lp3132
g57
(g58
g59
NtRp3133
(dp3134
g62
(dp3135
g70
I4
ssg71
g3129
sg64
(lp3136
S'a'
asbasbasbag57
(g73
g59
NtRp3137
(dp3138
g62
(dp3139
sg71
g3053
sg64
(lp3140
g57
(g78
g59
NtRp3141
(dp3142
g62
(dp3143
g82
g83
ssg71
g3137
sg64
(lp3144
g2888
asbag57
(g78
g59
NtRp3145
(dp3146
g62
(dp3147
g89
g90
ssg71
g3137
sg64
(lp3148
S':'
asbag57
(g78
g59
NtRp3149
(dp3150
g62
(dp3151
sg71
g3137
sg64
(lp3152
g57
(g58
g59
NtRp3153
(dp3154
g62
(dp3155
g70
I4
ssg71
g3149
sg64
(lp3156
g2901
asbasbasbag57
(g73
g59
NtRp3157
(dp3158
g62
(dp3159
sg71
g3053
sg64
(lp3160
g57
(g78
g59
NtRp3161
(dp3162
g62
(dp3163
g82
g83
ssg71
g3157
sg64
(lp3164
g2910
asbag57
(g78
g59
NtRp3165
(dp3166
g62
(dp3167
g89
g90
ssg71
g3157
sg64
(lp3168
S':'
asbag57
(g78
g59
NtRp3169
(dp3170
g62
(dp3171
sg71
g3157
sg64
(lp3172
g57
(g58
g59
NtRp3173
(dp3174
g62
(dp3175
g70
I4
ssg71
g3169
sg64
(lp3176
g2923
asbasbasbasbasbasbasbag57
(g73
g59
NtRp3177
(dp3178
g62
(dp3179
sg71
g67
sg64
(lp3180
g57
(g78
g59
NtRp3181
(dp3182
g62
(dp3183
g82
g83
ssg71
g3177
sg64
(lp3184
S'wsgi'
p3185
asbag57
(g78
g59
NtRp3186
(dp3187
g62
(dp3188
g89
g90
ssg71
g3177
sg64
(lp3189
S':'
asbag57
(g78
g59
NtRp3190
(dp3191
g62
(dp3192
sg71
g3177
sg64
(lp3193
g57
(g58
g59
NtRp3194
(dp3195
g62
(dp3196
g70
I5
ssg71
g3190
sg64
(lp3197
g57
(g66
g59
NtRp3198
(dp3199
g62
(dp3200
g70
I4
ssg71
Nsg64
(lp3201
g57
(g73
g59
NtRp3202
(dp3203
g62
(dp3204
sg71
g3198
sg64
(lp3205
g57
(g78
g59
NtRp3206
(dp3207
g62
(dp3208
g82
g83
ssg71
g3202
sg64
(lp3209
S'environ'
p3210
asbag57
(g78
g59
NtRp3211
(dp3212
g62
(dp3213
g89
g90
ssg71
g3202
sg64
(lp3214
S':'
asbag57
(g78
g59
NtRp3215
(dp3216
g62
(dp3217
sg71
g3202
sg64
(lp3218
g57
(g58
g59
NtRp3219
(dp3220
g62
(dp3221
g70
I4
ssg71
g3215
sg64
(lp3222
g57
(g66
g59
NtRp3223
(dp3224
g62
(dp3225
g70
I3
ssg71
Nsg64
(lp3226
g57
(g73
g59
NtRp3227
(dp3228
g62
(dp3229
sg71
g3223
sg64
(lp3230
g57
(g78
g59
NtRp3231
(dp3232
g62
(dp3233
g82
g83
ssg71
g3227
sg64
(lp3234
S'CONTENT_LENGTH'
p3235
asbag57
(g78
g59
NtRp3236
(dp3237
g62
(dp3238
g89
g90
ssg71
g3227
sg64
(lp3239
S':'
asbag57
(g78
g59
NtRp3240
(dp3241
g62
(dp3242
sg71
g3227
sg64
(lp3243
g57
(g58
g59
NtRp3244
(dp3245
g62
(dp3246
g70
I3
ssg71
g3240
sg64
(lp3247
g1161
asbasbasbag57
(g73
g59
NtRp3248
(dp3249
g62
(dp3250
sg71
g3223
sg64
(lp3251
g57
(g78
g59
NtRp3252
(dp3253
g62
(dp3254
g82
g83
ssg71
g3248
sg64
(lp3255
S'CONTENT_TYPE'
p3256
asbag57
(g78
g59
NtRp3257
(dp3258
g62
(dp3259
g89
g90
ssg71
g3248
sg64
(lp3260
S':'
asbag57
(g78
g59
NtRp3261
(dp3262
g62
(dp3263
sg71
g3248
sg64
(lp3264
g57
(g58
g59
NtRp3265
(dp3266
g62
(dp3267
g70
I3
ssg71
g3261
sg64
(lp3268
g1183
asbasbasbag57
(g73
g59
NtRp3269
(dp3270
g62
(dp3271
sg71
g3223
sg64
(lp3272
g57
(g78
g59
NtRp3273
(dp3274
g62
(dp3275
g82
g83
ssg71
g3269
sg64
(lp3276
S'HTTP_ACCEPT'
p3277
asbag57
(g78
g59
NtRp3278
(dp3279
g62
(dp3280
g89
g90
ssg71
g3269
sg64
(lp3281
S':'
asbag57
(g78
g59
NtRp3282
(dp3283
g62
(dp3284
sg71
g3269
sg64
(lp3285
g57
(g58
g59
NtRp3286
(dp3287
g62
(dp3288
g70
I3
ssg71
g3282
sg64
(lp3289
g1270
asbasbasbag57
(g73
g59
NtRp3290
(dp3291
g62
(dp3292
sg71
g3223
sg64
(lp3293
g57
(g78
g59
NtRp3294
(dp3295
g62
(dp3296
g82
g83
ssg71
g3290
sg64
(lp3297
S'HTTP_ACCEPT_CHARSET'
p3298
asbag57
(g78
g59
NtRp3299
(dp3300
g62
(dp3301
g89
g90
ssg71
g3290
sg64
(lp3302
S':'
asbag57
(g78
g59
NtRp3303
(dp3304
g62
(dp3305
sg71
g3290
sg64
(lp3306
g57
(g58
g59
NtRp3307
(dp3308
g62
(dp3309
g70
I3
ssg71
g3303
sg64
(lp3310
g1292
asbasbasbag57
(g73
g59
NtRp3311
(dp3312
g62
(dp3313
sg71
g3223
sg64
(lp3314
g57
(g78
g59
NtRp3315
(dp3316
g62
(dp3317
g82
g83
ssg71
g3311
sg64
(lp3318
S'HTTP_ACCEPT_ENCODING'
p3319
asbag57
(g78
g59
NtRp3320
(dp3321
g62
(dp3322
g89
g90
ssg71
g3311
sg64
(lp3323
S':'
asbag57
(g78
g59
NtRp3324
(dp3325
g62
(dp3326
sg71
g3311
sg64
(lp3327
g57
(g58
g59
NtRp3328
(dp3329
g62
(dp3330
g70
I3
ssg71
g3324
sg64
(lp3331
g1314
asbasbasbag57
(g73
g59
NtRp3332
(dp3333
g62
(dp3334
sg71
g3223
sg64
(lp3335
g57
(g78
g59
NtRp3336
(dp3337
g62
(dp3338
g82
g83
ssg71
g3332
sg64
(lp3339
S'HTTP_ACCEPT_LANGUAGE'
p3340
asbag57
(g78
g59
NtRp3341
(dp3342
g62
(dp3343
g89
g90
ssg71
g3332
sg64
(lp3344
S':'
asbag57
(g78
g59
NtRp3345
(dp3346
g62
(dp3347
sg71
g3332
sg64
(lp3348
g57
(g58
g59
NtRp3349
(dp3350
g62
(dp3351
g70
I3
ssg71
g3345
sg64
(lp3352
g1336
asbasbasbag57
(g73
g59
NtRp3353
(dp3354
g62
(dp3355
sg71
g3223
sg64
(lp3356
g57
(g78
g59
NtRp3357
(dp3358
g62
(dp3359
g82
g83
ssg71
g3353
sg64
(lp3360
S'HTTP_CACHE_CONTROL'
p3361
asbag57
(g78
g59
NtRp3362
(dp3363
g62
(dp3364
g89
g90
ssg71
g3353
sg64
(lp3365
S':'
asbag57
(g78
g59
NtRp3366
(dp3367
g62
(dp3368
sg71
g3353
sg64
(lp3369
g57
(g58
g59
NtRp3370
(dp3371
g62
(dp3372
g70
I3
ssg71
g3366
sg64
(lp3373
g1358
asbasbasbag57
(g73
g59
NtRp3374
(dp3375
g62
(dp3376
sg71
g3223
sg64
(lp3377
g57
(g78
g59
NtRp3378
(dp3379
g62
(dp3380
g82
g83
ssg71
g3374
sg64
(lp3381
S'HTTP_CONNECTION'
p3382
asbag57
(g78
g59
NtRp3383
(dp3384
g62
(dp3385
g89
g90
ssg71
g3374
sg64
(lp3386
S':'
asbag57
(g78
g59
NtRp3387
(dp3388
g62
(dp3389
sg71
g3374
sg64
(lp3390
g57
(g58
g59
NtRp3391
(dp3392
g62
(dp3393
g70
I3
ssg71
g3387
sg64
(lp3394
g1380
asbasbasbag57
(g73
g59
NtRp3395
(dp3396
g62
(dp3397
sg71
g3223
sg64
(lp3398
g57
(g78
g59
NtRp3399
(dp3400
g62
(dp3401
g82
g83
ssg71
g3395
sg64
(lp3402
S'HTTP_CONTENT_LENGTH'
p3403
asbag57
(g78
g59
NtRp3404
(dp3405
g62
(dp3406
g89
g90
ssg71
g3395
sg64
(lp3407
S':'
asbag57
(g78
g59
NtRp3408
(dp3409
g62
(dp3410
sg71
g3395
sg64
(lp3411
g57
(g58
g59
NtRp3412
(dp3413
g62
(dp3414
g70
I3
ssg71
g3408
sg64
(lp3415
g1161
asbasbasbag57
(g73
g59
NtRp3416
(dp3417
g62
(dp3418
sg71
g3223
sg64
(lp3419
g57
(g78
g59
NtRp3420
(dp3421
g62
(dp3422
g82
g83
ssg71
g3416
sg64
(lp3423
S'HTTP_CONTENT_TYPE'
p3424
asbag57
(g78
g59
NtRp3425
(dp3426
g62
(dp3427
g89
g90
ssg71
g3416
sg64
(lp3428
S':'
asbag57
(g78
g59
NtRp3429
(dp3430
g62
(dp3431
sg71
g3416
sg64
(lp3432
g57
(g58
g59
NtRp3433
(dp3434
g62
(dp3435
g70
I3
ssg71
g3429
sg64
(lp3436
g1183
asbasbasbag57
(g73
g59
NtRp3437
(dp3438
g62
(dp3439
sg71
g3223
sg64
(lp3440
g57
(g78
g59
NtRp3441
(dp3442
g62
(dp3443
g82
g83
ssg71
g3437
sg64
(lp3444
S'HTTP_COOKIE'
p3445
asbag57
(g78
g59
NtRp3446
(dp3447
g62
(dp3448
g89
g90
ssg71
g3437
sg64
(lp3449
S':'
asbag57
(g78
g59
NtRp3450
(dp3451
g62
(dp3452
sg71
g3437
sg64
(lp3453
g57
(g58
g59
NtRp3454
(dp3455
g62
(dp3456
g70
I3
ssg71
g3450
sg64
(lp3457
g1444
asbasbasbag57
(g73
g59
NtRp3458
(dp3459
g62
(dp3460
sg71
g3223
sg64
(lp3461
g57
(g78
g59
NtRp3462
(dp3463
g62
(dp3464
g82
g83
ssg71
g3458
sg64
(lp3465
S'HTTP_HOST'
p3466
asbag57
(g78
g59
NtRp3467
(dp3468
g62
(dp3469
g89
g90
ssg71
g3458
sg64
(lp3470
S':'
asbag57
(g78
g59
NtRp3471
(dp3472
g62
(dp3473
sg71
g3458
sg64
(lp3474
g57
(g58
g59
NtRp3475
(dp3476
g62
(dp3477
g70
I3
ssg71
g3471
sg64
(lp3478
g1466
asbasbasbag57
(g73
g59
NtRp3479
(dp3480
g62
(dp3481
sg71
g3223
sg64
(lp3482
g57
(g78
g59
NtRp3483
(dp3484
g62
(dp3485
g82
g83
ssg71
g3479
sg64
(lp3486
S'HTTP_ORIGIN'
p3487
asbag57
(g78
g59
NtRp3488
(dp3489
g62
(dp3490
g89
g90
ssg71
g3479
sg64
(lp3491
S':'
asbag57
(g78
g59
NtRp3492
(dp3493
g62
(dp3494
sg71
g3479
sg64
(lp3495
g57
(g58
g59
NtRp3496
(dp3497
g62
(dp3498
g70
I3
ssg71
g3492
sg64
(lp3499
g1488
asbasbasbag57
(g73
g59
NtRp3500
(dp3501
g62
(dp3502
sg71
g3223
sg64
(lp3503
g57
(g78
g59
NtRp3504
(dp3505
g62
(dp3506
g82
g83
ssg71
g3500
sg64
(lp3507
S'HTTP_REFERER'
p3508
asbag57
(g78
g59
NtRp3509
(dp3510
g62
(dp3511
g89
g90
ssg71
g3500
sg64
(lp3512
S':'
asbag57
(g78
g59
NtRp3513
(dp3514
g62
(dp3515
sg71
g3500
sg64
(lp3516
g57
(g58
g59
NtRp3517
(dp3518
g62
(dp3519
g70
I3
ssg71
g3513
sg64
(lp3520
g1510
asbasbasbag57
(g73
g59
NtRp3521
(dp3522
g62
(dp3523
sg71
g3223
sg64
(lp3524
g57
(g78
g59
NtRp3525
(dp3526
g62
(dp3527
g82
g83
ssg71
g3521
sg64
(lp3528
S'HTTP_USER_AGENT'
p3529
asbag57
(g78
g59
NtRp3530
(dp3531
g62
(dp3532
g89
g90
ssg71
g3521
sg64
(lp3533
S':'
asbag57
(g78
g59
NtRp3534
(dp3535
g62
(dp3536
sg71
g3521
sg64
(lp3537
g57
(g58
g59
NtRp3538
(dp3539
g62
(dp3540
g70
I3
ssg71
g3534
sg64
(lp3541
g1532
asbasbasbag57
(g73
g59
NtRp3542
(dp3543
g62
(dp3544
sg71
g3223
sg64
(lp3545
g57
(g78
g59
NtRp3546
(dp3547
g62
(dp3548
g82
g83
ssg71
g3542
sg64
(lp3549
S'PATH_INFO'
p3550
asbag57
(g78
g59
NtRp3551
(dp3552
g62
(dp3553
g89
g90
ssg71
g3542
sg64
(lp3554
S':'
asbag57
(g78
g59
NtRp3555
(dp3556
g62
(dp3557
sg71
g3542
sg64
(lp3558
g57
(g58
g59
NtRp3559
(dp3560
g62
(dp3561
g70
I3
ssg71
g3555
sg64
(lp3562
g1686
asbasbasbag57
(g73
g59
NtRp3563
(dp3564
g62
(dp3565
sg71
g3223
sg64
(lp3566
g57
(g78
g59
NtRp3567
(dp3568
g62
(dp3569
g82
g83
ssg71
g3563
sg64
(lp3570
S'QUERY_STRING'
p3571
asbag57
(g78
g59
NtRp3572
(dp3573
g62
(dp3574
g89
g90
ssg71
g3563
sg64
(lp3575
S':'
asbag57
(g78
g59
NtRp3576
(dp3577
g62
(dp3578
sg71
g3563
sg64
(lp3579
g57
(g58
g59
NtRp3580
(dp3581
g62
(dp3582
g70
I3
ssg71
g3576
sg64
(lp3583
S''
asbasbasbag57
(g73
g59
NtRp3584
(dp3585
g62
(dp3586
sg71
g3223
sg64
(lp3587
g57
(g78
g59
NtRp3588
(dp3589
g62
(dp3590
g82
g83
ssg71
g3584
sg64
(lp3591
S'REMOTE_ADDR'
p3592
asbag57
(g78
g59
NtRp3593
(dp3594
g62
(dp3595
g89
g90
ssg71
g3584
sg64
(lp3596
S':'
asbag57
(g78
g59
NtRp3597
(dp3598
g62
(dp3599
sg71
g3584
sg64
(lp3600
g57
(g58
g59
NtRp3601
(dp3602
g62
(dp3603
g70
I3
ssg71
g3597
sg64
(lp3604
g225
asbasbasbag57
(g73
g59
NtRp3605
(dp3606
g62
(dp3607
sg71
g3223
sg64
(lp3608
g57
(g78
g59
NtRp3609
(dp3610
g62
(dp3611
g82
g83
ssg71
g3605
sg64
(lp3612
S'REMOTE_PORT'
p3613
asbag57
(g78
g59
NtRp3614
(dp3615
g62
(dp3616
g89
g90
ssg71
g3605
sg64
(lp3617
S':'
asbag57
(g78
g59
NtRp3618
(dp3619
g62
(dp3620
sg71
g3605
sg64
(lp3621
g57
(g58
g59
NtRp3622
(dp3623
g62
(dp3624
g70
I3
ssg71
g3618
sg64
(lp3625
g1750
asbasbasbag57
(g73
g59
NtRp3626
(dp3627
g62
(dp3628
sg71
g3223
sg64
(lp3629
g57
(g78
g59
NtRp3630
(dp3631
g62
(dp3632
g82
g83
ssg71
g3626
sg64
(lp3633
S'REQUEST_METHOD'
p3634
asbag57
(g78
g59
NtRp3635
(dp3636
g62
(dp3637
g89
g90
ssg71
g3626
sg64
(lp3638
S':'
asbag57
(g78
g59
NtRp3639
(dp3640
g62
(dp3641
sg71
g3626
sg64
(lp3642
g57
(g58
g59
NtRp3643
(dp3644
g62
(dp3645
g70
I3
ssg71
g3639
sg64
(lp3646
g1772
asbasbasbag57
(g73
g59
NtRp3647
(dp3648
g62
(dp3649
sg71
g3223
sg64
(lp3650
g57
(g78
g59
NtRp3651
(dp3652
g62
(dp3653
g82
g83
ssg71
g3647
sg64
(lp3654
S'REQUEST_URI'
p3655
asbag57
(g78
g59
NtRp3656
(dp3657
g62
(dp3658
g89
g90
ssg71
g3647
sg64
(lp3659
S':'
asbag57
(g78
g59
NtRp3660
(dp3661
g62
(dp3662
sg71
g3647
sg64
(lp3663
g57
(g58
g59
NtRp3664
(dp3665
g62
(dp3666
g70
I3
ssg71
g3660
sg64
(lp3667
g1686
asbasbasbag57
(g73
g59
NtRp3668
(dp3669
g62
(dp3670
sg71
g3223
sg64
(lp3671
g57
(g78
g59
NtRp3672
(dp3673
g62
(dp3674
g82
g83
ssg71
g3668
sg64
(lp3675
S'SCRIPT_NAME'
p3676
asbag57
(g78
g59
NtRp3677
(dp3678
g62
(dp3679
g89
g90
ssg71
g3668
sg64
(lp3680
S':'
asbag57
(g78
g59
NtRp3681
(dp3682
g62
(dp3683
sg71
g3668
sg64
(lp3684
g57
(g58
g59
NtRp3685
(dp3686
g62
(dp3687
g70
I3
ssg71
g3681
sg64
(lp3688
S''
asbasbasbag57
(g73
g59
NtRp3689
(dp3690
g62
(dp3691
sg71
g3223
sg64
(lp3692
g57
(g78
g59
NtRp3693
(dp3694
g62
(dp3695
g82
g83
ssg71
g3689
sg64
(lp3696
S'SERVER_NAME'
p3697
asbag57
(g78
g59
NtRp3698
(dp3699
g62
(dp3700
g89
g90
ssg71
g3689
sg64
(lp3701
S':'
asbag57
(g78
g59
NtRp3702
(dp3703
g62
(dp3704
sg71
g3689
sg64
(lp3705
g57
(g58
g59
NtRp3706
(dp3707
g62
(dp3708
g70
I3
ssg71
g3702
sg64
(lp3709
g1836
asbasbasbag57
(g73
g59
NtRp3710
(dp3711
g62
(dp3712
sg71
g3223
sg64
(lp3713
g57
(g78
g59
NtRp3714
(dp3715
g62
(dp3716
g82
g83
ssg71
g3710
sg64
(lp3717
S'SERVER_PORT'
p3718
asbag57
(g78
g59
NtRp3719
(dp3720
g62
(dp3721
g89
g90
ssg71
g3710
sg64
(lp3722
S':'
asbag57
(g78
g59
NtRp3723
(dp3724
g62
(dp3725
sg71
g3710
sg64
(lp3726
g57
(g58
g59
NtRp3727
(dp3728
g62
(dp3729
g70
I3
ssg71
g3723
sg64
(lp3730
g1858
asbasbasbag57
(g73
g59
NtRp3731
(dp3732
g62
(dp3733
sg71
g3223
sg64
(lp3734
g57
(g78
g59
NtRp3735
(dp3736
g62
(dp3737
g82
g83
ssg71
g3731
sg64
(lp3738
S'SERVER_PROTOCOL'
p3739
asbag57
(g78
g59
NtRp3740
(dp3741
g62
(dp3742
g89
g90
ssg71
g3731
sg64
(lp3743
S':'
asbag57
(g78
g59
NtRp3744
(dp3745
g62
(dp3746
sg71
g3731
sg64
(lp3747
g57
(g58
g59
NtRp3748
(dp3749
g62
(dp3750
g70
I3
ssg71
g3744
sg64
(lp3751
g1880
asbasbasbag57
(g73
g59
NtRp3752
(dp3753
g62
(dp3754
sg71
g3223
sg64
(lp3755
g57
(g78
g59
NtRp3756
(dp3757
g62
(dp3758
g82
g83
ssg71
g3752
sg64
(lp3759
S'SERVER_SOFTWARE'
p3760
asbag57
(g78
g59
NtRp3761
(dp3762
g62
(dp3763
g89
g90
ssg71
g3752
sg64
(lp3764
S':'
asbag57
(g78
g59
NtRp3765
(dp3766
g62
(dp3767
sg71
g3752
sg64
(lp3768
g57
(g58
g59
NtRp3769
(dp3770
g62
(dp3771
g70
I3
ssg71
g3765
sg64
(lp3772
g1902
asbasbasbag57
(g73
g59
NtRp3773
(dp3774
g62
(dp3775
sg71
g3223
sg64
(lp3776
g57
(g78
g59
NtRp3777
(dp3778
g62
(dp3779
g82
g83
ssg71
g3773
sg64
(lp3780
S'wsgi.errors'
p3781
asbag57
(g78
g59
NtRp3782
(dp3783
g62
(dp3784
g89
g90
ssg71
g3773
sg64
(lp3785
S':'
asbag57
(g78
g59
NtRp3786
(dp3787
g62
(dp3788
sg71
g3773
sg64
(lp3789
g57
(g58
g59
NtRp3790
(dp3791
g62
(dp3792
g70
I3
ssg71
g3786
sg64
(lp3793
S"<open file '<stderr>', mode 'w' at 0x7f5f77b12270>"
p3794
asbasbasbag57
(g73
g59
NtRp3795
(dp3796
g62
(dp3797
sg71
g3223
sg64
(lp3798
g57
(g78
g59
NtRp3799
(dp3800
g62
(dp3801
g82
g83
ssg71
g3795
sg64
(lp3802
S'wsgi.file_wrapper'
p3803
asbag57
(g78
g59
NtRp3804
(dp3805
g62
(dp3806
g89
g90
ssg71
g3795
sg64
(lp3807
S':'
asbag57
(g78
g59
NtRp3808
(dp3809
g62
(dp3810
sg71
g3795
sg64
(lp3811
g57
(g58
g59
NtRp3812
(dp3813
g62
(dp3814
g70
I3
ssg71
g3808
sg64
(lp3815
S'<class wsgiref.util.FileWrapper at 0x2151db8>'
p3816
asbasbasbag57
(g73
g59
NtRp3817
(dp3818
g62
(dp3819
sg71
g3223
sg64
(lp3820
g57
(g78
g59
NtRp3821
(dp3822
g62
(dp3823
g82
g83
ssg71
g3817
sg64
(lp3824
S'wsgi.input'
p3825
asbag57
(g78
g59
NtRp3826
(dp3827
g62
(dp3828
g89
g90
ssg71
g3817
sg64
(lp3829
S':'
asbag57
(g78
g59
NtRp3830
(dp3831
g62
(dp3832
sg71
g3817
sg64
(lp3833
g57
(g58
g59
NtRp3834
(dp3835
g62
(dp3836
g70
I3
ssg71
g3830
sg64
(lp3837
S"<open file '<fdopen>', mode 'w+b' at 0x7f5f4c0e80c0>"
p3838
asbasbasbag57
(g73
g59
NtRp3839
(dp3840
g62
(dp3841
sg71
g3223
sg64
(lp3842
g57
(g78
g59
NtRp3843
(dp3844
g62
(dp3845
g82
g83
ssg71
g3839
sg64
(lp3846
S'wsgi.multiprocess'
p3847
asbag57
(g78
g59
NtRp3848
(dp3849
g62
(dp3850
g89
g90
ssg71
g3839
sg64
(lp3851
S':'
asbag57
(g78
g59
NtRp3852
(dp3853
g62
(dp3854
sg71
g3839
sg64
(lp3855
g57
(g58
g59
NtRp3856
(dp3857
g62
(dp3858
g70
I3
ssg71
g3852
sg64
(lp3859
g100
asbasbasbag57
(g73
g59
NtRp3860
(dp3861
g62
(dp3862
sg71
g3223
sg64
(lp3863
g57
(g78
g59
NtRp3864
(dp3865
g62
(dp3866
g82
g83
ssg71
g3860
sg64
(lp3867
S'wsgi.multithread'
p3868
asbag57
(g78
g59
NtRp3869
(dp3870
g62
(dp3871
g89
g90
ssg71
g3860
sg64
(lp3872
S':'
asbag57
(g78
g59
NtRp3873
(dp3874
g62
(dp3875
sg71
g3860
sg64
(lp3876
g57
(g58
g59
NtRp3877
(dp3878
g62
(dp3879
g70
I3
ssg71
g3873
sg64
(lp3880
g2119
asbasbasbag57
(g73
g59
NtRp3881
(dp3882
g62
(dp3883
sg71
g3223
sg64
(lp3884
g57
(g78
g59
NtRp3885
(dp3886
g62
(dp3887
g82
g83
ssg71
g3881
sg64
(lp3888
S'wsgi.run_once'
p3889
asbag57
(g78
g59
NtRp3890
(dp3891
g62
(dp3892
g89
g90
ssg71
g3881
sg64
(lp3893
S':'
asbag57
(g78
g59
NtRp3894
(dp3895
g62
(dp3896
sg71
g3881
sg64
(lp3897
g57
(g58
g59
NtRp3898
(dp3899
g62
(dp3900
g70
I3
ssg71
g3894
sg64
(lp3901
g100
asbasbasbag57
(g73
g59
NtRp3902
(dp3903
g62
(dp3904
sg71
g3223
sg64
(lp3905
g57
(g78
g59
NtRp3906
(dp3907
g62
(dp3908
g82
g83
ssg71
g3902
sg64
(lp3909
S'wsgi.url_scheme'
p3910
asbag57
(g78
g59
NtRp3911
(dp3912
g62
(dp3913
g89
g90
ssg71
g3902
sg64
(lp3914
S':'
asbag57
(g78
g59
NtRp3915
(dp3916
g62
(dp3917
sg71
g3902
sg64
(lp3918
g57
(g58
g59
NtRp3919
(dp3920
g62
(dp3921
g70
I3
ssg71
g3915
sg64
(lp3922
g2162
asbasbasbag57
(g73
g59
NtRp3923
(dp3924
g62
(dp3925
sg71
g3223
sg64
(lp3926
g57
(g78
g59
NtRp3927
(dp3928
g62
(dp3929
g82
g83
ssg71
g3923
sg64
(lp3930
S'wsgi.version'
p3931
asbag57
(g78
g59
NtRp3932
(dp3933
g62
(dp3934
g89
g90
ssg71
g3923
sg64
(lp3935
S':'
asbag57
(g78
g59
NtRp3936
(dp3937
g62
(dp3938
sg71
g3923
sg64
(lp3939
g57
(g58
g59
NtRp3940
(dp3941
g62
(dp3942
g70
I3
ssg71
g3936
sg64
(lp3943
S'1'
asbasbasbasbasbasbasbasbasbasbasbasbasbsS'frames'
p3944
(lp3945
(dp3946
S'file'
p3947
S'/home/adrian/web2py/gluon/restricted.py'
p3948
sS'dump'
p3949
(dp3950
S'environment'
p3951
S"{'A': <class 'gluon.html.A'>, 'Auth': <class 'gluon.tools.Auth'>, 'B': <class 'gluon.html.B'>, 'BEAUTIFY': <class 'gluon.html.BEAUTIFY'>, 'BODY': <class 'gluon.html.BODY'>, 'BR': <class 'gluon.html.BR'>, 'BUTTON': <class 'gluon.html.BUTTON'>, 'CAT': <class 'gluon.html.CAT'>, 'CENTER': <class 'gluon.html.CENTER'>, 'CLEANUP': <class 'gluon.validators.CLEANUP'>, ...}"
p3952
sS'ccode'
p3953
S'<code object <module> at 0x7f5f4827f530, file "/...ygnusCloud/controllers/administrator.py", line 2>'
p3954
ssS'lnum'
p3955
I212
sS'lines'
p3956
(dp3957
I207
S'    try:'
p3958
sI208
S'        if isinstance(code, types.CodeType):'
p3959
sI209
S'            ccode = code'
p3960
sI210
S'        else:'
p3961
sI211
S'            ccode = compile2(code, layer)'
p3962
sI212
S'        exec ccode in environment'
p3963
sI213
S'    except HTTP:'
p3964
sI214
S'        raise'
p3965
sI215
S'    except RestrictedError:'
p3966
sI216
S'        # do not encapsulate (obfuscate) the original RestrictedError'
p3967
ssS'call'
p3968
S'(code="# coding: utf8\\n@auth.requires_membership(\'Admini...table\\n\\nresponse._vars=response._caller(subjects)\\n", environment={\'A\': <class \'gluon.html.A\'>, \'Auth\': <class \'gluon.tools.Auth\'>, \'B\': <class \'gluon.html.B\'>, \'BEAUTIFY\': <class \'gluon.html.BEAUTIFY\'>, \'BODY\': <class \'gluon.html.BODY\'>, \'BR\': <class \'gluon.html.BR\'>, \'BUTTON\': <class \'gluon.html.BUTTON\'>, \'CAT\': <class \'gluon.html.CAT\'>, \'CENTER\': <class \'gluon.html.CENTER\'>, \'CLEANUP\': <class \'gluon.validators.CLEANUP\'>, ...}, layer=\'/home/adrian/web2py/applications/CygnusCloud/controllers/administrator.py\')'
p3969
sS'func'
p3970
S'restricted'
p3971
sa(dp3972
g3947
S'/home/adrian/web2py/applications/CygnusCloud/controllers/administrator.py'
p3973
sg3949
(dp3974
sg3955
I181
sg3956
(dp3975
I170
S'    for l in listUsers:'
p3976
sI171
S'        table.append(TR(\\'
p3977
sI172
S"        TD(INPUT(_type='radio',_name = 'selection',_value = i)),\\"
p3978
sI173
S'        TD(LABEL(l)),\\'
p3979
sI174
S'        TD(LABEL(userDB(userDB.auth_user.email==l).select(userDB.auth_user.password)[0].password)),\\'
p3980
sI175
S'        TD(LABEL(userDB((userDB.auth_user.email==l) & (userDB.auth_membership.user_id == userDB.auth_user.id) \\'
p3981
sI176
S'         & (userDB.auth_membership.group_id == userDB.auth_group.id)).select(userDB.auth_group.role)[0].role))))'
p3982
sI177
S'        i = i + 1'
p3983
sI178
S'    pass'
p3984
sI179
S'    return table'
p3985
ssg3968
S'()'
p3986
sg3970
S'<module>'
p3987
sa(dp3988
g3947
S'/home/adrian/web2py/gluon/globals.py'
p3989
sg3949
(dp3990
S'self'
p3991
S'undefined'
p3992
sS'f'
S'<function subjects>'
p3993
ssg3955
I193
sg3956
(dp3994
I192
S'        self._vars = None'
p3995
sI193
S'        self._caller = lambda f: f()'
p3996
sI194
S'        self._view_environment = None'
p3997
sI195
S'        self._custom_commit = None'
p3998
sI196
S'        self._custom_rollback = None'
p3999
sI197
S''
sI188
S'        self.menu = []             # used by the default view layout'
p4000
sI189
S'        self.files = []            # used by web2py_ajax.html'
p4001
sI190
S'        self.generic_patterns = []  # patterns to allow generic views'
p4002
sI191
S"        self.delimiters = ('{{', '}}')"
p4003
ssg3968
S'(f=<function subjects>)'
p4004
sg3970
S'<lambda>'
p4005
sa(dp4006
g3947
S'/home/adrian/web2py/gluon/tools.py'
p4007
sg3949
(dp4008
S'action'
p4009
S'<function subjects>'
p4010
sS'a'
S'()'
p4011
sS'b'
g45
ssg3955
I2929
sg3956
(dp4012
I2924
S'                    flag = condition'
p4013
sI2925
S'                if not flag:'
p4014
sI2926
S'                    current.session.flash = self.messages.access_denied'
p4015
sI2927
S'                    return call_or_redirect('
p4016
sI2928
S'                        self.settings.on_failed_authorization)'
p4017
sI2929
S'                return action(*a, **b)'
p4018
sI2930
S'            f.__doc__ = action.__doc__'
p4019
sI2931
S'            f.__name__ = action.__name__'
p4020
sI2932
S'            f.__dict__.update(action.__dict__)'
p4021
sI2933
S'            return f'
p4022
ssg3968
S'(*a=(), **b={})'
p4023
sg3970
S'f'
sa(dp4024
g3947
S'/home/adrian/web2py/applications/CygnusCloud/controllers/administrator.py'
p4025
sg3949
(dp4026
S'global T'
p4027
S'<gluon.languages.translator object>'
p4028
sS'global response'
p4029
S"<Storage {'body': <cStringIO.StringO object at 0...42bbc80>, 'view': 'administrator/subjects.html'}>"
p4030
sS'response.flash'
p4031
S"''"
p4032
ssg3955
I114
sg3956
(dp4033
I109
S'                        if(userDB(userDB.Subjects.code == form.vars.cod).count() == 0):'
p4034
sI110
S'                            userDB.Subjects.insert(code = int(form.vars.cod),name = form.vars.name)'
p4035
sI111
S'                        userDB.ClassGroup.insert(yearGroup = int(form.vars.year),cod = int(form.vars.cod),curse = int(form.vars.curse),\\'
p4036
sI112
S'                            curseGroup = form.vars.group)'
p4037
sI113
S'                except ValueError:'
p4038
sI114
S"                          response.flash(T('Formato de n\xc3\xbameros erroneo'))"
p4039
sI115
S'            #redireccinamos'
p4040
sI116
S"            redirect(URL(c='administrator',f='users',args = ['add'],vars = dict(usersFind=request.vars.usersFind) ))"
p4041
sI117
S'        #Devolvemos el formulario'
p4042
sI118
S'        return dict(form = form)'
p4043
ssg3968
S'()'
p4044
sg3970
S'subjects'
p4045
sasS'pyver'
p4046
S'Python 2.7.3: /usr/bin/python'
p4047
sS'session'
p4048
g57
(g58
g59
NtRp4049
(dp4050
g62
(dp4051
sg64
(lp4052
g57
(g66
g59
NtRp4053
(dp4054
g62
(dp4055
g70
I5
ssg71
Nsg64
(lp4056
g57
(g73
g59
NtRp4057
(dp4058
g62
(dp4059
sg71
g4053
sg64
(lp4060
g57
(g78
g59
NtRp4061
(dp4062
g62
(dp4063
g82
g83
ssg71
g4057
sg64
(lp4064
S'auth'
p4065
asbag57
(g78
g59
NtRp4066
(dp4067
g62
(dp4068
g89
g90
ssg71
g4057
sg64
(lp4069
S':'
asbag57
(g78
g59
NtRp4070
(dp4071
g62
(dp4072
sg71
g4057
sg64
(lp4073
g57
(g58
g59
NtRp4074
(dp4075
g62
(dp4076
g70
I5
ssg71
g4070
sg64
(lp4077
g57
(g66
g59
NtRp4078
(dp4079
g62
(dp4080
g70
I4
ssg71
Nsg64
(lp4081
g57
(g73
g59
NtRp4082
(dp4083
g62
(dp4084
sg71
g4078
sg64
(lp4085
g57
(g78
g59
NtRp4086
(dp4087
g62
(dp4088
g82
g83
ssg71
g4082
sg64
(lp4089
S'expiration'
p4090
asbag57
(g78
g59
NtRp4091
(dp4092
g62
(dp4093
g89
g90
ssg71
g4082
sg64
(lp4094
S':'
asbag57
(g78
g59
NtRp4095
(dp4096
g62
(dp4097
sg71
g4082
sg64
(lp4098
g57
(g58
g59
NtRp4099
(dp4100
g62
(dp4101
g70
I4
ssg71
g4095
sg64
(lp4102
S'3600'
p4103
asbasbasbag57
(g73
g59
NtRp4104
(dp4105
g62
(dp4106
sg71
g4078
sg64
(lp4107
g57
(g78
g59
NtRp4108
(dp4109
g62
(dp4110
g82
g83
ssg71
g4104
sg64
(lp4111
S'hmac_key'
p4112
asbag57
(g78
g59
NtRp4113
(dp4114
g62
(dp4115
g89
g90
ssg71
g4104
sg64
(lp4116
S':'
asbag57
(g78
g59
NtRp4117
(dp4118
g62
(dp4119
sg71
g4104
sg64
(lp4120
g57
(g58
g59
NtRp4121
(dp4122
g62
(dp4123
g70
I4
ssg71
g4117
sg64
(lp4124
S'3adb30d5-6583-485a-970c-865ebde8c2a6'
p4125
asbasbasbag57
(g73
g59
NtRp4126
(dp4127
g62
(dp4128
sg71
g4078
sg64
(lp4129
g57
(g78
g59
NtRp4130
(dp4131
g62
(dp4132
g82
g83
ssg71
g4126
sg64
(lp4133
S'last_visit'
p4134
asbag57
(g78
g59
NtRp4135
(dp4136
g62
(dp4137
g89
g90
ssg71
g4126
sg64
(lp4138
S':'
asbag57
(g78
g59
NtRp4139
(dp4140
g62
(dp4141
sg71
g4126
sg64
(lp4142
g57
(g58
g59
NtRp4143
(dp4144
g62
(dp4145
g70
I4
ssg71
g4139
sg64
(lp4146
S'datetime.datetime(2013, 2, 11, 16, 20, 56, 691888)'
p4147
asbasbasbag57
(g73
g59
NtRp4148
(dp4149
g62
(dp4150
sg71
g4078
sg64
(lp4151
g57
(g78
g59
NtRp4152
(dp4153
g62
(dp4154
g82
g83
ssg71
g4148
sg64
(lp4155
S'remember'
p4156
asbag57
(g78
g59
NtRp4157
(dp4158
g62
(dp4159
g89
g90
ssg71
g4148
sg64
(lp4160
S':'
asbag57
(g78
g59
NtRp4161
(dp4162
g62
(dp4163
sg71
g4148
sg64
(lp4164
g57
(g58
g59
NtRp4165
(dp4166
g62
(dp4167
g70
I4
ssg71
g4161
sg64
(lp4168
g100
asbasbasbag57
(g73
g59
NtRp4169
(dp4170
g62
(dp4171
sg71
g4078
sg64
(lp4172
g57
(g78
g59
NtRp4173
(dp4174
g62
(dp4175
g82
g83
ssg71
g4169
sg64
(lp4176
S'user'
p4177
asbag57
(g78
g59
NtRp4178
(dp4179
g62
(dp4180
g89
g90
ssg71
g4169
sg64
(lp4181
S':'
asbag57
(g78
g59
NtRp4182
(dp4183
g62
(dp4184
sg71
g4169
sg64
(lp4185
g57
(g58
g59
NtRp4186
(dp4187
g62
(dp4188
g70
I4
ssg71
g4182
sg64
(lp4189
g57
(g66
g59
NtRp4190
(dp4191
g62
(dp4192
g70
I3
ssg71
Nsg64
(lp4193
g57
(g73
g59
NtRp4194
(dp4195
g62
(dp4196
sg71
g4190
sg64
(lp4197
g57
(g78
g59
NtRp4198
(dp4199
g62
(dp4200
g82
g83
ssg71
g4194
sg64
(lp4201
S'email'
p4202
asbag57
(g78
g59
NtRp4203
(dp4204
g62
(dp4205
g89
g90
ssg71
g4194
sg64
(lp4206
S':'
asbag57
(g78
g59
NtRp4207
(dp4208
g62
(dp4209
sg71
g4194
sg64
(lp4210
g57
(g58
g59
NtRp4211
(dp4212
g62
(dp4213
g70
I3
ssg71
g4207
sg64
(lp4214
S'Admin1@ucm.es'
p4215
asbasbasbag57
(g73
g59
NtRp4216
(dp4217
g62
(dp4218
sg71
g4190
sg64
(lp4219
g57
(g78
g59
NtRp4220
(dp4221
g62
(dp4222
g82
g83
ssg71
g4216
sg64
(lp4223
S'first_name'
p4224
asbag57
(g78
g59
NtRp4225
(dp4226
g62
(dp4227
g89
g90
ssg71
g4216
sg64
(lp4228
S':'
asbag57
(g78
g59
NtRp4229
(dp4230
g62
(dp4231
sg71
g4216
sg64
(lp4232
g57
(g58
g59
NtRp4233
(dp4234
g62
(dp4235
g70
I3
ssg71
g4229
sg64
(lp4236
S'Bertoldo'
p4237
asbasbasbag57
(g73
g59
NtRp4238
(dp4239
g62
(dp4240
sg71
g4190
sg64
(lp4241
g57
(g78
g59
NtRp4242
(dp4243
g62
(dp4244
g82
g83
ssg71
g4238
sg64
(lp4245
S'id'
p4246
asbag57
(g78
g59
NtRp4247
(dp4248
g62
(dp4249
g89
g90
ssg71
g4238
sg64
(lp4250
S':'
asbag57
(g78
g59
NtRp4251
(dp4252
g62
(dp4253
sg71
g4238
sg64
(lp4254
g57
(g58
g59
NtRp4255
(dp4256
g62
(dp4257
g70
I3
ssg71
g4251
sg64
(lp4258
S'1'
asbasbasbag57
(g73
g59
NtRp4259
(dp4260
g62
(dp4261
sg71
g4190
sg64
(lp4262
g57
(g78
g59
NtRp4263
(dp4264
g62
(dp4265
g82
g83
ssg71
g4259
sg64
(lp4266
S'last_name'
p4267
asbag57
(g78
g59
NtRp4268
(dp4269
g62
(dp4270
g89
g90
ssg71
g4259
sg64
(lp4271
S':'
asbag57
(g78
g59
NtRp4272
(dp4273
g62
(dp4274
sg71
g4259
sg64
(lp4275
g57
(g58
g59
NtRp4276
(dp4277
g62
(dp4278
g70
I3
ssg71
g4272
sg64
(lp4279
S'Pedralbes'
p4280
asbasbasbag57
(g73
g59
NtRp4281
(dp4282
g62
(dp4283
sg71
g4190
sg64
(lp4284
g57
(g78
g59
NtRp4285
(dp4286
g62
(dp4287
g82
g83
ssg71
g4281
sg64
(lp4288
S'registration_id'
p4289
asbag57
(g78
g59
NtRp4290
(dp4291
g62
(dp4292
g89
g90
ssg71
g4281
sg64
(lp4293
S':'
asbag57
(g78
g59
NtRp4294
(dp4295
g62
(dp4296
sg71
g4281
sg64
(lp4297
g57
(g58
g59
NtRp4298
(dp4299
g62
(dp4300
g70
I3
ssg71
g4294
sg64
(lp4301
S''
asbasbasbag57
(g73
g59
NtRp4302
(dp4303
g62
(dp4304
sg71
g4190
sg64
(lp4305
g57
(g78
g59
NtRp4306
(dp4307
g62
(dp4308
g82
g83
ssg71
g4302
sg64
(lp4309
S'registration_key'
p4310
asbag57
(g78
g59
NtRp4311
(dp4312
g62
(dp4313
g89
g90
ssg71
g4302
sg64
(lp4314
S':'
asbag57
(g78
g59
NtRp4315
(dp4316
g62
(dp4317
sg71
g4302
sg64
(lp4318
g57
(g58
g59
NtRp4319
(dp4320
g62
(dp4321
g70
I3
ssg71
g4315
sg64
(lp4322
S''
asbasbasbag57
(g73
g59
NtRp4323
(dp4324
g62
(dp4325
sg71
g4190
sg64
(lp4326
g57
(g78
g59
NtRp4327
(dp4328
g62
(dp4329
g82
g83
ssg71
g4323
sg64
(lp4330
S'reset_password_key'
p4331
asbag57
(g78
g59
NtRp4332
(dp4333
g62
(dp4334
g89
g90
ssg71
g4323
sg64
(lp4335
S':'
asbag57
(g78
g59
NtRp4336
(dp4337
g62
(dp4338
sg71
g4323
sg64
(lp4339
g57
(g58
g59
NtRp4340
(dp4341
g62
(dp4342
g70
I3
ssg71
g4336
sg64
(lp4343
S''
asbasbasbasbasbasbasbag57
(g73
g59
NtRp4344
(dp4345
g62
(dp4346
sg71
g4078
sg64
(lp4347
g57
(g78
g59
NtRp4348
(dp4349
g62
(dp4350
g82
g83
ssg71
g4344
sg64
(lp4351
S'user_groups'
p4352
asbag57
(g78
g59
NtRp4353
(dp4354
g62
(dp4355
g89
g90
ssg71
g4344
sg64
(lp4356
S':'
asbag57
(g78
g59
NtRp4357
(dp4358
g62
(dp4359
sg71
g4344
sg64
(lp4360
g57
(g58
g59
NtRp4361
(dp4362
g62
(dp4363
g70
I4
ssg71
g4357
sg64
(lp4364
g57
(g66
g59
NtRp4365
(dp4366
g62
(dp4367
g70
I3
ssg71
Nsg64
(lp4368
g57
(g73
g59
NtRp4369
(dp4370
g62
(dp4371
sg71
g4365
sg64
(lp4372
g57
(g78
g59
NtRp4373
(dp4374
g62
(dp4375
g82
g83
ssg71
g4369
sg64
(lp4376
S'2'
asbag57
(g78
g59
NtRp4377
(dp4378
g62
(dp4379
g89
g90
ssg71
g4369
sg64
(lp4380
S':'
asbag57
(g78
g59
NtRp4381
(dp4382
g62
(dp4383
sg71
g4369
sg64
(lp4384
g57
(g58
g59
NtRp4385
(dp4386
g62
(dp4387
g70
I3
ssg71
g4381
sg64
(lp4388
S'Administrator'
p4389
asbasbasbasbasbasbasbasbasbasbasbag57
(g73
g59
NtRp4390
(dp4391
g62
(dp4392
sg71
g4053
sg64
(lp4393
g57
(g78
g59
NtRp4394
(dp4395
g62
(dp4396
g82
g83
ssg71
g4390
sg64
(lp4397
S'flash'
p4398
asbag57
(g78
g59
NtRp4399
(dp4400
g62
(dp4401
g89
g90
ssg71
g4390
sg64
(lp4402
S':'
asbag57
(g78
g59
NtRp4403
(dp4404
g62
(dp4405
sg71
g4390
sg64
(lp4406
g57
(g58
g59
NtRp4407
(dp4408
g62
(dp4409
g70
I5
ssg71
g4403
sg64
(lp4410
S'None'
p4411
asbasbasbag57
(g73
g59
NtRp4412
(dp4413
g62
(dp4414
sg71
g4053
sg64
(lp4415
g57
(g78
g59
NtRp4416
(dp4417
g62
(dp4418
g82
g83
ssg71
g4412
sg64
(lp4419
S'last_orderby'
p4420
asbag57
(g78
g59
NtRp4421
(dp4422
g62
(dp4423
g89
g90
ssg71
g4412
sg64
(lp4424
S':'
asbag57
(g78
g59
NtRp4425
(dp4426
g62
(dp4427
sg71
g4412
sg64
(lp4428
g57
(g58
g59
NtRp4429
(dp4430
g62
(dp4431
g70
I5
ssg71
g4425
sg64
(lp4432
S'None'
p4433
asbasbasbag57
(g73
g59
NtRp4434
(dp4435
g62
(dp4436
sg71
g4053
sg64
(lp4437
g57
(g78
g59
NtRp4438
(dp4439
g62
(dp4440
g82
g83
ssg71
g4434
sg64
(lp4441
S'last_query'
p4442
asbag57
(g78
g59
NtRp4443
(dp4444
g62
(dp4445
g89
g90
ssg71
g4434
sg64
(lp4446
S':'
asbag57
(g78
g59
NtRp4447
(dp4448
g62
(dp4449
sg71
g4434
sg64
(lp4450
g57
(g58
g59
NtRp4451
(dp4452
g62
(dp4453
g70
I5
ssg71
g4447
sg64
(lp4454
S'userDB.ClassGroup.cod>0'
p4455
asbasbasbasbasbsS'etype'
p4456
S"<type 'exceptions.TypeError'>"
p4457
sS'date'
p4458
S'Mon Feb 11 16:21:12 2013'
p4459
sS'response'
p4460
g57
(g58
g59
NtRp4461
(dp4462
g62
(dp4463
sg64
(lp4464
g57
(g66
g59
NtRp4465
(dp4466
g62
(dp4467
g70
I5
ssg71
Nsg64
(lp4468
g57
(g73
g59
NtRp4469
(dp4470
g62
(dp4471
sg71
g4465
sg64
(lp4472
g57
(g78
g59
NtRp4473
(dp4474
g62
(dp4475
g82
g83
ssg71
g4469
sg64
(lp4476
g168
asbag57
(g78
g59
NtRp4477
(dp4478
g62
(dp4479
g89
g90
ssg71
g4469
sg64
(lp4480
S':'
asbag57
(g78
g59
NtRp4481
(dp4482
g62
(dp4483
sg71
g4469
sg64
(lp4484
g57
(g58
g59
NtRp4485
(dp4486
g62
(dp4487
g70
I5
ssg71
g4481
sg64
(lp4488
S'<cStringIO.StringO object at 0x7f5f685adc00>'
p4489
asbasbasbag57
(g73
g59
NtRp4490
(dp4491
g62
(dp4492
sg71
g4465
sg64
(lp4493
g57
(g78
g59
NtRp4494
(dp4495
g62
(dp4496
g82
g83
ssg71
g4490
sg64
(lp4497
g256
asbag57
(g78
g59
NtRp4498
(dp4499
g62
(dp4500
g89
g90
ssg71
g4490
sg64
(lp4501
S':'
asbag57
(g78
g59
NtRp4502
(dp4503
g62
(dp4504
sg71
g4490
sg64
(lp4505
g57
(g58
g59
NtRp4506
(dp4507
g62
(dp4508
g70
I5
ssg71
g4502
sg64
(lp4509
g57
(g66
g59
NtRp4510
(dp4511
g62
(dp4512
g70
I4
ssg71
Nsg64
(lp4513
g57
(g73
g59
NtRp4514
(dp4515
g62
(dp4516
sg71
g4510
sg64
(lp4517
g57
(g78
g59
NtRp4518
(dp4519
g62
(dp4520
g82
g83
ssg71
g4514
sg64
(lp4521
S'session_id_cygnuscloud'
p4522
asbag57
(g78
g59
NtRp4523
(dp4524
g62
(dp4525
g89
g90
ssg71
g4514
sg64
(lp4526
S':'
asbag57
(g78
g59
NtRp4527
(dp4528
g62
(dp4529
sg71
g4514
sg64
(lp4530
g57
(g58
g59
NtRp4531
(dp4532
g62
(dp4533
g70
I4
ssg71
g4527
sg64
(lp4534
g673
ag57
(g66
g59
NtRp4535
(dp4536
g62
(dp4537
g70
I3
ssg71
Nsg64
(lp4538
g57
(g73
g59
NtRp4539
(dp4540
g62
(dp4541
sg71
g4535
sg64
(lp4542
g57
(g78
g59
NtRp4543
(dp4544
g62
(dp4545
g82
g83
ssg71
g4539
sg64
(lp4546
g306
asbag57
(g78
g59
NtRp4547
(dp4548
g62
(dp4549
g89
g90
ssg71
g4539
sg64
(lp4550
S':'
asbag57
(g78
g59
NtRp4551
(dp4552
g62
(dp4553
sg71
g4539
sg64
(lp4554
g57
(g58
g59
NtRp4555
(dp4556
g62
(dp4557
g70
I3
ssg71
g4551
sg64
(lp4558
S''
asbasbasbag57
(g73
g59
NtRp4559
(dp4560
g62
(dp4561
sg71
g4535
sg64
(lp4562
g57
(g78
g59
NtRp4563
(dp4564
g62
(dp4565
g82
g83
ssg71
g4559
sg64
(lp4566
g327
asbag57
(g78
g59
NtRp4567
(dp4568
g62
(dp4569
g89
g90
ssg71
g4559
sg64
(lp4570
S':'
asbag57
(g78
g59
NtRp4571
(dp4572
g62
(dp4573
sg71
g4559
sg64
(lp4574
g57
(g58
g59
NtRp4575
(dp4576
g62
(dp4577
g70
I3
ssg71
g4571
sg64
(lp4578
S''
asbasbasbag57
(g73
g59
NtRp4579
(dp4580
g62
(dp4581
sg71
g4535
sg64
(lp4582
g57
(g78
g59
NtRp4583
(dp4584
g62
(dp4585
g82
g83
ssg71
g4579
sg64
(lp4586
g348
asbag57
(g78
g59
NtRp4587
(dp4588
g62
(dp4589
g89
g90
ssg71
g4579
sg64
(lp4590
S':'
asbag57
(g78
g59
NtRp4591
(dp4592
g62
(dp4593
sg71
g4579
sg64
(lp4594
g57
(g58
g59
NtRp4595
(dp4596
g62
(dp4597
g70
I3
ssg71
g4591
sg64
(lp4598
S''
asbasbasbag57
(g73
g59
NtRp4599
(dp4600
g62
(dp4601
sg71
g4535
sg64
(lp4602
g57
(g78
g59
NtRp4603
(dp4604
g62
(dp4605
g82
g83
ssg71
g4599
sg64
(lp4606
g369
asbag57
(g78
g59
NtRp4607
(dp4608
g62
(dp4609
g89
g90
ssg71
g4599
sg64
(lp4610
S':'
asbag57
(g78
g59
NtRp4611
(dp4612
g62
(dp4613
sg71
g4599
sg64
(lp4614
g57
(g58
g59
NtRp4615
(dp4616
g62
(dp4617
g70
I3
ssg71
g4611
sg64
(lp4618
S''
asbasbasbag57
(g73
g59
NtRp4619
(dp4620
g62
(dp4621
sg71
g4535
sg64
(lp4622
g57
(g78
g59
NtRp4623
(dp4624
g62
(dp4625
g82
g83
ssg71
g4619
sg64
(lp4626
g390
asbag57
(g78
g59
NtRp4627
(dp4628
g62
(dp4629
g89
g90
ssg71
g4619
sg64
(lp4630
S':'
asbag57
(g78
g59
NtRp4631
(dp4632
g62
(dp4633
sg71
g4619
sg64
(lp4634
g57
(g58
g59
NtRp4635
(dp4636
g62
(dp4637
g70
I3
ssg71
g4631
sg64
(lp4638
S''
asbasbasbag57
(g73
g59
NtRp4639
(dp4640
g62
(dp4641
sg71
g4535
sg64
(lp4642
g57
(g78
g59
NtRp4643
(dp4644
g62
(dp4645
g82
g83
ssg71
g4639
sg64
(lp4646
g411
asbag57
(g78
g59
NtRp4647
(dp4648
g62
(dp4649
g89
g90
ssg71
g4639
sg64
(lp4650
S':'
asbag57
(g78
g59
NtRp4651
(dp4652
g62
(dp4653
sg71
g4639
sg64
(lp4654
g57
(g58
g59
NtRp4655
(dp4656
g62
(dp4657
g70
I3
ssg71
g4651
sg64
(lp4658
S'/'
asbasbasbag57
(g73
g59
NtRp4659
(dp4660
g62
(dp4661
sg71
g4535
sg64
(lp4662
g57
(g78
g59
NtRp4663
(dp4664
g62
(dp4665
g82
g83
ssg71
g4659
sg64
(lp4666
g432
asbag57
(g78
g59
NtRp4667
(dp4668
g62
(dp4669
g89
g90
ssg71
g4659
sg64
(lp4670
S':'
asbag57
(g78
g59
NtRp4671
(dp4672
g62
(dp4673
sg71
g4659
sg64
(lp4674
g57
(g58
g59
NtRp4675
(dp4676
g62
(dp4677
g70
I3
ssg71
g4671
sg64
(lp4678
S''
asbasbasbag57
(g73
g59
NtRp4679
(dp4680
g62
(dp4681
sg71
g4535
sg64
(lp4682
g57
(g78
g59
NtRp4683
(dp4684
g62
(dp4685
g82
g83
ssg71
g4679
sg64
(lp4686
g453
asbag57
(g78
g59
NtRp4687
(dp4688
g62
(dp4689
g89
g90
ssg71
g4679
sg64
(lp4690
S':'
asbag57
(g78
g59
NtRp4691
(dp4692
g62
(dp4693
sg71
g4679
sg64
(lp4694
g57
(g58
g59
NtRp4695
(dp4696
g62
(dp4697
g70
I3
ssg71
g4691
sg64
(lp4698
S''
asbasbasbasbasbasbasbasbasbasbasbag57
(g73
g59
NtRp4699
(dp4700
g62
(dp4701
sg71
g4465
sg64
(lp4702
g57
(g78
g59
NtRp4703
(dp4704
g62
(dp4705
g82
g83
ssg71
g4699
sg64
(lp4706
S'delimiters'
p4707
asbag57
(g78
g59
NtRp4708
(dp4709
g62
(dp4710
g89
g90
ssg71
g4699
sg64
(lp4711
S':'
asbag57
(g78
g59
NtRp4712
(dp4713
g62
(dp4714
sg71
g4699
sg64
(lp4715
g57
(g58
g59
NtRp4716
(dp4717
g62
(dp4718
g70
I5
ssg71
g4712
sg64
(lp4719
g57
(g66
g59
NtRp4720
(dp4721
g62
(dp4722
g70
I4
ssg71
Nsg64
(lp4723
g57
(g73
g59
NtRp4724
(dp4725
g62
(dp4726
sg71
g4720
sg64
(lp4727
g57
(g78
g59
NtRp4728
(dp4729
g62
(dp4730
sg71
g4724
sg64
(lp4731
g57
(g58
g59
NtRp4732
(dp4733
g62
(dp4734
g70
I4
ssg71
g4728
sg64
(lp4735
S'{{'
p4736
asbasbasbag57
(g73
g59
NtRp4737
(dp4738
g62
(dp4739
sg71
g4720
sg64
(lp4740
g57
(g78
g59
NtRp4741
(dp4742
g62
(dp4743
sg71
g4737
sg64
(lp4744
g57
(g58
g59
NtRp4745
(dp4746
g62
(dp4747
g70
I4
ssg71
g4741
sg64
(lp4748
S'}}'
p4749
asbasbasbasbasbasbasbag57
(g73
g59
NtRp4750
(dp4751
g62
(dp4752
sg71
g4465
sg64
(lp4753
g57
(g78
g59
NtRp4754
(dp4755
g62
(dp4756
g82
g83
ssg71
g4750
sg64
(lp4757
S'files'
p4758
asbag57
(g78
g59
NtRp4759
(dp4760
g62
(dp4761
g89
g90
ssg71
g4750
sg64
(lp4762
S':'
asbag57
(g78
g59
NtRp4763
(dp4764
g62
(dp4765
sg71
g4750
sg64
(lp4766
g57
(g58
g59
NtRp4767
(dp4768
g62
(dp4769
g70
I5
ssg71
g4763
sg64
(lp4770
g57
(g66
g59
NtRp4771
(dp4772
g62
(dp4773
g70
I4
ssg71
Nsg64
(lp4774
sbasbasbasbag57
(g73
g59
NtRp4775
(dp4776
g62
(dp4777
sg71
g4465
sg64
(lp4778
g57
(g78
g59
NtRp4779
(dp4780
g62
(dp4781
g82
g83
ssg71
g4775
sg64
(lp4782
S'flash'
p4783
asbag57
(g78
g59
NtRp4784
(dp4785
g62
(dp4786
g89
g90
ssg71
g4775
sg64
(lp4787
S':'
asbag57
(g78
g59
NtRp4788
(dp4789
g62
(dp4790
sg71
g4775
sg64
(lp4791
g57
(g58
g59
NtRp4792
(dp4793
g62
(dp4794
g70
I5
ssg71
g4788
sg64
(lp4795
S''
asbasbasbag57
(g73
g59
NtRp4796
(dp4797
g62
(dp4798
sg71
g4465
sg64
(lp4799
g57
(g78
g59
NtRp4800
(dp4801
g62
(dp4802
g82
g83
ssg71
g4796
sg64
(lp4803
S'generic_patterns'
p4804
asbag57
(g78
g59
NtRp4805
(dp4806
g62
(dp4807
g89
g90
ssg71
g4796
sg64
(lp4808
S':'
asbag57
(g78
g59
NtRp4809
(dp4810
g62
(dp4811
sg71
g4796
sg64
(lp4812
g57
(g58
g59
NtRp4813
(dp4814
g62
(dp4815
g70
I5
ssg71
g4809
sg64
(lp4816
g57
(g66
g59
NtRp4817
(dp4818
g62
(dp4819
g70
I4
ssg71
Nsg64
(lp4820
sbasbasbasbag57
(g73
g59
NtRp4821
(dp4822
g62
(dp4823
sg71
g4465
sg64
(lp4824
g57
(g78
g59
NtRp4825
(dp4826
g62
(dp4827
g82
g83
ssg71
g4821
sg64
(lp4828
S'google_analytics_id'
p4829
asbag57
(g78
g59
NtRp4830
(dp4831
g62
(dp4832
g89
g90
ssg71
g4821
sg64
(lp4833
S':'
asbag57
(g78
g59
NtRp4834
(dp4835
g62
(dp4836
sg71
g4821
sg64
(lp4837
g57
(g58
g59
NtRp4838
(dp4839
g62
(dp4840
g70
I5
ssg71
g4834
sg64
(lp4841
S'None'
p4842
asbasbasbag57
(g73
g59
NtRp4843
(dp4844
g62
(dp4845
sg71
g4465
sg64
(lp4846
g57
(g78
g59
NtRp4847
(dp4848
g62
(dp4849
g82
g83
ssg71
g4843
sg64
(lp4850
S'headers'
p4851
asbag57
(g78
g59
NtRp4852
(dp4853
g62
(dp4854
g89
g90
ssg71
g4843
sg64
(lp4855
S':'
asbag57
(g78
g59
NtRp4856
(dp4857
g62
(dp4858
sg71
g4843
sg64
(lp4859
g57
(g58
g59
NtRp4860
(dp4861
g62
(dp4862
g70
I5
ssg71
g4856
sg64
(lp4863
g57
(g66
g59
NtRp4864
(dp4865
g62
(dp4866
g70
I4
ssg71
Nsg64
(lp4867
g57
(g73
g59
NtRp4868
(dp4869
g62
(dp4870
sg71
g4864
sg64
(lp4871
g57
(g78
g59
NtRp4872
(dp4873
g62
(dp4874
g82
g83
ssg71
g4868
sg64
(lp4875
S'X-Powered-By'
p4876
asbag57
(g78
g59
NtRp4877
(dp4878
g62
(dp4879
g89
g90
ssg71
g4868
sg64
(lp4880
S':'
asbag57
(g78
g59
NtRp4881
(dp4882
g62
(dp4883
sg71
g4868
sg64
(lp4884
g57
(g58
g59
NtRp4885
(dp4886
g62
(dp4887
g70
I4
ssg71
g4881
sg64
(lp4888
S'web2py'
p4889
asbasbasbasbasbasbasbag57
(g73
g59
NtRp4890
(dp4891
g62
(dp4892
sg71
g4465
sg64
(lp4893
g57
(g78
g59
NtRp4894
(dp4895
g62
(dp4896
g82
g83
ssg71
g4890
sg64
(lp4897
S'logo'
p4898
asbag57
(g78
g59
NtRp4899
(dp4900
g62
(dp4901
g89
g90
ssg71
g4890
sg64
(lp4902
S':'
asbag57
(g78
g59
NtRp4903
(dp4904
g62
(dp4905
sg71
g4890
sg64
(lp4906
g57
(g58
g59
NtRp4907
(dp4908
g62
(dp4909
g70
I5
ssg71
g4903
sg64
(lp4910
g57
(cgluon.html
A
p4911
g59
NtRp4912
(dp4913
g62
(dp4914
S'_class'
p4915
S'brand'
p4916
sS'_href'
p4917
S'/CygnusCloud/main/about'
p4918
ssg71
Nsg64
(lp4919
g57
(cgluon.html
IMG
p4920
g59
NtRp4921
(dp4922
g62
(dp4923
S'_alt'
p4924
S'My Logo'
p4925
sS'src'
p4926
S'/CygnusCloud/static/logo.png'
p4927
ssg71
g4912
sg64
(lp4928
sbacgluon.html
XML_unpickle
p4929
(S's\r\x00\x00\x00&trade;&nbsp;'
tRp4930
asbasbasbasbag57
(g73
g59
NtRp4931
(dp4932
g62
(dp4933
sg71
g4465
sg64
(lp4934
g57
(g78
g59
NtRp4935
(dp4936
g62
(dp4937
g82
g83
ssg71
g4931
sg64
(lp4938
S'menu'
p4939
asbag57
(g78
g59
NtRp4940
(dp4941
g62
(dp4942
g89
g90
ssg71
g4931
sg64
(lp4943
S':'
asbag57
(g78
g59
NtRp4944
(dp4945
g62
(dp4946
sg71
g4931
sg64
(lp4947
g57
(g58
g59
NtRp4948
(dp4949
g62
(dp4950
g70
I5
ssg71
g4944
sg64
(lp4951
g57
(g66
g59
NtRp4952
(dp4953
g62
(dp4954
g70
I4
ssg71
Nsg64
(lp4955
g57
(g73
g59
NtRp4956
(dp4957
g62
(dp4958
sg71
g4952
sg64
(lp4959
g57
(g78
g59
NtRp4960
(dp4961
g62
(dp4962
sg71
g4956
sg64
(lp4963
g57
(g58
g59
NtRp4964
(dp4965
g62
(dp4966
g70
I4
ssg71
g4960
sg64
(lp4967
g57
(g66
g59
NtRp4968
(dp4969
g62
(dp4970
g70
I3
ssg71
Nsg64
(lp4971
g57
(g73
g59
NtRp4972
(dp4973
g62
(dp4974
sg71
g4968
sg64
(lp4975
g57
(g78
g59
NtRp4976
(dp4977
g62
(dp4978
sg71
g4972
sg64
(lp4979
g57
(g58
g59
NtRp4980
(dp4981
g62
(dp4982
g70
I3
ssg71
g4976
sg64
(lp4983
g57
(cgluon.html
SPAN
p4984
g59
NtRp4985
(dp4986
g62
(dp4987
g4915
S'highlighted'
p4988
ssg71
Nsg64
(lp4989
cgluon.languages
lazyT_unpickle
p4990
(S's\x11\x00\x00\x00Arrancar m\xc3\xa1quina'
tRp4991
asbasbasbasbag57
(g73
g59
NtRp4992
(dp4993
g62
(dp4994
sg71
g4968
sg64
(lp4995
g57
(g78
g59
NtRp4996
(dp4997
g62
(dp4998
sg71
g4992
sg64
(lp4999
g57
(g58
g59
NtRp5000
(dp5001
g62
(dp5002
g70
I3
ssg71
g4996
sg64
(lp5003
g100
asbasbasbag57
(g73
g59
NtRp5004
(dp5005
g62
(dp5006
sg71
g4968
sg64
(lp5007
g57
(g78
g59
NtRp5008
(dp5009
g62
(dp5010
sg71
g5004
sg64
(lp5011
g57
(g58
g59
NtRp5012
(dp5013
g62
(dp5014
g70
I3
ssg71
g5008
sg64
(lp5015
S'/CygnusCloud/administrator/runVM'
p5016
asbasbasbag57
(g73
g59
NtRp5017
(dp5018
g62
(dp5019
sg71
g4968
sg64
(lp5020
g57
(g78
g59
NtRp5021
(dp5022
g62
(dp5023
sg71
g5017
sg64
(lp5024
g57
(g58
g59
NtRp5025
(dp5026
g62
(dp5027
g70
I3
ssg71
g5021
sg64
(lp5028
g57
(g66
g59
NtRp5029
(dp5030
g62
(dp5031
g70
I2
ssg71
Nsg64
(lp5032
sbasbasbasbasbasbasbasbag57
(g73
g59
NtRp5033
(dp5034
g62
(dp5035
sg71
g4952
sg64
(lp5036
g57
(g78
g59
NtRp5037
(dp5038
g62
(dp5039
sg71
g5033
sg64
(lp5040
g57
(g58
g59
NtRp5041
(dp5042
g62
(dp5043
g70
I4
ssg71
g5037
sg64
(lp5044
g57
(g66
g59
NtRp5045
(dp5046
g62
(dp5047
g70
I3
ssg71
Nsg64
(lp5048
g57
(g73
g59
NtRp5049
(dp5050
g62
(dp5051
sg71
g5045
sg64
(lp5052
g57
(g78
g59
NtRp5053
(dp5054
g62
(dp5055
sg71
g5049
sg64
(lp5056
g57
(g58
g59
NtRp5057
(dp5058
g62
(dp5059
g70
I3
ssg71
g5053
sg64
(lp5060
g57
(g4984
g59
NtRp5061
(dp5062
g62
(dp5063
g4915
g4988
ssg71
Nsg64
(lp5064
g4990
(S's\x16\x00\x00\x00Administrar servidores'
tRp5065
asbasbasbasbag57
(g73
g59
NtRp5066
(dp5067
g62
(dp5068
sg71
g5045
sg64
(lp5069
g57
(g78
g59
NtRp5070
(dp5071
g62
(dp5072
sg71
g5066
sg64
(lp5073
g57
(g58
g59
NtRp5074
(dp5075
g62
(dp5076
g70
I3
ssg71
g5070
sg64
(lp5077
g100
asbasbasbag57
(g73
g59
NtRp5078
(dp5079
g62
(dp5080
sg71
g5045
sg64
(lp5081
g57
(g78
g59
NtRp5082
(dp5083
g62
(dp5084
sg71
g5078
sg64
(lp5085
g57
(g58
g59
NtRp5086
(dp5087
g62
(dp5088
g70
I3
ssg71
g5082
sg64
(lp5089
S'/CygnusCloud/administrator/servers/add_remove_servers'
p5090
asbasbasbag57
(g73
g59
NtRp5091
(dp5092
g62
(dp5093
sg71
g5045
sg64
(lp5094
g57
(g78
g59
NtRp5095
(dp5096
g62
(dp5097
sg71
g5091
sg64
(lp5098
g57
(g58
g59
NtRp5099
(dp5100
g62
(dp5101
g70
I3
ssg71
g5095
sg64
(lp5102
g57
(g66
g59
NtRp5103
(dp5104
g62
(dp5105
g70
I2
ssg71
Nsg64
(lp5106
g57
(g73
g59
NtRp5107
(dp5108
g62
(dp5109
sg71
g5103
sg64
(lp5110
g57
(g78
g59
NtRp5111
(dp5112
g62
(dp5113
sg71
g5107
sg64
(lp5114
g57
(g58
g59
NtRp5115
(dp5116
g62
(dp5117
g70
I2
ssg71
g5111
sg64
(lp5118
g57
(g66
g59
NtRp5119
(dp5120
g62
(dp5121
g70
I1
ssg71
Nsg64
(lp5122
g57
(g73
g59
NtRp5123
(dp5124
g62
(dp5125
sg71
g5119
sg64
(lp5126
g57
(g78
g59
NtRp5127
(dp5128
g62
(dp5129
sg71
g5123
sg64
(lp5130
g57
(g58
g59
NtRp5131
(dp5132
g62
(dp5133
g70
I1
ssg71
g5127
sg64
(lp5134
g4990
(S's\x10\x00\x00\x00A\xc3\xb1adir/Eliminar'
tRp5135
asbasbasbag57
(g73
g59
NtRp5136
(dp5137
g62
(dp5138
sg71
g5119
sg64
(lp5139
g57
(g78
g59
NtRp5140
(dp5141
g62
(dp5142
sg71
g5136
sg64
(lp5143
g57
(g58
g59
NtRp5144
(dp5145
g62
(dp5146
g70
I1
ssg71
g5140
sg64
(lp5147
I00
asbasbasbag57
(g73
g59
NtRp5148
(dp5149
g62
(dp5150
sg71
g5119
sg64
(lp5151
g57
(g78
g59
NtRp5152
(dp5153
g62
(dp5154
sg71
g5148
sg64
(lp5155
g57
(g58
g59
NtRp5156
(dp5157
g62
(dp5158
g70
I1
ssg71
g5152
sg64
(lp5159
S'/CygnusCloud/administrator/servers/add_remove_servers'
p5160
asbasbasbasbasbasbasbasbasbasbasbasbasbasbasbag57
(g73
g59
NtRp5161
(dp5162
g62
(dp5163
sg71
g4952
sg64
(lp5164
g57
(g78
g59
NtRp5165
(dp5166
g62
(dp5167
sg71
g5161
sg64
(lp5168
g57
(g58
g59
NtRp5169
(dp5170
g62
(dp5171
g70
I4
ssg71
g5165
sg64
(lp5172
g57
(g66
g59
NtRp5173
(dp5174
g62
(dp5175
g70
I3
ssg71
Nsg64
(lp5176
g57
(g73
g59
NtRp5177
(dp5178
g62
(dp5179
sg71
g5173
sg64
(lp5180
g57
(g78
g59
NtRp5181
(dp5182
g62
(dp5183
sg71
g5177
sg64
(lp5184
g57
(g58
g59
NtRp5185
(dp5186
g62
(dp5187
g70
I3
ssg71
g5181
sg64
(lp5188
g57
(g4984
g59
NtRp5189
(dp5190
g62
(dp5191
g4915
g4988
ssg71
Nsg64
(lp5192
g4990
(S's\x14\x00\x00\x00Administrar usuarios'
tRp5193
asbasbasbasbag57
(g73
g59
NtRp5194
(dp5195
g62
(dp5196
sg71
g5173
sg64
(lp5197
g57
(g78
g59
NtRp5198
(dp5199
g62
(dp5200
sg71
g5194
sg64
(lp5201
g57
(g58
g59
NtRp5202
(dp5203
g62
(dp5204
g70
I3
ssg71
g5198
sg64
(lp5205
g100
asbasbasbag57
(g73
g59
NtRp5206
(dp5207
g62
(dp5208
sg71
g5173
sg64
(lp5209
g57
(g78
g59
NtRp5210
(dp5211
g62
(dp5212
sg71
g5206
sg64
(lp5213
g57
(g58
g59
NtRp5214
(dp5215
g62
(dp5216
g70
I3
ssg71
g5210
sg64
(lp5217
S'/CygnusCloud/administrator/initUsers/remove'
p5218
asbasbasbag57
(g73
g59
NtRp5219
(dp5220
g62
(dp5221
sg71
g5173
sg64
(lp5222
g57
(g78
g59
NtRp5223
(dp5224
g62
(dp5225
sg71
g5219
sg64
(lp5226
g57
(g58
g59
NtRp5227
(dp5228
g62
(dp5229
g70
I3
ssg71
g5223
sg64
(lp5230
g57
(g66
g59
NtRp5231
(dp5232
g62
(dp5233
g70
I2
ssg71
Nsg64
(lp5234
g57
(g73
g59
NtRp5235
(dp5236
g62
(dp5237
sg71
g5231
sg64
(lp5238
g57
(g78
g59
NtRp5239
(dp5240
g62
(dp5241
sg71
g5235
sg64
(lp5242
g57
(g58
g59
NtRp5243
(dp5244
g62
(dp5245
g70
I2
ssg71
g5239
sg64
(lp5246
g57
(g66
g59
NtRp5247
(dp5248
g62
(dp5249
g70
I1
ssg71
Nsg64
(lp5250
g57
(g73
g59
NtRp5251
(dp5252
g62
(dp5253
sg71
g5247
sg64
(lp5254
g57
(g78
g59
NtRp5255
(dp5256
g62
(dp5257
sg71
g5251
sg64
(lp5258
g57
(g58
g59
NtRp5259
(dp5260
g62
(dp5261
g70
I1
ssg71
g5255
sg64
(lp5262
g4990
(S's\x08\x00\x00\x00Eliminar'
tRp5263
asbasbasbag57
(g73
g59
NtRp5264
(dp5265
g62
(dp5266
sg71
g5247
sg64
(lp5267
g57
(g78
g59
NtRp5268
(dp5269
g62
(dp5270
sg71
g5264
sg64
(lp5271
g57
(g58
g59
NtRp5272
(dp5273
g62
(dp5274
g70
I1
ssg71
g5268
sg64
(lp5275
I00
asbasbasbag57
(g73
g59
NtRp5276
(dp5277
g62
(dp5278
sg71
g5247
sg64
(lp5279
g57
(g78
g59
NtRp5280
(dp5281
g62
(dp5282
sg71
g5276
sg64
(lp5283
g57
(g58
g59
NtRp5284
(dp5285
g62
(dp5286
g70
I1
ssg71
g5280
sg64
(lp5287
S'/CygnusCloud/administrator/users/remove'
p5288
asbasbasbasbasbasbasbag57
(g73
g59
NtRp5289
(dp5290
g62
(dp5291
sg71
g5231
sg64
(lp5292
g57
(g78
g59
NtRp5293
(dp5294
g62
(dp5295
sg71
g5289
sg64
(lp5296
g57
(g58
g59
NtRp5297
(dp5298
g62
(dp5299
g70
I2
ssg71
g5293
sg64
(lp5300
g57
(g66
g59
NtRp5301
(dp5302
g62
(dp5303
g70
I1
ssg71
Nsg64
(lp5304
g57
(g73
g59
NtRp5305
(dp5306
g62
(dp5307
sg71
g5301
sg64
(lp5308
g57
(g78
g59
NtRp5309
(dp5310
g62
(dp5311
sg71
g5305
sg64
(lp5312
g57
(g58
g59
NtRp5313
(dp5314
g62
(dp5315
g70
I1
ssg71
g5309
sg64
(lp5316
g4990
(S's\x07\x00\x00\x00A\xc3\xb1adir'
tRp5317
asbasbasbag57
(g73
g59
NtRp5318
(dp5319
g62
(dp5320
sg71
g5301
sg64
(lp5321
g57
(g78
g59
NtRp5322
(dp5323
g62
(dp5324
sg71
g5318
sg64
(lp5325
g57
(g58
g59
NtRp5326
(dp5327
g62
(dp5328
g70
I1
ssg71
g5322
sg64
(lp5329
I00
asbasbasbag57
(g73
g59
NtRp5330
(dp5331
g62
(dp5332
sg71
g5301
sg64
(lp5333
g57
(g78
g59
NtRp5334
(dp5335
g62
(dp5336
sg71
g5330
sg64
(lp5337
g57
(g58
g59
NtRp5338
(dp5339
g62
(dp5340
g70
I1
ssg71
g5334
sg64
(lp5341
S'/CygnusCloud/administrator/users/add'
p5342
asbasbasbasbasbasbasbag57
(g73
g59
NtRp5343
(dp5344
g62
(dp5345
sg71
g5231
sg64
(lp5346
g57
(g78
g59
NtRp5347
(dp5348
g62
(dp5349
sg71
g5343
sg64
(lp5350
g57
(g58
g59
NtRp5351
(dp5352
g62
(dp5353
g70
I2
ssg71
g5347
sg64
(lp5354
g57
(g66
g59
NtRp5355
(dp5356
g62
(dp5357
g70
I1
ssg71
Nsg64
(lp5358
g57
(g73
g59
NtRp5359
(dp5360
g62
(dp5361
sg71
g5355
sg64
(lp5362
g57
(g78
g59
NtRp5363
(dp5364
g62
(dp5365
sg71
g5359
sg64
(lp5366
g57
(g58
g59
NtRp5367
(dp5368
g62
(dp5369
g70
I1
ssg71
g5363
sg64
(lp5370
g4990
(S's\x13\x00\x00\x00Asociar asignaturas'
tRp5371
asbasbasbag57
(g73
g59
NtRp5372
(dp5373
g62
(dp5374
sg71
g5355
sg64
(lp5375
g57
(g78
g59
NtRp5376
(dp5377
g62
(dp5378
sg71
g5372
sg64
(lp5379
g57
(g58
g59
NtRp5380
(dp5381
g62
(dp5382
g70
I1
ssg71
g5376
sg64
(lp5383
I00
asbasbasbag57
(g73
g59
NtRp5384
(dp5385
g62
(dp5386
sg71
g5355
sg64
(lp5387
g57
(g78
g59
NtRp5388
(dp5389
g62
(dp5390
sg71
g5384
sg64
(lp5391
g57
(g58
g59
NtRp5392
(dp5393
g62
(dp5394
g70
I1
ssg71
g5388
sg64
(lp5395
S'/CygnusCloud/administrator/users/associate_subjects'
p5396
asbasbasbasbasbasbasbasbasbasbasbasbasbasbasbag57
(g73
g59
NtRp5397
(dp5398
g62
(dp5399
sg71
g4952
sg64
(lp5400
g57
(g78
g59
NtRp5401
(dp5402
g62
(dp5403
sg71
g5397
sg64
(lp5404
g57
(g58
g59
NtRp5405
(dp5406
g62
(dp5407
g70
I4
ssg71
g5401
sg64
(lp5408
g57
(g66
g59
NtRp5409
(dp5410
g62
(dp5411
g70
I3
ssg71
Nsg64
(lp5412
g57
(g73
g59
NtRp5413
(dp5414
g62
(dp5415
sg71
g5409
sg64
(lp5416
g57
(g78
g59
NtRp5417
(dp5418
g62
(dp5419
sg71
g5413
sg64
(lp5420
g57
(g58
g59
NtRp5421
(dp5422
g62
(dp5423
g70
I3
ssg71
g5417
sg64
(lp5424
g57
(g4984
g59
NtRp5425
(dp5426
g62
(dp5427
g4915
g4988
ssg71
Nsg64
(lp5428
g4990
(S's\x17\x00\x00\x00Administrar asignaturas'
tRp5429
asbasbasbasbag57
(g73
g59
NtRp5430
(dp5431
g62
(dp5432
sg71
g5409
sg64
(lp5433
g57
(g78
g59
NtRp5434
(dp5435
g62
(dp5436
sg71
g5430
sg64
(lp5437
g57
(g58
g59
NtRp5438
(dp5439
g62
(dp5440
g70
I3
ssg71
g5434
sg64
(lp5441
g100
asbasbasbag57
(g73
g59
NtRp5442
(dp5443
g62
(dp5444
sg71
g5409
sg64
(lp5445
g57
(g78
g59
NtRp5446
(dp5447
g62
(dp5448
sg71
g5442
sg64
(lp5449
g57
(g58
g59
NtRp5450
(dp5451
g62
(dp5452
g70
I3
ssg71
g5446
sg64
(lp5453
S'/CygnusCloud/administrator/subjects/add'
p5454
asbasbasbag57
(g73
g59
NtRp5455
(dp5456
g62
(dp5457
sg71
g5409
sg64
(lp5458
g57
(g78
g59
NtRp5459
(dp5460
g62
(dp5461
sg71
g5455
sg64
(lp5462
g57
(g58
g59
NtRp5463
(dp5464
g62
(dp5465
g70
I3
ssg71
g5459
sg64
(lp5466
g57
(g66
g59
NtRp5467
(dp5468
g62
(dp5469
g70
I2
ssg71
Nsg64
(lp5470
g57
(g73
g59
NtRp5471
(dp5472
g62
(dp5473
sg71
g5467
sg64
(lp5474
g57
(g78
g59
NtRp5475
(dp5476
g62
(dp5477
sg71
g5471
sg64
(lp5478
g57
(g58
g59
NtRp5479
(dp5480
g62
(dp5481
g70
I2
ssg71
g5475
sg64
(lp5482
g57
(g66
g59
NtRp5483
(dp5484
g62
(dp5485
g70
I1
ssg71
Nsg64
(lp5486
g57
(g73
g59
NtRp5487
(dp5488
g62
(dp5489
sg71
g5483
sg64
(lp5490
g57
(g78
g59
NtRp5491
(dp5492
g62
(dp5493
sg71
g5487
sg64
(lp5494
g57
(g58
g59
NtRp5495
(dp5496
g62
(dp5497
g70
I1
ssg71
g5491
sg64
(lp5498
g4990
(S's\x07\x00\x00\x00A\xc3\xb1adir'
tRp5499
asbasbasbag57
(g73
g59
NtRp5500
(dp5501
g62
(dp5502
sg71
g5483
sg64
(lp5503
g57
(g78
g59
NtRp5504
(dp5505
g62
(dp5506
sg71
g5500
sg64
(lp5507
g57
(g58
g59
NtRp5508
(dp5509
g62
(dp5510
g70
I1
ssg71
g5504
sg64
(lp5511
I00
asbasbasbag57
(g73
g59
NtRp5512
(dp5513
g62
(dp5514
sg71
g5483
sg64
(lp5515
g57
(g78
g59
NtRp5516
(dp5517
g62
(dp5518
sg71
g5512
sg64
(lp5519
g57
(g58
g59
NtRp5520
(dp5521
g62
(dp5522
g70
I1
ssg71
g5516
sg64
(lp5523
S'/CygnusCloud/administrator/subjects/add'
p5524
asbasbasbasbasbasbasbag57
(g73
g59
NtRp5525
(dp5526
g62
(dp5527
sg71
g5467
sg64
(lp5528
g57
(g78
g59
NtRp5529
(dp5530
g62
(dp5531
sg71
g5525
sg64
(lp5532
g57
(g58
g59
NtRp5533
(dp5534
g62
(dp5535
g70
I2
ssg71
g5529
sg64
(lp5536
g57
(g66
g59
NtRp5537
(dp5538
g62
(dp5539
g70
I1
ssg71
Nsg64
(lp5540
g57
(g73
g59
NtRp5541
(dp5542
g62
(dp5543
sg71
g5537
sg64
(lp5544
g57
(g78
g59
NtRp5545
(dp5546
g62
(dp5547
sg71
g5541
sg64
(lp5548
g57
(g58
g59
NtRp5549
(dp5550
g62
(dp5551
g70
I1
ssg71
g5545
sg64
(lp5552
g4990
(S's\x08\x00\x00\x00Eliminar'
tRp5553
asbasbasbag57
(g73
g59
NtRp5554
(dp5555
g62
(dp5556
sg71
g5537
sg64
(lp5557
g57
(g78
g59
NtRp5558
(dp5559
g62
(dp5560
sg71
g5554
sg64
(lp5561
g57
(g58
g59
NtRp5562
(dp5563
g62
(dp5564
g70
I1
ssg71
g5558
sg64
(lp5565
I00
asbasbasbag57
(g73
g59
NtRp5566
(dp5567
g62
(dp5568
sg71
g5537
sg64
(lp5569
g57
(g78
g59
NtRp5570
(dp5571
g62
(dp5572
sg71
g5566
sg64
(lp5573
g57
(g58
g59
NtRp5574
(dp5575
g62
(dp5576
g70
I1
ssg71
g5570
sg64
(lp5577
S'/CygnusCloud/administrator/subjects/remove'
p5578
asbasbasbasbasbasbasbag57
(g73
g59
NtRp5579
(dp5580
g62
(dp5581
sg71
g5467
sg64
(lp5582
g57
(g78
g59
NtRp5583
(dp5584
g62
(dp5585
sg71
g5579
sg64
(lp5586
g57
(g58
g59
NtRp5587
(dp5588
g62
(dp5589
g70
I2
ssg71
g5583
sg64
(lp5590
g57
(g66
g59
NtRp5591
(dp5592
g62
(dp5593
g70
I1
ssg71
Nsg64
(lp5594
g57
(g73
g59
NtRp5595
(dp5596
g62
(dp5597
sg71
g5591
sg64
(lp5598
g57
(g78
g59
NtRp5599
(dp5600
g62
(dp5601
sg71
g5595
sg64
(lp5602
g57
(g58
g59
NtRp5603
(dp5604
g62
(dp5605
g70
I1
ssg71
g5599
sg64
(lp5606
g4990
(S's\x13\x00\x00\x00Admistrar m\xc3\xa1quinas'
tRp5607
asbasbasbag57
(g73
g59
NtRp5608
(dp5609
g62
(dp5610
sg71
g5591
sg64
(lp5611
g57
(g78
g59
NtRp5612
(dp5613
g62
(dp5614
sg71
g5608
sg64
(lp5615
g57
(g58
g59
NtRp5616
(dp5617
g62
(dp5618
g70
I1
ssg71
g5612
sg64
(lp5619
I00
asbasbasbag57
(g73
g59
NtRp5620
(dp5621
g62
(dp5622
sg71
g5591
sg64
(lp5623
g57
(g78
g59
NtRp5624
(dp5625
g62
(dp5626
sg71
g5620
sg64
(lp5627
g57
(g58
g59
NtRp5628
(dp5629
g62
(dp5630
g70
I1
ssg71
g5624
sg64
(lp5631
S'/CygnusCloud/administrator/subjects/addVM'
p5632
asbasbasbasbasbasbasbasbasbasbasbasbasbasbasbasbasbasbasbag57
(g73
g59
NtRp5633
(dp5634
g62
(dp5635
sg71
g4465
sg64
(lp5636
g57
(g78
g59
NtRp5637
(dp5638
g62
(dp5639
g82
g83
ssg71
g5633
sg64
(lp5640
S'meta'
p5641
asbag57
(g78
g59
NtRp5642
(dp5643
g62
(dp5644
g89
g90
ssg71
g5633
sg64
(lp5645
S':'
asbag57
(g78
g59
NtRp5646
(dp5647
g62
(dp5648
sg71
g5633
sg64
(lp5649
g57
(g58
g59
NtRp5650
(dp5651
g62
(dp5652
g70
I5
ssg71
g5646
sg64
(lp5653
g57
(g66
g59
NtRp5654
(dp5655
g62
(dp5656
g70
I4
ssg71
Nsg64
(lp5657
g57
(g73
g59
NtRp5658
(dp5659
g62
(dp5660
sg71
g5654
sg64
(lp5661
g57
(g78
g59
NtRp5662
(dp5663
g62
(dp5664
g82
g83
ssg71
g5658
sg64
(lp5665
S'author'
p5666
asbag57
(g78
g59
NtRp5667
(dp5668
g62
(dp5669
g89
g90
ssg71
g5658
sg64
(lp5670
S':'
asbag57
(g78
g59
NtRp5671
(dp5672
g62
(dp5673
sg71
g5658
sg64
(lp5674
g57
(g58
g59
NtRp5675
(dp5676
g62
(dp5677
g70
I4
ssg71
g5671
sg64
(lp5678
S'Your Name <you@example.com>'
p5679
asbasbasbag57
(g73
g59
NtRp5680
(dp5681
g62
(dp5682
sg71
g5654
sg64
(lp5683
g57
(g78
g59
NtRp5684
(dp5685
g62
(dp5686
g82
g83
ssg71
g5680
sg64
(lp5687
S'description'
p5688
asbag57
(g78
g59
NtRp5689
(dp5690
g62
(dp5691
g89
g90
ssg71
g5680
sg64
(lp5692
S':'
asbag57
(g78
g59
NtRp5693
(dp5694
g62
(dp5695
sg71
g5680
sg64
(lp5696
g57
(g58
g59
NtRp5697
(dp5698
g62
(dp5699
g70
I4
ssg71
g5693
sg64
(lp5700
S'a cool new app'
p5701
asbasbasbag57
(g73
g59
NtRp5702
(dp5703
g62
(dp5704
sg71
g5654
sg64
(lp5705
g57
(g78
g59
NtRp5706
(dp5707
g62
(dp5708
g82
g83
ssg71
g5702
sg64
(lp5709
S'generator'
p5710
asbag57
(g78
g59
NtRp5711
(dp5712
g62
(dp5713
g89
g90
ssg71
g5702
sg64
(lp5714
S':'
asbag57
(g78
g59
NtRp5715
(dp5716
g62
(dp5717
sg71
g5702
sg64
(lp5718
g57
(g58
g59
NtRp5719
(dp5720
g62
(dp5721
g70
I4
ssg71
g5715
sg64
(lp5722
S'Web2py Web Framework'
p5723
asbasbasbag57
(g73
g59
NtRp5724
(dp5725
g62
(dp5726
sg71
g5654
sg64
(lp5727
g57
(g78
g59
NtRp5728
(dp5729
g62
(dp5730
g82
g83
ssg71
g5724
sg64
(lp5731
S'keywords'
p5732
asbag57
(g78
g59
NtRp5733
(dp5734
g62
(dp5735
g89
g90
ssg71
g5724
sg64
(lp5736
S':'
asbag57
(g78
g59
NtRp5737
(dp5738
g62
(dp5739
sg71
g5724
sg64
(lp5740
g57
(g58
g59
NtRp5741
(dp5742
g62
(dp5743
g70
I4
ssg71
g5737
sg64
(lp5744
S'web2py, python, framework'
p5745
asbasbasbasbasbasbasbag57
(g73
g59
NtRp5746
(dp5747
g62
(dp5748
sg71
g4465
sg64
(lp5749
g57
(g78
g59
NtRp5750
(dp5751
g62
(dp5752
g82
g83
ssg71
g5746
sg64
(lp5753
S'models_to_run'
p5754
asbag57
(g78
g59
NtRp5755
(dp5756
g62
(dp5757
g89
g90
ssg71
g5746
sg64
(lp5758
S':'
asbag57
(g78
g59
NtRp5759
(dp5760
g62
(dp5761
sg71
g5746
sg64
(lp5762
g57
(g58
g59
NtRp5763
(dp5764
g62
(dp5765
g70
I5
ssg71
g5759
sg64
(lp5766
g57
(g66
g59
NtRp5767
(dp5768
g62
(dp5769
g70
I4
ssg71
Nsg64
(lp5770
g57
(g73
g59
NtRp5771
(dp5772
g62
(dp5773
sg71
g5767
sg64
(lp5774
g57
(g78
g59
NtRp5775
(dp5776
g62
(dp5777
sg71
g5771
sg64
(lp5778
g57
(g58
g59
NtRp5779
(dp5780
g62
(dp5781
g70
I4
ssg71
g5775
sg64
(lp5782
S'^\\w+\\.py$'
p5783
asbasbasbag57
(g73
g59
NtRp5784
(dp5785
g62
(dp5786
sg71
g5767
sg64
(lp5787
g57
(g78
g59
NtRp5788
(dp5789
g62
(dp5790
sg71
g5784
sg64
(lp5791
g57
(g58
g59
NtRp5792
(dp5793
g62
(dp5794
g70
I4
ssg71
g5788
sg64
(lp5795
S'^administrator/\\w+\\.py$'
p5796
asbasbasbag57
(g73
g59
NtRp5797
(dp5798
g62
(dp5799
sg71
g5767
sg64
(lp5800
g57
(g78
g59
NtRp5801
(dp5802
g62
(dp5803
sg71
g5797
sg64
(lp5804
g57
(g58
g59
NtRp5805
(dp5806
g62
(dp5807
g70
I4
ssg71
g5801
sg64
(lp5808
S'^administrator/subjects/\\w+\\.py$'
p5809
asbasbasbasbasbasbasbag57
(g73
g59
NtRp5810
(dp5811
g62
(dp5812
sg71
g4465
sg64
(lp5813
g57
(g78
g59
NtRp5814
(dp5815
g62
(dp5816
g82
g83
ssg71
g5810
sg64
(lp5817
S'postprocessing'
p5818
asbag57
(g78
g59
NtRp5819
(dp5820
g62
(dp5821
g89
g90
ssg71
g5810
sg64
(lp5822
S':'
asbag57
(g78
g59
NtRp5823
(dp5824
g62
(dp5825
sg71
g5810
sg64
(lp5826
g57
(g58
g59
NtRp5827
(dp5828
g62
(dp5829
g70
I5
ssg71
g5823
sg64
(lp5830
g57
(g66
g59
NtRp5831
(dp5832
g62
(dp5833
g70
I4
ssg71
Nsg64
(lp5834
sbasbasbasbag57
(g73
g59
NtRp5835
(dp5836
g62
(dp5837
sg71
g4465
sg64
(lp5838
g57
(g78
g59
NtRp5839
(dp5840
g62
(dp5841
g82
g83
ssg71
g5835
sg64
(lp5842
S'session_cookie_expires'
p5843
asbag57
(g78
g59
NtRp5844
(dp5845
g62
(dp5846
g89
g90
ssg71
g5835
sg64
(lp5847
S':'
asbag57
(g78
g59
NtRp5848
(dp5849
g62
(dp5850
sg71
g5835
sg64
(lp5851
g57
(g58
g59
NtRp5852
(dp5853
g62
(dp5854
g70
I5
ssg71
g5848
sg64
(lp5855
S'None'
p5856
asbasbasbag57
(g73
g59
NtRp5857
(dp5858
g62
(dp5859
sg71
g4465
sg64
(lp5860
g57
(g78
g59
NtRp5861
(dp5862
g62
(dp5863
g82
g83
ssg71
g5857
sg64
(lp5864
S'session_data_name'
p5865
asbag57
(g78
g59
NtRp5866
(dp5867
g62
(dp5868
g89
g90
ssg71
g5857
sg64
(lp5869
S':'
asbag57
(g78
g59
NtRp5870
(dp5871
g62
(dp5872
sg71
g5857
sg64
(lp5873
g57
(g58
g59
NtRp5874
(dp5875
g62
(dp5876
g70
I5
ssg71
g5870
sg64
(lp5877
S'session_data_cygnuscloud'
p5878
asbasbasbag57
(g73
g59
NtRp5879
(dp5880
g62
(dp5881
sg71
g4465
sg64
(lp5882
g57
(g78
g59
NtRp5883
(dp5884
g62
(dp5885
g82
g83
ssg71
g5879
sg64
(lp5886
S'session_file'
p5887
asbag57
(g78
g59
NtRp5888
(dp5889
g62
(dp5890
g89
g90
ssg71
g5879
sg64
(lp5891
S':'
asbag57
(g78
g59
NtRp5892
(dp5893
g62
(dp5894
sg71
g5879
sg64
(lp5895
g57
(g58
g59
NtRp5896
(dp5897
g62
(dp5898
g70
I5
ssg71
g5892
sg64
(lp5899
S"<open file '/home/adrian/web2py/applications/CygnusCloud/sessions/127.0.0.1-94b597fa-52b2-4481-ad0f-59b1fd37bc50', mode 'rb+' at 0x7f5f4c0e88a0>"
p5900
asbasbasbag57
(g73
g59
NtRp5901
(dp5902
g62
(dp5903
sg71
g4465
sg64
(lp5904
g57
(g78
g59
NtRp5905
(dp5906
g62
(dp5907
g82
g83
ssg71
g5901
sg64
(lp5908
S'session_filename'
p5909
asbag57
(g78
g59
NtRp5910
(dp5911
g62
(dp5912
g89
g90
ssg71
g5901
sg64
(lp5913
S':'
asbag57
(g78
g59
NtRp5914
(dp5915
g62
(dp5916
sg71
g5901
sg64
(lp5917
g57
(g58
g59
NtRp5918
(dp5919
g62
(dp5920
g70
I5
ssg71
g5914
sg64
(lp5921
S'/home/adrian/web2py/applications/CygnusCloud/sessions/127.0.0.1-94b597fa-52b2-4481-ad0f-59b1fd37bc50'
p5922
asbasbasbag57
(g73
g59
NtRp5923
(dp5924
g62
(dp5925
sg71
g4465
sg64
(lp5926
g57
(g78
g59
NtRp5927
(dp5928
g62
(dp5929
g82
g83
ssg71
g5923
sg64
(lp5930
S'session_id'
p5931
asbag57
(g78
g59
NtRp5932
(dp5933
g62
(dp5934
g89
g90
ssg71
g5923
sg64
(lp5935
S':'
asbag57
(g78
g59
NtRp5936
(dp5937
g62
(dp5938
sg71
g5923
sg64
(lp5939
g57
(g58
g59
NtRp5940
(dp5941
g62
(dp5942
g70
I5
ssg71
g5936
sg64
(lp5943
g673
asbasbasbag57
(g73
g59
NtRp5944
(dp5945
g62
(dp5946
sg71
g4465
sg64
(lp5947
g57
(g78
g59
NtRp5948
(dp5949
g62
(dp5950
g82
g83
ssg71
g5944
sg64
(lp5951
S'session_id_name'
p5952
asbag57
(g78
g59
NtRp5953
(dp5954
g62
(dp5955
g89
g90
ssg71
g5944
sg64
(lp5956
S':'
asbag57
(g78
g59
NtRp5957
(dp5958
g62
(dp5959
sg71
g5944
sg64
(lp5960
g57
(g58
g59
NtRp5961
(dp5962
g62
(dp5963
g70
I5
ssg71
g5957
sg64
(lp5964
g4522
asbasbasbag57
(g73
g59
NtRp5965
(dp5966
g62
(dp5967
sg71
g4465
sg64
(lp5968
g57
(g78
g59
NtRp5969
(dp5970
g62
(dp5971
g82
g83
ssg71
g5965
sg64
(lp5972
S'session_locked'
p5973
asbag57
(g78
g59
NtRp5974
(dp5975
g62
(dp5976
g89
g90
ssg71
g5965
sg64
(lp5977
S':'
asbag57
(g78
g59
NtRp5978
(dp5979
g62
(dp5980
sg71
g5965
sg64
(lp5981
g57
(g58
g59
NtRp5982
(dp5983
g62
(dp5984
g70
I5
ssg71
g5978
sg64
(lp5985
g2119
asbasbasbag57
(g73
g59
NtRp5986
(dp5987
g62
(dp5988
sg71
g4465
sg64
(lp5989
g57
(g78
g59
NtRp5990
(dp5991
g62
(dp5992
g82
g83
ssg71
g5986
sg64
(lp5993
S'session_new'
p5994
asbag57
(g78
g59
NtRp5995
(dp5996
g62
(dp5997
g89
g90
ssg71
g5986
sg64
(lp5998
S':'
asbag57
(g78
g59
NtRp5999
(dp6000
g62
(dp6001
sg71
g5986
sg64
(lp6002
g57
(g58
g59
NtRp6003
(dp6004
g62
(dp6005
g70
I5
ssg71
g5999
sg64
(lp6006
g100
asbasbasbag57
(g73
g59
NtRp6007
(dp6008
g62
(dp6009
sg71
g4465
sg64
(lp6010
g57
(g78
g59
NtRp6011
(dp6012
g62
(dp6013
g82
g83
ssg71
g6007
sg64
(lp6014
S'session_storage_type'
p6015
asbag57
(g78
g59
NtRp6016
(dp6017
g62
(dp6018
g89
g90
ssg71
g6007
sg64
(lp6019
S':'
asbag57
(g78
g59
NtRp6020
(dp6021
g62
(dp6022
sg71
g6007
sg64
(lp6023
g57
(g58
g59
NtRp6024
(dp6025
g62
(dp6026
g70
I5
ssg71
g6020
sg64
(lp6027
g3947
asbasbasbag57
(g73
g59
NtRp6028
(dp6029
g62
(dp6030
sg71
g4465
sg64
(lp6031
g57
(g78
g59
NtRp6032
(dp6033
g62
(dp6034
g82
g83
ssg71
g6028
sg64
(lp6035
S'status'
p6036
asbag57
(g78
g59
NtRp6037
(dp6038
g62
(dp6039
g89
g90
ssg71
g6028
sg64
(lp6040
S':'
asbag57
(g78
g59
NtRp6041
(dp6042
g62
(dp6043
sg71
g6028
sg64
(lp6044
g57
(g58
g59
NtRp6045
(dp6046
g62
(dp6047
g70
I5
ssg71
g6041
sg64
(lp6048
S'200'
p6049
asbasbasbag57
(g73
g59
NtRp6050
(dp6051
g62
(dp6052
sg71
g4465
sg64
(lp6053
g57
(g78
g59
NtRp6054
(dp6055
g62
(dp6056
g82
g83
ssg71
g6050
sg64
(lp6057
S'subtitle'
p6058
asbag57
(g78
g59
NtRp6059
(dp6060
g62
(dp6061
g89
g90
ssg71
g6050
sg64
(lp6062
S':'
asbag57
(g78
g59
NtRp6063
(dp6064
g62
(dp6065
sg71
g6050
sg64
(lp6066
g57
(g58
g59
NtRp6067
(dp6068
g62
(dp6069
g70
I5
ssg71
g6063
sg64
(lp6070
g4990
(S's\t\x00\x00\x00Adaptame!'
tRp6071
asbasbasbag57
(g73
g59
NtRp6072
(dp6073
g62
(dp6074
sg71
g4465
sg64
(lp6075
g57
(g78
g59
NtRp6076
(dp6077
g62
(dp6078
g82
g83
ssg71
g6072
sg64
(lp6079
S'title'
p6080
asbag57
(g78
g59
NtRp6081
(dp6082
g62
(dp6083
g89
g90
ssg71
g6072
sg64
(lp6084
S':'
asbag57
(g78
g59
NtRp6085
(dp6086
g62
(dp6087
sg71
g6072
sg64
(lp6088
g57
(g58
g59
NtRp6089
(dp6090
g62
(dp6091
g70
I5
ssg71
g6085
sg64
(lp6092
S'Cygnuscloud'
p6093
asbasbasbag57
(g73
g59
NtRp6094
(dp6095
g62
(dp6096
sg71
g4465
sg64
(lp6097
g57
(g78
g59
NtRp6098
(dp6099
g62
(dp6100
g82
g83
ssg71
g6094
sg64
(lp6101
S'view'
p6102
asbag57
(g78
g59
NtRp6103
(dp6104
g62
(dp6105
g89
g90
ssg71
g6094
sg64
(lp6106
S':'
asbag57
(g78
g59
NtRp6107
(dp6108
g62
(dp6109
sg71
g6094
sg64
(lp6110
g57
(g58
g59
NtRp6111
(dp6112
g62
(dp6113
g70
I5
ssg71
g6107
sg64
(lp6114
S'administrator/subjects.html'
p6115
asbasbasbasbasbsS'locals'
p6116
(dp6117
S'form'
p6118
S'<gluon.html.FORM object>'
p6119
sssS'traceback'
p6120
S'Traceback (most recent call last):\n  File "/home/adrian/web2py/gluon/restricted.py", line 212, in restricted\n    exec ccode in environment\n  File "/home/adrian/web2py/applications/CygnusCloud/controllers/administrator.py", line 181, in <module>\n  File "/home/adrian/web2py/gluon/globals.py", line 193, in <lambda>\n    self._caller = lambda f: f()\n  File "/home/adrian/web2py/gluon/tools.py", line 2929, in f\n    return action(*a, **b)\n  File "/home/adrian/web2py/applications/CygnusCloud/controllers/administrator.py", line 114, in subjects\n    response.flash(T(\'Formato de n\xc3\xbameros erroneo\'))\nTypeError: \'str\' object is not callable\n'
p6121
s.