(dp1
S'output'
p2
S'<class \'_mysql_exceptions.ProgrammingError\'> (1146, "Table \'UserDB.auth_group\' doesn\'t exist")'
p3
sS'layer'
p4
S'/home/adrian/web2py/applications/CygnusCloud/models/db.py'
p5
sS'code'
p6
S"# -*- coding: utf-8 -*-\nfrom configuration import DBConfigurator\nfrom gluon.tools import Auth\n\nconf = DBConfigurator('170590ucm')\nconf.dropDatabase('UserDB')\nconf.createDatabase('UserDB')\n#conf.addUser('CygnusCloud','cygnuscloud2012', 'UserDB')\nuserDB = DAL('mysql://CygnusCloud:cygnuscloud2012@localhost/UserDB',migrate_enabled=True)\n\n# Autentication\n\nauth = Auth(userDB)\nauth.define_tables(migrate = True)\n\n    \n      \n#Usuario de prueba\n#u1 = userDB.auth_user.insert(password = userDB.auth_user.password.validate('1234')[0],email = 'Admin1@ucm.es',first_name='Bertoldo',last_name='Pedralbes')\n \n                  \n\n\n#A\xc3\xb1adimos los grupos\nauth.add_group('Student', 'Only run virtual machines available')\n#auth.add_group('Administrator', 'All privilages available')\n\n \n#Enlazamos los usuarios a los grupos\n#auth.add_membership('Administrator',u1)\n      \nuserDB.define_table('UserGroup',\n   Field('yearGroup','integer', 'reference Users'),\n   Field('cod','integer','reference subjects'),\n   Field('curse','integer'),\n   Field('curseGroup', length=1),\n   primarykey=['cod','curseGroup'],migrate= True)\n      \nuserDB.define_table('ClassGroup',\n   Field('userId','integer', 'reference auth_user' ),\n   Field('cod','integer','reference UserGroup'),\n   Field('curseGroup','reference UserGroup',length=1 ),\n   primarykey=['cod','curseGroup','userId'],migrate= True)\n   \nuserDB.define_table('Subjects',\n   Field('code','integer'),\n   Field('name',length=15),migrate= True)\n   \n\n   \nuserDB.define_table('VMByGroup',\n   Field('VMName',length=20),\n   Field('cod','integer','reference UserGroup'),\n   Field('curseGroup','reference UserGroup',length=1 ),\n   primarykey=['cod','curseGroup','VMName'],migrate= True)\n\n \nprint userDB.tables\n"
p7
sS'snapshot'
p8
(dp9
S'exception'
p10
(dp11
S'__module__'
p12
S"'_mysql_exceptions'"
p13
sS'__getslice__'
p14
S"<method-wrapper '__getslice__' of ProgrammingError object>"
p15
sS'__str__'
p16
S"<method-wrapper '__str__' of ProgrammingError object>"
p17
sS'__reduce__'
p18
S'<built-in method __reduce__ of ProgrammingError object>'
p19
sS'__dict__'
p20
S'{}'
p21
sS'__sizeof__'
p22
S'<built-in method __sizeof__ of ProgrammingError object>'
p23
sS'__weakref__'
p24
S'None'
p25
sS'__init__'
p26
S"<method-wrapper '__init__' of ProgrammingError object>"
p27
sS'__setattr__'
p28
S"<method-wrapper '__setattr__' of ProgrammingError object>"
p29
sS'__reduce_ex__'
p30
S'<built-in method __reduce_ex__ of ProgrammingError object>'
p31
sS'__new__'
p32
S'<built-in method __new__ of type object>'
p33
sS'__format__'
p34
S'<built-in method __format__ of ProgrammingError object>'
p35
sS'__class__'
p36
S"<class '_mysql_exceptions.ProgrammingError'>"
p37
sS'__doc__'
p38
S"'Exception raised for programming errors, e.g. ta...t, wrong number\\n    of parameters specified, etc.'"
p39
sS'__getitem__'
p40
S"<method-wrapper '__getitem__' of ProgrammingError object>"
p41
sS'__setstate__'
p42
S'<built-in method __setstate__ of ProgrammingError object>'
p43
sS'__getattribute__'
p44
S"<method-wrapper '__getattribute__' of ProgrammingError object>"
p45
sS'args'
p46
S'(1146, "Table \'UserDB.auth_group\' doesn\'t exist")'
p47
sS'__subclasshook__'
p48
S'<built-in method __subclasshook__ of type object>'
p49
sS'__unicode__'
p50
S'<built-in method __unicode__ of ProgrammingError object>'
p51
sS'__delattr__'
p52
S"<method-wrapper '__delattr__' of ProgrammingError object>"
p53
sS'__repr__'
p54
S"<method-wrapper '__repr__' of ProgrammingError object>"
p55
sS'__hash__'
p56
S"<method-wrapper '__hash__' of ProgrammingError object>"
p57
ssS'evalue'
p58
S'(1146, "Table \'UserDB.auth_group\' doesn\'t exist")'
p59
sS'request'
p60
ccopy_reg
_reconstructor
p61
(cgluon.html
BEAUTIFY
p62
c__builtin__
object
p63
NtRp64
(dp65
S'attributes'
p66
(dp67
sS'components'
p68
(lp69
g61
(cgluon.html
TABLE
p70
g63
NtRp71
(dp72
g66
(dp73
S'level'
p74
I5
ssS'parent'
p75
Nsg68
(lp76
g61
(cgluon.html
TR
p77
g63
NtRp78
(dp79
g66
(dp80
sg75
g71
sg68
(lp81
g61
(cgluon.html
TD
p82
g63
NtRp83
(dp84
g66
(dp85
S'_style'
p86
S'font-weight:bold;vertical-align:top'
p87
ssg75
g78
sg68
(lp88
S'ajax'
p89
asbag61
(g82
g63
NtRp90
(dp91
g66
(dp92
S'_valign'
p93
S'top'
p94
ssg75
g78
sg68
(lp95
S':'
asbag61
(g82
g63
NtRp96
(dp97
g66
(dp98
sg75
g78
sg68
(lp99
g61
(g62
g63
NtRp100
(dp101
g66
(dp102
g74
I5
ssg75
g96
sg68
(lp103
S'False'
p104
asbasbasbag61
(g77
g63
NtRp105
(dp106
g66
(dp107
sg75
g71
sg68
(lp108
g61
(g82
g63
NtRp109
(dp110
g66
(dp111
g86
g87
ssg75
g105
sg68
(lp112
S'application'
p113
asbag61
(g82
g63
NtRp114
(dp115
g66
(dp116
g93
g94
ssg75
g105
sg68
(lp117
S':'
asbag61
(g82
g63
NtRp118
(dp119
g66
(dp120
sg75
g105
sg68
(lp121
g61
(g62
g63
NtRp122
(dp123
g66
(dp124
g74
I5
ssg75
g118
sg68
(lp125
S'CygnusCloud'
p126
asbasbasbag61
(g77
g63
NtRp127
(dp128
g66
(dp129
sg75
g71
sg68
(lp130
g61
(g82
g63
NtRp131
(dp132
g66
(dp133
g86
g87
ssg75
g127
sg68
(lp134
g46
asbag61
(g82
g63
NtRp135
(dp136
g66
(dp137
g93
g94
ssg75
g127
sg68
(lp138
S':'
asbag61
(g82
g63
NtRp139
(dp140
g66
(dp141
sg75
g127
sg68
(lp142
g61
(g62
g63
NtRp143
(dp144
g66
(dp145
g74
I5
ssg75
g139
sg68
(lp146
g61
(g70
g63
NtRp147
(dp148
g66
(dp149
g74
I4
ssg75
Nsg68
(lp150
sbasbasbasbag61
(g77
g63
NtRp151
(dp152
g66
(dp153
sg75
g71
sg68
(lp154
g61
(g82
g63
NtRp155
(dp156
g66
(dp157
g86
g87
ssg75
g151
sg68
(lp158
S'body'
p159
asbag61
(g82
g63
NtRp160
(dp161
g66
(dp162
g93
g94
ssg75
g151
sg68
(lp163
S':'
asbag61
(g82
g63
NtRp164
(dp165
g66
(dp166
sg75
g151
sg68
(lp167
g61
(g62
g63
NtRp168
(dp169
g66
(dp170
g74
I5
ssg75
g164
sg68
(lp171
S'<cStringIO.StringO object at 0x7f238ca8bdc0>'
p172
asbasbasbag61
(g77
g63
NtRp173
(dp174
g66
(dp175
sg75
g71
sg68
(lp176
g61
(g82
g63
NtRp177
(dp178
g66
(dp179
g86
g87
ssg75
g173
sg68
(lp180
S'cid'
p181
asbag61
(g82
g63
NtRp182
(dp183
g66
(dp184
g93
g94
ssg75
g173
sg68
(lp185
S':'
asbag61
(g82
g63
NtRp186
(dp187
g66
(dp188
sg75
g173
sg68
(lp189
g61
(g62
g63
NtRp190
(dp191
g66
(dp192
g74
I5
ssg75
g186
sg68
(lp193
S'None'
p194
asbasbasbag61
(g77
g63
NtRp195
(dp196
g66
(dp197
sg75
g71
sg68
(lp198
g61
(g82
g63
NtRp199
(dp200
g66
(dp201
g86
g87
ssg75
g195
sg68
(lp202
S'client'
p203
asbag61
(g82
g63
NtRp204
(dp205
g66
(dp206
g93
g94
ssg75
g195
sg68
(lp207
S':'
asbag61
(g82
g63
NtRp208
(dp209
g66
(dp210
sg75
g195
sg68
(lp211
g61
(g62
g63
NtRp212
(dp213
g66
(dp214
g74
I5
ssg75
g208
sg68
(lp215
S'127.0.0.1'
p216
asbasbasbag61
(g77
g63
NtRp217
(dp218
g66
(dp219
sg75
g71
sg68
(lp220
g61
(g82
g63
NtRp221
(dp222
g66
(dp223
g86
g87
ssg75
g217
sg68
(lp224
S'controller'
p225
asbag61
(g82
g63
NtRp226
(dp227
g66
(dp228
g93
g94
ssg75
g217
sg68
(lp229
S':'
asbag61
(g82
g63
NtRp230
(dp231
g66
(dp232
sg75
g217
sg68
(lp233
g61
(g62
g63
NtRp234
(dp235
g66
(dp236
g74
I5
ssg75
g230
sg68
(lp237
S'main'
p238
asbasbasbag61
(g77
g63
NtRp239
(dp240
g66
(dp241
sg75
g71
sg68
(lp242
g61
(g82
g63
NtRp243
(dp244
g66
(dp245
g86
g87
ssg75
g239
sg68
(lp246
S'cookies'
p247
asbag61
(g82
g63
NtRp248
(dp249
g66
(dp250
g93
g94
ssg75
g239
sg68
(lp251
S':'
asbag61
(g82
g63
NtRp252
(dp253
g66
(dp254
sg75
g239
sg68
(lp255
g61
(g62
g63
NtRp256
(dp257
g66
(dp258
g74
I5
ssg75
g252
sg68
(lp259
g61
(g70
g63
NtRp260
(dp261
g66
(dp262
g74
I4
ssg75
Nsg68
(lp263
g61
(g77
g63
NtRp264
(dp265
g66
(dp266
sg75
g260
sg68
(lp267
g61
(g82
g63
NtRp268
(dp269
g66
(dp270
g86
g87
ssg75
g264
sg68
(lp271
S'session_id_admin'
p272
asbag61
(g82
g63
NtRp273
(dp274
g66
(dp275
g93
g94
ssg75
g264
sg68
(lp276
S':'
asbag61
(g82
g63
NtRp277
(dp278
g66
(dp279
sg75
g264
sg68
(lp280
g61
(g62
g63
NtRp281
(dp282
g66
(dp283
g74
I4
ssg75
g277
sg68
(lp284
S'127.0.0.1-55f52477-473c-42b8-b923-a29e2f1fa64b'
p285
ag61
(g70
g63
NtRp286
(dp287
g66
(dp288
g74
I3
ssg75
Nsg68
(lp289
g61
(g77
g63
NtRp290
(dp291
g66
(dp292
sg75
g286
sg68
(lp293
g61
(g82
g63
NtRp294
(dp295
g66
(dp296
g86
g87
ssg75
g290
sg68
(lp297
S'comment'
p298
asbag61
(g82
g63
NtRp299
(dp300
g66
(dp301
g93
g94
ssg75
g290
sg68
(lp302
S':'
asbag61
(g82
g63
NtRp303
(dp304
g66
(dp305
sg75
g290
sg68
(lp306
g61
(g62
g63
NtRp307
(dp308
g66
(dp309
g74
I3
ssg75
g303
sg68
(lp310
S''
asbasbasbag61
(g77
g63
NtRp311
(dp312
g66
(dp313
sg75
g286
sg68
(lp314
g61
(g82
g63
NtRp315
(dp316
g66
(dp317
g86
g87
ssg75
g311
sg68
(lp318
S'domain'
p319
asbag61
(g82
g63
NtRp320
(dp321
g66
(dp322
g93
g94
ssg75
g311
sg68
(lp323
S':'
asbag61
(g82
g63
NtRp324
(dp325
g66
(dp326
sg75
g311
sg68
(lp327
g61
(g62
g63
NtRp328
(dp329
g66
(dp330
g74
I3
ssg75
g324
sg68
(lp331
S''
asbasbasbag61
(g77
g63
NtRp332
(dp333
g66
(dp334
sg75
g286
sg68
(lp335
g61
(g82
g63
NtRp336
(dp337
g66
(dp338
g86
g87
ssg75
g332
sg68
(lp339
S'expires'
p340
asbag61
(g82
g63
NtRp341
(dp342
g66
(dp343
g93
g94
ssg75
g332
sg68
(lp344
S':'
asbag61
(g82
g63
NtRp345
(dp346
g66
(dp347
sg75
g332
sg68
(lp348
g61
(g62
g63
NtRp349
(dp350
g66
(dp351
g74
I3
ssg75
g345
sg68
(lp352
S''
asbasbasbag61
(g77
g63
NtRp353
(dp354
g66
(dp355
sg75
g286
sg68
(lp356
g61
(g82
g63
NtRp357
(dp358
g66
(dp359
g86
g87
ssg75
g353
sg68
(lp360
S'httponly'
p361
asbag61
(g82
g63
NtRp362
(dp363
g66
(dp364
g93
g94
ssg75
g353
sg68
(lp365
S':'
asbag61
(g82
g63
NtRp366
(dp367
g66
(dp368
sg75
g353
sg68
(lp369
g61
(g62
g63
NtRp370
(dp371
g66
(dp372
g74
I3
ssg75
g366
sg68
(lp373
S''
asbasbasbag61
(g77
g63
NtRp374
(dp375
g66
(dp376
sg75
g286
sg68
(lp377
g61
(g82
g63
NtRp378
(dp379
g66
(dp380
g86
g87
ssg75
g374
sg68
(lp381
S'max-age'
p382
asbag61
(g82
g63
NtRp383
(dp384
g66
(dp385
g93
g94
ssg75
g374
sg68
(lp386
S':'
asbag61
(g82
g63
NtRp387
(dp388
g66
(dp389
sg75
g374
sg68
(lp390
g61
(g62
g63
NtRp391
(dp392
g66
(dp393
g74
I3
ssg75
g387
sg68
(lp394
S''
asbasbasbag61
(g77
g63
NtRp395
(dp396
g66
(dp397
sg75
g286
sg68
(lp398
g61
(g82
g63
NtRp399
(dp400
g66
(dp401
g86
g87
ssg75
g395
sg68
(lp402
S'path'
p403
asbag61
(g82
g63
NtRp404
(dp405
g66
(dp406
g93
g94
ssg75
g395
sg68
(lp407
S':'
asbag61
(g82
g63
NtRp408
(dp409
g66
(dp410
sg75
g395
sg68
(lp411
g61
(g62
g63
NtRp412
(dp413
g66
(dp414
g74
I3
ssg75
g408
sg68
(lp415
S''
asbasbasbag61
(g77
g63
NtRp416
(dp417
g66
(dp418
sg75
g286
sg68
(lp419
g61
(g82
g63
NtRp420
(dp421
g66
(dp422
g86
g87
ssg75
g416
sg68
(lp423
S'secure'
p424
asbag61
(g82
g63
NtRp425
(dp426
g66
(dp427
g93
g94
ssg75
g416
sg68
(lp428
S':'
asbag61
(g82
g63
NtRp429
(dp430
g66
(dp431
sg75
g416
sg68
(lp432
g61
(g62
g63
NtRp433
(dp434
g66
(dp435
g74
I3
ssg75
g429
sg68
(lp436
S''
asbasbasbag61
(g77
g63
NtRp437
(dp438
g66
(dp439
sg75
g286
sg68
(lp440
g61
(g82
g63
NtRp441
(dp442
g66
(dp443
g86
g87
ssg75
g437
sg68
(lp444
S'version'
p445
asbag61
(g82
g63
NtRp446
(dp447
g66
(dp448
g93
g94
ssg75
g437
sg68
(lp449
S':'
asbag61
(g82
g63
NtRp450
(dp451
g66
(dp452
sg75
g437
sg68
(lp453
g61
(g62
g63
NtRp454
(dp455
g66
(dp456
g74
I3
ssg75
g450
sg68
(lp457
S''
asbasbasbasbasbasbasbag61
(g77
g63
NtRp458
(dp459
g66
(dp460
sg75
g260
sg68
(lp461
g61
(g82
g63
NtRp462
(dp463
g66
(dp464
g86
g87
ssg75
g458
sg68
(lp465
S'session_id_cygnuscloud'
p466
asbag61
(g82
g63
NtRp467
(dp468
g66
(dp469
g93
g94
ssg75
g458
sg68
(lp470
S':'
asbag61
(g82
g63
NtRp471
(dp472
g66
(dp473
sg75
g458
sg68
(lp474
g61
(g62
g63
NtRp475
(dp476
g66
(dp477
g74
I4
ssg75
g471
sg68
(lp478
S'127.0.0.1-791acaf2-7386-46dc-b011-4810dc00037c'
p479
ag61
(g70
g63
NtRp480
(dp481
g66
(dp482
g74
I3
ssg75
Nsg68
(lp483
g61
(g77
g63
NtRp484
(dp485
g66
(dp486
sg75
g480
sg68
(lp487
g61
(g82
g63
NtRp488
(dp489
g66
(dp490
g86
g87
ssg75
g484
sg68
(lp491
g298
asbag61
(g82
g63
NtRp492
(dp493
g66
(dp494
g93
g94
ssg75
g484
sg68
(lp495
S':'
asbag61
(g82
g63
NtRp496
(dp497
g66
(dp498
sg75
g484
sg68
(lp499
g61
(g62
g63
NtRp500
(dp501
g66
(dp502
g74
I3
ssg75
g496
sg68
(lp503
S''
asbasbasbag61
(g77
g63
NtRp504
(dp505
g66
(dp506
sg75
g480
sg68
(lp507
g61
(g82
g63
NtRp508
(dp509
g66
(dp510
g86
g87
ssg75
g504
sg68
(lp511
g319
asbag61
(g82
g63
NtRp512
(dp513
g66
(dp514
g93
g94
ssg75
g504
sg68
(lp515
S':'
asbag61
(g82
g63
NtRp516
(dp517
g66
(dp518
sg75
g504
sg68
(lp519
g61
(g62
g63
NtRp520
(dp521
g66
(dp522
g74
I3
ssg75
g516
sg68
(lp523
S''
asbasbasbag61
(g77
g63
NtRp524
(dp525
g66
(dp526
sg75
g480
sg68
(lp527
g61
(g82
g63
NtRp528
(dp529
g66
(dp530
g86
g87
ssg75
g524
sg68
(lp531
g340
asbag61
(g82
g63
NtRp532
(dp533
g66
(dp534
g93
g94
ssg75
g524
sg68
(lp535
S':'
asbag61
(g82
g63
NtRp536
(dp537
g66
(dp538
sg75
g524
sg68
(lp539
g61
(g62
g63
NtRp540
(dp541
g66
(dp542
g74
I3
ssg75
g536
sg68
(lp543
S''
asbasbasbag61
(g77
g63
NtRp544
(dp545
g66
(dp546
sg75
g480
sg68
(lp547
g61
(g82
g63
NtRp548
(dp549
g66
(dp550
g86
g87
ssg75
g544
sg68
(lp551
g361
asbag61
(g82
g63
NtRp552
(dp553
g66
(dp554
g93
g94
ssg75
g544
sg68
(lp555
S':'
asbag61
(g82
g63
NtRp556
(dp557
g66
(dp558
sg75
g544
sg68
(lp559
g61
(g62
g63
NtRp560
(dp561
g66
(dp562
g74
I3
ssg75
g556
sg68
(lp563
S''
asbasbasbag61
(g77
g63
NtRp564
(dp565
g66
(dp566
sg75
g480
sg68
(lp567
g61
(g82
g63
NtRp568
(dp569
g66
(dp570
g86
g87
ssg75
g564
sg68
(lp571
g382
asbag61
(g82
g63
NtRp572
(dp573
g66
(dp574
g93
g94
ssg75
g564
sg68
(lp575
S':'
asbag61
(g82
g63
NtRp576
(dp577
g66
(dp578
sg75
g564
sg68
(lp579
g61
(g62
g63
NtRp580
(dp581
g66
(dp582
g74
I3
ssg75
g576
sg68
(lp583
S''
asbasbasbag61
(g77
g63
NtRp584
(dp585
g66
(dp586
sg75
g480
sg68
(lp587
g61
(g82
g63
NtRp588
(dp589
g66
(dp590
g86
g87
ssg75
g584
sg68
(lp591
g403
asbag61
(g82
g63
NtRp592
(dp593
g66
(dp594
g93
g94
ssg75
g584
sg68
(lp595
S':'
asbag61
(g82
g63
NtRp596
(dp597
g66
(dp598
sg75
g584
sg68
(lp599
g61
(g62
g63
NtRp600
(dp601
g66
(dp602
g74
I3
ssg75
g596
sg68
(lp603
S''
asbasbasbag61
(g77
g63
NtRp604
(dp605
g66
(dp606
sg75
g480
sg68
(lp607
g61
(g82
g63
NtRp608
(dp609
g66
(dp610
g86
g87
ssg75
g604
sg68
(lp611
g424
asbag61
(g82
g63
NtRp612
(dp613
g66
(dp614
g93
g94
ssg75
g604
sg68
(lp615
S':'
asbag61
(g82
g63
NtRp616
(dp617
g66
(dp618
sg75
g604
sg68
(lp619
g61
(g62
g63
NtRp620
(dp621
g66
(dp622
g74
I3
ssg75
g616
sg68
(lp623
S''
asbasbasbag61
(g77
g63
NtRp624
(dp625
g66
(dp626
sg75
g480
sg68
(lp627
g61
(g82
g63
NtRp628
(dp629
g66
(dp630
g86
g87
ssg75
g624
sg68
(lp631
g445
asbag61
(g82
g63
NtRp632
(dp633
g66
(dp634
g93
g94
ssg75
g624
sg68
(lp635
S':'
asbag61
(g82
g63
NtRp636
(dp637
g66
(dp638
sg75
g624
sg68
(lp639
g61
(g62
g63
NtRp640
(dp641
g66
(dp642
g74
I3
ssg75
g636
sg68
(lp643
S''
asbasbasbasbasbasbasbag61
(g77
g63
NtRp644
(dp645
g66
(dp646
sg75
g260
sg68
(lp647
g61
(g82
g63
NtRp648
(dp649
g66
(dp650
g86
g87
ssg75
g644
sg68
(lp651
S'session_id_images'
p652
asbag61
(g82
g63
NtRp653
(dp654
g66
(dp655
g93
g94
ssg75
g644
sg68
(lp656
S':'
asbag61
(g82
g63
NtRp657
(dp658
g66
(dp659
sg75
g644
sg68
(lp660
g61
(g62
g63
NtRp661
(dp662
g66
(dp663
g74
I4
ssg75
g657
sg68
(lp664
S'127.0.0.1-86f6c98f-4fbb-4841-b606-44c0d90442c6'
p665
ag61
(g70
g63
NtRp666
(dp667
g66
(dp668
g74
I3
ssg75
Nsg68
(lp669
g61
(g77
g63
NtRp670
(dp671
g66
(dp672
sg75
g666
sg68
(lp673
g61
(g82
g63
NtRp674
(dp675
g66
(dp676
g86
g87
ssg75
g670
sg68
(lp677
g298
asbag61
(g82
g63
NtRp678
(dp679
g66
(dp680
g93
g94
ssg75
g670
sg68
(lp681
S':'
asbag61
(g82
g63
NtRp682
(dp683
g66
(dp684
sg75
g670
sg68
(lp685
g61
(g62
g63
NtRp686
(dp687
g66
(dp688
g74
I3
ssg75
g682
sg68
(lp689
S''
asbasbasbag61
(g77
g63
NtRp690
(dp691
g66
(dp692
sg75
g666
sg68
(lp693
g61
(g82
g63
NtRp694
(dp695
g66
(dp696
g86
g87
ssg75
g690
sg68
(lp697
g319
asbag61
(g82
g63
NtRp698
(dp699
g66
(dp700
g93
g94
ssg75
g690
sg68
(lp701
S':'
asbag61
(g82
g63
NtRp702
(dp703
g66
(dp704
sg75
g690
sg68
(lp705
g61
(g62
g63
NtRp706
(dp707
g66
(dp708
g74
I3
ssg75
g702
sg68
(lp709
S''
asbasbasbag61
(g77
g63
NtRp710
(dp711
g66
(dp712
sg75
g666
sg68
(lp713
g61
(g82
g63
NtRp714
(dp715
g66
(dp716
g86
g87
ssg75
g710
sg68
(lp717
g340
asbag61
(g82
g63
NtRp718
(dp719
g66
(dp720
g93
g94
ssg75
g710
sg68
(lp721
S':'
asbag61
(g82
g63
NtRp722
(dp723
g66
(dp724
sg75
g710
sg68
(lp725
g61
(g62
g63
NtRp726
(dp727
g66
(dp728
g74
I3
ssg75
g722
sg68
(lp729
S''
asbasbasbag61
(g77
g63
NtRp730
(dp731
g66
(dp732
sg75
g666
sg68
(lp733
g61
(g82
g63
NtRp734
(dp735
g66
(dp736
g86
g87
ssg75
g730
sg68
(lp737
g361
asbag61
(g82
g63
NtRp738
(dp739
g66
(dp740
g93
g94
ssg75
g730
sg68
(lp741
S':'
asbag61
(g82
g63
NtRp742
(dp743
g66
(dp744
sg75
g730
sg68
(lp745
g61
(g62
g63
NtRp746
(dp747
g66
(dp748
g74
I3
ssg75
g742
sg68
(lp749
S''
asbasbasbag61
(g77
g63
NtRp750
(dp751
g66
(dp752
sg75
g666
sg68
(lp753
g61
(g82
g63
NtRp754
(dp755
g66
(dp756
g86
g87
ssg75
g750
sg68
(lp757
g382
asbag61
(g82
g63
NtRp758
(dp759
g66
(dp760
g93
g94
ssg75
g750
sg68
(lp761
S':'
asbag61
(g82
g63
NtRp762
(dp763
g66
(dp764
sg75
g750
sg68
(lp765
g61
(g62
g63
NtRp766
(dp767
g66
(dp768
g74
I3
ssg75
g762
sg68
(lp769
S''
asbasbasbag61
(g77
g63
NtRp770
(dp771
g66
(dp772
sg75
g666
sg68
(lp773
g61
(g82
g63
NtRp774
(dp775
g66
(dp776
g86
g87
ssg75
g770
sg68
(lp777
g403
asbag61
(g82
g63
NtRp778
(dp779
g66
(dp780
g93
g94
ssg75
g770
sg68
(lp781
S':'
asbag61
(g82
g63
NtRp782
(dp783
g66
(dp784
sg75
g770
sg68
(lp785
g61
(g62
g63
NtRp786
(dp787
g66
(dp788
g74
I3
ssg75
g782
sg68
(lp789
S''
asbasbasbag61
(g77
g63
NtRp790
(dp791
g66
(dp792
sg75
g666
sg68
(lp793
g61
(g82
g63
NtRp794
(dp795
g66
(dp796
g86
g87
ssg75
g790
sg68
(lp797
g424
asbag61
(g82
g63
NtRp798
(dp799
g66
(dp800
g93
g94
ssg75
g790
sg68
(lp801
S':'
asbag61
(g82
g63
NtRp802
(dp803
g66
(dp804
sg75
g790
sg68
(lp805
g61
(g62
g63
NtRp806
(dp807
g66
(dp808
g74
I3
ssg75
g802
sg68
(lp809
S''
asbasbasbag61
(g77
g63
NtRp810
(dp811
g66
(dp812
sg75
g666
sg68
(lp813
g61
(g82
g63
NtRp814
(dp815
g66
(dp816
g86
g87
ssg75
g810
sg68
(lp817
g445
asbag61
(g82
g63
NtRp818
(dp819
g66
(dp820
g93
g94
ssg75
g810
sg68
(lp821
S':'
asbag61
(g82
g63
NtRp822
(dp823
g66
(dp824
sg75
g810
sg68
(lp825
g61
(g62
g63
NtRp826
(dp827
g66
(dp828
g74
I3
ssg75
g822
sg68
(lp829
S''
asbasbasbasbasbasbasbag61
(g77
g63
NtRp830
(dp831
g66
(dp832
sg75
g260
sg68
(lp833
g61
(g82
g63
NtRp834
(dp835
g66
(dp836
g86
g87
ssg75
g830
sg68
(lp837
S'session_id_welcome'
p838
asbag61
(g82
g63
NtRp839
(dp840
g66
(dp841
g93
g94
ssg75
g830
sg68
(lp842
S':'
asbag61
(g82
g63
NtRp843
(dp844
g66
(dp845
sg75
g830
sg68
(lp846
g61
(g62
g63
NtRp847
(dp848
g66
(dp849
g74
I4
ssg75
g843
sg68
(lp850
S'127.0.0.1-ed3399df-33a9-4506-9f65-53bddd2578f7'
p851
ag61
(g70
g63
NtRp852
(dp853
g66
(dp854
g74
I3
ssg75
Nsg68
(lp855
g61
(g77
g63
NtRp856
(dp857
g66
(dp858
sg75
g852
sg68
(lp859
g61
(g82
g63
NtRp860
(dp861
g66
(dp862
g86
g87
ssg75
g856
sg68
(lp863
g298
asbag61
(g82
g63
NtRp864
(dp865
g66
(dp866
g93
g94
ssg75
g856
sg68
(lp867
S':'
asbag61
(g82
g63
NtRp868
(dp869
g66
(dp870
sg75
g856
sg68
(lp871
g61
(g62
g63
NtRp872
(dp873
g66
(dp874
g74
I3
ssg75
g868
sg68
(lp875
S''
asbasbasbag61
(g77
g63
NtRp876
(dp877
g66
(dp878
sg75
g852
sg68
(lp879
g61
(g82
g63
NtRp880
(dp881
g66
(dp882
g86
g87
ssg75
g876
sg68
(lp883
g319
asbag61
(g82
g63
NtRp884
(dp885
g66
(dp886
g93
g94
ssg75
g876
sg68
(lp887
S':'
asbag61
(g82
g63
NtRp888
(dp889
g66
(dp890
sg75
g876
sg68
(lp891
g61
(g62
g63
NtRp892
(dp893
g66
(dp894
g74
I3
ssg75
g888
sg68
(lp895
S''
asbasbasbag61
(g77
g63
NtRp896
(dp897
g66
(dp898
sg75
g852
sg68
(lp899
g61
(g82
g63
NtRp900
(dp901
g66
(dp902
g86
g87
ssg75
g896
sg68
(lp903
g340
asbag61
(g82
g63
NtRp904
(dp905
g66
(dp906
g93
g94
ssg75
g896
sg68
(lp907
S':'
asbag61
(g82
g63
NtRp908
(dp909
g66
(dp910
sg75
g896
sg68
(lp911
g61
(g62
g63
NtRp912
(dp913
g66
(dp914
g74
I3
ssg75
g908
sg68
(lp915
S''
asbasbasbag61
(g77
g63
NtRp916
(dp917
g66
(dp918
sg75
g852
sg68
(lp919
g61
(g82
g63
NtRp920
(dp921
g66
(dp922
g86
g87
ssg75
g916
sg68
(lp923
g361
asbag61
(g82
g63
NtRp924
(dp925
g66
(dp926
g93
g94
ssg75
g916
sg68
(lp927
S':'
asbag61
(g82
g63
NtRp928
(dp929
g66
(dp930
sg75
g916
sg68
(lp931
g61
(g62
g63
NtRp932
(dp933
g66
(dp934
g74
I3
ssg75
g928
sg68
(lp935
S''
asbasbasbag61
(g77
g63
NtRp936
(dp937
g66
(dp938
sg75
g852
sg68
(lp939
g61
(g82
g63
NtRp940
(dp941
g66
(dp942
g86
g87
ssg75
g936
sg68
(lp943
g382
asbag61
(g82
g63
NtRp944
(dp945
g66
(dp946
g93
g94
ssg75
g936
sg68
(lp947
S':'
asbag61
(g82
g63
NtRp948
(dp949
g66
(dp950
sg75
g936
sg68
(lp951
g61
(g62
g63
NtRp952
(dp953
g66
(dp954
g74
I3
ssg75
g948
sg68
(lp955
S''
asbasbasbag61
(g77
g63
NtRp956
(dp957
g66
(dp958
sg75
g852
sg68
(lp959
g61
(g82
g63
NtRp960
(dp961
g66
(dp962
g86
g87
ssg75
g956
sg68
(lp963
g403
asbag61
(g82
g63
NtRp964
(dp965
g66
(dp966
g93
g94
ssg75
g956
sg68
(lp967
S':'
asbag61
(g82
g63
NtRp968
(dp969
g66
(dp970
sg75
g956
sg68
(lp971
g61
(g62
g63
NtRp972
(dp973
g66
(dp974
g74
I3
ssg75
g968
sg68
(lp975
S''
asbasbasbag61
(g77
g63
NtRp976
(dp977
g66
(dp978
sg75
g852
sg68
(lp979
g61
(g82
g63
NtRp980
(dp981
g66
(dp982
g86
g87
ssg75
g976
sg68
(lp983
g424
asbag61
(g82
g63
NtRp984
(dp985
g66
(dp986
g93
g94
ssg75
g976
sg68
(lp987
S':'
asbag61
(g82
g63
NtRp988
(dp989
g66
(dp990
sg75
g976
sg68
(lp991
g61
(g62
g63
NtRp992
(dp993
g66
(dp994
g74
I3
ssg75
g988
sg68
(lp995
S''
asbasbasbag61
(g77
g63
NtRp996
(dp997
g66
(dp998
sg75
g852
sg68
(lp999
g61
(g82
g63
NtRp1000
(dp1001
g66
(dp1002
g86
g87
ssg75
g996
sg68
(lp1003
g445
asbag61
(g82
g63
NtRp1004
(dp1005
g66
(dp1006
g93
g94
ssg75
g996
sg68
(lp1007
S':'
asbag61
(g82
g63
NtRp1008
(dp1009
g66
(dp1010
sg75
g996
sg68
(lp1011
g61
(g62
g63
NtRp1012
(dp1013
g66
(dp1014
g74
I3
ssg75
g1008
sg68
(lp1015
S''
asbasbasbasbasbasbasbasbasbasbasbag61
(g77
g63
NtRp1016
(dp1017
g66
(dp1018
sg75
g71
sg68
(lp1019
g61
(g82
g63
NtRp1020
(dp1021
g66
(dp1022
g86
g87
ssg75
g1016
sg68
(lp1023
S'env'
p1024
asbag61
(g82
g63
NtRp1025
(dp1026
g66
(dp1027
g93
g94
ssg75
g1016
sg68
(lp1028
S':'
asbag61
(g82
g63
NtRp1029
(dp1030
g66
(dp1031
sg75
g1016
sg68
(lp1032
g61
(g62
g63
NtRp1033
(dp1034
g66
(dp1035
g74
I5
ssg75
g1029
sg68
(lp1036
g61
(g70
g63
NtRp1037
(dp1038
g66
(dp1039
g74
I4
ssg75
Nsg68
(lp1040
g61
(g77
g63
NtRp1041
(dp1042
g66
(dp1043
sg75
g1037
sg68
(lp1044
g61
(g82
g63
NtRp1045
(dp1046
g66
(dp1047
g86
g87
ssg75
g1041
sg68
(lp1048
S'app_folders'
p1049
asbag61
(g82
g63
NtRp1050
(dp1051
g66
(dp1052
g93
g94
ssg75
g1041
sg68
(lp1053
S':'
asbag61
(g82
g63
NtRp1054
(dp1055
g66
(dp1056
sg75
g1041
sg68
(lp1057
g61
(g62
g63
NtRp1058
(dp1059
g66
(dp1060
g74
I4
ssg75
g1054
sg68
(lp1061
S"set(['/home/adrian/web2py/applications/admin/', '/home/adrian/web2py/applications/welcome/', '/home/adrian/web2py/applications/CygnusCloud/'])"
p1062
asbasbasbag61
(g77
g63
NtRp1063
(dp1064
g66
(dp1065
sg75
g1037
sg68
(lp1066
g61
(g82
g63
NtRp1067
(dp1068
g66
(dp1069
g86
g87
ssg75
g1063
sg68
(lp1070
S'applications_parent'
p1071
asbag61
(g82
g63
NtRp1072
(dp1073
g66
(dp1074
g93
g94
ssg75
g1063
sg68
(lp1075
S':'
asbag61
(g82
g63
NtRp1076
(dp1077
g66
(dp1078
sg75
g1063
sg68
(lp1079
g61
(g62
g63
NtRp1080
(dp1081
g66
(dp1082
g74
I4
ssg75
g1076
sg68
(lp1083
S'/home/adrian/web2py'
p1084
asbasbasbag61
(g77
g63
NtRp1085
(dp1086
g66
(dp1087
sg75
g1037
sg68
(lp1088
g61
(g82
g63
NtRp1089
(dp1090
g66
(dp1091
g86
g87
ssg75
g1085
sg68
(lp1092
S'cmd_args'
p1093
asbag61
(g82
g63
NtRp1094
(dp1095
g66
(dp1096
g93
g94
ssg75
g1085
sg68
(lp1097
S':'
asbag61
(g82
g63
NtRp1098
(dp1099
g66
(dp1100
sg75
g1085
sg68
(lp1101
g61
(g62
g63
NtRp1102
(dp1103
g66
(dp1104
g74
I4
ssg75
g1098
sg68
(lp1105
g61
(g70
g63
NtRp1106
(dp1107
g66
(dp1108
g74
I3
ssg75
Nsg68
(lp1109
sbasbasbasbag61
(g77
g63
NtRp1110
(dp1111
g66
(dp1112
sg75
g1037
sg68
(lp1113
g61
(g82
g63
NtRp1114
(dp1115
g66
(dp1116
g86
g87
ssg75
g1110
sg68
(lp1117
S'cmd_options'
p1118
asbag61
(g82
g63
NtRp1119
(dp1120
g66
(dp1121
g93
g94
ssg75
g1110
sg68
(lp1122
S':'
asbag61
(g82
g63
NtRp1123
(dp1124
g66
(dp1125
sg75
g1110
sg68
(lp1126
g61
(g62
g63
NtRp1127
(dp1128
g66
(dp1129
g74
I4
ssg75
g1123
sg68
(lp1130
S"<Values at 0x172fbd8: {'verbose': False, 'ip': '127.0.0.1', 'with_scheduler': False, 'ips': [], 'shutdown_timeout': 5, 'taskbar': False, 'port': 8000, 'maxthreads': None, 'softcron': False, 'server_name': 'adri-EasyNote', 'bpython': False, 'nogui': False, 'pid_filename': 'httpserver.pid', 'extcron': False, 'runcron': False, 'run_system_tests': False, 'test': None, 'folder': '/home/adrian/web2py', 'config': '', 'minthreads': None, 'winservice': '', 'shell': None, 'run': '', 'log_filename': 'httpserver.log', 'debuglevel': 30, 'args': [''], 'socket_timeout': 5, 'ssl_ca_certificate': None, 'scheduler': None, 'profiler_filename': None, 'ssl_private_key': '', 'scheduler_groups': None, 'password': 'cygnuscloud2012', 'request_queue_size': 5, 'ssl_certificate': '', 'cronjob': False, 'numthreads': None, 'quiet': False, 'interfaces': None, 'import_models': False, 'timeout': 10, 'plain': False, 'nobanner': False}>"
p1131
asbasbasbag61
(g77
g63
NtRp1132
(dp1133
g66
(dp1134
sg75
g1037
sg68
(lp1135
g61
(g82
g63
NtRp1136
(dp1137
g66
(dp1138
g86
g87
ssg75
g1132
sg68
(lp1139
S'db_sessions'
p1140
asbag61
(g82
g63
NtRp1141
(dp1142
g66
(dp1143
g93
g94
ssg75
g1132
sg68
(lp1144
S':'
asbag61
(g82
g63
NtRp1145
(dp1146
g66
(dp1147
sg75
g1132
sg68
(lp1148
g61
(g62
g63
NtRp1149
(dp1150
g66
(dp1151
g74
I4
ssg75
g1145
sg68
(lp1152
S'set([])'
p1153
asbasbasbag61
(g77
g63
NtRp1154
(dp1155
g66
(dp1156
sg75
g1037
sg68
(lp1157
g61
(g82
g63
NtRp1158
(dp1159
g66
(dp1160
g86
g87
ssg75
g1154
sg68
(lp1161
S'debugging'
p1162
asbag61
(g82
g63
NtRp1163
(dp1164
g66
(dp1165
g93
g94
ssg75
g1154
sg68
(lp1166
S':'
asbag61
(g82
g63
NtRp1167
(dp1168
g66
(dp1169
sg75
g1154
sg68
(lp1170
g61
(g62
g63
NtRp1171
(dp1172
g66
(dp1173
g74
I4
ssg75
g1167
sg68
(lp1174
g104
asbasbasbag61
(g77
g63
NtRp1175
(dp1176
g66
(dp1177
sg75
g1037
sg68
(lp1178
g61
(g82
g63
NtRp1179
(dp1180
g66
(dp1181
g86
g87
ssg75
g1175
sg68
(lp1182
S'gluon_parent'
p1183
asbag61
(g82
g63
NtRp1184
(dp1185
g66
(dp1186
g93
g94
ssg75
g1175
sg68
(lp1187
S':'
asbag61
(g82
g63
NtRp1188
(dp1189
g66
(dp1190
sg75
g1175
sg68
(lp1191
g61
(g62
g63
NtRp1192
(dp1193
g66
(dp1194
g74
I4
ssg75
g1188
sg68
(lp1195
S'/home/adrian/web2py'
p1196
asbasbasbag61
(g77
g63
NtRp1197
(dp1198
g66
(dp1199
sg75
g1037
sg68
(lp1200
g61
(g82
g63
NtRp1201
(dp1202
g66
(dp1203
g86
g87
ssg75
g1197
sg68
(lp1204
S'http_accept'
p1205
asbag61
(g82
g63
NtRp1206
(dp1207
g66
(dp1208
g93
g94
ssg75
g1197
sg68
(lp1209
S':'
asbag61
(g82
g63
NtRp1210
(dp1211
g66
(dp1212
sg75
g1197
sg68
(lp1213
g61
(g62
g63
NtRp1214
(dp1215
g66
(dp1216
g74
I4
ssg75
g1210
sg68
(lp1217
S'text/html,application/xhtml+xml,application/xml;q=0.9,*/*;q=0.8'
p1218
asbasbasbag61
(g77
g63
NtRp1219
(dp1220
g66
(dp1221
sg75
g1037
sg68
(lp1222
g61
(g82
g63
NtRp1223
(dp1224
g66
(dp1225
g86
g87
ssg75
g1219
sg68
(lp1226
S'http_accept_charset'
p1227
asbag61
(g82
g63
NtRp1228
(dp1229
g66
(dp1230
g93
g94
ssg75
g1219
sg68
(lp1231
S':'
asbag61
(g82
g63
NtRp1232
(dp1233
g66
(dp1234
sg75
g1219
sg68
(lp1235
g61
(g62
g63
NtRp1236
(dp1237
g66
(dp1238
g74
I4
ssg75
g1232
sg68
(lp1239
S'ISO-8859-1,utf-8;q=0.7,*;q=0.3'
p1240
asbasbasbag61
(g77
g63
NtRp1241
(dp1242
g66
(dp1243
sg75
g1037
sg68
(lp1244
g61
(g82
g63
NtRp1245
(dp1246
g66
(dp1247
g86
g87
ssg75
g1241
sg68
(lp1248
S'http_accept_encoding'
p1249
asbag61
(g82
g63
NtRp1250
(dp1251
g66
(dp1252
g93
g94
ssg75
g1241
sg68
(lp1253
S':'
asbag61
(g82
g63
NtRp1254
(dp1255
g66
(dp1256
sg75
g1241
sg68
(lp1257
g61
(g62
g63
NtRp1258
(dp1259
g66
(dp1260
g74
I4
ssg75
g1254
sg68
(lp1261
S'gzip,deflate,sdch'
p1262
asbasbasbag61
(g77
g63
NtRp1263
(dp1264
g66
(dp1265
sg75
g1037
sg68
(lp1266
g61
(g82
g63
NtRp1267
(dp1268
g66
(dp1269
g86
g87
ssg75
g1263
sg68
(lp1270
S'http_accept_language'
p1271
asbag61
(g82
g63
NtRp1272
(dp1273
g66
(dp1274
g93
g94
ssg75
g1263
sg68
(lp1275
S':'
asbag61
(g82
g63
NtRp1276
(dp1277
g66
(dp1278
sg75
g1263
sg68
(lp1279
g61
(g62
g63
NtRp1280
(dp1281
g66
(dp1282
g74
I4
ssg75
g1276
sg68
(lp1283
S'es-ES,es;q=0.8'
p1284
asbasbasbag61
(g77
g63
NtRp1285
(dp1286
g66
(dp1287
sg75
g1037
sg68
(lp1288
g61
(g82
g63
NtRp1289
(dp1290
g66
(dp1291
g86
g87
ssg75
g1285
sg68
(lp1292
S'http_connection'
p1293
asbag61
(g82
g63
NtRp1294
(dp1295
g66
(dp1296
g93
g94
ssg75
g1285
sg68
(lp1297
S':'
asbag61
(g82
g63
NtRp1298
(dp1299
g66
(dp1300
sg75
g1285
sg68
(lp1301
g61
(g62
g63
NtRp1302
(dp1303
g66
(dp1304
g74
I4
ssg75
g1298
sg68
(lp1305
S'keep-alive'
p1306
asbasbasbag61
(g77
g63
NtRp1307
(dp1308
g66
(dp1309
sg75
g1037
sg68
(lp1310
g61
(g82
g63
NtRp1311
(dp1312
g66
(dp1313
g86
g87
ssg75
g1307
sg68
(lp1314
S'http_cookie'
p1315
asbag61
(g82
g63
NtRp1316
(dp1317
g66
(dp1318
g93
g94
ssg75
g1307
sg68
(lp1319
S':'
asbag61
(g82
g63
NtRp1320
(dp1321
g66
(dp1322
sg75
g1307
sg68
(lp1323
g61
(g62
g63
NtRp1324
(dp1325
g66
(dp1326
g74
I4
ssg75
g1320
sg68
(lp1327
S'session_id_cygnuscloud=127.0.0.1-791acaf2-7386-46dc-b011-4810dc00037c; session_id_images=127.0.0.1-86f6c98f-4fbb-4841-b606-44c0d90442c6; session_id_welcome=127.0.0.1-ed3399df-33a9-4506-9f65-53bddd2578f7; session_id_admin=127.0.0.1-55f52477-473c-42b8-b923-a29e2f1fa64b'
p1328
asbasbasbag61
(g77
g63
NtRp1329
(dp1330
g66
(dp1331
sg75
g1037
sg68
(lp1332
g61
(g82
g63
NtRp1333
(dp1334
g66
(dp1335
g86
g87
ssg75
g1329
sg68
(lp1336
S'http_host'
p1337
asbag61
(g82
g63
NtRp1338
(dp1339
g66
(dp1340
g93
g94
ssg75
g1329
sg68
(lp1341
S':'
asbag61
(g82
g63
NtRp1342
(dp1343
g66
(dp1344
sg75
g1329
sg68
(lp1345
g61
(g62
g63
NtRp1346
(dp1347
g66
(dp1348
g74
I4
ssg75
g1342
sg68
(lp1349
S'127.0.0.1:8000'
p1350
asbasbasbag61
(g77
g63
NtRp1351
(dp1352
g66
(dp1353
sg75
g1037
sg68
(lp1354
g61
(g82
g63
NtRp1355
(dp1356
g66
(dp1357
g86
g87
ssg75
g1351
sg68
(lp1358
S'http_user_agent'
p1359
asbag61
(g82
g63
NtRp1360
(dp1361
g66
(dp1362
g93
g94
ssg75
g1351
sg68
(lp1363
S':'
asbag61
(g82
g63
NtRp1364
(dp1365
g66
(dp1366
sg75
g1351
sg68
(lp1367
g61
(g62
g63
NtRp1368
(dp1369
g66
(dp1370
g74
I4
ssg75
g1364
sg68
(lp1371
S'Mozilla/5.0 (X11; Linux x86_64) AppleWebKit/537.11 (KHTML, like Gecko) Chrome/23.0.1271.64 Safari/537.11'
p1372
asbasbasbag61
(g77
g63
NtRp1373
(dp1374
g66
(dp1375
sg75
g1037
sg68
(lp1376
g61
(g82
g63
NtRp1377
(dp1378
g66
(dp1379
g86
g87
ssg75
g1373
sg68
(lp1380
S'is_jython'
p1381
asbag61
(g82
g63
NtRp1382
(dp1383
g66
(dp1384
g93
g94
ssg75
g1373
sg68
(lp1385
S':'
asbag61
(g82
g63
NtRp1386
(dp1387
g66
(dp1388
sg75
g1373
sg68
(lp1389
g61
(g62
g63
NtRp1390
(dp1391
g66
(dp1392
g74
I4
ssg75
g1386
sg68
(lp1393
g104
asbasbasbag61
(g77
g63
NtRp1394
(dp1395
g66
(dp1396
sg75
g1037
sg68
(lp1397
g61
(g82
g63
NtRp1398
(dp1399
g66
(dp1400
g86
g87
ssg75
g1394
sg68
(lp1401
S'is_pypy'
p1402
asbag61
(g82
g63
NtRp1403
(dp1404
g66
(dp1405
g93
g94
ssg75
g1394
sg68
(lp1406
S':'
asbag61
(g82
g63
NtRp1407
(dp1408
g66
(dp1409
sg75
g1394
sg68
(lp1410
g61
(g62
g63
NtRp1411
(dp1412
g66
(dp1413
g74
I4
ssg75
g1407
sg68
(lp1414
g104
asbasbasbag61
(g77
g63
NtRp1415
(dp1416
g66
(dp1417
sg75
g1037
sg68
(lp1418
g61
(g82
g63
NtRp1419
(dp1420
g66
(dp1421
g86
g87
ssg75
g1415
sg68
(lp1422
S'local_hosts'
p1423
asbag61
(g82
g63
NtRp1424
(dp1425
g66
(dp1426
g93
g94
ssg75
g1415
sg68
(lp1427
S':'
asbag61
(g82
g63
NtRp1428
(dp1429
g66
(dp1430
sg75
g1415
sg68
(lp1431
g61
(g62
g63
NtRp1432
(dp1433
g66
(dp1434
g74
I4
ssg75
g1428
sg68
(lp1435
g61
(g70
g63
NtRp1436
(dp1437
g66
(dp1438
g74
I3
ssg75
Nsg68
(lp1439
g61
(g77
g63
NtRp1440
(dp1441
g66
(dp1442
sg75
g1436
sg68
(lp1443
g61
(g82
g63
NtRp1444
(dp1445
g66
(dp1446
sg75
g1440
sg68
(lp1447
g61
(g62
g63
NtRp1448
(dp1449
g66
(dp1450
g74
I3
ssg75
g1444
sg68
(lp1451
S'adri-EasyNote'
p1452
asbasbasbag61
(g77
g63
NtRp1453
(dp1454
g66
(dp1455
sg75
g1436
sg68
(lp1456
g61
(g82
g63
NtRp1457
(dp1458
g66
(dp1459
sg75
g1453
sg68
(lp1460
g61
(g62
g63
NtRp1461
(dp1462
g66
(dp1463
g74
I3
ssg75
g1457
sg68
(lp1464
S'::1'
p1465
asbasbasbag61
(g77
g63
NtRp1466
(dp1467
g66
(dp1468
sg75
g1436
sg68
(lp1469
g61
(g82
g63
NtRp1470
(dp1471
g66
(dp1472
sg75
g1466
sg68
(lp1473
g61
(g62
g63
NtRp1474
(dp1475
g66
(dp1476
g74
I3
ssg75
g1470
sg68
(lp1477
S'127.0.1.1'
p1478
asbasbasbag61
(g77
g63
NtRp1479
(dp1480
g66
(dp1481
sg75
g1436
sg68
(lp1482
g61
(g82
g63
NtRp1483
(dp1484
g66
(dp1485
sg75
g1479
sg68
(lp1486
g61
(g62
g63
NtRp1487
(dp1488
g66
(dp1489
g74
I3
ssg75
g1483
sg68
(lp1490
S'::ffff:127.0.0.1'
p1491
asbasbasbag61
(g77
g63
NtRp1492
(dp1493
g66
(dp1494
sg75
g1436
sg68
(lp1495
g61
(g82
g63
NtRp1496
(dp1497
g66
(dp1498
sg75
g1492
sg68
(lp1499
g61
(g62
g63
NtRp1500
(dp1501
g66
(dp1502
g74
I3
ssg75
g1496
sg68
(lp1503
S'127.0.0.1'
p1504
asbasbasbasbasbasbasbag61
(g77
g63
NtRp1505
(dp1506
g66
(dp1507
sg75
g1037
sg68
(lp1508
g61
(g82
g63
NtRp1509
(dp1510
g66
(dp1511
g86
g87
ssg75
g1505
sg68
(lp1512
S'path_info'
p1513
asbag61
(g82
g63
NtRp1514
(dp1515
g66
(dp1516
g93
g94
ssg75
g1505
sg68
(lp1517
S':'
asbag61
(g82
g63
NtRp1518
(dp1519
g66
(dp1520
sg75
g1505
sg68
(lp1521
g61
(g62
g63
NtRp1522
(dp1523
g66
(dp1524
g74
I4
ssg75
g1518
sg68
(lp1525
S'/CygnusCloud/main/login'
p1526
asbasbasbag61
(g77
g63
NtRp1527
(dp1528
g66
(dp1529
sg75
g1037
sg68
(lp1530
g61
(g82
g63
NtRp1531
(dp1532
g66
(dp1533
g86
g87
ssg75
g1527
sg68
(lp1534
S'query_string'
p1535
asbag61
(g82
g63
NtRp1536
(dp1537
g66
(dp1538
g93
g94
ssg75
g1527
sg68
(lp1539
S':'
asbag61
(g82
g63
NtRp1540
(dp1541
g66
(dp1542
sg75
g1527
sg68
(lp1543
g61
(g62
g63
NtRp1544
(dp1545
g66
(dp1546
g74
I4
ssg75
g1540
sg68
(lp1547
S''
asbasbasbag61
(g77
g63
NtRp1548
(dp1549
g66
(dp1550
sg75
g1037
sg68
(lp1551
g61
(g82
g63
NtRp1552
(dp1553
g66
(dp1554
g86
g87
ssg75
g1548
sg68
(lp1555
S'remote_addr'
p1556
asbag61
(g82
g63
NtRp1557
(dp1558
g66
(dp1559
g93
g94
ssg75
g1548
sg68
(lp1560
S':'
asbag61
(g82
g63
NtRp1561
(dp1562
g66
(dp1563
sg75
g1548
sg68
(lp1564
g61
(g62
g63
NtRp1565
(dp1566
g66
(dp1567
g74
I4
ssg75
g1561
sg68
(lp1568
g216
asbasbasbag61
(g77
g63
NtRp1569
(dp1570
g66
(dp1571
sg75
g1037
sg68
(lp1572
g61
(g82
g63
NtRp1573
(dp1574
g66
(dp1575
g86
g87
ssg75
g1569
sg68
(lp1576
S'remote_port'
p1577
asbag61
(g82
g63
NtRp1578
(dp1579
g66
(dp1580
g93
g94
ssg75
g1569
sg68
(lp1581
S':'
asbag61
(g82
g63
NtRp1582
(dp1583
g66
(dp1584
sg75
g1569
sg68
(lp1585
g61
(g62
g63
NtRp1586
(dp1587
g66
(dp1588
g74
I4
ssg75
g1582
sg68
(lp1589
S'44954'
p1590
asbasbasbag61
(g77
g63
NtRp1591
(dp1592
g66
(dp1593
sg75
g1037
sg68
(lp1594
g61
(g82
g63
NtRp1595
(dp1596
g66
(dp1597
g86
g87
ssg75
g1591
sg68
(lp1598
S'request_method'
p1599
asbag61
(g82
g63
NtRp1600
(dp1601
g66
(dp1602
g93
g94
ssg75
g1591
sg68
(lp1603
S':'
asbag61
(g82
g63
NtRp1604
(dp1605
g66
(dp1606
sg75
g1591
sg68
(lp1607
g61
(g62
g63
NtRp1608
(dp1609
g66
(dp1610
g74
I4
ssg75
g1604
sg68
(lp1611
S'GET'
p1612
asbasbasbag61
(g77
g63
NtRp1613
(dp1614
g66
(dp1615
sg75
g1037
sg68
(lp1616
g61
(g82
g63
NtRp1617
(dp1618
g66
(dp1619
g86
g87
ssg75
g1613
sg68
(lp1620
S'request_uri'
p1621
asbag61
(g82
g63
NtRp1622
(dp1623
g66
(dp1624
g93
g94
ssg75
g1613
sg68
(lp1625
S':'
asbag61
(g82
g63
NtRp1626
(dp1627
g66
(dp1628
sg75
g1613
sg68
(lp1629
g61
(g62
g63
NtRp1630
(dp1631
g66
(dp1632
g74
I4
ssg75
g1626
sg68
(lp1633
g1526
asbasbasbag61
(g77
g63
NtRp1634
(dp1635
g66
(dp1636
sg75
g1037
sg68
(lp1637
g61
(g82
g63
NtRp1638
(dp1639
g66
(dp1640
g86
g87
ssg75
g1634
sg68
(lp1641
S'script_name'
p1642
asbag61
(g82
g63
NtRp1643
(dp1644
g66
(dp1645
g93
g94
ssg75
g1634
sg68
(lp1646
S':'
asbag61
(g82
g63
NtRp1647
(dp1648
g66
(dp1649
sg75
g1634
sg68
(lp1650
g61
(g62
g63
NtRp1651
(dp1652
g66
(dp1653
g74
I4
ssg75
g1647
sg68
(lp1654
S''
asbasbasbag61
(g77
g63
NtRp1655
(dp1656
g66
(dp1657
sg75
g1037
sg68
(lp1658
g61
(g82
g63
NtRp1659
(dp1660
g66
(dp1661
g86
g87
ssg75
g1655
sg68
(lp1662
S'server_name'
p1663
asbag61
(g82
g63
NtRp1664
(dp1665
g66
(dp1666
g93
g94
ssg75
g1655
sg68
(lp1667
S':'
asbag61
(g82
g63
NtRp1668
(dp1669
g66
(dp1670
sg75
g1655
sg68
(lp1671
g61
(g62
g63
NtRp1672
(dp1673
g66
(dp1674
g74
I4
ssg75
g1668
sg68
(lp1675
S'adri-EasyNote'
p1676
asbasbasbag61
(g77
g63
NtRp1677
(dp1678
g66
(dp1679
sg75
g1037
sg68
(lp1680
g61
(g82
g63
NtRp1681
(dp1682
g66
(dp1683
g86
g87
ssg75
g1677
sg68
(lp1684
S'server_port'
p1685
asbag61
(g82
g63
NtRp1686
(dp1687
g66
(dp1688
g93
g94
ssg75
g1677
sg68
(lp1689
S':'
asbag61
(g82
g63
NtRp1690
(dp1691
g66
(dp1692
sg75
g1677
sg68
(lp1693
g61
(g62
g63
NtRp1694
(dp1695
g66
(dp1696
g74
I4
ssg75
g1690
sg68
(lp1697
S'8000'
p1698
asbasbasbag61
(g77
g63
NtRp1699
(dp1700
g66
(dp1701
sg75
g1037
sg68
(lp1702
g61
(g82
g63
NtRp1703
(dp1704
g66
(dp1705
g86
g87
ssg75
g1699
sg68
(lp1706
S'server_protocol'
p1707
asbag61
(g82
g63
NtRp1708
(dp1709
g66
(dp1710
g93
g94
ssg75
g1699
sg68
(lp1711
S':'
asbag61
(g82
g63
NtRp1712
(dp1713
g66
(dp1714
sg75
g1699
sg68
(lp1715
g61
(g62
g63
NtRp1716
(dp1717
g66
(dp1718
g74
I4
ssg75
g1712
sg68
(lp1719
S'HTTP/1.1'
p1720
asbasbasbag61
(g77
g63
NtRp1721
(dp1722
g66
(dp1723
sg75
g1037
sg68
(lp1724
g61
(g82
g63
NtRp1725
(dp1726
g66
(dp1727
g86
g87
ssg75
g1721
sg68
(lp1728
S'server_software'
p1729
asbag61
(g82
g63
NtRp1730
(dp1731
g66
(dp1732
g93
g94
ssg75
g1721
sg68
(lp1733
S':'
asbag61
(g82
g63
NtRp1734
(dp1735
g66
(dp1736
sg75
g1721
sg68
(lp1737
g61
(g62
g63
NtRp1738
(dp1739
g66
(dp1740
g74
I4
ssg75
g1734
sg68
(lp1741
S'Rocket 1.2.6'
p1742
asbasbasbag61
(g77
g63
NtRp1743
(dp1744
g66
(dp1745
sg75
g1037
sg68
(lp1746
g61
(g82
g63
NtRp1747
(dp1748
g66
(dp1749
g86
g87
ssg75
g1743
sg68
(lp1750
S'web2py_path'
p1751
asbag61
(g82
g63
NtRp1752
(dp1753
g66
(dp1754
g93
g94
ssg75
g1743
sg68
(lp1755
S':'
asbag61
(g82
g63
NtRp1756
(dp1757
g66
(dp1758
sg75
g1743
sg68
(lp1759
g61
(g62
g63
NtRp1760
(dp1761
g66
(dp1762
g74
I4
ssg75
g1756
sg68
(lp1763
g1084
asbasbasbag61
(g77
g63
NtRp1764
(dp1765
g66
(dp1766
sg75
g1037
sg68
(lp1767
g61
(g82
g63
NtRp1768
(dp1769
g66
(dp1770
g86
g87
ssg75
g1764
sg68
(lp1771
S'web2py_version'
p1772
asbag61
(g82
g63
NtRp1773
(dp1774
g66
(dp1775
g93
g94
ssg75
g1764
sg68
(lp1776
S':'
asbag61
(g82
g63
NtRp1777
(dp1778
g66
(dp1779
sg75
g1764
sg68
(lp1780
g61
(g62
g63
NtRp1781
(dp1782
g66
(dp1783
g74
I4
ssg75
g1777
sg68
(lp1784
g61
(g70
g63
NtRp1785
(dp1786
g66
(dp1787
g74
I3
ssg75
Nsg68
(lp1788
g61
(g77
g63
NtRp1789
(dp1790
g66
(dp1791
sg75
g1785
sg68
(lp1792
g61
(g82
g63
NtRp1793
(dp1794
g66
(dp1795
sg75
g1789
sg68
(lp1796
g61
(g62
g63
NtRp1797
(dp1798
g66
(dp1799
g74
I3
ssg75
g1793
sg68
(lp1800
S'2'
asbasbasbag61
(g77
g63
NtRp1801
(dp1802
g66
(dp1803
sg75
g1785
sg68
(lp1804
g61
(g82
g63
NtRp1805
(dp1806
g66
(dp1807
sg75
g1801
sg68
(lp1808
g61
(g62
g63
NtRp1809
(dp1810
g66
(dp1811
g74
I3
ssg75
g1805
sg68
(lp1812
S'3'
asbasbasbag61
(g77
g63
NtRp1813
(dp1814
g66
(dp1815
sg75
g1785
sg68
(lp1816
g61
(g82
g63
NtRp1817
(dp1818
g66
(dp1819
sg75
g1813
sg68
(lp1820
g61
(g62
g63
NtRp1821
(dp1822
g66
(dp1823
g74
I3
ssg75
g1817
sg68
(lp1824
S'2'
asbasbasbag61
(g77
g63
NtRp1825
(dp1826
g66
(dp1827
sg75
g1785
sg68
(lp1828
g61
(g82
g63
NtRp1829
(dp1830
g66
(dp1831
sg75
g1825
sg68
(lp1832
g61
(g62
g63
NtRp1833
(dp1834
g66
(dp1835
g74
I3
ssg75
g1829
sg68
(lp1836
S'datetime.datetime(2012, 12, 17, 15, 3, 30)'
p1837
asbasbasbag61
(g77
g63
NtRp1838
(dp1839
g66
(dp1840
sg75
g1785
sg68
(lp1841
g61
(g82
g63
NtRp1842
(dp1843
g66
(dp1844
sg75
g1838
sg68
(lp1845
g61
(g62
g63
NtRp1846
(dp1847
g66
(dp1848
g74
I3
ssg75
g1842
sg68
(lp1849
S'stable'
p1850
asbasbasbasbasbasbasbag61
(g77
g63
NtRp1851
(dp1852
g66
(dp1853
sg75
g1037
sg68
(lp1854
g61
(g82
g63
NtRp1855
(dp1856
g66
(dp1857
g86
g87
ssg75
g1851
sg68
(lp1858
S'wsgi_errors'
p1859
asbag61
(g82
g63
NtRp1860
(dp1861
g66
(dp1862
g93
g94
ssg75
g1851
sg68
(lp1863
S':'
asbag61
(g82
g63
NtRp1864
(dp1865
g66
(dp1866
sg75
g1851
sg68
(lp1867
g61
(g62
g63
NtRp1868
(dp1869
g66
(dp1870
g74
I4
ssg75
g1864
sg68
(lp1871
S"<open file '<stderr>', mode 'w' at 0x7f239539e270>"
p1872
asbasbasbag61
(g77
g63
NtRp1873
(dp1874
g66
(dp1875
sg75
g1037
sg68
(lp1876
g61
(g82
g63
NtRp1877
(dp1878
g66
(dp1879
g86
g87
ssg75
g1873
sg68
(lp1880
S'wsgi_file_wrapper'
p1881
asbag61
(g82
g63
NtRp1882
(dp1883
g66
(dp1884
g93
g94
ssg75
g1873
sg68
(lp1885
S':'
asbag61
(g82
g63
NtRp1886
(dp1887
g66
(dp1888
sg75
g1873
sg68
(lp1889
g61
(g62
g63
NtRp1890
(dp1891
g66
(dp1892
g74
I4
ssg75
g1886
sg68
(lp1893
S'<class wsgiref.util.FileWrapper at 0x1663db8>'
p1894
asbasbasbag61
(g77
g63
NtRp1895
(dp1896
g66
(dp1897
sg75
g1037
sg68
(lp1898
g61
(g82
g63
NtRp1899
(dp1900
g66
(dp1901
g86
g87
ssg75
g1895
sg68
(lp1902
S'wsgi_input'
p1903
asbag61
(g82
g63
NtRp1904
(dp1905
g66
(dp1906
g93
g94
ssg75
g1895
sg68
(lp1907
S':'
asbag61
(g82
g63
NtRp1908
(dp1909
g66
(dp1910
sg75
g1895
sg68
(lp1911
g61
(g62
g63
NtRp1912
(dp1913
g66
(dp1914
g74
I4
ssg75
g1908
sg68
(lp1915
S'<socket._fileobject object at 0x7f238c82c550>'
p1916
asbasbasbag61
(g77
g63
NtRp1917
(dp1918
g66
(dp1919
sg75
g1037
sg68
(lp1920
g61
(g82
g63
NtRp1921
(dp1922
g66
(dp1923
g86
g87
ssg75
g1917
sg68
(lp1924
S'wsgi_multiprocess'
p1925
asbag61
(g82
g63
NtRp1926
(dp1927
g66
(dp1928
g93
g94
ssg75
g1917
sg68
(lp1929
S':'
asbag61
(g82
g63
NtRp1930
(dp1931
g66
(dp1932
sg75
g1917
sg68
(lp1933
g61
(g62
g63
NtRp1934
(dp1935
g66
(dp1936
g74
I4
ssg75
g1930
sg68
(lp1937
g104
asbasbasbag61
(g77
g63
NtRp1938
(dp1939
g66
(dp1940
sg75
g1037
sg68
(lp1941
g61
(g82
g63
NtRp1942
(dp1943
g66
(dp1944
g86
g87
ssg75
g1938
sg68
(lp1945
S'wsgi_multithread'
p1946
asbag61
(g82
g63
NtRp1947
(dp1948
g66
(dp1949
g93
g94
ssg75
g1938
sg68
(lp1950
S':'
asbag61
(g82
g63
NtRp1951
(dp1952
g66
(dp1953
sg75
g1938
sg68
(lp1954
g61
(g62
g63
NtRp1955
(dp1956
g66
(dp1957
g74
I4
ssg75
g1951
sg68
(lp1958
S'True'
p1959
asbasbasbag61
(g77
g63
NtRp1960
(dp1961
g66
(dp1962
sg75
g1037
sg68
(lp1963
g61
(g82
g63
NtRp1964
(dp1965
g66
(dp1966
g86
g87
ssg75
g1960
sg68
(lp1967
S'wsgi_run_once'
p1968
asbag61
(g82
g63
NtRp1969
(dp1970
g66
(dp1971
g93
g94
ssg75
g1960
sg68
(lp1972
S':'
asbag61
(g82
g63
NtRp1973
(dp1974
g66
(dp1975
sg75
g1960
sg68
(lp1976
g61
(g62
g63
NtRp1977
(dp1978
g66
(dp1979
g74
I4
ssg75
g1973
sg68
(lp1980
g104
asbasbasbag61
(g77
g63
NtRp1981
(dp1982
g66
(dp1983
sg75
g1037
sg68
(lp1984
g61
(g82
g63
NtRp1985
(dp1986
g66
(dp1987
g86
g87
ssg75
g1981
sg68
(lp1988
S'wsgi_url_scheme'
p1989
asbag61
(g82
g63
NtRp1990
(dp1991
g66
(dp1992
g93
g94
ssg75
g1981
sg68
(lp1993
S':'
asbag61
(g82
g63
NtRp1994
(dp1995
g66
(dp1996
sg75
g1981
sg68
(lp1997
g61
(g62
g63
NtRp1998
(dp1999
g66
(dp2000
g74
I4
ssg75
g1994
sg68
(lp2001
S'http'
p2002
asbasbasbag61
(g77
g63
NtRp2003
(dp2004
g66
(dp2005
sg75
g1037
sg68
(lp2006
g61
(g82
g63
NtRp2007
(dp2008
g66
(dp2009
g86
g87
ssg75
g2003
sg68
(lp2010
S'wsgi_version'
p2011
asbag61
(g82
g63
NtRp2012
(dp2013
g66
(dp2014
g93
g94
ssg75
g2003
sg68
(lp2015
S':'
asbag61
(g82
g63
NtRp2016
(dp2017
g66
(dp2018
sg75
g2003
sg68
(lp2019
g61
(g62
g63
NtRp2020
(dp2021
g66
(dp2022
g74
I4
ssg75
g2016
sg68
(lp2023
g61
(g70
g63
NtRp2024
(dp2025
g66
(dp2026
g74
I3
ssg75
Nsg68
(lp2027
g61
(g77
g63
NtRp2028
(dp2029
g66
(dp2030
sg75
g2024
sg68
(lp2031
g61
(g82
g63
NtRp2032
(dp2033
g66
(dp2034
sg75
g2028
sg68
(lp2035
g61
(g62
g63
NtRp2036
(dp2037
g66
(dp2038
g74
I3
ssg75
g2032
sg68
(lp2039
S'1'
asbasbasbag61
(g77
g63
NtRp2040
(dp2041
g66
(dp2042
sg75
g2024
sg68
(lp2043
g61
(g82
g63
NtRp2044
(dp2045
g66
(dp2046
sg75
g2040
sg68
(lp2047
g61
(g62
g63
NtRp2048
(dp2049
g66
(dp2050
g74
I3
ssg75
g2044
sg68
(lp2051
S'0'
asbasbasbasbasbasbasbasbasbasbasbag61
(g77
g63
NtRp2052
(dp2053
g66
(dp2054
sg75
g71
sg68
(lp2055
g61
(g82
g63
NtRp2056
(dp2057
g66
(dp2058
g86
g87
ssg75
g2052
sg68
(lp2059
S'extension'
p2060
asbag61
(g82
g63
NtRp2061
(dp2062
g66
(dp2063
g93
g94
ssg75
g2052
sg68
(lp2064
S':'
asbag61
(g82
g63
NtRp2065
(dp2066
g66
(dp2067
sg75
g2052
sg68
(lp2068
g61
(g62
g63
NtRp2069
(dp2070
g66
(dp2071
g74
I5
ssg75
g2065
sg68
(lp2072
S'html'
p2073
asbasbasbag61
(g77
g63
NtRp2074
(dp2075
g66
(dp2076
sg75
g71
sg68
(lp2077
g61
(g82
g63
NtRp2078
(dp2079
g66
(dp2080
g86
g87
ssg75
g2074
sg68
(lp2081
S'folder'
p2082
asbag61
(g82
g63
NtRp2083
(dp2084
g66
(dp2085
g93
g94
ssg75
g2074
sg68
(lp2086
S':'
asbag61
(g82
g63
NtRp2087
(dp2088
g66
(dp2089
sg75
g2074
sg68
(lp2090
g61
(g62
g63
NtRp2091
(dp2092
g66
(dp2093
g74
I5
ssg75
g2087
sg68
(lp2094
S'/home/adrian/web2py/applications/CygnusCloud/'
p2095
asbasbasbag61
(g77
g63
NtRp2096
(dp2097
g66
(dp2098
sg75
g71
sg68
(lp2099
g61
(g82
g63
NtRp2100
(dp2101
g66
(dp2102
g86
g87
ssg75
g2096
sg68
(lp2103
S'function'
p2104
asbag61
(g82
g63
NtRp2105
(dp2106
g66
(dp2107
g93
g94
ssg75
g2096
sg68
(lp2108
S':'
asbag61
(g82
g63
NtRp2109
(dp2110
g66
(dp2111
sg75
g2096
sg68
(lp2112
g61
(g62
g63
NtRp2113
(dp2114
g66
(dp2115
g74
I5
ssg75
g2109
sg68
(lp2116
S'login'
p2117
asbasbasbag61
(g77
g63
NtRp2118
(dp2119
g66
(dp2120
sg75
g71
sg68
(lp2121
g61
(g82
g63
NtRp2122
(dp2123
g66
(dp2124
g86
g87
ssg75
g2118
sg68
(lp2125
S'get_vars'
p2126
asbag61
(g82
g63
NtRp2127
(dp2128
g66
(dp2129
g93
g94
ssg75
g2118
sg68
(lp2130
S':'
asbag61
(g82
g63
NtRp2131
(dp2132
g66
(dp2133
sg75
g2118
sg68
(lp2134
g61
(g62
g63
NtRp2135
(dp2136
g66
(dp2137
g74
I5
ssg75
g2131
sg68
(lp2138
g61
(g70
g63
NtRp2139
(dp2140
g66
(dp2141
g74
I4
ssg75
Nsg68
(lp2142
sbasbasbasbag61
(g77
g63
NtRp2143
(dp2144
g66
(dp2145
sg75
g71
sg68
(lp2146
g61
(g82
g63
NtRp2147
(dp2148
g66
(dp2149
g86
g87
ssg75
g2143
sg68
(lp2150
S'global_settings'
p2151
asbag61
(g82
g63
NtRp2152
(dp2153
g66
(dp2154
g93
g94
ssg75
g2143
sg68
(lp2155
S':'
asbag61
(g82
g63
NtRp2156
(dp2157
g66
(dp2158
sg75
g2143
sg68
(lp2159
g61
(g62
g63
NtRp2160
(dp2161
g66
(dp2162
g74
I5
ssg75
g2156
sg68
(lp2163
g61
(g70
g63
NtRp2164
(dp2165
g66
(dp2166
g74
I4
ssg75
Nsg68
(lp2167
g61
(g77
g63
NtRp2168
(dp2169
g66
(dp2170
sg75
g2164
sg68
(lp2171
g61
(g82
g63
NtRp2172
(dp2173
g66
(dp2174
g86
g87
ssg75
g2168
sg68
(lp2175
g1049
asbag61
(g82
g63
NtRp2176
(dp2177
g66
(dp2178
g93
g94
ssg75
g2168
sg68
(lp2179
S':'
asbag61
(g82
g63
NtRp2180
(dp2181
g66
(dp2182
sg75
g2168
sg68
(lp2183
g61
(g62
g63
NtRp2184
(dp2185
g66
(dp2186
g74
I4
ssg75
g2180
sg68
(lp2187
S"set(['/home/adrian/web2py/applications/admin/', '/home/adrian/web2py/applications/welcome/', '/home/adrian/web2py/applications/CygnusCloud/'])"
p2188
asbasbasbag61
(g77
g63
NtRp2189
(dp2190
g66
(dp2191
sg75
g2164
sg68
(lp2192
g61
(g82
g63
NtRp2193
(dp2194
g66
(dp2195
g86
g87
ssg75
g2189
sg68
(lp2196
g1071
asbag61
(g82
g63
NtRp2197
(dp2198
g66
(dp2199
g93
g94
ssg75
g2189
sg68
(lp2200
S':'
asbag61
(g82
g63
NtRp2201
(dp2202
g66
(dp2203
sg75
g2189
sg68
(lp2204
g61
(g62
g63
NtRp2205
(dp2206
g66
(dp2207
g74
I4
ssg75
g2201
sg68
(lp2208
g1084
asbasbasbag61
(g77
g63
NtRp2209
(dp2210
g66
(dp2211
sg75
g2164
sg68
(lp2212
g61
(g82
g63
NtRp2213
(dp2214
g66
(dp2215
g86
g87
ssg75
g2209
sg68
(lp2216
g1093
asbag61
(g82
g63
NtRp2217
(dp2218
g66
(dp2219
g93
g94
ssg75
g2209
sg68
(lp2220
S':'
asbag61
(g82
g63
NtRp2221
(dp2222
g66
(dp2223
sg75
g2209
sg68
(lp2224
g61
(g62
g63
NtRp2225
(dp2226
g66
(dp2227
g74
I4
ssg75
g2221
sg68
(lp2228
g61
(g70
g63
NtRp2229
(dp2230
g66
(dp2231
g74
I3
ssg75
Nsg68
(lp2232
sbasbasbasbag61
(g77
g63
NtRp2233
(dp2234
g66
(dp2235
sg75
g2164
sg68
(lp2236
g61
(g82
g63
NtRp2237
(dp2238
g66
(dp2239
g86
g87
ssg75
g2233
sg68
(lp2240
g1118
asbag61
(g82
g63
NtRp2241
(dp2242
g66
(dp2243
g93
g94
ssg75
g2233
sg68
(lp2244
S':'
asbag61
(g82
g63
NtRp2245
(dp2246
g66
(dp2247
sg75
g2233
sg68
(lp2248
g61
(g62
g63
NtRp2249
(dp2250
g66
(dp2251
g74
I4
ssg75
g2245
sg68
(lp2252
S"<Values at 0x172fbd8: {'verbose': False, 'ip': '127.0.0.1', 'with_scheduler': False, 'ips': [], 'shutdown_timeout': 5, 'taskbar': False, 'port': 8000, 'maxthreads': None, 'softcron': False, 'server_name': 'adri-EasyNote', 'bpython': False, 'nogui': False, 'pid_filename': 'httpserver.pid', 'extcron': False, 'runcron': False, 'run_system_tests': False, 'test': None, 'folder': '/home/adrian/web2py', 'config': '', 'minthreads': None, 'winservice': '', 'shell': None, 'run': '', 'log_filename': 'httpserver.log', 'debuglevel': 30, 'args': [''], 'socket_timeout': 5, 'ssl_ca_certificate': None, 'scheduler': None, 'profiler_filename': None, 'ssl_private_key': '', 'scheduler_groups': None, 'password': 'cygnuscloud2012', 'request_queue_size': 5, 'ssl_certificate': '', 'cronjob': False, 'numthreads': None, 'quiet': False, 'interfaces': None, 'import_models': False, 'timeout': 10, 'plain': False, 'nobanner': False}>"
p2253
asbasbasbag61
(g77
g63
NtRp2254
(dp2255
g66
(dp2256
sg75
g2164
sg68
(lp2257
g61
(g82
g63
NtRp2258
(dp2259
g66
(dp2260
g86
g87
ssg75
g2254
sg68
(lp2261
g1140
asbag61
(g82
g63
NtRp2262
(dp2263
g66
(dp2264
g93
g94
ssg75
g2254
sg68
(lp2265
S':'
asbag61
(g82
g63
NtRp2266
(dp2267
g66
(dp2268
sg75
g2254
sg68
(lp2269
g61
(g62
g63
NtRp2270
(dp2271
g66
(dp2272
g74
I4
ssg75
g2266
sg68
(lp2273
S'set([])'
p2274
asbasbasbag61
(g77
g63
NtRp2275
(dp2276
g66
(dp2277
sg75
g2164
sg68
(lp2278
g61
(g82
g63
NtRp2279
(dp2280
g66
(dp2281
g86
g87
ssg75
g2275
sg68
(lp2282
g1162
asbag61
(g82
g63
NtRp2283
(dp2284
g66
(dp2285
g93
g94
ssg75
g2275
sg68
(lp2286
S':'
asbag61
(g82
g63
NtRp2287
(dp2288
g66
(dp2289
sg75
g2275
sg68
(lp2290
g61
(g62
g63
NtRp2291
(dp2292
g66
(dp2293
g74
I4
ssg75
g2287
sg68
(lp2294
g104
asbasbasbag61
(g77
g63
NtRp2295
(dp2296
g66
(dp2297
sg75
g2164
sg68
(lp2298
g61
(g82
g63
NtRp2299
(dp2300
g66
(dp2301
g86
g87
ssg75
g2295
sg68
(lp2302
g1183
asbag61
(g82
g63
NtRp2303
(dp2304
g66
(dp2305
g93
g94
ssg75
g2295
sg68
(lp2306
S':'
asbag61
(g82
g63
NtRp2307
(dp2308
g66
(dp2309
sg75
g2295
sg68
(lp2310
g61
(g62
g63
NtRp2311
(dp2312
g66
(dp2313
g74
I4
ssg75
g2307
sg68
(lp2314
g1196
asbasbasbag61
(g77
g63
NtRp2315
(dp2316
g66
(dp2317
sg75
g2164
sg68
(lp2318
g61
(g82
g63
NtRp2319
(dp2320
g66
(dp2321
g86
g87
ssg75
g2315
sg68
(lp2322
g1381
asbag61
(g82
g63
NtRp2323
(dp2324
g66
(dp2325
g93
g94
ssg75
g2315
sg68
(lp2326
S':'
asbag61
(g82
g63
NtRp2327
(dp2328
g66
(dp2329
sg75
g2315
sg68
(lp2330
g61
(g62
g63
NtRp2331
(dp2332
g66
(dp2333
g74
I4
ssg75
g2327
sg68
(lp2334
g104
asbasbasbag61
(g77
g63
NtRp2335
(dp2336
g66
(dp2337
sg75
g2164
sg68
(lp2338
g61
(g82
g63
NtRp2339
(dp2340
g66
(dp2341
g86
g87
ssg75
g2335
sg68
(lp2342
g1402
asbag61
(g82
g63
NtRp2343
(dp2344
g66
(dp2345
g93
g94
ssg75
g2335
sg68
(lp2346
S':'
asbag61
(g82
g63
NtRp2347
(dp2348
g66
(dp2349
sg75
g2335
sg68
(lp2350
g61
(g62
g63
NtRp2351
(dp2352
g66
(dp2353
g74
I4
ssg75
g2347
sg68
(lp2354
g104
asbasbasbag61
(g77
g63
NtRp2355
(dp2356
g66
(dp2357
sg75
g2164
sg68
(lp2358
g61
(g82
g63
NtRp2359
(dp2360
g66
(dp2361
g86
g87
ssg75
g2355
sg68
(lp2362
g1423
asbag61
(g82
g63
NtRp2363
(dp2364
g66
(dp2365
g93
g94
ssg75
g2355
sg68
(lp2366
S':'
asbag61
(g82
g63
NtRp2367
(dp2368
g66
(dp2369
sg75
g2355
sg68
(lp2370
g61
(g62
g63
NtRp2371
(dp2372
g66
(dp2373
g74
I4
ssg75
g2367
sg68
(lp2374
g61
(g70
g63
NtRp2375
(dp2376
g66
(dp2377
g74
I3
ssg75
Nsg68
(lp2378
g61
(g77
g63
NtRp2379
(dp2380
g66
(dp2381
sg75
g2375
sg68
(lp2382
g61
(g82
g63
NtRp2383
(dp2384
g66
(dp2385
sg75
g2379
sg68
(lp2386
g61
(g62
g63
NtRp2387
(dp2388
g66
(dp2389
g74
I3
ssg75
g2383
sg68
(lp2390
g1452
asbasbasbag61
(g77
g63
NtRp2391
(dp2392
g66
(dp2393
sg75
g2375
sg68
(lp2394
g61
(g82
g63
NtRp2395
(dp2396
g66
(dp2397
sg75
g2391
sg68
(lp2398
g61
(g62
g63
NtRp2399
(dp2400
g66
(dp2401
g74
I3
ssg75
g2395
sg68
(lp2402
g1465
asbasbasbag61
(g77
g63
NtRp2403
(dp2404
g66
(dp2405
sg75
g2375
sg68
(lp2406
g61
(g82
g63
NtRp2407
(dp2408
g66
(dp2409
sg75
g2403
sg68
(lp2410
g61
(g62
g63
NtRp2411
(dp2412
g66
(dp2413
g74
I3
ssg75
g2407
sg68
(lp2414
g1478
asbasbasbag61
(g77
g63
NtRp2415
(dp2416
g66
(dp2417
sg75
g2375
sg68
(lp2418
g61
(g82
g63
NtRp2419
(dp2420
g66
(dp2421
sg75
g2415
sg68
(lp2422
g61
(g62
g63
NtRp2423
(dp2424
g66
(dp2425
g74
I3
ssg75
g2419
sg68
(lp2426
g1491
asbasbasbag61
(g77
g63
NtRp2427
(dp2428
g66
(dp2429
sg75
g2375
sg68
(lp2430
g61
(g82
g63
NtRp2431
(dp2432
g66
(dp2433
sg75
g2427
sg68
(lp2434
g61
(g62
g63
NtRp2435
(dp2436
g66
(dp2437
g74
I3
ssg75
g2431
sg68
(lp2438
g1504
asbasbasbasbasbasbasbag61
(g77
g63
NtRp2439
(dp2440
g66
(dp2441
sg75
g2164
sg68
(lp2442
g61
(g82
g63
NtRp2443
(dp2444
g66
(dp2445
g86
g87
ssg75
g2439
sg68
(lp2446
g1772
asbag61
(g82
g63
NtRp2447
(dp2448
g66
(dp2449
g93
g94
ssg75
g2439
sg68
(lp2450
S':'
asbag61
(g82
g63
NtRp2451
(dp2452
g66
(dp2453
sg75
g2439
sg68
(lp2454
g61
(g62
g63
NtRp2455
(dp2456
g66
(dp2457
g74
I4
ssg75
g2451
sg68
(lp2458
g61
(g70
g63
NtRp2459
(dp2460
g66
(dp2461
g74
I3
ssg75
Nsg68
(lp2462
g61
(g77
g63
NtRp2463
(dp2464
g66
(dp2465
sg75
g2459
sg68
(lp2466
g61
(g82
g63
NtRp2467
(dp2468
g66
(dp2469
sg75
g2463
sg68
(lp2470
g61
(g62
g63
NtRp2471
(dp2472
g66
(dp2473
g74
I3
ssg75
g2467
sg68
(lp2474
S'2'
asbasbasbag61
(g77
g63
NtRp2475
(dp2476
g66
(dp2477
sg75
g2459
sg68
(lp2478
g61
(g82
g63
NtRp2479
(dp2480
g66
(dp2481
sg75
g2475
sg68
(lp2482
g61
(g62
g63
NtRp2483
(dp2484
g66
(dp2485
g74
I3
ssg75
g2479
sg68
(lp2486
S'3'
asbasbasbag61
(g77
g63
NtRp2487
(dp2488
g66
(dp2489
sg75
g2459
sg68
(lp2490
g61
(g82
g63
NtRp2491
(dp2492
g66
(dp2493
sg75
g2487
sg68
(lp2494
g61
(g62
g63
NtRp2495
(dp2496
g66
(dp2497
g74
I3
ssg75
g2491
sg68
(lp2498
S'2'
asbasbasbag61
(g77
g63
NtRp2499
(dp2500
g66
(dp2501
sg75
g2459
sg68
(lp2502
g61
(g82
g63
NtRp2503
(dp2504
g66
(dp2505
sg75
g2499
sg68
(lp2506
g61
(g62
g63
NtRp2507
(dp2508
g66
(dp2509
g74
I3
ssg75
g2503
sg68
(lp2510
S'datetime.datetime(2012, 12, 17, 15, 3, 30)'
p2511
asbasbasbag61
(g77
g63
NtRp2512
(dp2513
g66
(dp2514
sg75
g2459
sg68
(lp2515
g61
(g82
g63
NtRp2516
(dp2517
g66
(dp2518
sg75
g2512
sg68
(lp2519
g61
(g62
g63
NtRp2520
(dp2521
g66
(dp2522
g74
I3
ssg75
g2516
sg68
(lp2523
g1850
asbasbasbasbasbasbasbasbasbasbasbag61
(g77
g63
NtRp2524
(dp2525
g66
(dp2526
sg75
g71
sg68
(lp2527
g61
(g82
g63
NtRp2528
(dp2529
g66
(dp2530
g86
g87
ssg75
g2524
sg68
(lp2531
S'is_https'
p2532
asbag61
(g82
g63
NtRp2533
(dp2534
g66
(dp2535
g93
g94
ssg75
g2524
sg68
(lp2536
S':'
asbag61
(g82
g63
NtRp2537
(dp2538
g66
(dp2539
sg75
g2524
sg68
(lp2540
g61
(g62
g63
NtRp2541
(dp2542
g66
(dp2543
g74
I5
ssg75
g2537
sg68
(lp2544
g104
asbasbasbag61
(g77
g63
NtRp2545
(dp2546
g66
(dp2547
sg75
g71
sg68
(lp2548
g61
(g82
g63
NtRp2549
(dp2550
g66
(dp2551
g86
g87
ssg75
g2545
sg68
(lp2552
S'is_local'
p2553
asbag61
(g82
g63
NtRp2554
(dp2555
g66
(dp2556
g93
g94
ssg75
g2545
sg68
(lp2557
S':'
asbag61
(g82
g63
NtRp2558
(dp2559
g66
(dp2560
sg75
g2545
sg68
(lp2561
g61
(g62
g63
NtRp2562
(dp2563
g66
(dp2564
g74
I5
ssg75
g2558
sg68
(lp2565
g1959
asbasbasbag61
(g77
g63
NtRp2566
(dp2567
g66
(dp2568
sg75
g71
sg68
(lp2569
g61
(g82
g63
NtRp2570
(dp2571
g66
(dp2572
g86
g87
ssg75
g2566
sg68
(lp2573
S'is_restful'
p2574
asbag61
(g82
g63
NtRp2575
(dp2576
g66
(dp2577
g93
g94
ssg75
g2566
sg68
(lp2578
S':'
asbag61
(g82
g63
NtRp2579
(dp2580
g66
(dp2581
sg75
g2566
sg68
(lp2582
g61
(g62
g63
NtRp2583
(dp2584
g66
(dp2585
g74
I5
ssg75
g2579
sg68
(lp2586
g104
asbasbasbag61
(g77
g63
NtRp2587
(dp2588
g66
(dp2589
sg75
g71
sg68
(lp2590
g61
(g82
g63
NtRp2591
(dp2592
g66
(dp2593
g86
g87
ssg75
g2587
sg68
(lp2594
S'now'
p2595
asbag61
(g82
g63
NtRp2596
(dp2597
g66
(dp2598
g93
g94
ssg75
g2587
sg68
(lp2599
S':'
asbag61
(g82
g63
NtRp2600
(dp2601
g66
(dp2602
sg75
g2587
sg68
(lp2603
g61
(g62
g63
NtRp2604
(dp2605
g66
(dp2606
g74
I5
ssg75
g2600
sg68
(lp2607
S'datetime.datetime(2013, 2, 5, 19, 43, 47, 773289)'
p2608
asbasbasbag61
(g77
g63
NtRp2609
(dp2610
g66
(dp2611
sg75
g71
sg68
(lp2612
g61
(g82
g63
NtRp2613
(dp2614
g66
(dp2615
g86
g87
ssg75
g2609
sg68
(lp2616
S'post_vars'
p2617
asbag61
(g82
g63
NtRp2618
(dp2619
g66
(dp2620
g93
g94
ssg75
g2609
sg68
(lp2621
S':'
asbag61
(g82
g63
NtRp2622
(dp2623
g66
(dp2624
sg75
g2609
sg68
(lp2625
g61
(g62
g63
NtRp2626
(dp2627
g66
(dp2628
g74
I5
ssg75
g2622
sg68
(lp2629
g61
(g70
g63
NtRp2630
(dp2631
g66
(dp2632
g74
I4
ssg75
Nsg68
(lp2633
sbasbasbasbag61
(g77
g63
NtRp2634
(dp2635
g66
(dp2636
sg75
g71
sg68
(lp2637
g61
(g82
g63
NtRp2638
(dp2639
g66
(dp2640
g86
g87
ssg75
g2634
sg68
(lp2641
S'raw_args'
p2642
asbag61
(g82
g63
NtRp2643
(dp2644
g66
(dp2645
g93
g94
ssg75
g2634
sg68
(lp2646
S':'
asbag61
(g82
g63
NtRp2647
(dp2648
g66
(dp2649
sg75
g2634
sg68
(lp2650
g61
(g62
g63
NtRp2651
(dp2652
g66
(dp2653
g74
I5
ssg75
g2647
sg68
(lp2654
S''
asbasbasbag61
(g77
g63
NtRp2655
(dp2656
g66
(dp2657
sg75
g71
sg68
(lp2658
g61
(g82
g63
NtRp2659
(dp2660
g66
(dp2661
g86
g87
ssg75
g2655
sg68
(lp2662
S'raw_extension'
p2663
asbag61
(g82
g63
NtRp2664
(dp2665
g66
(dp2666
g93
g94
ssg75
g2655
sg68
(lp2667
S':'
asbag61
(g82
g63
NtRp2668
(dp2669
g66
(dp2670
sg75
g2655
sg68
(lp2671
g61
(g62
g63
NtRp2672
(dp2673
g66
(dp2674
g74
I5
ssg75
g2668
sg68
(lp2675
S'None'
p2676
asbasbasbag61
(g77
g63
NtRp2677
(dp2678
g66
(dp2679
sg75
g71
sg68
(lp2680
g61
(g82
g63
NtRp2681
(dp2682
g66
(dp2683
g86
g87
ssg75
g2677
sg68
(lp2684
S'url'
p2685
asbag61
(g82
g63
NtRp2686
(dp2687
g66
(dp2688
g93
g94
ssg75
g2677
sg68
(lp2689
S':'
asbag61
(g82
g63
NtRp2690
(dp2691
g66
(dp2692
sg75
g2677
sg68
(lp2693
g61
(g62
g63
NtRp2694
(dp2695
g66
(dp2696
g74
I5
ssg75
g2690
sg68
(lp2697
g1526
asbasbasbag61
(g77
g63
NtRp2698
(dp2699
g66
(dp2700
sg75
g71
sg68
(lp2701
g61
(g82
g63
NtRp2702
(dp2703
g66
(dp2704
g86
g87
ssg75
g2698
sg68
(lp2705
S'utcnow'
p2706
asbag61
(g82
g63
NtRp2707
(dp2708
g66
(dp2709
g93
g94
ssg75
g2698
sg68
(lp2710
S':'
asbag61
(g82
g63
NtRp2711
(dp2712
g66
(dp2713
sg75
g2698
sg68
(lp2714
g61
(g62
g63
NtRp2715
(dp2716
g66
(dp2717
g74
I5
ssg75
g2711
sg68
(lp2718
S'datetime.datetime(2013, 2, 5, 18, 43, 47, 773373)'
p2719
asbasbasbag61
(g77
g63
NtRp2720
(dp2721
g66
(dp2722
sg75
g71
sg68
(lp2723
g61
(g82
g63
NtRp2724
(dp2725
g66
(dp2726
g86
g87
ssg75
g2720
sg68
(lp2727
S'uuid'
p2728
asbag61
(g82
g63
NtRp2729
(dp2730
g66
(dp2731
g93
g94
ssg75
g2720
sg68
(lp2732
S':'
asbag61
(g82
g63
NtRp2733
(dp2734
g66
(dp2735
sg75
g2720
sg68
(lp2736
g61
(g62
g63
NtRp2737
(dp2738
g66
(dp2739
g74
I5
ssg75
g2733
sg68
(lp2740
S'CygnusCloud/127.0.0.1.2013-02-05.19-43-47.3a671ccf-d638-4f3a-a3e3-78e1fb81b7d9'
p2741
asbasbasbag61
(g77
g63
NtRp2742
(dp2743
g66
(dp2744
sg75
g71
sg68
(lp2745
g61
(g82
g63
NtRp2746
(dp2747
g66
(dp2748
g86
g87
ssg75
g2742
sg68
(lp2749
S'vars'
p2750
asbag61
(g82
g63
NtRp2751
(dp2752
g66
(dp2753
g93
g94
ssg75
g2742
sg68
(lp2754
S':'
asbag61
(g82
g63
NtRp2755
(dp2756
g66
(dp2757
sg75
g2742
sg68
(lp2758
g61
(g62
g63
NtRp2759
(dp2760
g66
(dp2761
g74
I5
ssg75
g2755
sg68
(lp2762
g61
(g70
g63
NtRp2763
(dp2764
g66
(dp2765
g74
I4
ssg75
Nsg68
(lp2766
sbasbasbasbag61
(g77
g63
NtRp2767
(dp2768
g66
(dp2769
sg75
g71
sg68
(lp2770
g61
(g82
g63
NtRp2771
(dp2772
g66
(dp2773
g86
g87
ssg75
g2767
sg68
(lp2774
S'wsgi'
p2775
asbag61
(g82
g63
NtRp2776
(dp2777
g66
(dp2778
g93
g94
ssg75
g2767
sg68
(lp2779
S':'
asbag61
(g82
g63
NtRp2780
(dp2781
g66
(dp2782
sg75
g2767
sg68
(lp2783
g61
(g62
g63
NtRp2784
(dp2785
g66
(dp2786
g74
I5
ssg75
g2780
sg68
(lp2787
g61
(g70
g63
NtRp2788
(dp2789
g66
(dp2790
g74
I4
ssg75
Nsg68
(lp2791
g61
(g77
g63
NtRp2792
(dp2793
g66
(dp2794
sg75
g2788
sg68
(lp2795
g61
(g82
g63
NtRp2796
(dp2797
g66
(dp2798
g86
g87
ssg75
g2792
sg68
(lp2799
S'environ'
p2800
asbag61
(g82
g63
NtRp2801
(dp2802
g66
(dp2803
g93
g94
ssg75
g2792
sg68
(lp2804
S':'
asbag61
(g82
g63
NtRp2805
(dp2806
g66
(dp2807
sg75
g2792
sg68
(lp2808
g61
(g62
g63
NtRp2809
(dp2810
g66
(dp2811
g74
I4
ssg75
g2805
sg68
(lp2812
g61
(g70
g63
NtRp2813
(dp2814
g66
(dp2815
g74
I3
ssg75
Nsg68
(lp2816
g61
(g77
g63
NtRp2817
(dp2818
g66
(dp2819
sg75
g2813
sg68
(lp2820
g61
(g82
g63
NtRp2821
(dp2822
g66
(dp2823
g86
g87
ssg75
g2817
sg68
(lp2824
S'HTTP_ACCEPT'
p2825
asbag61
(g82
g63
NtRp2826
(dp2827
g66
(dp2828
g93
g94
ssg75
g2817
sg68
(lp2829
S':'
asbag61
(g82
g63
NtRp2830
(dp2831
g66
(dp2832
sg75
g2817
sg68
(lp2833
g61
(g62
g63
NtRp2834
(dp2835
g66
(dp2836
g74
I3
ssg75
g2830
sg68
(lp2837
g1218
asbasbasbag61
(g77
g63
NtRp2838
(dp2839
g66
(dp2840
sg75
g2813
sg68
(lp2841
g61
(g82
g63
NtRp2842
(dp2843
g66
(dp2844
g86
g87
ssg75
g2838
sg68
(lp2845
S'HTTP_ACCEPT_CHARSET'
p2846
asbag61
(g82
g63
NtRp2847
(dp2848
g66
(dp2849
g93
g94
ssg75
g2838
sg68
(lp2850
S':'
asbag61
(g82
g63
NtRp2851
(dp2852
g66
(dp2853
sg75
g2838
sg68
(lp2854
g61
(g62
g63
NtRp2855
(dp2856
g66
(dp2857
g74
I3
ssg75
g2851
sg68
(lp2858
g1240
asbasbasbag61
(g77
g63
NtRp2859
(dp2860
g66
(dp2861
sg75
g2813
sg68
(lp2862
g61
(g82
g63
NtRp2863
(dp2864
g66
(dp2865
g86
g87
ssg75
g2859
sg68
(lp2866
S'HTTP_ACCEPT_ENCODING'
p2867
asbag61
(g82
g63
NtRp2868
(dp2869
g66
(dp2870
g93
g94
ssg75
g2859
sg68
(lp2871
S':'
asbag61
(g82
g63
NtRp2872
(dp2873
g66
(dp2874
sg75
g2859
sg68
(lp2875
g61
(g62
g63
NtRp2876
(dp2877
g66
(dp2878
g74
I3
ssg75
g2872
sg68
(lp2879
g1262
asbasbasbag61
(g77
g63
NtRp2880
(dp2881
g66
(dp2882
sg75
g2813
sg68
(lp2883
g61
(g82
g63
NtRp2884
(dp2885
g66
(dp2886
g86
g87
ssg75
g2880
sg68
(lp2887
S'HTTP_ACCEPT_LANGUAGE'
p2888
asbag61
(g82
g63
NtRp2889
(dp2890
g66
(dp2891
g93
g94
ssg75
g2880
sg68
(lp2892
S':'
asbag61
(g82
g63
NtRp2893
(dp2894
g66
(dp2895
sg75
g2880
sg68
(lp2896
g61
(g62
g63
NtRp2897
(dp2898
g66
(dp2899
g74
I3
ssg75
g2893
sg68
(lp2900
g1284
asbasbasbag61
(g77
g63
NtRp2901
(dp2902
g66
(dp2903
sg75
g2813
sg68
(lp2904
g61
(g82
g63
NtRp2905
(dp2906
g66
(dp2907
g86
g87
ssg75
g2901
sg68
(lp2908
S'HTTP_CONNECTION'
p2909
asbag61
(g82
g63
NtRp2910
(dp2911
g66
(dp2912
g93
g94
ssg75
g2901
sg68
(lp2913
S':'
asbag61
(g82
g63
NtRp2914
(dp2915
g66
(dp2916
sg75
g2901
sg68
(lp2917
g61
(g62
g63
NtRp2918
(dp2919
g66
(dp2920
g74
I3
ssg75
g2914
sg68
(lp2921
g1306
asbasbasbag61
(g77
g63
NtRp2922
(dp2923
g66
(dp2924
sg75
g2813
sg68
(lp2925
g61
(g82
g63
NtRp2926
(dp2927
g66
(dp2928
g86
g87
ssg75
g2922
sg68
(lp2929
S'HTTP_COOKIE'
p2930
asbag61
(g82
g63
NtRp2931
(dp2932
g66
(dp2933
g93
g94
ssg75
g2922
sg68
(lp2934
S':'
asbag61
(g82
g63
NtRp2935
(dp2936
g66
(dp2937
sg75
g2922
sg68
(lp2938
g61
(g62
g63
NtRp2939
(dp2940
g66
(dp2941
g74
I3
ssg75
g2935
sg68
(lp2942
g1328
asbasbasbag61
(g77
g63
NtRp2943
(dp2944
g66
(dp2945
sg75
g2813
sg68
(lp2946
g61
(g82
g63
NtRp2947
(dp2948
g66
(dp2949
g86
g87
ssg75
g2943
sg68
(lp2950
S'HTTP_HOST'
p2951
asbag61
(g82
g63
NtRp2952
(dp2953
g66
(dp2954
g93
g94
ssg75
g2943
sg68
(lp2955
S':'
asbag61
(g82
g63
NtRp2956
(dp2957
g66
(dp2958
sg75
g2943
sg68
(lp2959
g61
(g62
g63
NtRp2960
(dp2961
g66
(dp2962
g74
I3
ssg75
g2956
sg68
(lp2963
g1350
asbasbasbag61
(g77
g63
NtRp2964
(dp2965
g66
(dp2966
sg75
g2813
sg68
(lp2967
g61
(g82
g63
NtRp2968
(dp2969
g66
(dp2970
g86
g87
ssg75
g2964
sg68
(lp2971
S'HTTP_USER_AGENT'
p2972
asbag61
(g82
g63
NtRp2973
(dp2974
g66
(dp2975
g93
g94
ssg75
g2964
sg68
(lp2976
S':'
asbag61
(g82
g63
NtRp2977
(dp2978
g66
(dp2979
sg75
g2964
sg68
(lp2980
g61
(g62
g63
NtRp2981
(dp2982
g66
(dp2983
g74
I3
ssg75
g2977
sg68
(lp2984
g1372
asbasbasbag61
(g77
g63
NtRp2985
(dp2986
g66
(dp2987
sg75
g2813
sg68
(lp2988
g61
(g82
g63
NtRp2989
(dp2990
g66
(dp2991
g86
g87
ssg75
g2985
sg68
(lp2992
S'PATH_INFO'
p2993
asbag61
(g82
g63
NtRp2994
(dp2995
g66
(dp2996
g93
g94
ssg75
g2985
sg68
(lp2997
S':'
asbag61
(g82
g63
NtRp2998
(dp2999
g66
(dp3000
sg75
g2985
sg68
(lp3001
g61
(g62
g63
NtRp3002
(dp3003
g66
(dp3004
g74
I3
ssg75
g2998
sg68
(lp3005
g1526
asbasbasbag61
(g77
g63
NtRp3006
(dp3007
g66
(dp3008
sg75
g2813
sg68
(lp3009
g61
(g82
g63
NtRp3010
(dp3011
g66
(dp3012
g86
g87
ssg75
g3006
sg68
(lp3013
S'QUERY_STRING'
p3014
asbag61
(g82
g63
NtRp3015
(dp3016
g66
(dp3017
g93
g94
ssg75
g3006
sg68
(lp3018
S':'
asbag61
(g82
g63
NtRp3019
(dp3020
g66
(dp3021
sg75
g3006
sg68
(lp3022
g61
(g62
g63
NtRp3023
(dp3024
g66
(dp3025
g74
I3
ssg75
g3019
sg68
(lp3026
S''
asbasbasbag61
(g77
g63
NtRp3027
(dp3028
g66
(dp3029
sg75
g2813
sg68
(lp3030
g61
(g82
g63
NtRp3031
(dp3032
g66
(dp3033
g86
g87
ssg75
g3027
sg68
(lp3034
S'REMOTE_ADDR'
p3035
asbag61
(g82
g63
NtRp3036
(dp3037
g66
(dp3038
g93
g94
ssg75
g3027
sg68
(lp3039
S':'
asbag61
(g82
g63
NtRp3040
(dp3041
g66
(dp3042
sg75
g3027
sg68
(lp3043
g61
(g62
g63
NtRp3044
(dp3045
g66
(dp3046
g74
I3
ssg75
g3040
sg68
(lp3047
g216
asbasbasbag61
(g77
g63
NtRp3048
(dp3049
g66
(dp3050
sg75
g2813
sg68
(lp3051
g61
(g82
g63
NtRp3052
(dp3053
g66
(dp3054
g86
g87
ssg75
g3048
sg68
(lp3055
S'REMOTE_PORT'
p3056
asbag61
(g82
g63
NtRp3057
(dp3058
g66
(dp3059
g93
g94
ssg75
g3048
sg68
(lp3060
S':'
asbag61
(g82
g63
NtRp3061
(dp3062
g66
(dp3063
sg75
g3048
sg68
(lp3064
g61
(g62
g63
NtRp3065
(dp3066
g66
(dp3067
g74
I3
ssg75
g3061
sg68
(lp3068
g1590
asbasbasbag61
(g77
g63
NtRp3069
(dp3070
g66
(dp3071
sg75
g2813
sg68
(lp3072
g61
(g82
g63
NtRp3073
(dp3074
g66
(dp3075
g86
g87
ssg75
g3069
sg68
(lp3076
S'REQUEST_METHOD'
p3077
asbag61
(g82
g63
NtRp3078
(dp3079
g66
(dp3080
g93
g94
ssg75
g3069
sg68
(lp3081
S':'
asbag61
(g82
g63
NtRp3082
(dp3083
g66
(dp3084
sg75
g3069
sg68
(lp3085
g61
(g62
g63
NtRp3086
(dp3087
g66
(dp3088
g74
I3
ssg75
g3082
sg68
(lp3089
g1612
asbasbasbag61
(g77
g63
NtRp3090
(dp3091
g66
(dp3092
sg75
g2813
sg68
(lp3093
g61
(g82
g63
NtRp3094
(dp3095
g66
(dp3096
g86
g87
ssg75
g3090
sg68
(lp3097
S'REQUEST_URI'
p3098
asbag61
(g82
g63
NtRp3099
(dp3100
g66
(dp3101
g93
g94
ssg75
g3090
sg68
(lp3102
S':'
asbag61
(g82
g63
NtRp3103
(dp3104
g66
(dp3105
sg75
g3090
sg68
(lp3106
g61
(g62
g63
NtRp3107
(dp3108
g66
(dp3109
g74
I3
ssg75
g3103
sg68
(lp3110
g1526
asbasbasbag61
(g77
g63
NtRp3111
(dp3112
g66
(dp3113
sg75
g2813
sg68
(lp3114
g61
(g82
g63
NtRp3115
(dp3116
g66
(dp3117
g86
g87
ssg75
g3111
sg68
(lp3118
S'SCRIPT_NAME'
p3119
asbag61
(g82
g63
NtRp3120
(dp3121
g66
(dp3122
g93
g94
ssg75
g3111
sg68
(lp3123
S':'
asbag61
(g82
g63
NtRp3124
(dp3125
g66
(dp3126
sg75
g3111
sg68
(lp3127
g61
(g62
g63
NtRp3128
(dp3129
g66
(dp3130
g74
I3
ssg75
g3124
sg68
(lp3131
S''
asbasbasbag61
(g77
g63
NtRp3132
(dp3133
g66
(dp3134
sg75
g2813
sg68
(lp3135
g61
(g82
g63
NtRp3136
(dp3137
g66
(dp3138
g86
g87
ssg75
g3132
sg68
(lp3139
S'SERVER_NAME'
p3140
asbag61
(g82
g63
NtRp3141
(dp3142
g66
(dp3143
g93
g94
ssg75
g3132
sg68
(lp3144
S':'
asbag61
(g82
g63
NtRp3145
(dp3146
g66
(dp3147
sg75
g3132
sg68
(lp3148
g61
(g62
g63
NtRp3149
(dp3150
g66
(dp3151
g74
I3
ssg75
g3145
sg68
(lp3152
g1676
asbasbasbag61
(g77
g63
NtRp3153
(dp3154
g66
(dp3155
sg75
g2813
sg68
(lp3156
g61
(g82
g63
NtRp3157
(dp3158
g66
(dp3159
g86
g87
ssg75
g3153
sg68
(lp3160
S'SERVER_PORT'
p3161
asbag61
(g82
g63
NtRp3162
(dp3163
g66
(dp3164
g93
g94
ssg75
g3153
sg68
(lp3165
S':'
asbag61
(g82
g63
NtRp3166
(dp3167
g66
(dp3168
sg75
g3153
sg68
(lp3169
g61
(g62
g63
NtRp3170
(dp3171
g66
(dp3172
g74
I3
ssg75
g3166
sg68
(lp3173
g1698
asbasbasbag61
(g77
g63
NtRp3174
(dp3175
g66
(dp3176
sg75
g2813
sg68
(lp3177
g61
(g82
g63
NtRp3178
(dp3179
g66
(dp3180
g86
g87
ssg75
g3174
sg68
(lp3181
S'SERVER_PROTOCOL'
p3182
asbag61
(g82
g63
NtRp3183
(dp3184
g66
(dp3185
g93
g94
ssg75
g3174
sg68
(lp3186
S':'
asbag61
(g82
g63
NtRp3187
(dp3188
g66
(dp3189
sg75
g3174
sg68
(lp3190
g61
(g62
g63
NtRp3191
(dp3192
g66
(dp3193
g74
I3
ssg75
g3187
sg68
(lp3194
g1720
asbasbasbag61
(g77
g63
NtRp3195
(dp3196
g66
(dp3197
sg75
g2813
sg68
(lp3198
g61
(g82
g63
NtRp3199
(dp3200
g66
(dp3201
g86
g87
ssg75
g3195
sg68
(lp3202
S'SERVER_SOFTWARE'
p3203
asbag61
(g82
g63
NtRp3204
(dp3205
g66
(dp3206
g93
g94
ssg75
g3195
sg68
(lp3207
S':'
asbag61
(g82
g63
NtRp3208
(dp3209
g66
(dp3210
sg75
g3195
sg68
(lp3211
g61
(g62
g63
NtRp3212
(dp3213
g66
(dp3214
g74
I3
ssg75
g3208
sg68
(lp3215
g1742
asbasbasbag61
(g77
g63
NtRp3216
(dp3217
g66
(dp3218
sg75
g2813
sg68
(lp3219
g61
(g82
g63
NtRp3220
(dp3221
g66
(dp3222
g86
g87
ssg75
g3216
sg68
(lp3223
S'wsgi.errors'
p3224
asbag61
(g82
g63
NtRp3225
(dp3226
g66
(dp3227
g93
g94
ssg75
g3216
sg68
(lp3228
S':'
asbag61
(g82
g63
NtRp3229
(dp3230
g66
(dp3231
sg75
g3216
sg68
(lp3232
g61
(g62
g63
NtRp3233
(dp3234
g66
(dp3235
g74
I3
ssg75
g3229
sg68
(lp3236
S"<open file '<stderr>', mode 'w' at 0x7f239539e270>"
p3237
asbasbasbag61
(g77
g63
NtRp3238
(dp3239
g66
(dp3240
sg75
g2813
sg68
(lp3241
g61
(g82
g63
NtRp3242
(dp3243
g66
(dp3244
g86
g87
ssg75
g3238
sg68
(lp3245
S'wsgi.file_wrapper'
p3246
asbag61
(g82
g63
NtRp3247
(dp3248
g66
(dp3249
g93
g94
ssg75
g3238
sg68
(lp3250
S':'
asbag61
(g82
g63
NtRp3251
(dp3252
g66
(dp3253
sg75
g3238
sg68
(lp3254
g61
(g62
g63
NtRp3255
(dp3256
g66
(dp3257
g74
I3
ssg75
g3251
sg68
(lp3258
S'<class wsgiref.util.FileWrapper at 0x1663db8>'
p3259
asbasbasbag61
(g77
g63
NtRp3260
(dp3261
g66
(dp3262
sg75
g2813
sg68
(lp3263
g61
(g82
g63
NtRp3264
(dp3265
g66
(dp3266
g86
g87
ssg75
g3260
sg68
(lp3267
S'wsgi.input'
p3268
asbag61
(g82
g63
NtRp3269
(dp3270
g66
(dp3271
g93
g94
ssg75
g3260
sg68
(lp3272
S':'
asbag61
(g82
g63
NtRp3273
(dp3274
g66
(dp3275
sg75
g3260
sg68
(lp3276
g61
(g62
g63
NtRp3277
(dp3278
g66
(dp3279
g74
I3
ssg75
g3273
sg68
(lp3280
S'<cStringIO.StringO object at 0x7f238ca8bdc0>'
p3281
asbasbasbag61
(g77
g63
NtRp3282
(dp3283
g66
(dp3284
sg75
g2813
sg68
(lp3285
g61
(g82
g63
NtRp3286
(dp3287
g66
(dp3288
g86
g87
ssg75
g3282
sg68
(lp3289
S'wsgi.multiprocess'
p3290
asbag61
(g82
g63
NtRp3291
(dp3292
g66
(dp3293
g93
g94
ssg75
g3282
sg68
(lp3294
S':'
asbag61
(g82
g63
NtRp3295
(dp3296
g66
(dp3297
sg75
g3282
sg68
(lp3298
g61
(g62
g63
NtRp3299
(dp3300
g66
(dp3301
g74
I3
ssg75
g3295
sg68
(lp3302
g104
asbasbasbag61
(g77
g63
NtRp3303
(dp3304
g66
(dp3305
sg75
g2813
sg68
(lp3306
g61
(g82
g63
NtRp3307
(dp3308
g66
(dp3309
g86
g87
ssg75
g3303
sg68
(lp3310
S'wsgi.multithread'
p3311
asbag61
(g82
g63
NtRp3312
(dp3313
g66
(dp3314
g93
g94
ssg75
g3303
sg68
(lp3315
S':'
asbag61
(g82
g63
NtRp3316
(dp3317
g66
(dp3318
sg75
g3303
sg68
(lp3319
g61
(g62
g63
NtRp3320
(dp3321
g66
(dp3322
g74
I3
ssg75
g3316
sg68
(lp3323
g1959
asbasbasbag61
(g77
g63
NtRp3324
(dp3325
g66
(dp3326
sg75
g2813
sg68
(lp3327
g61
(g82
g63
NtRp3328
(dp3329
g66
(dp3330
g86
g87
ssg75
g3324
sg68
(lp3331
S'wsgi.run_once'
p3332
asbag61
(g82
g63
NtRp3333
(dp3334
g66
(dp3335
g93
g94
ssg75
g3324
sg68
(lp3336
S':'
asbag61
(g82
g63
NtRp3337
(dp3338
g66
(dp3339
sg75
g3324
sg68
(lp3340
g61
(g62
g63
NtRp3341
(dp3342
g66
(dp3343
g74
I3
ssg75
g3337
sg68
(lp3344
g104
asbasbasbag61
(g77
g63
NtRp3345
(dp3346
g66
(dp3347
sg75
g2813
sg68
(lp3348
g61
(g82
g63
NtRp3349
(dp3350
g66
(dp3351
g86
g87
ssg75
g3345
sg68
(lp3352
S'wsgi.url_scheme'
p3353
asbag61
(g82
g63
NtRp3354
(dp3355
g66
(dp3356
g93
g94
ssg75
g3345
sg68
(lp3357
S':'
asbag61
(g82
g63
NtRp3358
(dp3359
g66
(dp3360
sg75
g3345
sg68
(lp3361
g61
(g62
g63
NtRp3362
(dp3363
g66
(dp3364
g74
I3
ssg75
g3358
sg68
(lp3365
g2002
asbasbasbag61
(g77
g63
NtRp3366
(dp3367
g66
(dp3368
sg75
g2813
sg68
(lp3369
g61
(g82
g63
NtRp3370
(dp3371
g66
(dp3372
g86
g87
ssg75
g3366
sg68
(lp3373
S'wsgi.version'
p3374
asbag61
(g82
g63
NtRp3375
(dp3376
g66
(dp3377
g93
g94
ssg75
g3366
sg68
(lp3378
S':'
asbag61
(g82
g63
NtRp3379
(dp3380
g66
(dp3381
sg75
g3366
sg68
(lp3382
g61
(g62
g63
NtRp3383
(dp3384
g66
(dp3385
g74
I3
ssg75
g3379
sg68
(lp3386
S'1'
asbasbasbasbasbasbasbasbasbasbasbasbasbsS'frames'
p3387
(lp3388
(dp3389
S'file'
p3390
S'/home/adrian/web2py/gluon/restricted.py'
p3391
sS'dump'
p3392
(dp3393
S'environment'
p3394
S"{'A': <class 'gluon.html.A'>, 'Auth': <class 'gluon.tools.Auth'>, 'B': <class 'gluon.html.B'>, 'BEAUTIFY': <class 'gluon.html.BEAUTIFY'>, 'BODY': <class 'gluon.html.BODY'>, 'BR': <class 'gluon.html.BR'>, 'BUTTON': <class 'gluon.html.BUTTON'>, 'CAT': <class 'gluon.html.CAT'>, 'CENTER': <class 'gluon.html.CENTER'>, 'CLEANUP': <class 'gluon.validators.CLEANUP'>, ...}"
p3395
sS'ccode'
p3396
S'<code object <module> at 0x7f238c82c830, file "/...y/applications/CygnusCloud/models/db.py", line 2>'
p3397
ssS'lnum'
p3398
I212
sS'lines'
p3399
(dp3400
I207
S'    try:'
p3401
sI208
S'        if isinstance(code, types.CodeType):'
p3402
sI209
S'            ccode = code'
p3403
sI210
S'        else:'
p3404
sI211
S'            ccode = compile2(code, layer)'
p3405
sI212
S'        exec ccode in environment'
p3406
sI213
S'    except HTTP:'
p3407
sI214
S'        raise'
p3408
sI215
S'    except RestrictedError:'
p3409
sI216
S'        # do not encapsulate (obfuscate) the original RestrictedError'
p3410
ssS'call'
p3411
S'(code="# -*- coding: utf-8 -*-\\nfrom configuration impor...,\'VMName\'],migrate= True)\\n\\n \\nprint userDB.tables\\n", environment={\'A\': <class \'gluon.html.A\'>, \'Auth\': <class \'gluon.tools.Auth\'>, \'B\': <class \'gluon.html.B\'>, \'BEAUTIFY\': <class \'gluon.html.BEAUTIFY\'>, \'BODY\': <class \'gluon.html.BODY\'>, \'BR\': <class \'gluon.html.BR\'>, \'BUTTON\': <class \'gluon.html.BUTTON\'>, \'CAT\': <class \'gluon.html.CAT\'>, \'CENTER\': <class \'gluon.html.CENTER\'>, \'CLEANUP\': <class \'gluon.validators.CLEANUP\'>, ...}, layer=\'/home/adrian/web2py/applications/CygnusCloud/models/db.py\')'
p3412
sS'func'
p3413
S'restricted'
p3414
sa(dp3415
g3390
S'/home/adrian/web2py/applications/CygnusCloud/models/db.py'
p3416
sg3392
(dp3417
S'auth.add_group'
p3418
S'<bound method Auth.add_group of <gluon.tools.Auth object>>'
p3419
sS'auth'
p3420
S'<gluon.tools.Auth object>'
p3421
ssg3398
I25
sg3399
(dp3422
I20
S''
sI21
S''
sI22
S''
sI23
S''
sI24
S'#A\xc3\xb1adimos los grupos'
p3423
sI25
S"auth.add_group('Student', 'Only run virtual machines available')"
p3424
sI26
S"#auth.add_group('Administrator', 'All privilages available')"
p3425
sI27
S''
sI28
S''
sI29
S'#Enlazamos los usuarios a los grupos'
p3426
ssg3411
S'()'
p3427
sg3413
S'<module>'
p3428
sa(dp3429
g3390
S'/home/adrian/web2py/gluon/tools.py'
p3430
sg3392
(dp3431
S'role'
p3432
S"'Student'"
p3433
sS'description'
p3434
S"'Only run virtual machines available'"
p3435
ssg3398
I2979
sg3399
(dp3436
I2976
S'        """'
p3437
sI2977
S''
sI2978
S'        group_id = self.table_group().insert('
p3438
sI2979
S'            role=role, description=description)'
p3439
sI2980
S'        self.log_event(self.messages.add_group_log,'
p3440
sI2981
S'                       dict(group_id=group_id, role=role))'
p3441
sI2982
S'        return group_id'
p3442
sI2983
S''
sI2974
S'        """'
p3443
sI2975
S'        creates a group associated to a role'
p3444
ssg3411
S"(self=<gluon.tools.Auth object>, role='Student', description='Only run virtual machines available')"
p3445
sg3413
S'add_group'
p3446
sa(dp3447
g3390
S'/home/adrian/web2py/gluon/dal.py'
p3448
sg3392
(dp3449
S'self._listify'
p3450
S'<bound method Table._listify of <Table auth_group (id,role,description)>>'
p3451
sS'fields'
p3452
S"{'description': 'Only run virtual machines available', 'role': 'Student'}"
p3453
sS'self'
p3454
S'<Table auth_group (id,role,description)>'
p3455
sS'ret'
p3456
S'undefined'
p3457
sS'self._db._adapter'
p3458
S'<gluon.dal.MySQLAdapter object>'
p3459
sS'self._db._adapter.insert'
p3460
S'<bound method MySQLAdapter.insert of <gluon.dal.MySQLAdapter object>>'
p3461
sS'self._db'
p3462
S'<DAL uri="mysql://******:cygnuscloud2012@localhost/UserDB">'
p3463
ssg3398
I7918
sg3399
(dp3464
I7913
S'        return self._db._adapter._insert(self,self._listify(fields))'
p3465
sI7914
S''
sI7915
S'    def insert(self, **fields):'
p3466
sI7916
S'        self._attempt_upload(fields)'
p3467
sI7917
S'        if any(f(fields) for f in self._before_insert): return 0'
p3468
sI7918
S'        ret =  self._db._adapter.insert(self,self._listify(fields))'
p3469
sI7919
S'        if ret and self._after_insert:'
p3470
sI7920
S'            fields = Row(fields)'
p3471
sI7921
S'            [f(fields,ret) for f in self._after_insert]'
p3472
sI7922
S'        return ret'
p3473
ssg3411
S"(self=<Table auth_group (id,role,description)>, **fields={'description': 'Only run virtual machines available', 'role': 'Student'})"
p3474
sg3413
S'insert'
p3475
sa(dp3476
g3390
S'/home/adrian/web2py/gluon/dal.py'
p3477
sg3392
(dp3478
S'e'
S'ProgrammingError(1146, "Table \'UserDB.auth_group\' doesn\'t exist")'
p3479
ssg3398
I1176
sg3399
(dp3480
I1171
S'            self.execute(query)'
p3481
sI1172
S'        except Exception:'
p3482
sI1173
S'            e = sys.exc_info()[1]'
p3483
sI1174
S'            if isinstance(e,self.integrity_error_class()):'
p3484
sI1175
S'                return None'
p3485
sI1176
S'            raise e'
p3486
sI1177
S"        if hasattr(table,'_primarykey'):"
p3487
sI1178
S'            return dict([(k[0].name, k[1]) for k in fields \\'
p3488
sI1179
S'                             if k[0].name in table._primarykey])'
p3489
sI1180
S'        id = self.lastrowid(table)'
p3490
ssg3411
S"(self=<gluon.dal.MySQLAdapter object>, table=<Table auth_group (id,role,description)>, fields=[(<gluon.dal.Field object>, 'Student'), (<gluon.dal.Field object>, 'Only run virtual machines available')])"
p3491
sg3413
g3475
sasS'pyver'
p3492
S'Python 2.7.3: /usr/bin/python'
p3493
sS'session'
p3494
g61
(g62
g63
NtRp3495
(dp3496
g66
(dp3497
sg68
(lp3498
g61
(g70
g63
NtRp3499
(dp3500
g66
(dp3501
g74
I5
ssg75
Nsg68
(lp3502
g61
(g77
g63
NtRp3503
(dp3504
g66
(dp3505
sg75
g3499
sg68
(lp3506
g61
(g82
g63
NtRp3507
(dp3508
g66
(dp3509
g86
g87
ssg75
g3503
sg68
(lp3510
S'flash'
p3511
asbag61
(g82
g63
NtRp3512
(dp3513
g66
(dp3514
g93
g94
ssg75
g3503
sg68
(lp3515
S':'
asbag61
(g82
g63
NtRp3516
(dp3517
g66
(dp3518
sg75
g3503
sg68
(lp3519
g61
(g62
g63
NtRp3520
(dp3521
g66
(dp3522
g74
I5
ssg75
g3516
sg68
(lp3523
S'None'
p3524
asbasbasbag61
(g77
g63
NtRp3525
(dp3526
g66
(dp3527
sg75
g3499
sg68
(lp3528
g61
(g82
g63
NtRp3529
(dp3530
g66
(dp3531
g86
g87
ssg75
g3525
sg68
(lp3532
S'last_orderby'
p3533
asbag61
(g82
g63
NtRp3534
(dp3535
g66
(dp3536
g93
g94
ssg75
g3525
sg68
(lp3537
S':'
asbag61
(g82
g63
NtRp3538
(dp3539
g66
(dp3540
sg75
g3525
sg68
(lp3541
g61
(g62
g63
NtRp3542
(dp3543
g66
(dp3544
g74
I5
ssg75
g3538
sg68
(lp3545
S'None'
p3546
asbasbasbag61
(g77
g63
NtRp3547
(dp3548
g66
(dp3549
sg75
g3499
sg68
(lp3550
g61
(g82
g63
NtRp3551
(dp3552
g66
(dp3553
g86
g87
ssg75
g3547
sg68
(lp3554
S'last_query'
p3555
asbag61
(g82
g63
NtRp3556
(dp3557
g66
(dp3558
g93
g94
ssg75
g3547
sg68
(lp3559
S':'
asbag61
(g82
g63
NtRp3560
(dp3561
g66
(dp3562
sg75
g3547
sg68
(lp3563
g61
(g62
g63
NtRp3564
(dp3565
g66
(dp3566
g74
I5
ssg75
g3560
sg68
(lp3567
S'userDB.auth_user.id>0'
p3568
asbasbasbasbasbsS'etype'
p3569
S"<class '_mysql_exceptions.ProgrammingError'>"
p3570
sS'date'
p3571
S'Tue Feb  5 19:43:48 2013'
p3572
sS'response'
p3573
g61
(g62
g63
NtRp3574
(dp3575
g66
(dp3576
sg68
(lp3577
g61
(g70
g63
NtRp3578
(dp3579
g66
(dp3580
g74
I5
ssg75
Nsg68
(lp3581
g61
(g77
g63
NtRp3582
(dp3583
g66
(dp3584
sg75
g3578
sg68
(lp3585
g61
(g82
g63
NtRp3586
(dp3587
g66
(dp3588
g86
g87
ssg75
g3582
sg68
(lp3589
g159
asbag61
(g82
g63
NtRp3590
(dp3591
g66
(dp3592
g93
g94
ssg75
g3582
sg68
(lp3593
S':'
asbag61
(g82
g63
NtRp3594
(dp3595
g66
(dp3596
sg75
g3582
sg68
(lp3597
g61
(g62
g63
NtRp3598
(dp3599
g66
(dp3600
g74
I5
ssg75
g3594
sg68
(lp3601
S'<cStringIO.StringO object at 0x7f238ca8b810>'
p3602
asbasbasbag61
(g77
g63
NtRp3603
(dp3604
g66
(dp3605
sg75
g3578
sg68
(lp3606
g61
(g82
g63
NtRp3607
(dp3608
g66
(dp3609
g86
g87
ssg75
g3603
sg68
(lp3610
g247
asbag61
(g82
g63
NtRp3611
(dp3612
g66
(dp3613
g93
g94
ssg75
g3603
sg68
(lp3614
S':'
asbag61
(g82
g63
NtRp3615
(dp3616
g66
(dp3617
sg75
g3603
sg68
(lp3618
g61
(g62
g63
NtRp3619
(dp3620
g66
(dp3621
g74
I5
ssg75
g3615
sg68
(lp3622
g61
(g70
g63
NtRp3623
(dp3624
g66
(dp3625
g74
I4
ssg75
Nsg68
(lp3626
g61
(g77
g63
NtRp3627
(dp3628
g66
(dp3629
sg75
g3623
sg68
(lp3630
g61
(g82
g63
NtRp3631
(dp3632
g66
(dp3633
g86
g87
ssg75
g3627
sg68
(lp3634
S'session_id_cygnuscloud'
p3635
asbag61
(g82
g63
NtRp3636
(dp3637
g66
(dp3638
g93
g94
ssg75
g3627
sg68
(lp3639
S':'
asbag61
(g82
g63
NtRp3640
(dp3641
g66
(dp3642
sg75
g3627
sg68
(lp3643
g61
(g62
g63
NtRp3644
(dp3645
g66
(dp3646
g74
I4
ssg75
g3640
sg68
(lp3647
g479
ag61
(g70
g63
NtRp3648
(dp3649
g66
(dp3650
g74
I3
ssg75
Nsg68
(lp3651
g61
(g77
g63
NtRp3652
(dp3653
g66
(dp3654
sg75
g3648
sg68
(lp3655
g61
(g82
g63
NtRp3656
(dp3657
g66
(dp3658
g86
g87
ssg75
g3652
sg68
(lp3659
g298
asbag61
(g82
g63
NtRp3660
(dp3661
g66
(dp3662
g93
g94
ssg75
g3652
sg68
(lp3663
S':'
asbag61
(g82
g63
NtRp3664
(dp3665
g66
(dp3666
sg75
g3652
sg68
(lp3667
g61
(g62
g63
NtRp3668
(dp3669
g66
(dp3670
g74
I3
ssg75
g3664
sg68
(lp3671
S''
asbasbasbag61
(g77
g63
NtRp3672
(dp3673
g66
(dp3674
sg75
g3648
sg68
(lp3675
g61
(g82
g63
NtRp3676
(dp3677
g66
(dp3678
g86
g87
ssg75
g3672
sg68
(lp3679
g319
asbag61
(g82
g63
NtRp3680
(dp3681
g66
(dp3682
g93
g94
ssg75
g3672
sg68
(lp3683
S':'
asbag61
(g82
g63
NtRp3684
(dp3685
g66
(dp3686
sg75
g3672
sg68
(lp3687
g61
(g62
g63
NtRp3688
(dp3689
g66
(dp3690
g74
I3
ssg75
g3684
sg68
(lp3691
S''
asbasbasbag61
(g77
g63
NtRp3692
(dp3693
g66
(dp3694
sg75
g3648
sg68
(lp3695
g61
(g82
g63
NtRp3696
(dp3697
g66
(dp3698
g86
g87
ssg75
g3692
sg68
(lp3699
g340
asbag61
(g82
g63
NtRp3700
(dp3701
g66
(dp3702
g93
g94
ssg75
g3692
sg68
(lp3703
S':'
asbag61
(g82
g63
NtRp3704
(dp3705
g66
(dp3706
sg75
g3692
sg68
(lp3707
g61
(g62
g63
NtRp3708
(dp3709
g66
(dp3710
g74
I3
ssg75
g3704
sg68
(lp3711
S''
asbasbasbag61
(g77
g63
NtRp3712
(dp3713
g66
(dp3714
sg75
g3648
sg68
(lp3715
g61
(g82
g63
NtRp3716
(dp3717
g66
(dp3718
g86
g87
ssg75
g3712
sg68
(lp3719
g361
asbag61
(g82
g63
NtRp3720
(dp3721
g66
(dp3722
g93
g94
ssg75
g3712
sg68
(lp3723
S':'
asbag61
(g82
g63
NtRp3724
(dp3725
g66
(dp3726
sg75
g3712
sg68
(lp3727
g61
(g62
g63
NtRp3728
(dp3729
g66
(dp3730
g74
I3
ssg75
g3724
sg68
(lp3731
S''
asbasbasbag61
(g77
g63
NtRp3732
(dp3733
g66
(dp3734
sg75
g3648
sg68
(lp3735
g61
(g82
g63
NtRp3736
(dp3737
g66
(dp3738
g86
g87
ssg75
g3732
sg68
(lp3739
g382
asbag61
(g82
g63
NtRp3740
(dp3741
g66
(dp3742
g93
g94
ssg75
g3732
sg68
(lp3743
S':'
asbag61
(g82
g63
NtRp3744
(dp3745
g66
(dp3746
sg75
g3732
sg68
(lp3747
g61
(g62
g63
NtRp3748
(dp3749
g66
(dp3750
g74
I3
ssg75
g3744
sg68
(lp3751
S''
asbasbasbag61
(g77
g63
NtRp3752
(dp3753
g66
(dp3754
sg75
g3648
sg68
(lp3755
g61
(g82
g63
NtRp3756
(dp3757
g66
(dp3758
g86
g87
ssg75
g3752
sg68
(lp3759
g403
asbag61
(g82
g63
NtRp3760
(dp3761
g66
(dp3762
g93
g94
ssg75
g3752
sg68
(lp3763
S':'
asbag61
(g82
g63
NtRp3764
(dp3765
g66
(dp3766
sg75
g3752
sg68
(lp3767
g61
(g62
g63
NtRp3768
(dp3769
g66
(dp3770
g74
I3
ssg75
g3764
sg68
(lp3771
S'/'
asbasbasbag61
(g77
g63
NtRp3772
(dp3773
g66
(dp3774
sg75
g3648
sg68
(lp3775
g61
(g82
g63
NtRp3776
(dp3777
g66
(dp3778
g86
g87
ssg75
g3772
sg68
(lp3779
g424
asbag61
(g82
g63
NtRp3780
(dp3781
g66
(dp3782
g93
g94
ssg75
g3772
sg68
(lp3783
S':'
asbag61
(g82
g63
NtRp3784
(dp3785
g66
(dp3786
sg75
g3772
sg68
(lp3787
g61
(g62
g63
NtRp3788
(dp3789
g66
(dp3790
g74
I3
ssg75
g3784
sg68
(lp3791
S''
asbasbasbag61
(g77
g63
NtRp3792
(dp3793
g66
(dp3794
sg75
g3648
sg68
(lp3795
g61
(g82
g63
NtRp3796
(dp3797
g66
(dp3798
g86
g87
ssg75
g3792
sg68
(lp3799
g445
asbag61
(g82
g63
NtRp3800
(dp3801
g66
(dp3802
g93
g94
ssg75
g3792
sg68
(lp3803
S':'
asbag61
(g82
g63
NtRp3804
(dp3805
g66
(dp3806
sg75
g3792
sg68
(lp3807
g61
(g62
g63
NtRp3808
(dp3809
g66
(dp3810
g74
I3
ssg75
g3804
sg68
(lp3811
S''
asbasbasbasbasbasbasbasbasbasbasbag61
(g77
g63
NtRp3812
(dp3813
g66
(dp3814
sg75
g3578
sg68
(lp3815
g61
(g82
g63
NtRp3816
(dp3817
g66
(dp3818
g86
g87
ssg75
g3812
sg68
(lp3819
S'delimiters'
p3820
asbag61
(g82
g63
NtRp3821
(dp3822
g66
(dp3823
g93
g94
ssg75
g3812
sg68
(lp3824
S':'
asbag61
(g82
g63
NtRp3825
(dp3826
g66
(dp3827
sg75
g3812
sg68
(lp3828
g61
(g62
g63
NtRp3829
(dp3830
g66
(dp3831
g74
I5
ssg75
g3825
sg68
(lp3832
g61
(g70
g63
NtRp3833
(dp3834
g66
(dp3835
g74
I4
ssg75
Nsg68
(lp3836
g61
(g77
g63
NtRp3837
(dp3838
g66
(dp3839
sg75
g3833
sg68
(lp3840
g61
(g82
g63
NtRp3841
(dp3842
g66
(dp3843
sg75
g3837
sg68
(lp3844
g61
(g62
g63
NtRp3845
(dp3846
g66
(dp3847
g74
I4
ssg75
g3841
sg68
(lp3848
S'{{'
p3849
asbasbasbag61
(g77
g63
NtRp3850
(dp3851
g66
(dp3852
sg75
g3833
sg68
(lp3853
g61
(g82
g63
NtRp3854
(dp3855
g66
(dp3856
sg75
g3850
sg68
(lp3857
g61
(g62
g63
NtRp3858
(dp3859
g66
(dp3860
g74
I4
ssg75
g3854
sg68
(lp3861
S'}}'
p3862
asbasbasbasbasbasbasbag61
(g77
g63
NtRp3863
(dp3864
g66
(dp3865
sg75
g3578
sg68
(lp3866
g61
(g82
g63
NtRp3867
(dp3868
g66
(dp3869
g86
g87
ssg75
g3863
sg68
(lp3870
S'files'
p3871
asbag61
(g82
g63
NtRp3872
(dp3873
g66
(dp3874
g93
g94
ssg75
g3863
sg68
(lp3875
S':'
asbag61
(g82
g63
NtRp3876
(dp3877
g66
(dp3878
sg75
g3863
sg68
(lp3879
g61
(g62
g63
NtRp3880
(dp3881
g66
(dp3882
g74
I5
ssg75
g3876
sg68
(lp3883
g61
(g70
g63
NtRp3884
(dp3885
g66
(dp3886
g74
I4
ssg75
Nsg68
(lp3887
sbasbasbasbag61
(g77
g63
NtRp3888
(dp3889
g66
(dp3890
sg75
g3578
sg68
(lp3891
g61
(g82
g63
NtRp3892
(dp3893
g66
(dp3894
g86
g87
ssg75
g3888
sg68
(lp3895
S'flash'
p3896
asbag61
(g82
g63
NtRp3897
(dp3898
g66
(dp3899
g93
g94
ssg75
g3888
sg68
(lp3900
S':'
asbag61
(g82
g63
NtRp3901
(dp3902
g66
(dp3903
sg75
g3888
sg68
(lp3904
g61
(g62
g63
NtRp3905
(dp3906
g66
(dp3907
g74
I5
ssg75
g3901
sg68
(lp3908
S''
asbasbasbag61
(g77
g63
NtRp3909
(dp3910
g66
(dp3911
sg75
g3578
sg68
(lp3912
g61
(g82
g63
NtRp3913
(dp3914
g66
(dp3915
g86
g87
ssg75
g3909
sg68
(lp3916
S'generic_patterns'
p3917
asbag61
(g82
g63
NtRp3918
(dp3919
g66
(dp3920
g93
g94
ssg75
g3909
sg68
(lp3921
S':'
asbag61
(g82
g63
NtRp3922
(dp3923
g66
(dp3924
sg75
g3909
sg68
(lp3925
g61
(g62
g63
NtRp3926
(dp3927
g66
(dp3928
g74
I5
ssg75
g3922
sg68
(lp3929
g61
(g70
g63
NtRp3930
(dp3931
g66
(dp3932
g74
I4
ssg75
Nsg68
(lp3933
sbasbasbasbag61
(g77
g63
NtRp3934
(dp3935
g66
(dp3936
sg75
g3578
sg68
(lp3937
g61
(g82
g63
NtRp3938
(dp3939
g66
(dp3940
g86
g87
ssg75
g3934
sg68
(lp3941
S'headers'
p3942
asbag61
(g82
g63
NtRp3943
(dp3944
g66
(dp3945
g93
g94
ssg75
g3934
sg68
(lp3946
S':'
asbag61
(g82
g63
NtRp3947
(dp3948
g66
(dp3949
sg75
g3934
sg68
(lp3950
g61
(g62
g63
NtRp3951
(dp3952
g66
(dp3953
g74
I5
ssg75
g3947
sg68
(lp3954
g61
(g70
g63
NtRp3955
(dp3956
g66
(dp3957
g74
I4
ssg75
Nsg68
(lp3958
g61
(g77
g63
NtRp3959
(dp3960
g66
(dp3961
sg75
g3955
sg68
(lp3962
g61
(g82
g63
NtRp3963
(dp3964
g66
(dp3965
g86
g87
ssg75
g3959
sg68
(lp3966
S'X-Powered-By'
p3967
asbag61
(g82
g63
NtRp3968
(dp3969
g66
(dp3970
g93
g94
ssg75
g3959
sg68
(lp3971
S':'
asbag61
(g82
g63
NtRp3972
(dp3973
g66
(dp3974
sg75
g3959
sg68
(lp3975
g61
(g62
g63
NtRp3976
(dp3977
g66
(dp3978
g74
I4
ssg75
g3972
sg68
(lp3979
S'web2py'
p3980
asbasbasbasbasbasbasbag61
(g77
g63
NtRp3981
(dp3982
g66
(dp3983
sg75
g3578
sg68
(lp3984
g61
(g82
g63
NtRp3985
(dp3986
g66
(dp3987
g86
g87
ssg75
g3981
sg68
(lp3988
S'menu'
p3989
asbag61
(g82
g63
NtRp3990
(dp3991
g66
(dp3992
g93
g94
ssg75
g3981
sg68
(lp3993
S':'
asbag61
(g82
g63
NtRp3994
(dp3995
g66
(dp3996
sg75
g3981
sg68
(lp3997
g61
(g62
g63
NtRp3998
(dp3999
g66
(dp4000
g74
I5
ssg75
g3994
sg68
(lp4001
g61
(g70
g63
NtRp4002
(dp4003
g66
(dp4004
g74
I4
ssg75
Nsg68
(lp4005
sbasbasbasbag61
(g77
g63
NtRp4006
(dp4007
g66
(dp4008
sg75
g3578
sg68
(lp4009
g61
(g82
g63
NtRp4010
(dp4011
g66
(dp4012
g86
g87
ssg75
g4006
sg68
(lp4013
S'meta'
p4014
asbag61
(g82
g63
NtRp4015
(dp4016
g66
(dp4017
g93
g94
ssg75
g4006
sg68
(lp4018
S':'
asbag61
(g82
g63
NtRp4019
(dp4020
g66
(dp4021
sg75
g4006
sg68
(lp4022
g61
(g62
g63
NtRp4023
(dp4024
g66
(dp4025
g74
I5
ssg75
g4019
sg68
(lp4026
g61
(g70
g63
NtRp4027
(dp4028
g66
(dp4029
g74
I4
ssg75
Nsg68
(lp4030
sbasbasbasbag61
(g77
g63
NtRp4031
(dp4032
g66
(dp4033
sg75
g3578
sg68
(lp4034
g61
(g82
g63
NtRp4035
(dp4036
g66
(dp4037
g86
g87
ssg75
g4031
sg68
(lp4038
S'models_to_run'
p4039
asbag61
(g82
g63
NtRp4040
(dp4041
g66
(dp4042
g93
g94
ssg75
g4031
sg68
(lp4043
S':'
asbag61
(g82
g63
NtRp4044
(dp4045
g66
(dp4046
sg75
g4031
sg68
(lp4047
g61
(g62
g63
NtRp4048
(dp4049
g66
(dp4050
g74
I5
ssg75
g4044
sg68
(lp4051
g61
(g70
g63
NtRp4052
(dp4053
g66
(dp4054
g74
I4
ssg75
Nsg68
(lp4055
g61
(g77
g63
NtRp4056
(dp4057
g66
(dp4058
sg75
g4052
sg68
(lp4059
g61
(g82
g63
NtRp4060
(dp4061
g66
(dp4062
sg75
g4056
sg68
(lp4063
g61
(g62
g63
NtRp4064
(dp4065
g66
(dp4066
g74
I4
ssg75
g4060
sg68
(lp4067
S'^\\w+\\.py$'
p4068
asbasbasbag61
(g77
g63
NtRp4069
(dp4070
g66
(dp4071
sg75
g4052
sg68
(lp4072
g61
(g82
g63
NtRp4073
(dp4074
g66
(dp4075
sg75
g4069
sg68
(lp4076
g61
(g62
g63
NtRp4077
(dp4078
g66
(dp4079
g74
I4
ssg75
g4073
sg68
(lp4080
S'^main/\\w+\\.py$'
p4081
asbasbasbag61
(g77
g63
NtRp4082
(dp4083
g66
(dp4084
sg75
g4052
sg68
(lp4085
g61
(g82
g63
NtRp4086
(dp4087
g66
(dp4088
sg75
g4082
sg68
(lp4089
g61
(g62
g63
NtRp4090
(dp4091
g66
(dp4092
g74
I4
ssg75
g4086
sg68
(lp4093
S'^main/login/\\w+\\.py$'
p4094
asbasbasbasbasbasbasbag61
(g77
g63
NtRp4095
(dp4096
g66
(dp4097
sg75
g3578
sg68
(lp4098
g61
(g82
g63
NtRp4099
(dp4100
g66
(dp4101
g86
g87
ssg75
g4095
sg68
(lp4102
S'postprocessing'
p4103
asbag61
(g82
g63
NtRp4104
(dp4105
g66
(dp4106
g93
g94
ssg75
g4095
sg68
(lp4107
S':'
asbag61
(g82
g63
NtRp4108
(dp4109
g66
(dp4110
sg75
g4095
sg68
(lp4111
g61
(g62
g63
NtRp4112
(dp4113
g66
(dp4114
g74
I5
ssg75
g4108
sg68
(lp4115
g61
(g70
g63
NtRp4116
(dp4117
g66
(dp4118
g74
I4
ssg75
Nsg68
(lp4119
sbasbasbasbag61
(g77
g63
NtRp4120
(dp4121
g66
(dp4122
sg75
g3578
sg68
(lp4123
g61
(g82
g63
NtRp4124
(dp4125
g66
(dp4126
g86
g87
ssg75
g4120
sg68
(lp4127
S'session_cookie_expires'
p4128
asbag61
(g82
g63
NtRp4129
(dp4130
g66
(dp4131
g93
g94
ssg75
g4120
sg68
(lp4132
S':'
asbag61
(g82
g63
NtRp4133
(dp4134
g66
(dp4135
sg75
g4120
sg68
(lp4136
g61
(g62
g63
NtRp4137
(dp4138
g66
(dp4139
g74
I5
ssg75
g4133
sg68
(lp4140
S'None'
p4141
asbasbasbag61
(g77
g63
NtRp4142
(dp4143
g66
(dp4144
sg75
g3578
sg68
(lp4145
g61
(g82
g63
NtRp4146
(dp4147
g66
(dp4148
g86
g87
ssg75
g4142
sg68
(lp4149
S'session_data_name'
p4150
asbag61
(g82
g63
NtRp4151
(dp4152
g66
(dp4153
g93
g94
ssg75
g4142
sg68
(lp4154
S':'
asbag61
(g82
g63
NtRp4155
(dp4156
g66
(dp4157
sg75
g4142
sg68
(lp4158
g61
(g62
g63
NtRp4159
(dp4160
g66
(dp4161
g74
I5
ssg75
g4155
sg68
(lp4162
S'session_data_cygnuscloud'
p4163
asbasbasbag61
(g77
g63
NtRp4164
(dp4165
g66
(dp4166
sg75
g3578
sg68
(lp4167
g61
(g82
g63
NtRp4168
(dp4169
g66
(dp4170
g86
g87
ssg75
g4164
sg68
(lp4171
S'session_file'
p4172
asbag61
(g82
g63
NtRp4173
(dp4174
g66
(dp4175
g93
g94
ssg75
g4164
sg68
(lp4176
S':'
asbag61
(g82
g63
NtRp4177
(dp4178
g66
(dp4179
sg75
g4164
sg68
(lp4180
g61
(g62
g63
NtRp4181
(dp4182
g66
(dp4183
g74
I5
ssg75
g4177
sg68
(lp4184
S"<open file '/home/adrian/web2py/applications/CygnusCloud/sessions/127.0.0.1-791acaf2-7386-46dc-b011-4810dc00037c', mode 'rb+' at 0x7f238c77e8a0>"
p4185
asbasbasbag61
(g77
g63
NtRp4186
(dp4187
g66
(dp4188
sg75
g3578
sg68
(lp4189
g61
(g82
g63
NtRp4190
(dp4191
g66
(dp4192
g86
g87
ssg75
g4186
sg68
(lp4193
S'session_filename'
p4194
asbag61
(g82
g63
NtRp4195
(dp4196
g66
(dp4197
g93
g94
ssg75
g4186
sg68
(lp4198
S':'
asbag61
(g82
g63
NtRp4199
(dp4200
g66
(dp4201
sg75
g4186
sg68
(lp4202
g61
(g62
g63
NtRp4203
(dp4204
g66
(dp4205
g74
I5
ssg75
g4199
sg68
(lp4206
S'/home/adrian/web2py/applications/CygnusCloud/sessions/127.0.0.1-791acaf2-7386-46dc-b011-4810dc00037c'
p4207
asbasbasbag61
(g77
g63
NtRp4208
(dp4209
g66
(dp4210
sg75
g3578
sg68
(lp4211
g61
(g82
g63
NtRp4212
(dp4213
g66
(dp4214
g86
g87
ssg75
g4208
sg68
(lp4215
S'session_id'
p4216
asbag61
(g82
g63
NtRp4217
(dp4218
g66
(dp4219
g93
g94
ssg75
g4208
sg68
(lp4220
S':'
asbag61
(g82
g63
NtRp4221
(dp4222
g66
(dp4223
sg75
g4208
sg68
(lp4224
g61
(g62
g63
NtRp4225
(dp4226
g66
(dp4227
g74
I5
ssg75
g4221
sg68
(lp4228
g479
asbasbasbag61
(g77
g63
NtRp4229
(dp4230
g66
(dp4231
sg75
g3578
sg68
(lp4232
g61
(g82
g63
NtRp4233
(dp4234
g66
(dp4235
g86
g87
ssg75
g4229
sg68
(lp4236
S'session_id_name'
p4237
asbag61
(g82
g63
NtRp4238
(dp4239
g66
(dp4240
g93
g94
ssg75
g4229
sg68
(lp4241
S':'
asbag61
(g82
g63
NtRp4242
(dp4243
g66
(dp4244
sg75
g4229
sg68
(lp4245
g61
(g62
g63
NtRp4246
(dp4247
g66
(dp4248
g74
I5
ssg75
g4242
sg68
(lp4249
g3635
asbasbasbag61
(g77
g63
NtRp4250
(dp4251
g66
(dp4252
sg75
g3578
sg68
(lp4253
g61
(g82
g63
NtRp4254
(dp4255
g66
(dp4256
g86
g87
ssg75
g4250
sg68
(lp4257
S'session_locked'
p4258
asbag61
(g82
g63
NtRp4259
(dp4260
g66
(dp4261
g93
g94
ssg75
g4250
sg68
(lp4262
S':'
asbag61
(g82
g63
NtRp4263
(dp4264
g66
(dp4265
sg75
g4250
sg68
(lp4266
g61
(g62
g63
NtRp4267
(dp4268
g66
(dp4269
g74
I5
ssg75
g4263
sg68
(lp4270
g1959
asbasbasbag61
(g77
g63
NtRp4271
(dp4272
g66
(dp4273
sg75
g3578
sg68
(lp4274
g61
(g82
g63
NtRp4275
(dp4276
g66
(dp4277
g86
g87
ssg75
g4271
sg68
(lp4278
S'session_new'
p4279
asbag61
(g82
g63
NtRp4280
(dp4281
g66
(dp4282
g93
g94
ssg75
g4271
sg68
(lp4283
S':'
asbag61
(g82
g63
NtRp4284
(dp4285
g66
(dp4286
sg75
g4271
sg68
(lp4287
g61
(g62
g63
NtRp4288
(dp4289
g66
(dp4290
g74
I5
ssg75
g4284
sg68
(lp4291
g104
asbasbasbag61
(g77
g63
NtRp4292
(dp4293
g66
(dp4294
sg75
g3578
sg68
(lp4295
g61
(g82
g63
NtRp4296
(dp4297
g66
(dp4298
g86
g87
ssg75
g4292
sg68
(lp4299
S'session_storage_type'
p4300
asbag61
(g82
g63
NtRp4301
(dp4302
g66
(dp4303
g93
g94
ssg75
g4292
sg68
(lp4304
S':'
asbag61
(g82
g63
NtRp4305
(dp4306
g66
(dp4307
sg75
g4292
sg68
(lp4308
g61
(g62
g63
NtRp4309
(dp4310
g66
(dp4311
g74
I5
ssg75
g4305
sg68
(lp4312
g3390
asbasbasbag61
(g77
g63
NtRp4313
(dp4314
g66
(dp4315
sg75
g3578
sg68
(lp4316
g61
(g82
g63
NtRp4317
(dp4318
g66
(dp4319
g86
g87
ssg75
g4313
sg68
(lp4320
S'status'
p4321
asbag61
(g82
g63
NtRp4322
(dp4323
g66
(dp4324
g93
g94
ssg75
g4313
sg68
(lp4325
S':'
asbag61
(g82
g63
NtRp4326
(dp4327
g66
(dp4328
sg75
g4313
sg68
(lp4329
g61
(g62
g63
NtRp4330
(dp4331
g66
(dp4332
g74
I5
ssg75
g4326
sg68
(lp4333
S'200'
p4334
asbasbasbag61
(g77
g63
NtRp4335
(dp4336
g66
(dp4337
sg75
g3578
sg68
(lp4338
g61
(g82
g63
NtRp4339
(dp4340
g66
(dp4341
g86
g87
ssg75
g4335
sg68
(lp4342
S'view'
p4343
asbag61
(g82
g63
NtRp4344
(dp4345
g66
(dp4346
g93
g94
ssg75
g4335
sg68
(lp4347
S':'
asbag61
(g82
g63
NtRp4348
(dp4349
g66
(dp4350
sg75
g4335
sg68
(lp4351
g61
(g62
g63
NtRp4352
(dp4353
g66
(dp4354
g74
I5
ssg75
g4348
sg68
(lp4355
S'main/login.html'
p4356
asbasbasbasbasbsS'locals'
p4357
(dp4358
S'query'
p4359
S'"INSERT INTO auth_group(role,description) VALUES (\'Student\',\'Only run virtual machines available\');"'
p4360
sS'self'
p4361
S'<gluon.dal.MySQLAdapter object>'
p4362
sS'e'
S'ProgrammingError(1146, "Table \'UserDB.auth_group\' doesn\'t exist")'
p4363
sS'fields'
p4364
S"[(<gluon.dal.Field object>, 'Student'), (<gluon.dal.Field object>, 'Only run virtual machines available')]"
p4365
sS'table'
p4366
S'<Table auth_group (id,role,description)>'
p4367
sssS'traceback'
p4368
S'Traceback (most recent call last):\n  File "/home/adrian/web2py/gluon/restricted.py", line 212, in restricted\n    exec ccode in environment\n  File "/home/adrian/web2py/applications/CygnusCloud/models/db.py", line 25, in <module>\n    auth.add_group(\'Student\', \'Only run virtual machines available\')\n  File "/home/adrian/web2py/gluon/tools.py", line 2979, in add_group\n    role=role, description=description)\n  File "/home/adrian/web2py/gluon/dal.py", line 7918, in insert\n    ret =  self._db._adapter.insert(self,self._listify(fields))\n  File "/home/adrian/web2py/gluon/dal.py", line 1176, in insert\n    raise e\nProgrammingError: (1146, "Table \'UserDB.auth_group\' doesn\'t exist")\n'
p4369
s.