(dp1
S'output'
p2
S'<class \'_mysql_exceptions.ProgrammingError\'> (1146, "Table \'UserDB.auth_user\' doesn\'t exist")'
p3
sS'layer'
p4
S'/home/adrian/web2py/applications/CygnusCloud/models/db.py'
p5
sS'code'
p6
S"# -*- coding: utf-8 -*-\nfrom configuration import DBConfigurator\n\n\nconf = DBConfigurator('170590ucm')\nconf.dropDatabase('UserDB')\nconf.createDatabase('UserDB')\n#conf.addUser('CygnusCloud','cygnuscloud2012', 'UserDB')\nuserDB = DAL('mysql://CygnusCloud:cygnuscloud2012@localhost/UserDB',migrate_enabled=True)\n\n# Autentication\nfrom gluon.tools import Auth\nauth = Auth(userDB)\nauth.define_tables(migrate = True)\n      \nuserDB.define_table('UserGroup',\n   Field('yearGroup','integer', 'reference Users'),\n   Field('cod','integer','reference subjects'),\n   Field('curse','integer'),\n   Field('curseGroup', length=1),\n   primarykey=['cod','curseGroup'],migrate= True)\n      \nuserDB.define_table('ClassGroup',\n   Field('userId','integer', 'reference auth_user' ),\n   Field('cod','integer','reference UserGroup'),\n   Field('curseGroup','reference UserGroup',length=1 ),\n   primarykey=['cod','curseGroup','userId'],migrate= True)\n   \nuserDB.define_table('Subjects',\n   Field('code','integer'),\n   Field('name',length=15),migrate= True)\n   \n\n   \nuserDB.define_table('VMByGroup',\n   Field('VMName',length=20),\n   Field('cod','integer','reference UserGroup'),\n   Field('curseGroup','reference UserGroup',length=1 ),\n   primarykey=['cod','curseGroup','VMName'],migrate= True)\n\n\n\n#Usuario de prueba\nu1 = userDB.auth_user.insert(password = userDB.auth_user.password.validate('1234')[0],\\\n                    email = 'Admin1@ucm.es',first_name='Bertoldo',last_name='Pedralbes')\n                    \nprint userDB.tables \n#A\xc3\xb1adimos los grupos\n#auth.add_group('Student', 'Only run virtual machines available')\n#auth.add_group('Administrator', 'All privilages available')\n\n#Enlazamos los usuarios a los grupos\n#auth.add_membership('Administrator',u1)\n"
p7
sS'snapshot'
p8
(dp9
S'exception'
p10
(dp11
S'__module__'
p12
S"'_mysql_exceptions'"
p13
sS'__getslice__'
p14
S"<method-wrapper '__getslice__' of ProgrammingError object>"
p15
sS'__str__'
p16
S"<method-wrapper '__str__' of ProgrammingError object>"
p17
sS'__reduce__'
p18
S'<built-in method __reduce__ of ProgrammingError object>'
p19
sS'__dict__'
p20
S'{}'
p21
sS'__sizeof__'
p22
S'<built-in method __sizeof__ of ProgrammingError object>'
p23
sS'__weakref__'
p24
S'None'
p25
sS'__init__'
p26
S"<method-wrapper '__init__' of ProgrammingError object>"
p27
sS'__setattr__'
p28
S"<method-wrapper '__setattr__' of ProgrammingError object>"
p29
sS'__reduce_ex__'
p30
S'<built-in method __reduce_ex__ of ProgrammingError object>'
p31
sS'__new__'
p32
S'<built-in method __new__ of type object>'
p33
sS'__format__'
p34
S'<built-in method __format__ of ProgrammingError object>'
p35
sS'__class__'
p36
S"<class '_mysql_exceptions.ProgrammingError'>"
p37
sS'__doc__'
p38
S"'Exception raised for programming errors, e.g. ta...t, wrong number\\n    of parameters specified, etc.'"
p39
sS'__getitem__'
p40
S"<method-wrapper '__getitem__' of ProgrammingError object>"
p41
sS'__setstate__'
p42
S'<built-in method __setstate__ of ProgrammingError object>'
p43
sS'__getattribute__'
p44
S"<method-wrapper '__getattribute__' of ProgrammingError object>"
p45
sS'args'
p46
S'(1146, "Table \'UserDB.auth_user\' doesn\'t exist")'
p47
sS'__subclasshook__'
p48
S'<built-in method __subclasshook__ of type object>'
p49
sS'__unicode__'
p50
S'<built-in method __unicode__ of ProgrammingError object>'
p51
sS'__delattr__'
p52
S"<method-wrapper '__delattr__' of ProgrammingError object>"
p53
sS'__repr__'
p54
S"<method-wrapper '__repr__' of ProgrammingError object>"
p55
sS'__hash__'
p56
S"<method-wrapper '__hash__' of ProgrammingError object>"
p57
ssS'evalue'
p58
S'(1146, "Table \'UserDB.auth_user\' doesn\'t exist")'
p59
sS'request'
p60
ccopy_reg
_reconstructor
p61
(cgluon.html
BEAUTIFY
p62
c__builtin__
object
p63
NtRp64
(dp65
S'attributes'
p66
(dp67
sS'components'
p68
(lp69
g61
(cgluon.html
TABLE
p70
g63
NtRp71
(dp72
g66
(dp73
S'level'
p74
I5
ssS'parent'
p75
Nsg68
(lp76
g61
(cgluon.html
TR
p77
g63
NtRp78
(dp79
g66
(dp80
sg75
g71
sg68
(lp81
g61
(cgluon.html
TD
p82
g63
NtRp83
(dp84
g66
(dp85
S'_style'
p86
S'font-weight:bold;vertical-align:top'
p87
ssg75
g78
sg68
(lp88
S'ajax'
p89
asbag61
(g82
g63
NtRp90
(dp91
g66
(dp92
S'_valign'
p93
S'top'
p94
ssg75
g78
sg68
(lp95
S':'
asbag61
(g82
g63
NtRp96
(dp97
g66
(dp98
sg75
g78
sg68
(lp99
g61
(g62
g63
NtRp100
(dp101
g66
(dp102
g74
I5
ssg75
g96
sg68
(lp103
S'False'
p104
asbasbasbag61
(g77
g63
NtRp105
(dp106
g66
(dp107
sg75
g71
sg68
(lp108
g61
(g82
g63
NtRp109
(dp110
g66
(dp111
g86
g87
ssg75
g105
sg68
(lp112
S'application'
p113
asbag61
(g82
g63
NtRp114
(dp115
g66
(dp116
g93
g94
ssg75
g105
sg68
(lp117
S':'
asbag61
(g82
g63
NtRp118
(dp119
g66
(dp120
sg75
g105
sg68
(lp121
g61
(g62
g63
NtRp122
(dp123
g66
(dp124
g74
I5
ssg75
g118
sg68
(lp125
S'CygnusCloud'
p126
asbasbasbag61
(g77
g63
NtRp127
(dp128
g66
(dp129
sg75
g71
sg68
(lp130
g61
(g82
g63
NtRp131
(dp132
g66
(dp133
g86
g87
ssg75
g127
sg68
(lp134
g46
asbag61
(g82
g63
NtRp135
(dp136
g66
(dp137
g93
g94
ssg75
g127
sg68
(lp138
S':'
asbag61
(g82
g63
NtRp139
(dp140
g66
(dp141
sg75
g127
sg68
(lp142
g61
(g62
g63
NtRp143
(dp144
g66
(dp145
g74
I5
ssg75
g139
sg68
(lp146
g61
(g70
g63
NtRp147
(dp148
g66
(dp149
g74
I4
ssg75
Nsg68
(lp150
sbasbasbasbag61
(g77
g63
NtRp151
(dp152
g66
(dp153
sg75
g71
sg68
(lp154
g61
(g82
g63
NtRp155
(dp156
g66
(dp157
g86
g87
ssg75
g151
sg68
(lp158
S'body'
p159
asbag61
(g82
g63
NtRp160
(dp161
g66
(dp162
g93
g94
ssg75
g151
sg68
(lp163
S':'
asbag61
(g82
g63
NtRp164
(dp165
g66
(dp166
sg75
g151
sg68
(lp167
g61
(g62
g63
NtRp168
(dp169
g66
(dp170
g74
I5
ssg75
g164
sg68
(lp171
S'<cStringIO.StringO object at 0x7f69a85cf148>'
p172
asbasbasbag61
(g77
g63
NtRp173
(dp174
g66
(dp175
sg75
g71
sg68
(lp176
g61
(g82
g63
NtRp177
(dp178
g66
(dp179
g86
g87
ssg75
g173
sg68
(lp180
S'cid'
p181
asbag61
(g82
g63
NtRp182
(dp183
g66
(dp184
g93
g94
ssg75
g173
sg68
(lp185
S':'
asbag61
(g82
g63
NtRp186
(dp187
g66
(dp188
sg75
g173
sg68
(lp189
g61
(g62
g63
NtRp190
(dp191
g66
(dp192
g74
I5
ssg75
g186
sg68
(lp193
S'None'
p194
asbasbasbag61
(g77
g63
NtRp195
(dp196
g66
(dp197
sg75
g71
sg68
(lp198
g61
(g82
g63
NtRp199
(dp200
g66
(dp201
g86
g87
ssg75
g195
sg68
(lp202
S'client'
p203
asbag61
(g82
g63
NtRp204
(dp205
g66
(dp206
g93
g94
ssg75
g195
sg68
(lp207
S':'
asbag61
(g82
g63
NtRp208
(dp209
g66
(dp210
sg75
g195
sg68
(lp211
g61
(g62
g63
NtRp212
(dp213
g66
(dp214
g74
I5
ssg75
g208
sg68
(lp215
S'127.0.0.1'
p216
asbasbasbag61
(g77
g63
NtRp217
(dp218
g66
(dp219
sg75
g71
sg68
(lp220
g61
(g82
g63
NtRp221
(dp222
g66
(dp223
g86
g87
ssg75
g217
sg68
(lp224
S'controller'
p225
asbag61
(g82
g63
NtRp226
(dp227
g66
(dp228
g93
g94
ssg75
g217
sg68
(lp229
S':'
asbag61
(g82
g63
NtRp230
(dp231
g66
(dp232
sg75
g217
sg68
(lp233
g61
(g62
g63
NtRp234
(dp235
g66
(dp236
g74
I5
ssg75
g230
sg68
(lp237
S'main'
p238
asbasbasbag61
(g77
g63
NtRp239
(dp240
g66
(dp241
sg75
g71
sg68
(lp242
g61
(g82
g63
NtRp243
(dp244
g66
(dp245
g86
g87
ssg75
g239
sg68
(lp246
S'cookies'
p247
asbag61
(g82
g63
NtRp248
(dp249
g66
(dp250
g93
g94
ssg75
g239
sg68
(lp251
S':'
asbag61
(g82
g63
NtRp252
(dp253
g66
(dp254
sg75
g239
sg68
(lp255
g61
(g62
g63
NtRp256
(dp257
g66
(dp258
g74
I5
ssg75
g252
sg68
(lp259
g61
(g70
g63
NtRp260
(dp261
g66
(dp262
g74
I4
ssg75
Nsg68
(lp263
g61
(g77
g63
NtRp264
(dp265
g66
(dp266
sg75
g260
sg68
(lp267
g61
(g82
g63
NtRp268
(dp269
g66
(dp270
g86
g87
ssg75
g264
sg68
(lp271
S'session_id_admin'
p272
asbag61
(g82
g63
NtRp273
(dp274
g66
(dp275
g93
g94
ssg75
g264
sg68
(lp276
S':'
asbag61
(g82
g63
NtRp277
(dp278
g66
(dp279
sg75
g264
sg68
(lp280
g61
(g62
g63
NtRp281
(dp282
g66
(dp283
g74
I4
ssg75
g277
sg68
(lp284
S'127.0.0.1-55f52477-473c-42b8-b923-a29e2f1fa64b'
p285
ag61
(g70
g63
NtRp286
(dp287
g66
(dp288
g74
I3
ssg75
Nsg68
(lp289
g61
(g77
g63
NtRp290
(dp291
g66
(dp292
sg75
g286
sg68
(lp293
g61
(g82
g63
NtRp294
(dp295
g66
(dp296
g86
g87
ssg75
g290
sg68
(lp297
S'comment'
p298
asbag61
(g82
g63
NtRp299
(dp300
g66
(dp301
g93
g94
ssg75
g290
sg68
(lp302
S':'
asbag61
(g82
g63
NtRp303
(dp304
g66
(dp305
sg75
g290
sg68
(lp306
g61
(g62
g63
NtRp307
(dp308
g66
(dp309
g74
I3
ssg75
g303
sg68
(lp310
S''
asbasbasbag61
(g77
g63
NtRp311
(dp312
g66
(dp313
sg75
g286
sg68
(lp314
g61
(g82
g63
NtRp315
(dp316
g66
(dp317
g86
g87
ssg75
g311
sg68
(lp318
S'domain'
p319
asbag61
(g82
g63
NtRp320
(dp321
g66
(dp322
g93
g94
ssg75
g311
sg68
(lp323
S':'
asbag61
(g82
g63
NtRp324
(dp325
g66
(dp326
sg75
g311
sg68
(lp327
g61
(g62
g63
NtRp328
(dp329
g66
(dp330
g74
I3
ssg75
g324
sg68
(lp331
S''
asbasbasbag61
(g77
g63
NtRp332
(dp333
g66
(dp334
sg75
g286
sg68
(lp335
g61
(g82
g63
NtRp336
(dp337
g66
(dp338
g86
g87
ssg75
g332
sg68
(lp339
S'expires'
p340
asbag61
(g82
g63
NtRp341
(dp342
g66
(dp343
g93
g94
ssg75
g332
sg68
(lp344
S':'
asbag61
(g82
g63
NtRp345
(dp346
g66
(dp347
sg75
g332
sg68
(lp348
g61
(g62
g63
NtRp349
(dp350
g66
(dp351
g74
I3
ssg75
g345
sg68
(lp352
S''
asbasbasbag61
(g77
g63
NtRp353
(dp354
g66
(dp355
sg75
g286
sg68
(lp356
g61
(g82
g63
NtRp357
(dp358
g66
(dp359
g86
g87
ssg75
g353
sg68
(lp360
S'httponly'
p361
asbag61
(g82
g63
NtRp362
(dp363
g66
(dp364
g93
g94
ssg75
g353
sg68
(lp365
S':'
asbag61
(g82
g63
NtRp366
(dp367
g66
(dp368
sg75
g353
sg68
(lp369
g61
(g62
g63
NtRp370
(dp371
g66
(dp372
g74
I3
ssg75
g366
sg68
(lp373
S''
asbasbasbag61
(g77
g63
NtRp374
(dp375
g66
(dp376
sg75
g286
sg68
(lp377
g61
(g82
g63
NtRp378
(dp379
g66
(dp380
g86
g87
ssg75
g374
sg68
(lp381
S'max-age'
p382
asbag61
(g82
g63
NtRp383
(dp384
g66
(dp385
g93
g94
ssg75
g374
sg68
(lp386
S':'
asbag61
(g82
g63
NtRp387
(dp388
g66
(dp389
sg75
g374
sg68
(lp390
g61
(g62
g63
NtRp391
(dp392
g66
(dp393
g74
I3
ssg75
g387
sg68
(lp394
S''
asbasbasbag61
(g77
g63
NtRp395
(dp396
g66
(dp397
sg75
g286
sg68
(lp398
g61
(g82
g63
NtRp399
(dp400
g66
(dp401
g86
g87
ssg75
g395
sg68
(lp402
S'path'
p403
asbag61
(g82
g63
NtRp404
(dp405
g66
(dp406
g93
g94
ssg75
g395
sg68
(lp407
S':'
asbag61
(g82
g63
NtRp408
(dp409
g66
(dp410
sg75
g395
sg68
(lp411
g61
(g62
g63
NtRp412
(dp413
g66
(dp414
g74
I3
ssg75
g408
sg68
(lp415
S''
asbasbasbag61
(g77
g63
NtRp416
(dp417
g66
(dp418
sg75
g286
sg68
(lp419
g61
(g82
g63
NtRp420
(dp421
g66
(dp422
g86
g87
ssg75
g416
sg68
(lp423
S'secure'
p424
asbag61
(g82
g63
NtRp425
(dp426
g66
(dp427
g93
g94
ssg75
g416
sg68
(lp428
S':'
asbag61
(g82
g63
NtRp429
(dp430
g66
(dp431
sg75
g416
sg68
(lp432
g61
(g62
g63
NtRp433
(dp434
g66
(dp435
g74
I3
ssg75
g429
sg68
(lp436
S''
asbasbasbag61
(g77
g63
NtRp437
(dp438
g66
(dp439
sg75
g286
sg68
(lp440
g61
(g82
g63
NtRp441
(dp442
g66
(dp443
g86
g87
ssg75
g437
sg68
(lp444
S'version'
p445
asbag61
(g82
g63
NtRp446
(dp447
g66
(dp448
g93
g94
ssg75
g437
sg68
(lp449
S':'
asbag61
(g82
g63
NtRp450
(dp451
g66
(dp452
sg75
g437
sg68
(lp453
g61
(g62
g63
NtRp454
(dp455
g66
(dp456
g74
I3
ssg75
g450
sg68
(lp457
S''
asbasbasbasbasbasbasbag61
(g77
g63
NtRp458
(dp459
g66
(dp460
sg75
g260
sg68
(lp461
g61
(g82
g63
NtRp462
(dp463
g66
(dp464
g86
g87
ssg75
g458
sg68
(lp465
S'session_id_cygnuscloud'
p466
asbag61
(g82
g63
NtRp467
(dp468
g66
(dp469
g93
g94
ssg75
g458
sg68
(lp470
S':'
asbag61
(g82
g63
NtRp471
(dp472
g66
(dp473
sg75
g458
sg68
(lp474
g61
(g62
g63
NtRp475
(dp476
g66
(dp477
g74
I4
ssg75
g471
sg68
(lp478
S'127.0.0.1-791acaf2-7386-46dc-b011-4810dc00037c'
p479
ag61
(g70
g63
NtRp480
(dp481
g66
(dp482
g74
I3
ssg75
Nsg68
(lp483
g61
(g77
g63
NtRp484
(dp485
g66
(dp486
sg75
g480
sg68
(lp487
g61
(g82
g63
NtRp488
(dp489
g66
(dp490
g86
g87
ssg75
g484
sg68
(lp491
g298
asbag61
(g82
g63
NtRp492
(dp493
g66
(dp494
g93
g94
ssg75
g484
sg68
(lp495
S':'
asbag61
(g82
g63
NtRp496
(dp497
g66
(dp498
sg75
g484
sg68
(lp499
g61
(g62
g63
NtRp500
(dp501
g66
(dp502
g74
I3
ssg75
g496
sg68
(lp503
S''
asbasbasbag61
(g77
g63
NtRp504
(dp505
g66
(dp506
sg75
g480
sg68
(lp507
g61
(g82
g63
NtRp508
(dp509
g66
(dp510
g86
g87
ssg75
g504
sg68
(lp511
g319
asbag61
(g82
g63
NtRp512
(dp513
g66
(dp514
g93
g94
ssg75
g504
sg68
(lp515
S':'
asbag61
(g82
g63
NtRp516
(dp517
g66
(dp518
sg75
g504
sg68
(lp519
g61
(g62
g63
NtRp520
(dp521
g66
(dp522
g74
I3
ssg75
g516
sg68
(lp523
S''
asbasbasbag61
(g77
g63
NtRp524
(dp525
g66
(dp526
sg75
g480
sg68
(lp527
g61
(g82
g63
NtRp528
(dp529
g66
(dp530
g86
g87
ssg75
g524
sg68
(lp531
g340
asbag61
(g82
g63
NtRp532
(dp533
g66
(dp534
g93
g94
ssg75
g524
sg68
(lp535
S':'
asbag61
(g82
g63
NtRp536
(dp537
g66
(dp538
sg75
g524
sg68
(lp539
g61
(g62
g63
NtRp540
(dp541
g66
(dp542
g74
I3
ssg75
g536
sg68
(lp543
S''
asbasbasbag61
(g77
g63
NtRp544
(dp545
g66
(dp546
sg75
g480
sg68
(lp547
g61
(g82
g63
NtRp548
(dp549
g66
(dp550
g86
g87
ssg75
g544
sg68
(lp551
g361
asbag61
(g82
g63
NtRp552
(dp553
g66
(dp554
g93
g94
ssg75
g544
sg68
(lp555
S':'
asbag61
(g82
g63
NtRp556
(dp557
g66
(dp558
sg75
g544
sg68
(lp559
g61
(g62
g63
NtRp560
(dp561
g66
(dp562
g74
I3
ssg75
g556
sg68
(lp563
S''
asbasbasbag61
(g77
g63
NtRp564
(dp565
g66
(dp566
sg75
g480
sg68
(lp567
g61
(g82
g63
NtRp568
(dp569
g66
(dp570
g86
g87
ssg75
g564
sg68
(lp571
g382
asbag61
(g82
g63
NtRp572
(dp573
g66
(dp574
g93
g94
ssg75
g564
sg68
(lp575
S':'
asbag61
(g82
g63
NtRp576
(dp577
g66
(dp578
sg75
g564
sg68
(lp579
g61
(g62
g63
NtRp580
(dp581
g66
(dp582
g74
I3
ssg75
g576
sg68
(lp583
S''
asbasbasbag61
(g77
g63
NtRp584
(dp585
g66
(dp586
sg75
g480
sg68
(lp587
g61
(g82
g63
NtRp588
(dp589
g66
(dp590
g86
g87
ssg75
g584
sg68
(lp591
g403
asbag61
(g82
g63
NtRp592
(dp593
g66
(dp594
g93
g94
ssg75
g584
sg68
(lp595
S':'
asbag61
(g82
g63
NtRp596
(dp597
g66
(dp598
sg75
g584
sg68
(lp599
g61
(g62
g63
NtRp600
(dp601
g66
(dp602
g74
I3
ssg75
g596
sg68
(lp603
S''
asbasbasbag61
(g77
g63
NtRp604
(dp605
g66
(dp606
sg75
g480
sg68
(lp607
g61
(g82
g63
NtRp608
(dp609
g66
(dp610
g86
g87
ssg75
g604
sg68
(lp611
g424
asbag61
(g82
g63
NtRp612
(dp613
g66
(dp614
g93
g94
ssg75
g604
sg68
(lp615
S':'
asbag61
(g82
g63
NtRp616
(dp617
g66
(dp618
sg75
g604
sg68
(lp619
g61
(g62
g63
NtRp620
(dp621
g66
(dp622
g74
I3
ssg75
g616
sg68
(lp623
S''
asbasbasbag61
(g77
g63
NtRp624
(dp625
g66
(dp626
sg75
g480
sg68
(lp627
g61
(g82
g63
NtRp628
(dp629
g66
(dp630
g86
g87
ssg75
g624
sg68
(lp631
g445
asbag61
(g82
g63
NtRp632
(dp633
g66
(dp634
g93
g94
ssg75
g624
sg68
(lp635
S':'
asbag61
(g82
g63
NtRp636
(dp637
g66
(dp638
sg75
g624
sg68
(lp639
g61
(g62
g63
NtRp640
(dp641
g66
(dp642
g74
I3
ssg75
g636
sg68
(lp643
S''
asbasbasbasbasbasbasbag61
(g77
g63
NtRp644
(dp645
g66
(dp646
sg75
g260
sg68
(lp647
g61
(g82
g63
NtRp648
(dp649
g66
(dp650
g86
g87
ssg75
g644
sg68
(lp651
S'session_id_images'
p652
asbag61
(g82
g63
NtRp653
(dp654
g66
(dp655
g93
g94
ssg75
g644
sg68
(lp656
S':'
asbag61
(g82
g63
NtRp657
(dp658
g66
(dp659
sg75
g644
sg68
(lp660
g61
(g62
g63
NtRp661
(dp662
g66
(dp663
g74
I4
ssg75
g657
sg68
(lp664
S'127.0.0.1-86f6c98f-4fbb-4841-b606-44c0d90442c6'
p665
ag61
(g70
g63
NtRp666
(dp667
g66
(dp668
g74
I3
ssg75
Nsg68
(lp669
g61
(g77
g63
NtRp670
(dp671
g66
(dp672
sg75
g666
sg68
(lp673
g61
(g82
g63
NtRp674
(dp675
g66
(dp676
g86
g87
ssg75
g670
sg68
(lp677
g298
asbag61
(g82
g63
NtRp678
(dp679
g66
(dp680
g93
g94
ssg75
g670
sg68
(lp681
S':'
asbag61
(g82
g63
NtRp682
(dp683
g66
(dp684
sg75
g670
sg68
(lp685
g61
(g62
g63
NtRp686
(dp687
g66
(dp688
g74
I3
ssg75
g682
sg68
(lp689
S''
asbasbasbag61
(g77
g63
NtRp690
(dp691
g66
(dp692
sg75
g666
sg68
(lp693
g61
(g82
g63
NtRp694
(dp695
g66
(dp696
g86
g87
ssg75
g690
sg68
(lp697
g319
asbag61
(g82
g63
NtRp698
(dp699
g66
(dp700
g93
g94
ssg75
g690
sg68
(lp701
S':'
asbag61
(g82
g63
NtRp702
(dp703
g66
(dp704
sg75
g690
sg68
(lp705
g61
(g62
g63
NtRp706
(dp707
g66
(dp708
g74
I3
ssg75
g702
sg68
(lp709
S''
asbasbasbag61
(g77
g63
NtRp710
(dp711
g66
(dp712
sg75
g666
sg68
(lp713
g61
(g82
g63
NtRp714
(dp715
g66
(dp716
g86
g87
ssg75
g710
sg68
(lp717
g340
asbag61
(g82
g63
NtRp718
(dp719
g66
(dp720
g93
g94
ssg75
g710
sg68
(lp721
S':'
asbag61
(g82
g63
NtRp722
(dp723
g66
(dp724
sg75
g710
sg68
(lp725
g61
(g62
g63
NtRp726
(dp727
g66
(dp728
g74
I3
ssg75
g722
sg68
(lp729
S''
asbasbasbag61
(g77
g63
NtRp730
(dp731
g66
(dp732
sg75
g666
sg68
(lp733
g61
(g82
g63
NtRp734
(dp735
g66
(dp736
g86
g87
ssg75
g730
sg68
(lp737
g361
asbag61
(g82
g63
NtRp738
(dp739
g66
(dp740
g93
g94
ssg75
g730
sg68
(lp741
S':'
asbag61
(g82
g63
NtRp742
(dp743
g66
(dp744
sg75
g730
sg68
(lp745
g61
(g62
g63
NtRp746
(dp747
g66
(dp748
g74
I3
ssg75
g742
sg68
(lp749
S''
asbasbasbag61
(g77
g63
NtRp750
(dp751
g66
(dp752
sg75
g666
sg68
(lp753
g61
(g82
g63
NtRp754
(dp755
g66
(dp756
g86
g87
ssg75
g750
sg68
(lp757
g382
asbag61
(g82
g63
NtRp758
(dp759
g66
(dp760
g93
g94
ssg75
g750
sg68
(lp761
S':'
asbag61
(g82
g63
NtRp762
(dp763
g66
(dp764
sg75
g750
sg68
(lp765
g61
(g62
g63
NtRp766
(dp767
g66
(dp768
g74
I3
ssg75
g762
sg68
(lp769
S''
asbasbasbag61
(g77
g63
NtRp770
(dp771
g66
(dp772
sg75
g666
sg68
(lp773
g61
(g82
g63
NtRp774
(dp775
g66
(dp776
g86
g87
ssg75
g770
sg68
(lp777
g403
asbag61
(g82
g63
NtRp778
(dp779
g66
(dp780
g93
g94
ssg75
g770
sg68
(lp781
S':'
asbag61
(g82
g63
NtRp782
(dp783
g66
(dp784
sg75
g770
sg68
(lp785
g61
(g62
g63
NtRp786
(dp787
g66
(dp788
g74
I3
ssg75
g782
sg68
(lp789
S''
asbasbasbag61
(g77
g63
NtRp790
(dp791
g66
(dp792
sg75
g666
sg68
(lp793
g61
(g82
g63
NtRp794
(dp795
g66
(dp796
g86
g87
ssg75
g790
sg68
(lp797
g424
asbag61
(g82
g63
NtRp798
(dp799
g66
(dp800
g93
g94
ssg75
g790
sg68
(lp801
S':'
asbag61
(g82
g63
NtRp802
(dp803
g66
(dp804
sg75
g790
sg68
(lp805
g61
(g62
g63
NtRp806
(dp807
g66
(dp808
g74
I3
ssg75
g802
sg68
(lp809
S''
asbasbasbag61
(g77
g63
NtRp810
(dp811
g66
(dp812
sg75
g666
sg68
(lp813
g61
(g82
g63
NtRp814
(dp815
g66
(dp816
g86
g87
ssg75
g810
sg68
(lp817
g445
asbag61
(g82
g63
NtRp818
(dp819
g66
(dp820
g93
g94
ssg75
g810
sg68
(lp821
S':'
asbag61
(g82
g63
NtRp822
(dp823
g66
(dp824
sg75
g810
sg68
(lp825
g61
(g62
g63
NtRp826
(dp827
g66
(dp828
g74
I3
ssg75
g822
sg68
(lp829
S''
asbasbasbasbasbasbasbag61
(g77
g63
NtRp830
(dp831
g66
(dp832
sg75
g260
sg68
(lp833
g61
(g82
g63
NtRp834
(dp835
g66
(dp836
g86
g87
ssg75
g830
sg68
(lp837
S'session_id_welcome'
p838
asbag61
(g82
g63
NtRp839
(dp840
g66
(dp841
g93
g94
ssg75
g830
sg68
(lp842
S':'
asbag61
(g82
g63
NtRp843
(dp844
g66
(dp845
sg75
g830
sg68
(lp846
g61
(g62
g63
NtRp847
(dp848
g66
(dp849
g74
I4
ssg75
g843
sg68
(lp850
S'127.0.0.1-ed3399df-33a9-4506-9f65-53bddd2578f7'
p851
ag61
(g70
g63
NtRp852
(dp853
g66
(dp854
g74
I3
ssg75
Nsg68
(lp855
g61
(g77
g63
NtRp856
(dp857
g66
(dp858
sg75
g852
sg68
(lp859
g61
(g82
g63
NtRp860
(dp861
g66
(dp862
g86
g87
ssg75
g856
sg68
(lp863
g298
asbag61
(g82
g63
NtRp864
(dp865
g66
(dp866
g93
g94
ssg75
g856
sg68
(lp867
S':'
asbag61
(g82
g63
NtRp868
(dp869
g66
(dp870
sg75
g856
sg68
(lp871
g61
(g62
g63
NtRp872
(dp873
g66
(dp874
g74
I3
ssg75
g868
sg68
(lp875
S''
asbasbasbag61
(g77
g63
NtRp876
(dp877
g66
(dp878
sg75
g852
sg68
(lp879
g61
(g82
g63
NtRp880
(dp881
g66
(dp882
g86
g87
ssg75
g876
sg68
(lp883
g319
asbag61
(g82
g63
NtRp884
(dp885
g66
(dp886
g93
g94
ssg75
g876
sg68
(lp887
S':'
asbag61
(g82
g63
NtRp888
(dp889
g66
(dp890
sg75
g876
sg68
(lp891
g61
(g62
g63
NtRp892
(dp893
g66
(dp894
g74
I3
ssg75
g888
sg68
(lp895
S''
asbasbasbag61
(g77
g63
NtRp896
(dp897
g66
(dp898
sg75
g852
sg68
(lp899
g61
(g82
g63
NtRp900
(dp901
g66
(dp902
g86
g87
ssg75
g896
sg68
(lp903
g340
asbag61
(g82
g63
NtRp904
(dp905
g66
(dp906
g93
g94
ssg75
g896
sg68
(lp907
S':'
asbag61
(g82
g63
NtRp908
(dp909
g66
(dp910
sg75
g896
sg68
(lp911
g61
(g62
g63
NtRp912
(dp913
g66
(dp914
g74
I3
ssg75
g908
sg68
(lp915
S''
asbasbasbag61
(g77
g63
NtRp916
(dp917
g66
(dp918
sg75
g852
sg68
(lp919
g61
(g82
g63
NtRp920
(dp921
g66
(dp922
g86
g87
ssg75
g916
sg68
(lp923
g361
asbag61
(g82
g63
NtRp924
(dp925
g66
(dp926
g93
g94
ssg75
g916
sg68
(lp927
S':'
asbag61
(g82
g63
NtRp928
(dp929
g66
(dp930
sg75
g916
sg68
(lp931
g61
(g62
g63
NtRp932
(dp933
g66
(dp934
g74
I3
ssg75
g928
sg68
(lp935
S''
asbasbasbag61
(g77
g63
NtRp936
(dp937
g66
(dp938
sg75
g852
sg68
(lp939
g61
(g82
g63
NtRp940
(dp941
g66
(dp942
g86
g87
ssg75
g936
sg68
(lp943
g382
asbag61
(g82
g63
NtRp944
(dp945
g66
(dp946
g93
g94
ssg75
g936
sg68
(lp947
S':'
asbag61
(g82
g63
NtRp948
(dp949
g66
(dp950
sg75
g936
sg68
(lp951
g61
(g62
g63
NtRp952
(dp953
g66
(dp954
g74
I3
ssg75
g948
sg68
(lp955
S''
asbasbasbag61
(g77
g63
NtRp956
(dp957
g66
(dp958
sg75
g852
sg68
(lp959
g61
(g82
g63
NtRp960
(dp961
g66
(dp962
g86
g87
ssg75
g956
sg68
(lp963
g403
asbag61
(g82
g63
NtRp964
(dp965
g66
(dp966
g93
g94
ssg75
g956
sg68
(lp967
S':'
asbag61
(g82
g63
NtRp968
(dp969
g66
(dp970
sg75
g956
sg68
(lp971
g61
(g62
g63
NtRp972
(dp973
g66
(dp974
g74
I3
ssg75
g968
sg68
(lp975
S''
asbasbasbag61
(g77
g63
NtRp976
(dp977
g66
(dp978
sg75
g852
sg68
(lp979
g61
(g82
g63
NtRp980
(dp981
g66
(dp982
g86
g87
ssg75
g976
sg68
(lp983
g424
asbag61
(g82
g63
NtRp984
(dp985
g66
(dp986
g93
g94
ssg75
g976
sg68
(lp987
S':'
asbag61
(g82
g63
NtRp988
(dp989
g66
(dp990
sg75
g976
sg68
(lp991
g61
(g62
g63
NtRp992
(dp993
g66
(dp994
g74
I3
ssg75
g988
sg68
(lp995
S''
asbasbasbag61
(g77
g63
NtRp996
(dp997
g66
(dp998
sg75
g852
sg68
(lp999
g61
(g82
g63
NtRp1000
(dp1001
g66
(dp1002
g86
g87
ssg75
g996
sg68
(lp1003
g445
asbag61
(g82
g63
NtRp1004
(dp1005
g66
(dp1006
g93
g94
ssg75
g996
sg68
(lp1007
S':'
asbag61
(g82
g63
NtRp1008
(dp1009
g66
(dp1010
sg75
g996
sg68
(lp1011
g61
(g62
g63
NtRp1012
(dp1013
g66
(dp1014
g74
I3
ssg75
g1008
sg68
(lp1015
S''
asbasbasbasbasbasbasbasbasbasbasbag61
(g77
g63
NtRp1016
(dp1017
g66
(dp1018
sg75
g71
sg68
(lp1019
g61
(g82
g63
NtRp1020
(dp1021
g66
(dp1022
g86
g87
ssg75
g1016
sg68
(lp1023
S'env'
p1024
asbag61
(g82
g63
NtRp1025
(dp1026
g66
(dp1027
g93
g94
ssg75
g1016
sg68
(lp1028
S':'
asbag61
(g82
g63
NtRp1029
(dp1030
g66
(dp1031
sg75
g1016
sg68
(lp1032
g61
(g62
g63
NtRp1033
(dp1034
g66
(dp1035
g74
I5
ssg75
g1029
sg68
(lp1036
g61
(g70
g63
NtRp1037
(dp1038
g66
(dp1039
g74
I4
ssg75
Nsg68
(lp1040
g61
(g77
g63
NtRp1041
(dp1042
g66
(dp1043
sg75
g1037
sg68
(lp1044
g61
(g82
g63
NtRp1045
(dp1046
g66
(dp1047
g86
g87
ssg75
g1041
sg68
(lp1048
S'app_folders'
p1049
asbag61
(g82
g63
NtRp1050
(dp1051
g66
(dp1052
g93
g94
ssg75
g1041
sg68
(lp1053
S':'
asbag61
(g82
g63
NtRp1054
(dp1055
g66
(dp1056
sg75
g1041
sg68
(lp1057
g61
(g62
g63
NtRp1058
(dp1059
g66
(dp1060
g74
I4
ssg75
g1054
sg68
(lp1061
S"set(['/home/adrian/web2py/applications/admin/', '/home/adrian/web2py/applications/images/', '/home/adrian/web2py/applications/CygnusCloud/'])"
p1062
asbasbasbag61
(g77
g63
NtRp1063
(dp1064
g66
(dp1065
sg75
g1037
sg68
(lp1066
g61
(g82
g63
NtRp1067
(dp1068
g66
(dp1069
g86
g87
ssg75
g1063
sg68
(lp1070
S'applications_parent'
p1071
asbag61
(g82
g63
NtRp1072
(dp1073
g66
(dp1074
g93
g94
ssg75
g1063
sg68
(lp1075
S':'
asbag61
(g82
g63
NtRp1076
(dp1077
g66
(dp1078
sg75
g1063
sg68
(lp1079
g61
(g62
g63
NtRp1080
(dp1081
g66
(dp1082
g74
I4
ssg75
g1076
sg68
(lp1083
S'/home/adrian/web2py'
p1084
asbasbasbag61
(g77
g63
NtRp1085
(dp1086
g66
(dp1087
sg75
g1037
sg68
(lp1088
g61
(g82
g63
NtRp1089
(dp1090
g66
(dp1091
g86
g87
ssg75
g1085
sg68
(lp1092
S'cmd_args'
p1093
asbag61
(g82
g63
NtRp1094
(dp1095
g66
(dp1096
g93
g94
ssg75
g1085
sg68
(lp1097
S':'
asbag61
(g82
g63
NtRp1098
(dp1099
g66
(dp1100
sg75
g1085
sg68
(lp1101
g61
(g62
g63
NtRp1102
(dp1103
g66
(dp1104
g74
I4
ssg75
g1098
sg68
(lp1105
g61
(g70
g63
NtRp1106
(dp1107
g66
(dp1108
g74
I3
ssg75
Nsg68
(lp1109
sbasbasbasbag61
(g77
g63
NtRp1110
(dp1111
g66
(dp1112
sg75
g1037
sg68
(lp1113
g61
(g82
g63
NtRp1114
(dp1115
g66
(dp1116
g86
g87
ssg75
g1110
sg68
(lp1117
S'cmd_options'
p1118
asbag61
(g82
g63
NtRp1119
(dp1120
g66
(dp1121
g93
g94
ssg75
g1110
sg68
(lp1122
S':'
asbag61
(g82
g63
NtRp1123
(dp1124
g66
(dp1125
sg75
g1110
sg68
(lp1126
g61
(g62
g63
NtRp1127
(dp1128
g66
(dp1129
g74
I4
ssg75
g1123
sg68
(lp1130
S"<Values at 0x2180bd8: {'verbose': False, 'ip': '127.0.0.1', 'with_scheduler': False, 'ips': [], 'shutdown_timeout': 5, 'taskbar': False, 'port': 8000, 'maxthreads': None, 'softcron': False, 'server_name': 'adri-EasyNote', 'bpython': False, 'nogui': False, 'pid_filename': 'httpserver.pid', 'extcron': False, 'runcron': False, 'run_system_tests': False, 'test': None, 'folder': '/home/adrian/web2py', 'config': '', 'minthreads': None, 'winservice': '', 'shell': None, 'run': '', 'log_filename': 'httpserver.log', 'debuglevel': 30, 'args': [''], 'socket_timeout': 5, 'ssl_ca_certificate': None, 'scheduler': None, 'profiler_filename': None, 'ssl_private_key': '', 'scheduler_groups': None, 'password': 'cygnuscloud2012', 'request_queue_size': 5, 'ssl_certificate': '', 'cronjob': False, 'numthreads': None, 'quiet': False, 'interfaces': None, 'import_models': False, 'timeout': 10, 'plain': False, 'nobanner': False}>"
p1131
asbasbasbag61
(g77
g63
NtRp1132
(dp1133
g66
(dp1134
sg75
g1037
sg68
(lp1135
g61
(g82
g63
NtRp1136
(dp1137
g66
(dp1138
g86
g87
ssg75
g1132
sg68
(lp1139
S'db_sessions'
p1140
asbag61
(g82
g63
NtRp1141
(dp1142
g66
(dp1143
g93
g94
ssg75
g1132
sg68
(lp1144
S':'
asbag61
(g82
g63
NtRp1145
(dp1146
g66
(dp1147
sg75
g1132
sg68
(lp1148
g61
(g62
g63
NtRp1149
(dp1150
g66
(dp1151
g74
I4
ssg75
g1145
sg68
(lp1152
S'set([])'
p1153
asbasbasbag61
(g77
g63
NtRp1154
(dp1155
g66
(dp1156
sg75
g1037
sg68
(lp1157
g61
(g82
g63
NtRp1158
(dp1159
g66
(dp1160
g86
g87
ssg75
g1154
sg68
(lp1161
S'debugging'
p1162
asbag61
(g82
g63
NtRp1163
(dp1164
g66
(dp1165
g93
g94
ssg75
g1154
sg68
(lp1166
S':'
asbag61
(g82
g63
NtRp1167
(dp1168
g66
(dp1169
sg75
g1154
sg68
(lp1170
g61
(g62
g63
NtRp1171
(dp1172
g66
(dp1173
g74
I4
ssg75
g1167
sg68
(lp1174
g104
asbasbasbag61
(g77
g63
NtRp1175
(dp1176
g66
(dp1177
sg75
g1037
sg68
(lp1178
g61
(g82
g63
NtRp1179
(dp1180
g66
(dp1181
g86
g87
ssg75
g1175
sg68
(lp1182
S'gluon_parent'
p1183
asbag61
(g82
g63
NtRp1184
(dp1185
g66
(dp1186
g93
g94
ssg75
g1175
sg68
(lp1187
S':'
asbag61
(g82
g63
NtRp1188
(dp1189
g66
(dp1190
sg75
g1175
sg68
(lp1191
g61
(g62
g63
NtRp1192
(dp1193
g66
(dp1194
g74
I4
ssg75
g1188
sg68
(lp1195
S'/home/adrian/web2py'
p1196
asbasbasbag61
(g77
g63
NtRp1197
(dp1198
g66
(dp1199
sg75
g1037
sg68
(lp1200
g61
(g82
g63
NtRp1201
(dp1202
g66
(dp1203
g86
g87
ssg75
g1197
sg68
(lp1204
S'http_accept'
p1205
asbag61
(g82
g63
NtRp1206
(dp1207
g66
(dp1208
g93
g94
ssg75
g1197
sg68
(lp1209
S':'
asbag61
(g82
g63
NtRp1210
(dp1211
g66
(dp1212
sg75
g1197
sg68
(lp1213
g61
(g62
g63
NtRp1214
(dp1215
g66
(dp1216
g74
I4
ssg75
g1210
sg68
(lp1217
S'text/html,application/xhtml+xml,application/xml;q=0.9,*/*;q=0.8'
p1218
asbasbasbag61
(g77
g63
NtRp1219
(dp1220
g66
(dp1221
sg75
g1037
sg68
(lp1222
g61
(g82
g63
NtRp1223
(dp1224
g66
(dp1225
g86
g87
ssg75
g1219
sg68
(lp1226
S'http_accept_charset'
p1227
asbag61
(g82
g63
NtRp1228
(dp1229
g66
(dp1230
g93
g94
ssg75
g1219
sg68
(lp1231
S':'
asbag61
(g82
g63
NtRp1232
(dp1233
g66
(dp1234
sg75
g1219
sg68
(lp1235
g61
(g62
g63
NtRp1236
(dp1237
g66
(dp1238
g74
I4
ssg75
g1232
sg68
(lp1239
S'ISO-8859-1,utf-8;q=0.7,*;q=0.3'
p1240
asbasbasbag61
(g77
g63
NtRp1241
(dp1242
g66
(dp1243
sg75
g1037
sg68
(lp1244
g61
(g82
g63
NtRp1245
(dp1246
g66
(dp1247
g86
g87
ssg75
g1241
sg68
(lp1248
S'http_accept_encoding'
p1249
asbag61
(g82
g63
NtRp1250
(dp1251
g66
(dp1252
g93
g94
ssg75
g1241
sg68
(lp1253
S':'
asbag61
(g82
g63
NtRp1254
(dp1255
g66
(dp1256
sg75
g1241
sg68
(lp1257
g61
(g62
g63
NtRp1258
(dp1259
g66
(dp1260
g74
I4
ssg75
g1254
sg68
(lp1261
S'gzip,deflate,sdch'
p1262
asbasbasbag61
(g77
g63
NtRp1263
(dp1264
g66
(dp1265
sg75
g1037
sg68
(lp1266
g61
(g82
g63
NtRp1267
(dp1268
g66
(dp1269
g86
g87
ssg75
g1263
sg68
(lp1270
S'http_accept_language'
p1271
asbag61
(g82
g63
NtRp1272
(dp1273
g66
(dp1274
g93
g94
ssg75
g1263
sg68
(lp1275
S':'
asbag61
(g82
g63
NtRp1276
(dp1277
g66
(dp1278
sg75
g1263
sg68
(lp1279
g61
(g62
g63
NtRp1280
(dp1281
g66
(dp1282
g74
I4
ssg75
g1276
sg68
(lp1283
S'es-ES,es;q=0.8'
p1284
asbasbasbag61
(g77
g63
NtRp1285
(dp1286
g66
(dp1287
sg75
g1037
sg68
(lp1288
g61
(g82
g63
NtRp1289
(dp1290
g66
(dp1291
g86
g87
ssg75
g1285
sg68
(lp1292
S'http_cache_control'
p1293
asbag61
(g82
g63
NtRp1294
(dp1295
g66
(dp1296
g93
g94
ssg75
g1285
sg68
(lp1297
S':'
asbag61
(g82
g63
NtRp1298
(dp1299
g66
(dp1300
sg75
g1285
sg68
(lp1301
g61
(g62
g63
NtRp1302
(dp1303
g66
(dp1304
g74
I4
ssg75
g1298
sg68
(lp1305
S'max-age=0'
p1306
asbasbasbag61
(g77
g63
NtRp1307
(dp1308
g66
(dp1309
sg75
g1037
sg68
(lp1310
g61
(g82
g63
NtRp1311
(dp1312
g66
(dp1313
g86
g87
ssg75
g1307
sg68
(lp1314
S'http_connection'
p1315
asbag61
(g82
g63
NtRp1316
(dp1317
g66
(dp1318
g93
g94
ssg75
g1307
sg68
(lp1319
S':'
asbag61
(g82
g63
NtRp1320
(dp1321
g66
(dp1322
sg75
g1307
sg68
(lp1323
g61
(g62
g63
NtRp1324
(dp1325
g66
(dp1326
g74
I4
ssg75
g1320
sg68
(lp1327
S'keep-alive'
p1328
asbasbasbag61
(g77
g63
NtRp1329
(dp1330
g66
(dp1331
sg75
g1037
sg68
(lp1332
g61
(g82
g63
NtRp1333
(dp1334
g66
(dp1335
g86
g87
ssg75
g1329
sg68
(lp1336
S'http_cookie'
p1337
asbag61
(g82
g63
NtRp1338
(dp1339
g66
(dp1340
g93
g94
ssg75
g1329
sg68
(lp1341
S':'
asbag61
(g82
g63
NtRp1342
(dp1343
g66
(dp1344
sg75
g1329
sg68
(lp1345
g61
(g62
g63
NtRp1346
(dp1347
g66
(dp1348
g74
I4
ssg75
g1342
sg68
(lp1349
S'session_id_welcome=127.0.0.1-ed3399df-33a9-4506-9f65-53bddd2578f7; session_id_cygnuscloud=127.0.0.1-791acaf2-7386-46dc-b011-4810dc00037c; session_id_images=127.0.0.1-86f6c98f-4fbb-4841-b606-44c0d90442c6; session_id_admin=127.0.0.1-55f52477-473c-42b8-b923-a29e2f1fa64b'
p1350
asbasbasbag61
(g77
g63
NtRp1351
(dp1352
g66
(dp1353
sg75
g1037
sg68
(lp1354
g61
(g82
g63
NtRp1355
(dp1356
g66
(dp1357
g86
g87
ssg75
g1351
sg68
(lp1358
S'http_host'
p1359
asbag61
(g82
g63
NtRp1360
(dp1361
g66
(dp1362
g93
g94
ssg75
g1351
sg68
(lp1363
S':'
asbag61
(g82
g63
NtRp1364
(dp1365
g66
(dp1366
sg75
g1351
sg68
(lp1367
g61
(g62
g63
NtRp1368
(dp1369
g66
(dp1370
g74
I4
ssg75
g1364
sg68
(lp1371
S'127.0.0.1:8000'
p1372
asbasbasbag61
(g77
g63
NtRp1373
(dp1374
g66
(dp1375
sg75
g1037
sg68
(lp1376
g61
(g82
g63
NtRp1377
(dp1378
g66
(dp1379
g86
g87
ssg75
g1373
sg68
(lp1380
S'http_user_agent'
p1381
asbag61
(g82
g63
NtRp1382
(dp1383
g66
(dp1384
g93
g94
ssg75
g1373
sg68
(lp1385
S':'
asbag61
(g82
g63
NtRp1386
(dp1387
g66
(dp1388
sg75
g1373
sg68
(lp1389
g61
(g62
g63
NtRp1390
(dp1391
g66
(dp1392
g74
I4
ssg75
g1386
sg68
(lp1393
S'Mozilla/5.0 (X11; Linux x86_64) AppleWebKit/537.11 (KHTML, like Gecko) Chrome/23.0.1271.64 Safari/537.11'
p1394
asbasbasbag61
(g77
g63
NtRp1395
(dp1396
g66
(dp1397
sg75
g1037
sg68
(lp1398
g61
(g82
g63
NtRp1399
(dp1400
g66
(dp1401
g86
g87
ssg75
g1395
sg68
(lp1402
S'is_jython'
p1403
asbag61
(g82
g63
NtRp1404
(dp1405
g66
(dp1406
g93
g94
ssg75
g1395
sg68
(lp1407
S':'
asbag61
(g82
g63
NtRp1408
(dp1409
g66
(dp1410
sg75
g1395
sg68
(lp1411
g61
(g62
g63
NtRp1412
(dp1413
g66
(dp1414
g74
I4
ssg75
g1408
sg68
(lp1415
g104
asbasbasbag61
(g77
g63
NtRp1416
(dp1417
g66
(dp1418
sg75
g1037
sg68
(lp1419
g61
(g82
g63
NtRp1420
(dp1421
g66
(dp1422
g86
g87
ssg75
g1416
sg68
(lp1423
S'is_pypy'
p1424
asbag61
(g82
g63
NtRp1425
(dp1426
g66
(dp1427
g93
g94
ssg75
g1416
sg68
(lp1428
S':'
asbag61
(g82
g63
NtRp1429
(dp1430
g66
(dp1431
sg75
g1416
sg68
(lp1432
g61
(g62
g63
NtRp1433
(dp1434
g66
(dp1435
g74
I4
ssg75
g1429
sg68
(lp1436
g104
asbasbasbag61
(g77
g63
NtRp1437
(dp1438
g66
(dp1439
sg75
g1037
sg68
(lp1440
g61
(g82
g63
NtRp1441
(dp1442
g66
(dp1443
g86
g87
ssg75
g1437
sg68
(lp1444
S'local_hosts'
p1445
asbag61
(g82
g63
NtRp1446
(dp1447
g66
(dp1448
g93
g94
ssg75
g1437
sg68
(lp1449
S':'
asbag61
(g82
g63
NtRp1450
(dp1451
g66
(dp1452
sg75
g1437
sg68
(lp1453
g61
(g62
g63
NtRp1454
(dp1455
g66
(dp1456
g74
I4
ssg75
g1450
sg68
(lp1457
g61
(g70
g63
NtRp1458
(dp1459
g66
(dp1460
g74
I3
ssg75
Nsg68
(lp1461
g61
(g77
g63
NtRp1462
(dp1463
g66
(dp1464
sg75
g1458
sg68
(lp1465
g61
(g82
g63
NtRp1466
(dp1467
g66
(dp1468
sg75
g1462
sg68
(lp1469
g61
(g62
g63
NtRp1470
(dp1471
g66
(dp1472
g74
I3
ssg75
g1466
sg68
(lp1473
S'adri-EasyNote'
p1474
asbasbasbag61
(g77
g63
NtRp1475
(dp1476
g66
(dp1477
sg75
g1458
sg68
(lp1478
g61
(g82
g63
NtRp1479
(dp1480
g66
(dp1481
sg75
g1475
sg68
(lp1482
g61
(g62
g63
NtRp1483
(dp1484
g66
(dp1485
g74
I3
ssg75
g1479
sg68
(lp1486
S'::1'
p1487
asbasbasbag61
(g77
g63
NtRp1488
(dp1489
g66
(dp1490
sg75
g1458
sg68
(lp1491
g61
(g82
g63
NtRp1492
(dp1493
g66
(dp1494
sg75
g1488
sg68
(lp1495
g61
(g62
g63
NtRp1496
(dp1497
g66
(dp1498
g74
I3
ssg75
g1492
sg68
(lp1499
S'127.0.1.1'
p1500
asbasbasbag61
(g77
g63
NtRp1501
(dp1502
g66
(dp1503
sg75
g1458
sg68
(lp1504
g61
(g82
g63
NtRp1505
(dp1506
g66
(dp1507
sg75
g1501
sg68
(lp1508
g61
(g62
g63
NtRp1509
(dp1510
g66
(dp1511
g74
I3
ssg75
g1505
sg68
(lp1512
S'::ffff:127.0.0.1'
p1513
asbasbasbag61
(g77
g63
NtRp1514
(dp1515
g66
(dp1516
sg75
g1458
sg68
(lp1517
g61
(g82
g63
NtRp1518
(dp1519
g66
(dp1520
sg75
g1514
sg68
(lp1521
g61
(g62
g63
NtRp1522
(dp1523
g66
(dp1524
g74
I3
ssg75
g1518
sg68
(lp1525
S'127.0.0.1'
p1526
asbasbasbasbasbasbasbag61
(g77
g63
NtRp1527
(dp1528
g66
(dp1529
sg75
g1037
sg68
(lp1530
g61
(g82
g63
NtRp1531
(dp1532
g66
(dp1533
g86
g87
ssg75
g1527
sg68
(lp1534
S'path_info'
p1535
asbag61
(g82
g63
NtRp1536
(dp1537
g66
(dp1538
g93
g94
ssg75
g1527
sg68
(lp1539
S':'
asbag61
(g82
g63
NtRp1540
(dp1541
g66
(dp1542
sg75
g1527
sg68
(lp1543
g61
(g62
g63
NtRp1544
(dp1545
g66
(dp1546
g74
I4
ssg75
g1540
sg68
(lp1547
S'/CygnusCloud/main/login'
p1548
asbasbasbag61
(g77
g63
NtRp1549
(dp1550
g66
(dp1551
sg75
g1037
sg68
(lp1552
g61
(g82
g63
NtRp1553
(dp1554
g66
(dp1555
g86
g87
ssg75
g1549
sg68
(lp1556
S'query_string'
p1557
asbag61
(g82
g63
NtRp1558
(dp1559
g66
(dp1560
g93
g94
ssg75
g1549
sg68
(lp1561
S':'
asbag61
(g82
g63
NtRp1562
(dp1563
g66
(dp1564
sg75
g1549
sg68
(lp1565
g61
(g62
g63
NtRp1566
(dp1567
g66
(dp1568
g74
I4
ssg75
g1562
sg68
(lp1569
S''
asbasbasbag61
(g77
g63
NtRp1570
(dp1571
g66
(dp1572
sg75
g1037
sg68
(lp1573
g61
(g82
g63
NtRp1574
(dp1575
g66
(dp1576
g86
g87
ssg75
g1570
sg68
(lp1577
S'remote_addr'
p1578
asbag61
(g82
g63
NtRp1579
(dp1580
g66
(dp1581
g93
g94
ssg75
g1570
sg68
(lp1582
S':'
asbag61
(g82
g63
NtRp1583
(dp1584
g66
(dp1585
sg75
g1570
sg68
(lp1586
g61
(g62
g63
NtRp1587
(dp1588
g66
(dp1589
g74
I4
ssg75
g1583
sg68
(lp1590
g216
asbasbasbag61
(g77
g63
NtRp1591
(dp1592
g66
(dp1593
sg75
g1037
sg68
(lp1594
g61
(g82
g63
NtRp1595
(dp1596
g66
(dp1597
g86
g87
ssg75
g1591
sg68
(lp1598
S'remote_port'
p1599
asbag61
(g82
g63
NtRp1600
(dp1601
g66
(dp1602
g93
g94
ssg75
g1591
sg68
(lp1603
S':'
asbag61
(g82
g63
NtRp1604
(dp1605
g66
(dp1606
sg75
g1591
sg68
(lp1607
g61
(g62
g63
NtRp1608
(dp1609
g66
(dp1610
g74
I4
ssg75
g1604
sg68
(lp1611
S'43601'
p1612
asbasbasbag61
(g77
g63
NtRp1613
(dp1614
g66
(dp1615
sg75
g1037
sg68
(lp1616
g61
(g82
g63
NtRp1617
(dp1618
g66
(dp1619
g86
g87
ssg75
g1613
sg68
(lp1620
S'request_method'
p1621
asbag61
(g82
g63
NtRp1622
(dp1623
g66
(dp1624
g93
g94
ssg75
g1613
sg68
(lp1625
S':'
asbag61
(g82
g63
NtRp1626
(dp1627
g66
(dp1628
sg75
g1613
sg68
(lp1629
g61
(g62
g63
NtRp1630
(dp1631
g66
(dp1632
g74
I4
ssg75
g1626
sg68
(lp1633
S'GET'
p1634
asbasbasbag61
(g77
g63
NtRp1635
(dp1636
g66
(dp1637
sg75
g1037
sg68
(lp1638
g61
(g82
g63
NtRp1639
(dp1640
g66
(dp1641
g86
g87
ssg75
g1635
sg68
(lp1642
S'request_uri'
p1643
asbag61
(g82
g63
NtRp1644
(dp1645
g66
(dp1646
g93
g94
ssg75
g1635
sg68
(lp1647
S':'
asbag61
(g82
g63
NtRp1648
(dp1649
g66
(dp1650
sg75
g1635
sg68
(lp1651
g61
(g62
g63
NtRp1652
(dp1653
g66
(dp1654
g74
I4
ssg75
g1648
sg68
(lp1655
g1548
asbasbasbag61
(g77
g63
NtRp1656
(dp1657
g66
(dp1658
sg75
g1037
sg68
(lp1659
g61
(g82
g63
NtRp1660
(dp1661
g66
(dp1662
g86
g87
ssg75
g1656
sg68
(lp1663
S'script_name'
p1664
asbag61
(g82
g63
NtRp1665
(dp1666
g66
(dp1667
g93
g94
ssg75
g1656
sg68
(lp1668
S':'
asbag61
(g82
g63
NtRp1669
(dp1670
g66
(dp1671
sg75
g1656
sg68
(lp1672
g61
(g62
g63
NtRp1673
(dp1674
g66
(dp1675
g74
I4
ssg75
g1669
sg68
(lp1676
S''
asbasbasbag61
(g77
g63
NtRp1677
(dp1678
g66
(dp1679
sg75
g1037
sg68
(lp1680
g61
(g82
g63
NtRp1681
(dp1682
g66
(dp1683
g86
g87
ssg75
g1677
sg68
(lp1684
S'server_name'
p1685
asbag61
(g82
g63
NtRp1686
(dp1687
g66
(dp1688
g93
g94
ssg75
g1677
sg68
(lp1689
S':'
asbag61
(g82
g63
NtRp1690
(dp1691
g66
(dp1692
sg75
g1677
sg68
(lp1693
g61
(g62
g63
NtRp1694
(dp1695
g66
(dp1696
g74
I4
ssg75
g1690
sg68
(lp1697
S'adri-EasyNote'
p1698
asbasbasbag61
(g77
g63
NtRp1699
(dp1700
g66
(dp1701
sg75
g1037
sg68
(lp1702
g61
(g82
g63
NtRp1703
(dp1704
g66
(dp1705
g86
g87
ssg75
g1699
sg68
(lp1706
S'server_port'
p1707
asbag61
(g82
g63
NtRp1708
(dp1709
g66
(dp1710
g93
g94
ssg75
g1699
sg68
(lp1711
S':'
asbag61
(g82
g63
NtRp1712
(dp1713
g66
(dp1714
sg75
g1699
sg68
(lp1715
g61
(g62
g63
NtRp1716
(dp1717
g66
(dp1718
g74
I4
ssg75
g1712
sg68
(lp1719
S'8000'
p1720
asbasbasbag61
(g77
g63
NtRp1721
(dp1722
g66
(dp1723
sg75
g1037
sg68
(lp1724
g61
(g82
g63
NtRp1725
(dp1726
g66
(dp1727
g86
g87
ssg75
g1721
sg68
(lp1728
S'server_protocol'
p1729
asbag61
(g82
g63
NtRp1730
(dp1731
g66
(dp1732
g93
g94
ssg75
g1721
sg68
(lp1733
S':'
asbag61
(g82
g63
NtRp1734
(dp1735
g66
(dp1736
sg75
g1721
sg68
(lp1737
g61
(g62
g63
NtRp1738
(dp1739
g66
(dp1740
g74
I4
ssg75
g1734
sg68
(lp1741
S'HTTP/1.1'
p1742
asbasbasbag61
(g77
g63
NtRp1743
(dp1744
g66
(dp1745
sg75
g1037
sg68
(lp1746
g61
(g82
g63
NtRp1747
(dp1748
g66
(dp1749
g86
g87
ssg75
g1743
sg68
(lp1750
S'server_software'
p1751
asbag61
(g82
g63
NtRp1752
(dp1753
g66
(dp1754
g93
g94
ssg75
g1743
sg68
(lp1755
S':'
asbag61
(g82
g63
NtRp1756
(dp1757
g66
(dp1758
sg75
g1743
sg68
(lp1759
g61
(g62
g63
NtRp1760
(dp1761
g66
(dp1762
g74
I4
ssg75
g1756
sg68
(lp1763
S'Rocket 1.2.6'
p1764
asbasbasbag61
(g77
g63
NtRp1765
(dp1766
g66
(dp1767
sg75
g1037
sg68
(lp1768
g61
(g82
g63
NtRp1769
(dp1770
g66
(dp1771
g86
g87
ssg75
g1765
sg68
(lp1772
S'web2py_path'
p1773
asbag61
(g82
g63
NtRp1774
(dp1775
g66
(dp1776
g93
g94
ssg75
g1765
sg68
(lp1777
S':'
asbag61
(g82
g63
NtRp1778
(dp1779
g66
(dp1780
sg75
g1765
sg68
(lp1781
g61
(g62
g63
NtRp1782
(dp1783
g66
(dp1784
g74
I4
ssg75
g1778
sg68
(lp1785
g1084
asbasbasbag61
(g77
g63
NtRp1786
(dp1787
g66
(dp1788
sg75
g1037
sg68
(lp1789
g61
(g82
g63
NtRp1790
(dp1791
g66
(dp1792
g86
g87
ssg75
g1786
sg68
(lp1793
S'web2py_version'
p1794
asbag61
(g82
g63
NtRp1795
(dp1796
g66
(dp1797
g93
g94
ssg75
g1786
sg68
(lp1798
S':'
asbag61
(g82
g63
NtRp1799
(dp1800
g66
(dp1801
sg75
g1786
sg68
(lp1802
g61
(g62
g63
NtRp1803
(dp1804
g66
(dp1805
g74
I4
ssg75
g1799
sg68
(lp1806
g61
(g70
g63
NtRp1807
(dp1808
g66
(dp1809
g74
I3
ssg75
Nsg68
(lp1810
g61
(g77
g63
NtRp1811
(dp1812
g66
(dp1813
sg75
g1807
sg68
(lp1814
g61
(g82
g63
NtRp1815
(dp1816
g66
(dp1817
sg75
g1811
sg68
(lp1818
g61
(g62
g63
NtRp1819
(dp1820
g66
(dp1821
g74
I3
ssg75
g1815
sg68
(lp1822
S'2'
asbasbasbag61
(g77
g63
NtRp1823
(dp1824
g66
(dp1825
sg75
g1807
sg68
(lp1826
g61
(g82
g63
NtRp1827
(dp1828
g66
(dp1829
sg75
g1823
sg68
(lp1830
g61
(g62
g63
NtRp1831
(dp1832
g66
(dp1833
g74
I3
ssg75
g1827
sg68
(lp1834
S'3'
asbasbasbag61
(g77
g63
NtRp1835
(dp1836
g66
(dp1837
sg75
g1807
sg68
(lp1838
g61
(g82
g63
NtRp1839
(dp1840
g66
(dp1841
sg75
g1835
sg68
(lp1842
g61
(g62
g63
NtRp1843
(dp1844
g66
(dp1845
g74
I3
ssg75
g1839
sg68
(lp1846
S'2'
asbasbasbag61
(g77
g63
NtRp1847
(dp1848
g66
(dp1849
sg75
g1807
sg68
(lp1850
g61
(g82
g63
NtRp1851
(dp1852
g66
(dp1853
sg75
g1847
sg68
(lp1854
g61
(g62
g63
NtRp1855
(dp1856
g66
(dp1857
g74
I3
ssg75
g1851
sg68
(lp1858
S'datetime.datetime(2012, 12, 17, 15, 3, 30)'
p1859
asbasbasbag61
(g77
g63
NtRp1860
(dp1861
g66
(dp1862
sg75
g1807
sg68
(lp1863
g61
(g82
g63
NtRp1864
(dp1865
g66
(dp1866
sg75
g1860
sg68
(lp1867
g61
(g62
g63
NtRp1868
(dp1869
g66
(dp1870
g74
I3
ssg75
g1864
sg68
(lp1871
S'stable'
p1872
asbasbasbasbasbasbasbag61
(g77
g63
NtRp1873
(dp1874
g66
(dp1875
sg75
g1037
sg68
(lp1876
g61
(g82
g63
NtRp1877
(dp1878
g66
(dp1879
g86
g87
ssg75
g1873
sg68
(lp1880
S'wsgi_errors'
p1881
asbag61
(g82
g63
NtRp1882
(dp1883
g66
(dp1884
g93
g94
ssg75
g1873
sg68
(lp1885
S':'
asbag61
(g82
g63
NtRp1886
(dp1887
g66
(dp1888
sg75
g1873
sg68
(lp1889
g61
(g62
g63
NtRp1890
(dp1891
g66
(dp1892
g74
I4
ssg75
g1886
sg68
(lp1893
S"<open file '<stderr>', mode 'w' at 0x7f69b3973270>"
p1894
asbasbasbag61
(g77
g63
NtRp1895
(dp1896
g66
(dp1897
sg75
g1037
sg68
(lp1898
g61
(g82
g63
NtRp1899
(dp1900
g66
(dp1901
g86
g87
ssg75
g1895
sg68
(lp1902
S'wsgi_file_wrapper'
p1903
asbag61
(g82
g63
NtRp1904
(dp1905
g66
(dp1906
g93
g94
ssg75
g1895
sg68
(lp1907
S':'
asbag61
(g82
g63
NtRp1908
(dp1909
g66
(dp1910
sg75
g1895
sg68
(lp1911
g61
(g62
g63
NtRp1912
(dp1913
g66
(dp1914
g74
I4
ssg75
g1908
sg68
(lp1915
S'<class wsgiref.util.FileWrapper at 0x20b4db8>'
p1916
asbasbasbag61
(g77
g63
NtRp1917
(dp1918
g66
(dp1919
sg75
g1037
sg68
(lp1920
g61
(g82
g63
NtRp1921
(dp1922
g66
(dp1923
g86
g87
ssg75
g1917
sg68
(lp1924
S'wsgi_input'
p1925
asbag61
(g82
g63
NtRp1926
(dp1927
g66
(dp1928
g93
g94
ssg75
g1917
sg68
(lp1929
S':'
asbag61
(g82
g63
NtRp1930
(dp1931
g66
(dp1932
sg75
g1917
sg68
(lp1933
g61
(g62
g63
NtRp1934
(dp1935
g66
(dp1936
g74
I4
ssg75
g1930
sg68
(lp1937
S'<socket._fileobject object at 0x7f698c3955d0>'
p1938
asbasbasbag61
(g77
g63
NtRp1939
(dp1940
g66
(dp1941
sg75
g1037
sg68
(lp1942
g61
(g82
g63
NtRp1943
(dp1944
g66
(dp1945
g86
g87
ssg75
g1939
sg68
(lp1946
S'wsgi_multiprocess'
p1947
asbag61
(g82
g63
NtRp1948
(dp1949
g66
(dp1950
g93
g94
ssg75
g1939
sg68
(lp1951
S':'
asbag61
(g82
g63
NtRp1952
(dp1953
g66
(dp1954
sg75
g1939
sg68
(lp1955
g61
(g62
g63
NtRp1956
(dp1957
g66
(dp1958
g74
I4
ssg75
g1952
sg68
(lp1959
g104
asbasbasbag61
(g77
g63
NtRp1960
(dp1961
g66
(dp1962
sg75
g1037
sg68
(lp1963
g61
(g82
g63
NtRp1964
(dp1965
g66
(dp1966
g86
g87
ssg75
g1960
sg68
(lp1967
S'wsgi_multithread'
p1968
asbag61
(g82
g63
NtRp1969
(dp1970
g66
(dp1971
g93
g94
ssg75
g1960
sg68
(lp1972
S':'
asbag61
(g82
g63
NtRp1973
(dp1974
g66
(dp1975
sg75
g1960
sg68
(lp1976
g61
(g62
g63
NtRp1977
(dp1978
g66
(dp1979
g74
I4
ssg75
g1973
sg68
(lp1980
S'True'
p1981
asbasbasbag61
(g77
g63
NtRp1982
(dp1983
g66
(dp1984
sg75
g1037
sg68
(lp1985
g61
(g82
g63
NtRp1986
(dp1987
g66
(dp1988
g86
g87
ssg75
g1982
sg68
(lp1989
S'wsgi_run_once'
p1990
asbag61
(g82
g63
NtRp1991
(dp1992
g66
(dp1993
g93
g94
ssg75
g1982
sg68
(lp1994
S':'
asbag61
(g82
g63
NtRp1995
(dp1996
g66
(dp1997
sg75
g1982
sg68
(lp1998
g61
(g62
g63
NtRp1999
(dp2000
g66
(dp2001
g74
I4
ssg75
g1995
sg68
(lp2002
g104
asbasbasbag61
(g77
g63
NtRp2003
(dp2004
g66
(dp2005
sg75
g1037
sg68
(lp2006
g61
(g82
g63
NtRp2007
(dp2008
g66
(dp2009
g86
g87
ssg75
g2003
sg68
(lp2010
S'wsgi_url_scheme'
p2011
asbag61
(g82
g63
NtRp2012
(dp2013
g66
(dp2014
g93
g94
ssg75
g2003
sg68
(lp2015
S':'
asbag61
(g82
g63
NtRp2016
(dp2017
g66
(dp2018
sg75
g2003
sg68
(lp2019
g61
(g62
g63
NtRp2020
(dp2021
g66
(dp2022
g74
I4
ssg75
g2016
sg68
(lp2023
S'http'
p2024
asbasbasbag61
(g77
g63
NtRp2025
(dp2026
g66
(dp2027
sg75
g1037
sg68
(lp2028
g61
(g82
g63
NtRp2029
(dp2030
g66
(dp2031
g86
g87
ssg75
g2025
sg68
(lp2032
S'wsgi_version'
p2033
asbag61
(g82
g63
NtRp2034
(dp2035
g66
(dp2036
g93
g94
ssg75
g2025
sg68
(lp2037
S':'
asbag61
(g82
g63
NtRp2038
(dp2039
g66
(dp2040
sg75
g2025
sg68
(lp2041
g61
(g62
g63
NtRp2042
(dp2043
g66
(dp2044
g74
I4
ssg75
g2038
sg68
(lp2045
g61
(g70
g63
NtRp2046
(dp2047
g66
(dp2048
g74
I3
ssg75
Nsg68
(lp2049
g61
(g77
g63
NtRp2050
(dp2051
g66
(dp2052
sg75
g2046
sg68
(lp2053
g61
(g82
g63
NtRp2054
(dp2055
g66
(dp2056
sg75
g2050
sg68
(lp2057
g61
(g62
g63
NtRp2058
(dp2059
g66
(dp2060
g74
I3
ssg75
g2054
sg68
(lp2061
S'1'
asbasbasbag61
(g77
g63
NtRp2062
(dp2063
g66
(dp2064
sg75
g2046
sg68
(lp2065
g61
(g82
g63
NtRp2066
(dp2067
g66
(dp2068
sg75
g2062
sg68
(lp2069
g61
(g62
g63
NtRp2070
(dp2071
g66
(dp2072
g74
I3
ssg75
g2066
sg68
(lp2073
S'0'
asbasbasbasbasbasbasbasbasbasbasbag61
(g77
g63
NtRp2074
(dp2075
g66
(dp2076
sg75
g71
sg68
(lp2077
g61
(g82
g63
NtRp2078
(dp2079
g66
(dp2080
g86
g87
ssg75
g2074
sg68
(lp2081
S'extension'
p2082
asbag61
(g82
g63
NtRp2083
(dp2084
g66
(dp2085
g93
g94
ssg75
g2074
sg68
(lp2086
S':'
asbag61
(g82
g63
NtRp2087
(dp2088
g66
(dp2089
sg75
g2074
sg68
(lp2090
g61
(g62
g63
NtRp2091
(dp2092
g66
(dp2093
g74
I5
ssg75
g2087
sg68
(lp2094
S'html'
p2095
asbasbasbag61
(g77
g63
NtRp2096
(dp2097
g66
(dp2098
sg75
g71
sg68
(lp2099
g61
(g82
g63
NtRp2100
(dp2101
g66
(dp2102
g86
g87
ssg75
g2096
sg68
(lp2103
S'folder'
p2104
asbag61
(g82
g63
NtRp2105
(dp2106
g66
(dp2107
g93
g94
ssg75
g2096
sg68
(lp2108
S':'
asbag61
(g82
g63
NtRp2109
(dp2110
g66
(dp2111
sg75
g2096
sg68
(lp2112
g61
(g62
g63
NtRp2113
(dp2114
g66
(dp2115
g74
I5
ssg75
g2109
sg68
(lp2116
S'/home/adrian/web2py/applications/CygnusCloud/'
p2117
asbasbasbag61
(g77
g63
NtRp2118
(dp2119
g66
(dp2120
sg75
g71
sg68
(lp2121
g61
(g82
g63
NtRp2122
(dp2123
g66
(dp2124
g86
g87
ssg75
g2118
sg68
(lp2125
S'function'
p2126
asbag61
(g82
g63
NtRp2127
(dp2128
g66
(dp2129
g93
g94
ssg75
g2118
sg68
(lp2130
S':'
asbag61
(g82
g63
NtRp2131
(dp2132
g66
(dp2133
sg75
g2118
sg68
(lp2134
g61
(g62
g63
NtRp2135
(dp2136
g66
(dp2137
g74
I5
ssg75
g2131
sg68
(lp2138
S'login'
p2139
asbasbasbag61
(g77
g63
NtRp2140
(dp2141
g66
(dp2142
sg75
g71
sg68
(lp2143
g61
(g82
g63
NtRp2144
(dp2145
g66
(dp2146
g86
g87
ssg75
g2140
sg68
(lp2147
S'get_vars'
p2148
asbag61
(g82
g63
NtRp2149
(dp2150
g66
(dp2151
g93
g94
ssg75
g2140
sg68
(lp2152
S':'
asbag61
(g82
g63
NtRp2153
(dp2154
g66
(dp2155
sg75
g2140
sg68
(lp2156
g61
(g62
g63
NtRp2157
(dp2158
g66
(dp2159
g74
I5
ssg75
g2153
sg68
(lp2160
g61
(g70
g63
NtRp2161
(dp2162
g66
(dp2163
g74
I4
ssg75
Nsg68
(lp2164
sbasbasbasbag61
(g77
g63
NtRp2165
(dp2166
g66
(dp2167
sg75
g71
sg68
(lp2168
g61
(g82
g63
NtRp2169
(dp2170
g66
(dp2171
g86
g87
ssg75
g2165
sg68
(lp2172
S'global_settings'
p2173
asbag61
(g82
g63
NtRp2174
(dp2175
g66
(dp2176
g93
g94
ssg75
g2165
sg68
(lp2177
S':'
asbag61
(g82
g63
NtRp2178
(dp2179
g66
(dp2180
sg75
g2165
sg68
(lp2181
g61
(g62
g63
NtRp2182
(dp2183
g66
(dp2184
g74
I5
ssg75
g2178
sg68
(lp2185
g61
(g70
g63
NtRp2186
(dp2187
g66
(dp2188
g74
I4
ssg75
Nsg68
(lp2189
g61
(g77
g63
NtRp2190
(dp2191
g66
(dp2192
sg75
g2186
sg68
(lp2193
g61
(g82
g63
NtRp2194
(dp2195
g66
(dp2196
g86
g87
ssg75
g2190
sg68
(lp2197
g1049
asbag61
(g82
g63
NtRp2198
(dp2199
g66
(dp2200
g93
g94
ssg75
g2190
sg68
(lp2201
S':'
asbag61
(g82
g63
NtRp2202
(dp2203
g66
(dp2204
sg75
g2190
sg68
(lp2205
g61
(g62
g63
NtRp2206
(dp2207
g66
(dp2208
g74
I4
ssg75
g2202
sg68
(lp2209
S"set(['/home/adrian/web2py/applications/admin/', '/home/adrian/web2py/applications/images/', '/home/adrian/web2py/applications/CygnusCloud/'])"
p2210
asbasbasbag61
(g77
g63
NtRp2211
(dp2212
g66
(dp2213
sg75
g2186
sg68
(lp2214
g61
(g82
g63
NtRp2215
(dp2216
g66
(dp2217
g86
g87
ssg75
g2211
sg68
(lp2218
g1071
asbag61
(g82
g63
NtRp2219
(dp2220
g66
(dp2221
g93
g94
ssg75
g2211
sg68
(lp2222
S':'
asbag61
(g82
g63
NtRp2223
(dp2224
g66
(dp2225
sg75
g2211
sg68
(lp2226
g61
(g62
g63
NtRp2227
(dp2228
g66
(dp2229
g74
I4
ssg75
g2223
sg68
(lp2230
g1084
asbasbasbag61
(g77
g63
NtRp2231
(dp2232
g66
(dp2233
sg75
g2186
sg68
(lp2234
g61
(g82
g63
NtRp2235
(dp2236
g66
(dp2237
g86
g87
ssg75
g2231
sg68
(lp2238
g1093
asbag61
(g82
g63
NtRp2239
(dp2240
g66
(dp2241
g93
g94
ssg75
g2231
sg68
(lp2242
S':'
asbag61
(g82
g63
NtRp2243
(dp2244
g66
(dp2245
sg75
g2231
sg68
(lp2246
g61
(g62
g63
NtRp2247
(dp2248
g66
(dp2249
g74
I4
ssg75
g2243
sg68
(lp2250
g61
(g70
g63
NtRp2251
(dp2252
g66
(dp2253
g74
I3
ssg75
Nsg68
(lp2254
sbasbasbasbag61
(g77
g63
NtRp2255
(dp2256
g66
(dp2257
sg75
g2186
sg68
(lp2258
g61
(g82
g63
NtRp2259
(dp2260
g66
(dp2261
g86
g87
ssg75
g2255
sg68
(lp2262
g1118
asbag61
(g82
g63
NtRp2263
(dp2264
g66
(dp2265
g93
g94
ssg75
g2255
sg68
(lp2266
S':'
asbag61
(g82
g63
NtRp2267
(dp2268
g66
(dp2269
sg75
g2255
sg68
(lp2270
g61
(g62
g63
NtRp2271
(dp2272
g66
(dp2273
g74
I4
ssg75
g2267
sg68
(lp2274
S"<Values at 0x2180bd8: {'verbose': False, 'ip': '127.0.0.1', 'with_scheduler': False, 'ips': [], 'shutdown_timeout': 5, 'taskbar': False, 'port': 8000, 'maxthreads': None, 'softcron': False, 'server_name': 'adri-EasyNote', 'bpython': False, 'nogui': False, 'pid_filename': 'httpserver.pid', 'extcron': False, 'runcron': False, 'run_system_tests': False, 'test': None, 'folder': '/home/adrian/web2py', 'config': '', 'minthreads': None, 'winservice': '', 'shell': None, 'run': '', 'log_filename': 'httpserver.log', 'debuglevel': 30, 'args': [''], 'socket_timeout': 5, 'ssl_ca_certificate': None, 'scheduler': None, 'profiler_filename': None, 'ssl_private_key': '', 'scheduler_groups': None, 'password': 'cygnuscloud2012', 'request_queue_size': 5, 'ssl_certificate': '', 'cronjob': False, 'numthreads': None, 'quiet': False, 'interfaces': None, 'import_models': False, 'timeout': 10, 'plain': False, 'nobanner': False}>"
p2275
asbasbasbag61
(g77
g63
NtRp2276
(dp2277
g66
(dp2278
sg75
g2186
sg68
(lp2279
g61
(g82
g63
NtRp2280
(dp2281
g66
(dp2282
g86
g87
ssg75
g2276
sg68
(lp2283
g1140
asbag61
(g82
g63
NtRp2284
(dp2285
g66
(dp2286
g93
g94
ssg75
g2276
sg68
(lp2287
S':'
asbag61
(g82
g63
NtRp2288
(dp2289
g66
(dp2290
sg75
g2276
sg68
(lp2291
g61
(g62
g63
NtRp2292
(dp2293
g66
(dp2294
g74
I4
ssg75
g2288
sg68
(lp2295
S'set([])'
p2296
asbasbasbag61
(g77
g63
NtRp2297
(dp2298
g66
(dp2299
sg75
g2186
sg68
(lp2300
g61
(g82
g63
NtRp2301
(dp2302
g66
(dp2303
g86
g87
ssg75
g2297
sg68
(lp2304
g1162
asbag61
(g82
g63
NtRp2305
(dp2306
g66
(dp2307
g93
g94
ssg75
g2297
sg68
(lp2308
S':'
asbag61
(g82
g63
NtRp2309
(dp2310
g66
(dp2311
sg75
g2297
sg68
(lp2312
g61
(g62
g63
NtRp2313
(dp2314
g66
(dp2315
g74
I4
ssg75
g2309
sg68
(lp2316
g104
asbasbasbag61
(g77
g63
NtRp2317
(dp2318
g66
(dp2319
sg75
g2186
sg68
(lp2320
g61
(g82
g63
NtRp2321
(dp2322
g66
(dp2323
g86
g87
ssg75
g2317
sg68
(lp2324
g1183
asbag61
(g82
g63
NtRp2325
(dp2326
g66
(dp2327
g93
g94
ssg75
g2317
sg68
(lp2328
S':'
asbag61
(g82
g63
NtRp2329
(dp2330
g66
(dp2331
sg75
g2317
sg68
(lp2332
g61
(g62
g63
NtRp2333
(dp2334
g66
(dp2335
g74
I4
ssg75
g2329
sg68
(lp2336
g1196
asbasbasbag61
(g77
g63
NtRp2337
(dp2338
g66
(dp2339
sg75
g2186
sg68
(lp2340
g61
(g82
g63
NtRp2341
(dp2342
g66
(dp2343
g86
g87
ssg75
g2337
sg68
(lp2344
g1403
asbag61
(g82
g63
NtRp2345
(dp2346
g66
(dp2347
g93
g94
ssg75
g2337
sg68
(lp2348
S':'
asbag61
(g82
g63
NtRp2349
(dp2350
g66
(dp2351
sg75
g2337
sg68
(lp2352
g61
(g62
g63
NtRp2353
(dp2354
g66
(dp2355
g74
I4
ssg75
g2349
sg68
(lp2356
g104
asbasbasbag61
(g77
g63
NtRp2357
(dp2358
g66
(dp2359
sg75
g2186
sg68
(lp2360
g61
(g82
g63
NtRp2361
(dp2362
g66
(dp2363
g86
g87
ssg75
g2357
sg68
(lp2364
g1424
asbag61
(g82
g63
NtRp2365
(dp2366
g66
(dp2367
g93
g94
ssg75
g2357
sg68
(lp2368
S':'
asbag61
(g82
g63
NtRp2369
(dp2370
g66
(dp2371
sg75
g2357
sg68
(lp2372
g61
(g62
g63
NtRp2373
(dp2374
g66
(dp2375
g74
I4
ssg75
g2369
sg68
(lp2376
g104
asbasbasbag61
(g77
g63
NtRp2377
(dp2378
g66
(dp2379
sg75
g2186
sg68
(lp2380
g61
(g82
g63
NtRp2381
(dp2382
g66
(dp2383
g86
g87
ssg75
g2377
sg68
(lp2384
g1445
asbag61
(g82
g63
NtRp2385
(dp2386
g66
(dp2387
g93
g94
ssg75
g2377
sg68
(lp2388
S':'
asbag61
(g82
g63
NtRp2389
(dp2390
g66
(dp2391
sg75
g2377
sg68
(lp2392
g61
(g62
g63
NtRp2393
(dp2394
g66
(dp2395
g74
I4
ssg75
g2389
sg68
(lp2396
g61
(g70
g63
NtRp2397
(dp2398
g66
(dp2399
g74
I3
ssg75
Nsg68
(lp2400
g61
(g77
g63
NtRp2401
(dp2402
g66
(dp2403
sg75
g2397
sg68
(lp2404
g61
(g82
g63
NtRp2405
(dp2406
g66
(dp2407
sg75
g2401
sg68
(lp2408
g61
(g62
g63
NtRp2409
(dp2410
g66
(dp2411
g74
I3
ssg75
g2405
sg68
(lp2412
g1474
asbasbasbag61
(g77
g63
NtRp2413
(dp2414
g66
(dp2415
sg75
g2397
sg68
(lp2416
g61
(g82
g63
NtRp2417
(dp2418
g66
(dp2419
sg75
g2413
sg68
(lp2420
g61
(g62
g63
NtRp2421
(dp2422
g66
(dp2423
g74
I3
ssg75
g2417
sg68
(lp2424
g1487
asbasbasbag61
(g77
g63
NtRp2425
(dp2426
g66
(dp2427
sg75
g2397
sg68
(lp2428
g61
(g82
g63
NtRp2429
(dp2430
g66
(dp2431
sg75
g2425
sg68
(lp2432
g61
(g62
g63
NtRp2433
(dp2434
g66
(dp2435
g74
I3
ssg75
g2429
sg68
(lp2436
g1500
asbasbasbag61
(g77
g63
NtRp2437
(dp2438
g66
(dp2439
sg75
g2397
sg68
(lp2440
g61
(g82
g63
NtRp2441
(dp2442
g66
(dp2443
sg75
g2437
sg68
(lp2444
g61
(g62
g63
NtRp2445
(dp2446
g66
(dp2447
g74
I3
ssg75
g2441
sg68
(lp2448
g1513
asbasbasbag61
(g77
g63
NtRp2449
(dp2450
g66
(dp2451
sg75
g2397
sg68
(lp2452
g61
(g82
g63
NtRp2453
(dp2454
g66
(dp2455
sg75
g2449
sg68
(lp2456
g61
(g62
g63
NtRp2457
(dp2458
g66
(dp2459
g74
I3
ssg75
g2453
sg68
(lp2460
g1526
asbasbasbasbasbasbasbag61
(g77
g63
NtRp2461
(dp2462
g66
(dp2463
sg75
g2186
sg68
(lp2464
g61
(g82
g63
NtRp2465
(dp2466
g66
(dp2467
g86
g87
ssg75
g2461
sg68
(lp2468
g1794
asbag61
(g82
g63
NtRp2469
(dp2470
g66
(dp2471
g93
g94
ssg75
g2461
sg68
(lp2472
S':'
asbag61
(g82
g63
NtRp2473
(dp2474
g66
(dp2475
sg75
g2461
sg68
(lp2476
g61
(g62
g63
NtRp2477
(dp2478
g66
(dp2479
g74
I4
ssg75
g2473
sg68
(lp2480
g61
(g70
g63
NtRp2481
(dp2482
g66
(dp2483
g74
I3
ssg75
Nsg68
(lp2484
g61
(g77
g63
NtRp2485
(dp2486
g66
(dp2487
sg75
g2481
sg68
(lp2488
g61
(g82
g63
NtRp2489
(dp2490
g66
(dp2491
sg75
g2485
sg68
(lp2492
g61
(g62
g63
NtRp2493
(dp2494
g66
(dp2495
g74
I3
ssg75
g2489
sg68
(lp2496
S'2'
asbasbasbag61
(g77
g63
NtRp2497
(dp2498
g66
(dp2499
sg75
g2481
sg68
(lp2500
g61
(g82
g63
NtRp2501
(dp2502
g66
(dp2503
sg75
g2497
sg68
(lp2504
g61
(g62
g63
NtRp2505
(dp2506
g66
(dp2507
g74
I3
ssg75
g2501
sg68
(lp2508
S'3'
asbasbasbag61
(g77
g63
NtRp2509
(dp2510
g66
(dp2511
sg75
g2481
sg68
(lp2512
g61
(g82
g63
NtRp2513
(dp2514
g66
(dp2515
sg75
g2509
sg68
(lp2516
g61
(g62
g63
NtRp2517
(dp2518
g66
(dp2519
g74
I3
ssg75
g2513
sg68
(lp2520
S'2'
asbasbasbag61
(g77
g63
NtRp2521
(dp2522
g66
(dp2523
sg75
g2481
sg68
(lp2524
g61
(g82
g63
NtRp2525
(dp2526
g66
(dp2527
sg75
g2521
sg68
(lp2528
g61
(g62
g63
NtRp2529
(dp2530
g66
(dp2531
g74
I3
ssg75
g2525
sg68
(lp2532
S'datetime.datetime(2012, 12, 17, 15, 3, 30)'
p2533
asbasbasbag61
(g77
g63
NtRp2534
(dp2535
g66
(dp2536
sg75
g2481
sg68
(lp2537
g61
(g82
g63
NtRp2538
(dp2539
g66
(dp2540
sg75
g2534
sg68
(lp2541
g61
(g62
g63
NtRp2542
(dp2543
g66
(dp2544
g74
I3
ssg75
g2538
sg68
(lp2545
g1872
asbasbasbasbasbasbasbasbasbasbasbag61
(g77
g63
NtRp2546
(dp2547
g66
(dp2548
sg75
g71
sg68
(lp2549
g61
(g82
g63
NtRp2550
(dp2551
g66
(dp2552
g86
g87
ssg75
g2546
sg68
(lp2553
S'is_https'
p2554
asbag61
(g82
g63
NtRp2555
(dp2556
g66
(dp2557
g93
g94
ssg75
g2546
sg68
(lp2558
S':'
asbag61
(g82
g63
NtRp2559
(dp2560
g66
(dp2561
sg75
g2546
sg68
(lp2562
g61
(g62
g63
NtRp2563
(dp2564
g66
(dp2565
g74
I5
ssg75
g2559
sg68
(lp2566
g104
asbasbasbag61
(g77
g63
NtRp2567
(dp2568
g66
(dp2569
sg75
g71
sg68
(lp2570
g61
(g82
g63
NtRp2571
(dp2572
g66
(dp2573
g86
g87
ssg75
g2567
sg68
(lp2574
S'is_local'
p2575
asbag61
(g82
g63
NtRp2576
(dp2577
g66
(dp2578
g93
g94
ssg75
g2567
sg68
(lp2579
S':'
asbag61
(g82
g63
NtRp2580
(dp2581
g66
(dp2582
sg75
g2567
sg68
(lp2583
g61
(g62
g63
NtRp2584
(dp2585
g66
(dp2586
g74
I5
ssg75
g2580
sg68
(lp2587
g1981
asbasbasbag61
(g77
g63
NtRp2588
(dp2589
g66
(dp2590
sg75
g71
sg68
(lp2591
g61
(g82
g63
NtRp2592
(dp2593
g66
(dp2594
g86
g87
ssg75
g2588
sg68
(lp2595
S'is_restful'
p2596
asbag61
(g82
g63
NtRp2597
(dp2598
g66
(dp2599
g93
g94
ssg75
g2588
sg68
(lp2600
S':'
asbag61
(g82
g63
NtRp2601
(dp2602
g66
(dp2603
sg75
g2588
sg68
(lp2604
g61
(g62
g63
NtRp2605
(dp2606
g66
(dp2607
g74
I5
ssg75
g2601
sg68
(lp2608
g104
asbasbasbag61
(g77
g63
NtRp2609
(dp2610
g66
(dp2611
sg75
g71
sg68
(lp2612
g61
(g82
g63
NtRp2613
(dp2614
g66
(dp2615
g86
g87
ssg75
g2609
sg68
(lp2616
S'now'
p2617
asbag61
(g82
g63
NtRp2618
(dp2619
g66
(dp2620
g93
g94
ssg75
g2609
sg68
(lp2621
S':'
asbag61
(g82
g63
NtRp2622
(dp2623
g66
(dp2624
sg75
g2609
sg68
(lp2625
g61
(g62
g63
NtRp2626
(dp2627
g66
(dp2628
g74
I5
ssg75
g2622
sg68
(lp2629
S'datetime.datetime(2013, 2, 5, 19, 2, 16, 379081)'
p2630
asbasbasbag61
(g77
g63
NtRp2631
(dp2632
g66
(dp2633
sg75
g71
sg68
(lp2634
g61
(g82
g63
NtRp2635
(dp2636
g66
(dp2637
g86
g87
ssg75
g2631
sg68
(lp2638
S'post_vars'
p2639
asbag61
(g82
g63
NtRp2640
(dp2641
g66
(dp2642
g93
g94
ssg75
g2631
sg68
(lp2643
S':'
asbag61
(g82
g63
NtRp2644
(dp2645
g66
(dp2646
sg75
g2631
sg68
(lp2647
g61
(g62
g63
NtRp2648
(dp2649
g66
(dp2650
g74
I5
ssg75
g2644
sg68
(lp2651
g61
(g70
g63
NtRp2652
(dp2653
g66
(dp2654
g74
I4
ssg75
Nsg68
(lp2655
sbasbasbasbag61
(g77
g63
NtRp2656
(dp2657
g66
(dp2658
sg75
g71
sg68
(lp2659
g61
(g82
g63
NtRp2660
(dp2661
g66
(dp2662
g86
g87
ssg75
g2656
sg68
(lp2663
S'raw_args'
p2664
asbag61
(g82
g63
NtRp2665
(dp2666
g66
(dp2667
g93
g94
ssg75
g2656
sg68
(lp2668
S':'
asbag61
(g82
g63
NtRp2669
(dp2670
g66
(dp2671
sg75
g2656
sg68
(lp2672
g61
(g62
g63
NtRp2673
(dp2674
g66
(dp2675
g74
I5
ssg75
g2669
sg68
(lp2676
S''
asbasbasbag61
(g77
g63
NtRp2677
(dp2678
g66
(dp2679
sg75
g71
sg68
(lp2680
g61
(g82
g63
NtRp2681
(dp2682
g66
(dp2683
g86
g87
ssg75
g2677
sg68
(lp2684
S'raw_extension'
p2685
asbag61
(g82
g63
NtRp2686
(dp2687
g66
(dp2688
g93
g94
ssg75
g2677
sg68
(lp2689
S':'
asbag61
(g82
g63
NtRp2690
(dp2691
g66
(dp2692
sg75
g2677
sg68
(lp2693
g61
(g62
g63
NtRp2694
(dp2695
g66
(dp2696
g74
I5
ssg75
g2690
sg68
(lp2697
S'None'
p2698
asbasbasbag61
(g77
g63
NtRp2699
(dp2700
g66
(dp2701
sg75
g71
sg68
(lp2702
g61
(g82
g63
NtRp2703
(dp2704
g66
(dp2705
g86
g87
ssg75
g2699
sg68
(lp2706
S'url'
p2707
asbag61
(g82
g63
NtRp2708
(dp2709
g66
(dp2710
g93
g94
ssg75
g2699
sg68
(lp2711
S':'
asbag61
(g82
g63
NtRp2712
(dp2713
g66
(dp2714
sg75
g2699
sg68
(lp2715
g61
(g62
g63
NtRp2716
(dp2717
g66
(dp2718
g74
I5
ssg75
g2712
sg68
(lp2719
g1548
asbasbasbag61
(g77
g63
NtRp2720
(dp2721
g66
(dp2722
sg75
g71
sg68
(lp2723
g61
(g82
g63
NtRp2724
(dp2725
g66
(dp2726
g86
g87
ssg75
g2720
sg68
(lp2727
S'utcnow'
p2728
asbag61
(g82
g63
NtRp2729
(dp2730
g66
(dp2731
g93
g94
ssg75
g2720
sg68
(lp2732
S':'
asbag61
(g82
g63
NtRp2733
(dp2734
g66
(dp2735
sg75
g2720
sg68
(lp2736
g61
(g62
g63
NtRp2737
(dp2738
g66
(dp2739
g74
I5
ssg75
g2733
sg68
(lp2740
S'datetime.datetime(2013, 2, 5, 18, 2, 16, 379115)'
p2741
asbasbasbag61
(g77
g63
NtRp2742
(dp2743
g66
(dp2744
sg75
g71
sg68
(lp2745
g61
(g82
g63
NtRp2746
(dp2747
g66
(dp2748
g86
g87
ssg75
g2742
sg68
(lp2749
S'uuid'
p2750
asbag61
(g82
g63
NtRp2751
(dp2752
g66
(dp2753
g93
g94
ssg75
g2742
sg68
(lp2754
S':'
asbag61
(g82
g63
NtRp2755
(dp2756
g66
(dp2757
sg75
g2742
sg68
(lp2758
g61
(g62
g63
NtRp2759
(dp2760
g66
(dp2761
g74
I5
ssg75
g2755
sg68
(lp2762
S'CygnusCloud/127.0.0.1.2013-02-05.19-02-16.314e8ec3-647d-4ebf-99b1-4b63af31ec80'
p2763
asbasbasbag61
(g77
g63
NtRp2764
(dp2765
g66
(dp2766
sg75
g71
sg68
(lp2767
g61
(g82
g63
NtRp2768
(dp2769
g66
(dp2770
g86
g87
ssg75
g2764
sg68
(lp2771
S'vars'
p2772
asbag61
(g82
g63
NtRp2773
(dp2774
g66
(dp2775
g93
g94
ssg75
g2764
sg68
(lp2776
S':'
asbag61
(g82
g63
NtRp2777
(dp2778
g66
(dp2779
sg75
g2764
sg68
(lp2780
g61
(g62
g63
NtRp2781
(dp2782
g66
(dp2783
g74
I5
ssg75
g2777
sg68
(lp2784
g61
(g70
g63
NtRp2785
(dp2786
g66
(dp2787
g74
I4
ssg75
Nsg68
(lp2788
sbasbasbasbag61
(g77
g63
NtRp2789
(dp2790
g66
(dp2791
sg75
g71
sg68
(lp2792
g61
(g82
g63
NtRp2793
(dp2794
g66
(dp2795
g86
g87
ssg75
g2789
sg68
(lp2796
S'wsgi'
p2797
asbag61
(g82
g63
NtRp2798
(dp2799
g66
(dp2800
g93
g94
ssg75
g2789
sg68
(lp2801
S':'
asbag61
(g82
g63
NtRp2802
(dp2803
g66
(dp2804
sg75
g2789
sg68
(lp2805
g61
(g62
g63
NtRp2806
(dp2807
g66
(dp2808
g74
I5
ssg75
g2802
sg68
(lp2809
g61
(g70
g63
NtRp2810
(dp2811
g66
(dp2812
g74
I4
ssg75
Nsg68
(lp2813
g61
(g77
g63
NtRp2814
(dp2815
g66
(dp2816
sg75
g2810
sg68
(lp2817
g61
(g82
g63
NtRp2818
(dp2819
g66
(dp2820
g86
g87
ssg75
g2814
sg68
(lp2821
S'environ'
p2822
asbag61
(g82
g63
NtRp2823
(dp2824
g66
(dp2825
g93
g94
ssg75
g2814
sg68
(lp2826
S':'
asbag61
(g82
g63
NtRp2827
(dp2828
g66
(dp2829
sg75
g2814
sg68
(lp2830
g61
(g62
g63
NtRp2831
(dp2832
g66
(dp2833
g74
I4
ssg75
g2827
sg68
(lp2834
g61
(g70
g63
NtRp2835
(dp2836
g66
(dp2837
g74
I3
ssg75
Nsg68
(lp2838
g61
(g77
g63
NtRp2839
(dp2840
g66
(dp2841
sg75
g2835
sg68
(lp2842
g61
(g82
g63
NtRp2843
(dp2844
g66
(dp2845
g86
g87
ssg75
g2839
sg68
(lp2846
S'HTTP_ACCEPT'
p2847
asbag61
(g82
g63
NtRp2848
(dp2849
g66
(dp2850
g93
g94
ssg75
g2839
sg68
(lp2851
S':'
asbag61
(g82
g63
NtRp2852
(dp2853
g66
(dp2854
sg75
g2839
sg68
(lp2855
g61
(g62
g63
NtRp2856
(dp2857
g66
(dp2858
g74
I3
ssg75
g2852
sg68
(lp2859
g1218
asbasbasbag61
(g77
g63
NtRp2860
(dp2861
g66
(dp2862
sg75
g2835
sg68
(lp2863
g61
(g82
g63
NtRp2864
(dp2865
g66
(dp2866
g86
g87
ssg75
g2860
sg68
(lp2867
S'HTTP_ACCEPT_CHARSET'
p2868
asbag61
(g82
g63
NtRp2869
(dp2870
g66
(dp2871
g93
g94
ssg75
g2860
sg68
(lp2872
S':'
asbag61
(g82
g63
NtRp2873
(dp2874
g66
(dp2875
sg75
g2860
sg68
(lp2876
g61
(g62
g63
NtRp2877
(dp2878
g66
(dp2879
g74
I3
ssg75
g2873
sg68
(lp2880
g1240
asbasbasbag61
(g77
g63
NtRp2881
(dp2882
g66
(dp2883
sg75
g2835
sg68
(lp2884
g61
(g82
g63
NtRp2885
(dp2886
g66
(dp2887
g86
g87
ssg75
g2881
sg68
(lp2888
S'HTTP_ACCEPT_ENCODING'
p2889
asbag61
(g82
g63
NtRp2890
(dp2891
g66
(dp2892
g93
g94
ssg75
g2881
sg68
(lp2893
S':'
asbag61
(g82
g63
NtRp2894
(dp2895
g66
(dp2896
sg75
g2881
sg68
(lp2897
g61
(g62
g63
NtRp2898
(dp2899
g66
(dp2900
g74
I3
ssg75
g2894
sg68
(lp2901
g1262
asbasbasbag61
(g77
g63
NtRp2902
(dp2903
g66
(dp2904
sg75
g2835
sg68
(lp2905
g61
(g82
g63
NtRp2906
(dp2907
g66
(dp2908
g86
g87
ssg75
g2902
sg68
(lp2909
S'HTTP_ACCEPT_LANGUAGE'
p2910
asbag61
(g82
g63
NtRp2911
(dp2912
g66
(dp2913
g93
g94
ssg75
g2902
sg68
(lp2914
S':'
asbag61
(g82
g63
NtRp2915
(dp2916
g66
(dp2917
sg75
g2902
sg68
(lp2918
g61
(g62
g63
NtRp2919
(dp2920
g66
(dp2921
g74
I3
ssg75
g2915
sg68
(lp2922
g1284
asbasbasbag61
(g77
g63
NtRp2923
(dp2924
g66
(dp2925
sg75
g2835
sg68
(lp2926
g61
(g82
g63
NtRp2927
(dp2928
g66
(dp2929
g86
g87
ssg75
g2923
sg68
(lp2930
S'HTTP_CACHE_CONTROL'
p2931
asbag61
(g82
g63
NtRp2932
(dp2933
g66
(dp2934
g93
g94
ssg75
g2923
sg68
(lp2935
S':'
asbag61
(g82
g63
NtRp2936
(dp2937
g66
(dp2938
sg75
g2923
sg68
(lp2939
g61
(g62
g63
NtRp2940
(dp2941
g66
(dp2942
g74
I3
ssg75
g2936
sg68
(lp2943
g1306
asbasbasbag61
(g77
g63
NtRp2944
(dp2945
g66
(dp2946
sg75
g2835
sg68
(lp2947
g61
(g82
g63
NtRp2948
(dp2949
g66
(dp2950
g86
g87
ssg75
g2944
sg68
(lp2951
S'HTTP_CONNECTION'
p2952
asbag61
(g82
g63
NtRp2953
(dp2954
g66
(dp2955
g93
g94
ssg75
g2944
sg68
(lp2956
S':'
asbag61
(g82
g63
NtRp2957
(dp2958
g66
(dp2959
sg75
g2944
sg68
(lp2960
g61
(g62
g63
NtRp2961
(dp2962
g66
(dp2963
g74
I3
ssg75
g2957
sg68
(lp2964
g1328
asbasbasbag61
(g77
g63
NtRp2965
(dp2966
g66
(dp2967
sg75
g2835
sg68
(lp2968
g61
(g82
g63
NtRp2969
(dp2970
g66
(dp2971
g86
g87
ssg75
g2965
sg68
(lp2972
S'HTTP_COOKIE'
p2973
asbag61
(g82
g63
NtRp2974
(dp2975
g66
(dp2976
g93
g94
ssg75
g2965
sg68
(lp2977
S':'
asbag61
(g82
g63
NtRp2978
(dp2979
g66
(dp2980
sg75
g2965
sg68
(lp2981
g61
(g62
g63
NtRp2982
(dp2983
g66
(dp2984
g74
I3
ssg75
g2978
sg68
(lp2985
g1350
asbasbasbag61
(g77
g63
NtRp2986
(dp2987
g66
(dp2988
sg75
g2835
sg68
(lp2989
g61
(g82
g63
NtRp2990
(dp2991
g66
(dp2992
g86
g87
ssg75
g2986
sg68
(lp2993
S'HTTP_HOST'
p2994
asbag61
(g82
g63
NtRp2995
(dp2996
g66
(dp2997
g93
g94
ssg75
g2986
sg68
(lp2998
S':'
asbag61
(g82
g63
NtRp2999
(dp3000
g66
(dp3001
sg75
g2986
sg68
(lp3002
g61
(g62
g63
NtRp3003
(dp3004
g66
(dp3005
g74
I3
ssg75
g2999
sg68
(lp3006
g1372
asbasbasbag61
(g77
g63
NtRp3007
(dp3008
g66
(dp3009
sg75
g2835
sg68
(lp3010
g61
(g82
g63
NtRp3011
(dp3012
g66
(dp3013
g86
g87
ssg75
g3007
sg68
(lp3014
S'HTTP_USER_AGENT'
p3015
asbag61
(g82
g63
NtRp3016
(dp3017
g66
(dp3018
g93
g94
ssg75
g3007
sg68
(lp3019
S':'
asbag61
(g82
g63
NtRp3020
(dp3021
g66
(dp3022
sg75
g3007
sg68
(lp3023
g61
(g62
g63
NtRp3024
(dp3025
g66
(dp3026
g74
I3
ssg75
g3020
sg68
(lp3027
g1394
asbasbasbag61
(g77
g63
NtRp3028
(dp3029
g66
(dp3030
sg75
g2835
sg68
(lp3031
g61
(g82
g63
NtRp3032
(dp3033
g66
(dp3034
g86
g87
ssg75
g3028
sg68
(lp3035
S'PATH_INFO'
p3036
asbag61
(g82
g63
NtRp3037
(dp3038
g66
(dp3039
g93
g94
ssg75
g3028
sg68
(lp3040
S':'
asbag61
(g82
g63
NtRp3041
(dp3042
g66
(dp3043
sg75
g3028
sg68
(lp3044
g61
(g62
g63
NtRp3045
(dp3046
g66
(dp3047
g74
I3
ssg75
g3041
sg68
(lp3048
g1548
asbasbasbag61
(g77
g63
NtRp3049
(dp3050
g66
(dp3051
sg75
g2835
sg68
(lp3052
g61
(g82
g63
NtRp3053
(dp3054
g66
(dp3055
g86
g87
ssg75
g3049
sg68
(lp3056
S'QUERY_STRING'
p3057
asbag61
(g82
g63
NtRp3058
(dp3059
g66
(dp3060
g93
g94
ssg75
g3049
sg68
(lp3061
S':'
asbag61
(g82
g63
NtRp3062
(dp3063
g66
(dp3064
sg75
g3049
sg68
(lp3065
g61
(g62
g63
NtRp3066
(dp3067
g66
(dp3068
g74
I3
ssg75
g3062
sg68
(lp3069
S''
asbasbasbag61
(g77
g63
NtRp3070
(dp3071
g66
(dp3072
sg75
g2835
sg68
(lp3073
g61
(g82
g63
NtRp3074
(dp3075
g66
(dp3076
g86
g87
ssg75
g3070
sg68
(lp3077
S'REMOTE_ADDR'
p3078
asbag61
(g82
g63
NtRp3079
(dp3080
g66
(dp3081
g93
g94
ssg75
g3070
sg68
(lp3082
S':'
asbag61
(g82
g63
NtRp3083
(dp3084
g66
(dp3085
sg75
g3070
sg68
(lp3086
g61
(g62
g63
NtRp3087
(dp3088
g66
(dp3089
g74
I3
ssg75
g3083
sg68
(lp3090
g216
asbasbasbag61
(g77
g63
NtRp3091
(dp3092
g66
(dp3093
sg75
g2835
sg68
(lp3094
g61
(g82
g63
NtRp3095
(dp3096
g66
(dp3097
g86
g87
ssg75
g3091
sg68
(lp3098
S'REMOTE_PORT'
p3099
asbag61
(g82
g63
NtRp3100
(dp3101
g66
(dp3102
g93
g94
ssg75
g3091
sg68
(lp3103
S':'
asbag61
(g82
g63
NtRp3104
(dp3105
g66
(dp3106
sg75
g3091
sg68
(lp3107
g61
(g62
g63
NtRp3108
(dp3109
g66
(dp3110
g74
I3
ssg75
g3104
sg68
(lp3111
g1612
asbasbasbag61
(g77
g63
NtRp3112
(dp3113
g66
(dp3114
sg75
g2835
sg68
(lp3115
g61
(g82
g63
NtRp3116
(dp3117
g66
(dp3118
g86
g87
ssg75
g3112
sg68
(lp3119
S'REQUEST_METHOD'
p3120
asbag61
(g82
g63
NtRp3121
(dp3122
g66
(dp3123
g93
g94
ssg75
g3112
sg68
(lp3124
S':'
asbag61
(g82
g63
NtRp3125
(dp3126
g66
(dp3127
sg75
g3112
sg68
(lp3128
g61
(g62
g63
NtRp3129
(dp3130
g66
(dp3131
g74
I3
ssg75
g3125
sg68
(lp3132
g1634
asbasbasbag61
(g77
g63
NtRp3133
(dp3134
g66
(dp3135
sg75
g2835
sg68
(lp3136
g61
(g82
g63
NtRp3137
(dp3138
g66
(dp3139
g86
g87
ssg75
g3133
sg68
(lp3140
S'REQUEST_URI'
p3141
asbag61
(g82
g63
NtRp3142
(dp3143
g66
(dp3144
g93
g94
ssg75
g3133
sg68
(lp3145
S':'
asbag61
(g82
g63
NtRp3146
(dp3147
g66
(dp3148
sg75
g3133
sg68
(lp3149
g61
(g62
g63
NtRp3150
(dp3151
g66
(dp3152
g74
I3
ssg75
g3146
sg68
(lp3153
g1548
asbasbasbag61
(g77
g63
NtRp3154
(dp3155
g66
(dp3156
sg75
g2835
sg68
(lp3157
g61
(g82
g63
NtRp3158
(dp3159
g66
(dp3160
g86
g87
ssg75
g3154
sg68
(lp3161
S'SCRIPT_NAME'
p3162
asbag61
(g82
g63
NtRp3163
(dp3164
g66
(dp3165
g93
g94
ssg75
g3154
sg68
(lp3166
S':'
asbag61
(g82
g63
NtRp3167
(dp3168
g66
(dp3169
sg75
g3154
sg68
(lp3170
g61
(g62
g63
NtRp3171
(dp3172
g66
(dp3173
g74
I3
ssg75
g3167
sg68
(lp3174
S''
asbasbasbag61
(g77
g63
NtRp3175
(dp3176
g66
(dp3177
sg75
g2835
sg68
(lp3178
g61
(g82
g63
NtRp3179
(dp3180
g66
(dp3181
g86
g87
ssg75
g3175
sg68
(lp3182
S'SERVER_NAME'
p3183
asbag61
(g82
g63
NtRp3184
(dp3185
g66
(dp3186
g93
g94
ssg75
g3175
sg68
(lp3187
S':'
asbag61
(g82
g63
NtRp3188
(dp3189
g66
(dp3190
sg75
g3175
sg68
(lp3191
g61
(g62
g63
NtRp3192
(dp3193
g66
(dp3194
g74
I3
ssg75
g3188
sg68
(lp3195
g1698
asbasbasbag61
(g77
g63
NtRp3196
(dp3197
g66
(dp3198
sg75
g2835
sg68
(lp3199
g61
(g82
g63
NtRp3200
(dp3201
g66
(dp3202
g86
g87
ssg75
g3196
sg68
(lp3203
S'SERVER_PORT'
p3204
asbag61
(g82
g63
NtRp3205
(dp3206
g66
(dp3207
g93
g94
ssg75
g3196
sg68
(lp3208
S':'
asbag61
(g82
g63
NtRp3209
(dp3210
g66
(dp3211
sg75
g3196
sg68
(lp3212
g61
(g62
g63
NtRp3213
(dp3214
g66
(dp3215
g74
I3
ssg75
g3209
sg68
(lp3216
g1720
asbasbasbag61
(g77
g63
NtRp3217
(dp3218
g66
(dp3219
sg75
g2835
sg68
(lp3220
g61
(g82
g63
NtRp3221
(dp3222
g66
(dp3223
g86
g87
ssg75
g3217
sg68
(lp3224
S'SERVER_PROTOCOL'
p3225
asbag61
(g82
g63
NtRp3226
(dp3227
g66
(dp3228
g93
g94
ssg75
g3217
sg68
(lp3229
S':'
asbag61
(g82
g63
NtRp3230
(dp3231
g66
(dp3232
sg75
g3217
sg68
(lp3233
g61
(g62
g63
NtRp3234
(dp3235
g66
(dp3236
g74
I3
ssg75
g3230
sg68
(lp3237
g1742
asbasbasbag61
(g77
g63
NtRp3238
(dp3239
g66
(dp3240
sg75
g2835
sg68
(lp3241
g61
(g82
g63
NtRp3242
(dp3243
g66
(dp3244
g86
g87
ssg75
g3238
sg68
(lp3245
S'SERVER_SOFTWARE'
p3246
asbag61
(g82
g63
NtRp3247
(dp3248
g66
(dp3249
g93
g94
ssg75
g3238
sg68
(lp3250
S':'
asbag61
(g82
g63
NtRp3251
(dp3252
g66
(dp3253
sg75
g3238
sg68
(lp3254
g61
(g62
g63
NtRp3255
(dp3256
g66
(dp3257
g74
I3
ssg75
g3251
sg68
(lp3258
g1764
asbasbasbag61
(g77
g63
NtRp3259
(dp3260
g66
(dp3261
sg75
g2835
sg68
(lp3262
g61
(g82
g63
NtRp3263
(dp3264
g66
(dp3265
g86
g87
ssg75
g3259
sg68
(lp3266
S'wsgi.errors'
p3267
asbag61
(g82
g63
NtRp3268
(dp3269
g66
(dp3270
g93
g94
ssg75
g3259
sg68
(lp3271
S':'
asbag61
(g82
g63
NtRp3272
(dp3273
g66
(dp3274
sg75
g3259
sg68
(lp3275
g61
(g62
g63
NtRp3276
(dp3277
g66
(dp3278
g74
I3
ssg75
g3272
sg68
(lp3279
S"<open file '<stderr>', mode 'w' at 0x7f69b3973270>"
p3280
asbasbasbag61
(g77
g63
NtRp3281
(dp3282
g66
(dp3283
sg75
g2835
sg68
(lp3284
g61
(g82
g63
NtRp3285
(dp3286
g66
(dp3287
g86
g87
ssg75
g3281
sg68
(lp3288
S'wsgi.file_wrapper'
p3289
asbag61
(g82
g63
NtRp3290
(dp3291
g66
(dp3292
g93
g94
ssg75
g3281
sg68
(lp3293
S':'
asbag61
(g82
g63
NtRp3294
(dp3295
g66
(dp3296
sg75
g3281
sg68
(lp3297
g61
(g62
g63
NtRp3298
(dp3299
g66
(dp3300
g74
I3
ssg75
g3294
sg68
(lp3301
S'<class wsgiref.util.FileWrapper at 0x20b4db8>'
p3302
asbasbasbag61
(g77
g63
NtRp3303
(dp3304
g66
(dp3305
sg75
g2835
sg68
(lp3306
g61
(g82
g63
NtRp3307
(dp3308
g66
(dp3309
g86
g87
ssg75
g3303
sg68
(lp3310
S'wsgi.input'
p3311
asbag61
(g82
g63
NtRp3312
(dp3313
g66
(dp3314
g93
g94
ssg75
g3303
sg68
(lp3315
S':'
asbag61
(g82
g63
NtRp3316
(dp3317
g66
(dp3318
sg75
g3303
sg68
(lp3319
g61
(g62
g63
NtRp3320
(dp3321
g66
(dp3322
g74
I3
ssg75
g3316
sg68
(lp3323
S'<cStringIO.StringO object at 0x7f69a85cf148>'
p3324
asbasbasbag61
(g77
g63
NtRp3325
(dp3326
g66
(dp3327
sg75
g2835
sg68
(lp3328
g61
(g82
g63
NtRp3329
(dp3330
g66
(dp3331
g86
g87
ssg75
g3325
sg68
(lp3332
S'wsgi.multiprocess'
p3333
asbag61
(g82
g63
NtRp3334
(dp3335
g66
(dp3336
g93
g94
ssg75
g3325
sg68
(lp3337
S':'
asbag61
(g82
g63
NtRp3338
(dp3339
g66
(dp3340
sg75
g3325
sg68
(lp3341
g61
(g62
g63
NtRp3342
(dp3343
g66
(dp3344
g74
I3
ssg75
g3338
sg68
(lp3345
g104
asbasbasbag61
(g77
g63
NtRp3346
(dp3347
g66
(dp3348
sg75
g2835
sg68
(lp3349
g61
(g82
g63
NtRp3350
(dp3351
g66
(dp3352
g86
g87
ssg75
g3346
sg68
(lp3353
S'wsgi.multithread'
p3354
asbag61
(g82
g63
NtRp3355
(dp3356
g66
(dp3357
g93
g94
ssg75
g3346
sg68
(lp3358
S':'
asbag61
(g82
g63
NtRp3359
(dp3360
g66
(dp3361
sg75
g3346
sg68
(lp3362
g61
(g62
g63
NtRp3363
(dp3364
g66
(dp3365
g74
I3
ssg75
g3359
sg68
(lp3366
g1981
asbasbasbag61
(g77
g63
NtRp3367
(dp3368
g66
(dp3369
sg75
g2835
sg68
(lp3370
g61
(g82
g63
NtRp3371
(dp3372
g66
(dp3373
g86
g87
ssg75
g3367
sg68
(lp3374
S'wsgi.run_once'
p3375
asbag61
(g82
g63
NtRp3376
(dp3377
g66
(dp3378
g93
g94
ssg75
g3367
sg68
(lp3379
S':'
asbag61
(g82
g63
NtRp3380
(dp3381
g66
(dp3382
sg75
g3367
sg68
(lp3383
g61
(g62
g63
NtRp3384
(dp3385
g66
(dp3386
g74
I3
ssg75
g3380
sg68
(lp3387
g104
asbasbasbag61
(g77
g63
NtRp3388
(dp3389
g66
(dp3390
sg75
g2835
sg68
(lp3391
g61
(g82
g63
NtRp3392
(dp3393
g66
(dp3394
g86
g87
ssg75
g3388
sg68
(lp3395
S'wsgi.url_scheme'
p3396
asbag61
(g82
g63
NtRp3397
(dp3398
g66
(dp3399
g93
g94
ssg75
g3388
sg68
(lp3400
S':'
asbag61
(g82
g63
NtRp3401
(dp3402
g66
(dp3403
sg75
g3388
sg68
(lp3404
g61
(g62
g63
NtRp3405
(dp3406
g66
(dp3407
g74
I3
ssg75
g3401
sg68
(lp3408
g2024
asbasbasbag61
(g77
g63
NtRp3409
(dp3410
g66
(dp3411
sg75
g2835
sg68
(lp3412
g61
(g82
g63
NtRp3413
(dp3414
g66
(dp3415
g86
g87
ssg75
g3409
sg68
(lp3416
S'wsgi.version'
p3417
asbag61
(g82
g63
NtRp3418
(dp3419
g66
(dp3420
g93
g94
ssg75
g3409
sg68
(lp3421
S':'
asbag61
(g82
g63
NtRp3422
(dp3423
g66
(dp3424
sg75
g3409
sg68
(lp3425
g61
(g62
g63
NtRp3426
(dp3427
g66
(dp3428
g74
I3
ssg75
g3422
sg68
(lp3429
S'1'
asbasbasbasbasbasbasbasbasbasbasbasbasbsS'frames'
p3430
(lp3431
(dp3432
S'file'
p3433
S'/home/adrian/web2py/gluon/restricted.py'
p3434
sS'dump'
p3435
(dp3436
S'environment'
p3437
S"{'A': <class 'gluon.html.A'>, 'Auth': <class 'gluon.tools.Auth'>, 'B': <class 'gluon.html.B'>, 'BEAUTIFY': <class 'gluon.html.BEAUTIFY'>, 'BODY': <class 'gluon.html.BODY'>, 'BR': <class 'gluon.html.BR'>, 'BUTTON': <class 'gluon.html.BUTTON'>, 'CAT': <class 'gluon.html.CAT'>, 'CENTER': <class 'gluon.html.CENTER'>, 'CLEANUP': <class 'gluon.validators.CLEANUP'>, ...}"
p3438
sS'ccode'
p3439
S'<code object <module> at 0x7f698c7287b0, file "/...y/applications/CygnusCloud/models/db.py", line 2>'
p3440
ssS'lnum'
p3441
I212
sS'lines'
p3442
(dp3443
I207
S'    try:'
p3444
sI208
S'        if isinstance(code, types.CodeType):'
p3445
sI209
S'            ccode = code'
p3446
sI210
S'        else:'
p3447
sI211
S'            ccode = compile2(code, layer)'
p3448
sI212
S'        exec ccode in environment'
p3449
sI213
S'    except HTTP:'
p3450
sI214
S'        raise'
p3451
sI215
S'    except RestrictedError:'
p3452
sI216
S'        # do not encapsulate (obfuscate) the original RestrictedError'
p3453
ssS'call'
p3454
S'(code="# -*- coding: utf-8 -*-\\nfrom configuration impor... grupos\\n#auth.add_membership(\'Administrator\',u1)\\n", environment={\'A\': <class \'gluon.html.A\'>, \'Auth\': <class \'gluon.tools.Auth\'>, \'B\': <class \'gluon.html.B\'>, \'BEAUTIFY\': <class \'gluon.html.BEAUTIFY\'>, \'BODY\': <class \'gluon.html.BODY\'>, \'BR\': <class \'gluon.html.BR\'>, \'BUTTON\': <class \'gluon.html.BUTTON\'>, \'CAT\': <class \'gluon.html.CAT\'>, \'CENTER\': <class \'gluon.html.CENTER\'>, \'CLEANUP\': <class \'gluon.validators.CLEANUP\'>, ...}, layer=\'/home/adrian/web2py/applications/CygnusCloud/models/db.py\')'
p3455
sS'func'
p3456
S'restricted'
p3457
sa(dp3458
g3433
S'/home/adrian/web2py/applications/CygnusCloud/models/db.py'
p3459
sg3435
(dp3460
S'first_name'
p3461
S'undefined'
p3462
sS'last_name'
p3463
g3462
sS'email'
p3464
g3462
ssg3441
I45
sg3442
(dp3465
I40
S''
sI41
S''
sI42
S''
sI43
S'#Usuario de prueba'
p3466
sI44
S"u1 = userDB.auth_user.insert(password = userDB.auth_user.password.validate('1234')[0],\\"
p3467
sI45
S"                    email = 'Admin1@ucm.es',first_name='Bertoldo',last_name='Pedralbes')"
p3468
sI46
S''
sI47
S'print userDB.tables'
p3469
sI48
S'#A\xc3\xb1adimos los grupos'
p3470
sI49
S"#auth.add_group('Student', 'Only run virtual machines available')"
p3471
ssg3454
S'()'
p3472
sg3456
S'<module>'
p3473
sa(dp3474
g3433
S'/home/adrian/web2py/gluon/dal.py'
p3475
sg3435
(dp3476
S'self._listify'
p3477
S'<bound method Table._listify of <Table auth_user...tration_key,reset_password_key,registration_id)>>'
p3478
sS'fields'
p3479
S"{'email': 'Admin1@ucm.es', 'first_name': 'Bertoldo', 'last_name': 'Pedralbes', 'password': <gluon.validators.LazyCrypt object>, 'registration_id': '', 'registration_key': '', 'reset_password_key': ''}"
p3480
sS'self'
p3481
S'<Table auth_user (id,first_name,last_name,email,...stration_key,reset_password_key,registration_id)>'
p3482
sS'ret'
p3483
g3462
sS'self._db._adapter'
p3484
S'<gluon.dal.MySQLAdapter object>'
p3485
sS'self._db._adapter.insert'
p3486
S'<bound method MySQLAdapter.insert of <gluon.dal.MySQLAdapter object>>'
p3487
sS'self._db'
p3488
S'<DAL uri="mysql://******:cygnuscloud2012@localhost/UserDB">'
p3489
ssg3441
I7918
sg3442
(dp3490
I7913
S'        return self._db._adapter._insert(self,self._listify(fields))'
p3491
sI7914
S''
sI7915
S'    def insert(self, **fields):'
p3492
sI7916
S'        self._attempt_upload(fields)'
p3493
sI7917
S'        if any(f(fields) for f in self._before_insert): return 0'
p3494
sI7918
S'        ret =  self._db._adapter.insert(self,self._listify(fields))'
p3495
sI7919
S'        if ret and self._after_insert:'
p3496
sI7920
S'            fields = Row(fields)'
p3497
sI7921
S'            [f(fields,ret) for f in self._after_insert]'
p3498
sI7922
S'        return ret'
p3499
ssg3454
S"(self=<Table auth_user (id,first_name,last_name,email,...stration_key,reset_password_key,registration_id)>, **fields={'email': 'Admin1@ucm.es', 'first_name': 'Bertoldo', 'last_name': 'Pedralbes', 'password': <gluon.validators.LazyCrypt object>, 'registration_id': '', 'registration_key': '', 'reset_password_key': ''})"
p3500
sg3456
S'insert'
p3501
sa(dp3502
g3433
S'/home/adrian/web2py/gluon/dal.py'
p3503
sg3435
(dp3504
S'e'
S'ProgrammingError(1146, "Table \'UserDB.auth_user\' doesn\'t exist")'
p3505
ssg3441
I1176
sg3442
(dp3506
I1171
S'            self.execute(query)'
p3507
sI1172
S'        except Exception:'
p3508
sI1173
S'            e = sys.exc_info()[1]'
p3509
sI1174
S'            if isinstance(e,self.integrity_error_class()):'
p3510
sI1175
S'                return None'
p3511
sI1176
S'            raise e'
p3512
sI1177
S"        if hasattr(table,'_primarykey'):"
p3513
sI1178
S'            return dict([(k[0].name, k[1]) for k in fields \\'
p3514
sI1179
S'                             if k[0].name in table._primarykey])'
p3515
sI1180
S'        id = self.lastrowid(table)'
p3516
ssg3454
S"(self=<gluon.dal.MySQLAdapter object>, table=<Table auth_user (id,first_name,last_name,email,...stration_key,reset_password_key,registration_id)>, fields=[(<gluon.dal.Field object>, 'Bertoldo'), (<gluon.dal.Field object>, 'Pedralbes'), (<gluon.dal.Field object>, ''), (<gluon.dal.Field object>, ''), (<gluon.dal.Field object>, <gluon.validators.LazyCrypt object>), (<gluon.dal.Field object>, ''), (<gluon.dal.Field object>, 'Admin1@ucm.es')])"
p3517
sg3456
g3501
sasS'pyver'
p3518
S'Python 2.7.3: /usr/bin/python'
p3519
sS'session'
p3520
g61
(g62
g63
NtRp3521
(dp3522
g66
(dp3523
sg68
(lp3524
g61
(g70
g63
NtRp3525
(dp3526
g66
(dp3527
g74
I5
ssg75
Nsg68
(lp3528
g61
(g77
g63
NtRp3529
(dp3530
g66
(dp3531
sg75
g3525
sg68
(lp3532
g61
(g82
g63
NtRp3533
(dp3534
g66
(dp3535
g86
g87
ssg75
g3529
sg68
(lp3536
S'flash'
p3537
asbag61
(g82
g63
NtRp3538
(dp3539
g66
(dp3540
g93
g94
ssg75
g3529
sg68
(lp3541
S':'
asbag61
(g82
g63
NtRp3542
(dp3543
g66
(dp3544
sg75
g3529
sg68
(lp3545
g61
(g62
g63
NtRp3546
(dp3547
g66
(dp3548
g74
I5
ssg75
g3542
sg68
(lp3549
S'None'
p3550
asbasbasbag61
(g77
g63
NtRp3551
(dp3552
g66
(dp3553
sg75
g3525
sg68
(lp3554
g61
(g82
g63
NtRp3555
(dp3556
g66
(dp3557
g86
g87
ssg75
g3551
sg68
(lp3558
S'last_orderby'
p3559
asbag61
(g82
g63
NtRp3560
(dp3561
g66
(dp3562
g93
g94
ssg75
g3551
sg68
(lp3563
S':'
asbag61
(g82
g63
NtRp3564
(dp3565
g66
(dp3566
sg75
g3551
sg68
(lp3567
g61
(g62
g63
NtRp3568
(dp3569
g66
(dp3570
g74
I5
ssg75
g3564
sg68
(lp3571
S'None'
p3572
asbasbasbag61
(g77
g63
NtRp3573
(dp3574
g66
(dp3575
sg75
g3525
sg68
(lp3576
g61
(g82
g63
NtRp3577
(dp3578
g66
(dp3579
g86
g87
ssg75
g3573
sg68
(lp3580
S'last_query'
p3581
asbag61
(g82
g63
NtRp3582
(dp3583
g66
(dp3584
g93
g94
ssg75
g3573
sg68
(lp3585
S':'
asbag61
(g82
g63
NtRp3586
(dp3587
g66
(dp3588
sg75
g3573
sg68
(lp3589
g61
(g62
g63
NtRp3590
(dp3591
g66
(dp3592
g74
I5
ssg75
g3586
sg68
(lp3593
S'userDB.auth_user.id>0'
p3594
asbasbasbasbasbsS'etype'
p3595
S"<class '_mysql_exceptions.ProgrammingError'>"
p3596
sS'date'
p3597
S'Tue Feb  5 19:02:16 2013'
p3598
sS'response'
p3599
g61
(g62
g63
NtRp3600
(dp3601
g66
(dp3602
sg68
(lp3603
g61
(g70
g63
NtRp3604
(dp3605
g66
(dp3606
g74
I5
ssg75
Nsg68
(lp3607
g61
(g77
g63
NtRp3608
(dp3609
g66
(dp3610
sg75
g3604
sg68
(lp3611
g61
(g82
g63
NtRp3612
(dp3613
g66
(dp3614
g86
g87
ssg75
g3608
sg68
(lp3615
g159
asbag61
(g82
g63
NtRp3616
(dp3617
g66
(dp3618
g93
g94
ssg75
g3608
sg68
(lp3619
S':'
asbag61
(g82
g63
NtRp3620
(dp3621
g66
(dp3622
sg75
g3608
sg68
(lp3623
g61
(g62
g63
NtRp3624
(dp3625
g66
(dp3626
g74
I5
ssg75
g3620
sg68
(lp3627
S'<cStringIO.StringO object at 0x7f69843e3570>'
p3628
asbasbasbag61
(g77
g63
NtRp3629
(dp3630
g66
(dp3631
sg75
g3604
sg68
(lp3632
g61
(g82
g63
NtRp3633
(dp3634
g66
(dp3635
g86
g87
ssg75
g3629
sg68
(lp3636
g247
asbag61
(g82
g63
NtRp3637
(dp3638
g66
(dp3639
g93
g94
ssg75
g3629
sg68
(lp3640
S':'
asbag61
(g82
g63
NtRp3641
(dp3642
g66
(dp3643
sg75
g3629
sg68
(lp3644
g61
(g62
g63
NtRp3645
(dp3646
g66
(dp3647
g74
I5
ssg75
g3641
sg68
(lp3648
g61
(g70
g63
NtRp3649
(dp3650
g66
(dp3651
g74
I4
ssg75
Nsg68
(lp3652
g61
(g77
g63
NtRp3653
(dp3654
g66
(dp3655
sg75
g3649
sg68
(lp3656
g61
(g82
g63
NtRp3657
(dp3658
g66
(dp3659
g86
g87
ssg75
g3653
sg68
(lp3660
S'session_id_cygnuscloud'
p3661
asbag61
(g82
g63
NtRp3662
(dp3663
g66
(dp3664
g93
g94
ssg75
g3653
sg68
(lp3665
S':'
asbag61
(g82
g63
NtRp3666
(dp3667
g66
(dp3668
sg75
g3653
sg68
(lp3669
g61
(g62
g63
NtRp3670
(dp3671
g66
(dp3672
g74
I4
ssg75
g3666
sg68
(lp3673
g479
ag61
(g70
g63
NtRp3674
(dp3675
g66
(dp3676
g74
I3
ssg75
Nsg68
(lp3677
g61
(g77
g63
NtRp3678
(dp3679
g66
(dp3680
sg75
g3674
sg68
(lp3681
g61
(g82
g63
NtRp3682
(dp3683
g66
(dp3684
g86
g87
ssg75
g3678
sg68
(lp3685
g298
asbag61
(g82
g63
NtRp3686
(dp3687
g66
(dp3688
g93
g94
ssg75
g3678
sg68
(lp3689
S':'
asbag61
(g82
g63
NtRp3690
(dp3691
g66
(dp3692
sg75
g3678
sg68
(lp3693
g61
(g62
g63
NtRp3694
(dp3695
g66
(dp3696
g74
I3
ssg75
g3690
sg68
(lp3697
S''
asbasbasbag61
(g77
g63
NtRp3698
(dp3699
g66
(dp3700
sg75
g3674
sg68
(lp3701
g61
(g82
g63
NtRp3702
(dp3703
g66
(dp3704
g86
g87
ssg75
g3698
sg68
(lp3705
g319
asbag61
(g82
g63
NtRp3706
(dp3707
g66
(dp3708
g93
g94
ssg75
g3698
sg68
(lp3709
S':'
asbag61
(g82
g63
NtRp3710
(dp3711
g66
(dp3712
sg75
g3698
sg68
(lp3713
g61
(g62
g63
NtRp3714
(dp3715
g66
(dp3716
g74
I3
ssg75
g3710
sg68
(lp3717
S''
asbasbasbag61
(g77
g63
NtRp3718
(dp3719
g66
(dp3720
sg75
g3674
sg68
(lp3721
g61
(g82
g63
NtRp3722
(dp3723
g66
(dp3724
g86
g87
ssg75
g3718
sg68
(lp3725
g340
asbag61
(g82
g63
NtRp3726
(dp3727
g66
(dp3728
g93
g94
ssg75
g3718
sg68
(lp3729
S':'
asbag61
(g82
g63
NtRp3730
(dp3731
g66
(dp3732
sg75
g3718
sg68
(lp3733
g61
(g62
g63
NtRp3734
(dp3735
g66
(dp3736
g74
I3
ssg75
g3730
sg68
(lp3737
S''
asbasbasbag61
(g77
g63
NtRp3738
(dp3739
g66
(dp3740
sg75
g3674
sg68
(lp3741
g61
(g82
g63
NtRp3742
(dp3743
g66
(dp3744
g86
g87
ssg75
g3738
sg68
(lp3745
g361
asbag61
(g82
g63
NtRp3746
(dp3747
g66
(dp3748
g93
g94
ssg75
g3738
sg68
(lp3749
S':'
asbag61
(g82
g63
NtRp3750
(dp3751
g66
(dp3752
sg75
g3738
sg68
(lp3753
g61
(g62
g63
NtRp3754
(dp3755
g66
(dp3756
g74
I3
ssg75
g3750
sg68
(lp3757
S''
asbasbasbag61
(g77
g63
NtRp3758
(dp3759
g66
(dp3760
sg75
g3674
sg68
(lp3761
g61
(g82
g63
NtRp3762
(dp3763
g66
(dp3764
g86
g87
ssg75
g3758
sg68
(lp3765
g382
asbag61
(g82
g63
NtRp3766
(dp3767
g66
(dp3768
g93
g94
ssg75
g3758
sg68
(lp3769
S':'
asbag61
(g82
g63
NtRp3770
(dp3771
g66
(dp3772
sg75
g3758
sg68
(lp3773
g61
(g62
g63
NtRp3774
(dp3775
g66
(dp3776
g74
I3
ssg75
g3770
sg68
(lp3777
S''
asbasbasbag61
(g77
g63
NtRp3778
(dp3779
g66
(dp3780
sg75
g3674
sg68
(lp3781
g61
(g82
g63
NtRp3782
(dp3783
g66
(dp3784
g86
g87
ssg75
g3778
sg68
(lp3785
g403
asbag61
(g82
g63
NtRp3786
(dp3787
g66
(dp3788
g93
g94
ssg75
g3778
sg68
(lp3789
S':'
asbag61
(g82
g63
NtRp3790
(dp3791
g66
(dp3792
sg75
g3778
sg68
(lp3793
g61
(g62
g63
NtRp3794
(dp3795
g66
(dp3796
g74
I3
ssg75
g3790
sg68
(lp3797
S'/'
asbasbasbag61
(g77
g63
NtRp3798
(dp3799
g66
(dp3800
sg75
g3674
sg68
(lp3801
g61
(g82
g63
NtRp3802
(dp3803
g66
(dp3804
g86
g87
ssg75
g3798
sg68
(lp3805
g424
asbag61
(g82
g63
NtRp3806
(dp3807
g66
(dp3808
g93
g94
ssg75
g3798
sg68
(lp3809
S':'
asbag61
(g82
g63
NtRp3810
(dp3811
g66
(dp3812
sg75
g3798
sg68
(lp3813
g61
(g62
g63
NtRp3814
(dp3815
g66
(dp3816
g74
I3
ssg75
g3810
sg68
(lp3817
S''
asbasbasbag61
(g77
g63
NtRp3818
(dp3819
g66
(dp3820
sg75
g3674
sg68
(lp3821
g61
(g82
g63
NtRp3822
(dp3823
g66
(dp3824
g86
g87
ssg75
g3818
sg68
(lp3825
g445
asbag61
(g82
g63
NtRp3826
(dp3827
g66
(dp3828
g93
g94
ssg75
g3818
sg68
(lp3829
S':'
asbag61
(g82
g63
NtRp3830
(dp3831
g66
(dp3832
sg75
g3818
sg68
(lp3833
g61
(g62
g63
NtRp3834
(dp3835
g66
(dp3836
g74
I3
ssg75
g3830
sg68
(lp3837
S''
asbasbasbasbasbasbasbasbasbasbasbag61
(g77
g63
NtRp3838
(dp3839
g66
(dp3840
sg75
g3604
sg68
(lp3841
g61
(g82
g63
NtRp3842
(dp3843
g66
(dp3844
g86
g87
ssg75
g3838
sg68
(lp3845
S'delimiters'
p3846
asbag61
(g82
g63
NtRp3847
(dp3848
g66
(dp3849
g93
g94
ssg75
g3838
sg68
(lp3850
S':'
asbag61
(g82
g63
NtRp3851
(dp3852
g66
(dp3853
sg75
g3838
sg68
(lp3854
g61
(g62
g63
NtRp3855
(dp3856
g66
(dp3857
g74
I5
ssg75
g3851
sg68
(lp3858
g61
(g70
g63
NtRp3859
(dp3860
g66
(dp3861
g74
I4
ssg75
Nsg68
(lp3862
g61
(g77
g63
NtRp3863
(dp3864
g66
(dp3865
sg75
g3859
sg68
(lp3866
g61
(g82
g63
NtRp3867
(dp3868
g66
(dp3869
sg75
g3863
sg68
(lp3870
g61
(g62
g63
NtRp3871
(dp3872
g66
(dp3873
g74
I4
ssg75
g3867
sg68
(lp3874
S'{{'
p3875
asbasbasbag61
(g77
g63
NtRp3876
(dp3877
g66
(dp3878
sg75
g3859
sg68
(lp3879
g61
(g82
g63
NtRp3880
(dp3881
g66
(dp3882
sg75
g3876
sg68
(lp3883
g61
(g62
g63
NtRp3884
(dp3885
g66
(dp3886
g74
I4
ssg75
g3880
sg68
(lp3887
S'}}'
p3888
asbasbasbasbasbasbasbag61
(g77
g63
NtRp3889
(dp3890
g66
(dp3891
sg75
g3604
sg68
(lp3892
g61
(g82
g63
NtRp3893
(dp3894
g66
(dp3895
g86
g87
ssg75
g3889
sg68
(lp3896
S'files'
p3897
asbag61
(g82
g63
NtRp3898
(dp3899
g66
(dp3900
g93
g94
ssg75
g3889
sg68
(lp3901
S':'
asbag61
(g82
g63
NtRp3902
(dp3903
g66
(dp3904
sg75
g3889
sg68
(lp3905
g61
(g62
g63
NtRp3906
(dp3907
g66
(dp3908
g74
I5
ssg75
g3902
sg68
(lp3909
g61
(g70
g63
NtRp3910
(dp3911
g66
(dp3912
g74
I4
ssg75
Nsg68
(lp3913
sbasbasbasbag61
(g77
g63
NtRp3914
(dp3915
g66
(dp3916
sg75
g3604
sg68
(lp3917
g61
(g82
g63
NtRp3918
(dp3919
g66
(dp3920
g86
g87
ssg75
g3914
sg68
(lp3921
S'flash'
p3922
asbag61
(g82
g63
NtRp3923
(dp3924
g66
(dp3925
g93
g94
ssg75
g3914
sg68
(lp3926
S':'
asbag61
(g82
g63
NtRp3927
(dp3928
g66
(dp3929
sg75
g3914
sg68
(lp3930
g61
(g62
g63
NtRp3931
(dp3932
g66
(dp3933
g74
I5
ssg75
g3927
sg68
(lp3934
S''
asbasbasbag61
(g77
g63
NtRp3935
(dp3936
g66
(dp3937
sg75
g3604
sg68
(lp3938
g61
(g82
g63
NtRp3939
(dp3940
g66
(dp3941
g86
g87
ssg75
g3935
sg68
(lp3942
S'generic_patterns'
p3943
asbag61
(g82
g63
NtRp3944
(dp3945
g66
(dp3946
g93
g94
ssg75
g3935
sg68
(lp3947
S':'
asbag61
(g82
g63
NtRp3948
(dp3949
g66
(dp3950
sg75
g3935
sg68
(lp3951
g61
(g62
g63
NtRp3952
(dp3953
g66
(dp3954
g74
I5
ssg75
g3948
sg68
(lp3955
g61
(g70
g63
NtRp3956
(dp3957
g66
(dp3958
g74
I4
ssg75
Nsg68
(lp3959
sbasbasbasbag61
(g77
g63
NtRp3960
(dp3961
g66
(dp3962
sg75
g3604
sg68
(lp3963
g61
(g82
g63
NtRp3964
(dp3965
g66
(dp3966
g86
g87
ssg75
g3960
sg68
(lp3967
S'headers'
p3968
asbag61
(g82
g63
NtRp3969
(dp3970
g66
(dp3971
g93
g94
ssg75
g3960
sg68
(lp3972
S':'
asbag61
(g82
g63
NtRp3973
(dp3974
g66
(dp3975
sg75
g3960
sg68
(lp3976
g61
(g62
g63
NtRp3977
(dp3978
g66
(dp3979
g74
I5
ssg75
g3973
sg68
(lp3980
g61
(g70
g63
NtRp3981
(dp3982
g66
(dp3983
g74
I4
ssg75
Nsg68
(lp3984
g61
(g77
g63
NtRp3985
(dp3986
g66
(dp3987
sg75
g3981
sg68
(lp3988
g61
(g82
g63
NtRp3989
(dp3990
g66
(dp3991
g86
g87
ssg75
g3985
sg68
(lp3992
S'X-Powered-By'
p3993
asbag61
(g82
g63
NtRp3994
(dp3995
g66
(dp3996
g93
g94
ssg75
g3985
sg68
(lp3997
S':'
asbag61
(g82
g63
NtRp3998
(dp3999
g66
(dp4000
sg75
g3985
sg68
(lp4001
g61
(g62
g63
NtRp4002
(dp4003
g66
(dp4004
g74
I4
ssg75
g3998
sg68
(lp4005
S'web2py'
p4006
asbasbasbasbasbasbasbag61
(g77
g63
NtRp4007
(dp4008
g66
(dp4009
sg75
g3604
sg68
(lp4010
g61
(g82
g63
NtRp4011
(dp4012
g66
(dp4013
g86
g87
ssg75
g4007
sg68
(lp4014
S'menu'
p4015
asbag61
(g82
g63
NtRp4016
(dp4017
g66
(dp4018
g93
g94
ssg75
g4007
sg68
(lp4019
S':'
asbag61
(g82
g63
NtRp4020
(dp4021
g66
(dp4022
sg75
g4007
sg68
(lp4023
g61
(g62
g63
NtRp4024
(dp4025
g66
(dp4026
g74
I5
ssg75
g4020
sg68
(lp4027
g61
(g70
g63
NtRp4028
(dp4029
g66
(dp4030
g74
I4
ssg75
Nsg68
(lp4031
sbasbasbasbag61
(g77
g63
NtRp4032
(dp4033
g66
(dp4034
sg75
g3604
sg68
(lp4035
g61
(g82
g63
NtRp4036
(dp4037
g66
(dp4038
g86
g87
ssg75
g4032
sg68
(lp4039
S'meta'
p4040
asbag61
(g82
g63
NtRp4041
(dp4042
g66
(dp4043
g93
g94
ssg75
g4032
sg68
(lp4044
S':'
asbag61
(g82
g63
NtRp4045
(dp4046
g66
(dp4047
sg75
g4032
sg68
(lp4048
g61
(g62
g63
NtRp4049
(dp4050
g66
(dp4051
g74
I5
ssg75
g4045
sg68
(lp4052
g61
(g70
g63
NtRp4053
(dp4054
g66
(dp4055
g74
I4
ssg75
Nsg68
(lp4056
sbasbasbasbag61
(g77
g63
NtRp4057
(dp4058
g66
(dp4059
sg75
g3604
sg68
(lp4060
g61
(g82
g63
NtRp4061
(dp4062
g66
(dp4063
g86
g87
ssg75
g4057
sg68
(lp4064
S'models_to_run'
p4065
asbag61
(g82
g63
NtRp4066
(dp4067
g66
(dp4068
g93
g94
ssg75
g4057
sg68
(lp4069
S':'
asbag61
(g82
g63
NtRp4070
(dp4071
g66
(dp4072
sg75
g4057
sg68
(lp4073
g61
(g62
g63
NtRp4074
(dp4075
g66
(dp4076
g74
I5
ssg75
g4070
sg68
(lp4077
g61
(g70
g63
NtRp4078
(dp4079
g66
(dp4080
g74
I4
ssg75
Nsg68
(lp4081
g61
(g77
g63
NtRp4082
(dp4083
g66
(dp4084
sg75
g4078
sg68
(lp4085
g61
(g82
g63
NtRp4086
(dp4087
g66
(dp4088
sg75
g4082
sg68
(lp4089
g61
(g62
g63
NtRp4090
(dp4091
g66
(dp4092
g74
I4
ssg75
g4086
sg68
(lp4093
S'^\\w+\\.py$'
p4094
asbasbasbag61
(g77
g63
NtRp4095
(dp4096
g66
(dp4097
sg75
g4078
sg68
(lp4098
g61
(g82
g63
NtRp4099
(dp4100
g66
(dp4101
sg75
g4095
sg68
(lp4102
g61
(g62
g63
NtRp4103
(dp4104
g66
(dp4105
g74
I4
ssg75
g4099
sg68
(lp4106
S'^main/\\w+\\.py$'
p4107
asbasbasbag61
(g77
g63
NtRp4108
(dp4109
g66
(dp4110
sg75
g4078
sg68
(lp4111
g61
(g82
g63
NtRp4112
(dp4113
g66
(dp4114
sg75
g4108
sg68
(lp4115
g61
(g62
g63
NtRp4116
(dp4117
g66
(dp4118
g74
I4
ssg75
g4112
sg68
(lp4119
S'^main/login/\\w+\\.py$'
p4120
asbasbasbasbasbasbasbag61
(g77
g63
NtRp4121
(dp4122
g66
(dp4123
sg75
g3604
sg68
(lp4124
g61
(g82
g63
NtRp4125
(dp4126
g66
(dp4127
g86
g87
ssg75
g4121
sg68
(lp4128
S'postprocessing'
p4129
asbag61
(g82
g63
NtRp4130
(dp4131
g66
(dp4132
g93
g94
ssg75
g4121
sg68
(lp4133
S':'
asbag61
(g82
g63
NtRp4134
(dp4135
g66
(dp4136
sg75
g4121
sg68
(lp4137
g61
(g62
g63
NtRp4138
(dp4139
g66
(dp4140
g74
I5
ssg75
g4134
sg68
(lp4141
g61
(g70
g63
NtRp4142
(dp4143
g66
(dp4144
g74
I4
ssg75
Nsg68
(lp4145
sbasbasbasbag61
(g77
g63
NtRp4146
(dp4147
g66
(dp4148
sg75
g3604
sg68
(lp4149
g61
(g82
g63
NtRp4150
(dp4151
g66
(dp4152
g86
g87
ssg75
g4146
sg68
(lp4153
S'session_cookie_expires'
p4154
asbag61
(g82
g63
NtRp4155
(dp4156
g66
(dp4157
g93
g94
ssg75
g4146
sg68
(lp4158
S':'
asbag61
(g82
g63
NtRp4159
(dp4160
g66
(dp4161
sg75
g4146
sg68
(lp4162
g61
(g62
g63
NtRp4163
(dp4164
g66
(dp4165
g74
I5
ssg75
g4159
sg68
(lp4166
S'None'
p4167
asbasbasbag61
(g77
g63
NtRp4168
(dp4169
g66
(dp4170
sg75
g3604
sg68
(lp4171
g61
(g82
g63
NtRp4172
(dp4173
g66
(dp4174
g86
g87
ssg75
g4168
sg68
(lp4175
S'session_data_name'
p4176
asbag61
(g82
g63
NtRp4177
(dp4178
g66
(dp4179
g93
g94
ssg75
g4168
sg68
(lp4180
S':'
asbag61
(g82
g63
NtRp4181
(dp4182
g66
(dp4183
sg75
g4168
sg68
(lp4184
g61
(g62
g63
NtRp4185
(dp4186
g66
(dp4187
g74
I5
ssg75
g4181
sg68
(lp4188
S'session_data_cygnuscloud'
p4189
asbasbasbag61
(g77
g63
NtRp4190
(dp4191
g66
(dp4192
sg75
g3604
sg68
(lp4193
g61
(g82
g63
NtRp4194
(dp4195
g66
(dp4196
g86
g87
ssg75
g4190
sg68
(lp4197
S'session_file'
p4198
asbag61
(g82
g63
NtRp4199
(dp4200
g66
(dp4201
g93
g94
ssg75
g4190
sg68
(lp4202
S':'
asbag61
(g82
g63
NtRp4203
(dp4204
g66
(dp4205
sg75
g4190
sg68
(lp4206
g61
(g62
g63
NtRp4207
(dp4208
g66
(dp4209
g74
I5
ssg75
g4203
sg68
(lp4210
S"<open file '/home/adrian/web2py/applications/CygnusCloud/sessions/127.0.0.1-791acaf2-7386-46dc-b011-4810dc00037c', mode 'rb+' at 0x7f698c13e6f0>"
p4211
asbasbasbag61
(g77
g63
NtRp4212
(dp4213
g66
(dp4214
sg75
g3604
sg68
(lp4215
g61
(g82
g63
NtRp4216
(dp4217
g66
(dp4218
g86
g87
ssg75
g4212
sg68
(lp4219
S'session_filename'
p4220
asbag61
(g82
g63
NtRp4221
(dp4222
g66
(dp4223
g93
g94
ssg75
g4212
sg68
(lp4224
S':'
asbag61
(g82
g63
NtRp4225
(dp4226
g66
(dp4227
sg75
g4212
sg68
(lp4228
g61
(g62
g63
NtRp4229
(dp4230
g66
(dp4231
g74
I5
ssg75
g4225
sg68
(lp4232
S'/home/adrian/web2py/applications/CygnusCloud/sessions/127.0.0.1-791acaf2-7386-46dc-b011-4810dc00037c'
p4233
asbasbasbag61
(g77
g63
NtRp4234
(dp4235
g66
(dp4236
sg75
g3604
sg68
(lp4237
g61
(g82
g63
NtRp4238
(dp4239
g66
(dp4240
g86
g87
ssg75
g4234
sg68
(lp4241
S'session_id'
p4242
asbag61
(g82
g63
NtRp4243
(dp4244
g66
(dp4245
g93
g94
ssg75
g4234
sg68
(lp4246
S':'
asbag61
(g82
g63
NtRp4247
(dp4248
g66
(dp4249
sg75
g4234
sg68
(lp4250
g61
(g62
g63
NtRp4251
(dp4252
g66
(dp4253
g74
I5
ssg75
g4247
sg68
(lp4254
g479
asbasbasbag61
(g77
g63
NtRp4255
(dp4256
g66
(dp4257
sg75
g3604
sg68
(lp4258
g61
(g82
g63
NtRp4259
(dp4260
g66
(dp4261
g86
g87
ssg75
g4255
sg68
(lp4262
S'session_id_name'
p4263
asbag61
(g82
g63
NtRp4264
(dp4265
g66
(dp4266
g93
g94
ssg75
g4255
sg68
(lp4267
S':'
asbag61
(g82
g63
NtRp4268
(dp4269
g66
(dp4270
sg75
g4255
sg68
(lp4271
g61
(g62
g63
NtRp4272
(dp4273
g66
(dp4274
g74
I5
ssg75
g4268
sg68
(lp4275
g3661
asbasbasbag61
(g77
g63
NtRp4276
(dp4277
g66
(dp4278
sg75
g3604
sg68
(lp4279
g61
(g82
g63
NtRp4280
(dp4281
g66
(dp4282
g86
g87
ssg75
g4276
sg68
(lp4283
S'session_locked'
p4284
asbag61
(g82
g63
NtRp4285
(dp4286
g66
(dp4287
g93
g94
ssg75
g4276
sg68
(lp4288
S':'
asbag61
(g82
g63
NtRp4289
(dp4290
g66
(dp4291
sg75
g4276
sg68
(lp4292
g61
(g62
g63
NtRp4293
(dp4294
g66
(dp4295
g74
I5
ssg75
g4289
sg68
(lp4296
g1981
asbasbasbag61
(g77
g63
NtRp4297
(dp4298
g66
(dp4299
sg75
g3604
sg68
(lp4300
g61
(g82
g63
NtRp4301
(dp4302
g66
(dp4303
g86
g87
ssg75
g4297
sg68
(lp4304
S'session_new'
p4305
asbag61
(g82
g63
NtRp4306
(dp4307
g66
(dp4308
g93
g94
ssg75
g4297
sg68
(lp4309
S':'
asbag61
(g82
g63
NtRp4310
(dp4311
g66
(dp4312
sg75
g4297
sg68
(lp4313
g61
(g62
g63
NtRp4314
(dp4315
g66
(dp4316
g74
I5
ssg75
g4310
sg68
(lp4317
g104
asbasbasbag61
(g77
g63
NtRp4318
(dp4319
g66
(dp4320
sg75
g3604
sg68
(lp4321
g61
(g82
g63
NtRp4322
(dp4323
g66
(dp4324
g86
g87
ssg75
g4318
sg68
(lp4325
S'session_storage_type'
p4326
asbag61
(g82
g63
NtRp4327
(dp4328
g66
(dp4329
g93
g94
ssg75
g4318
sg68
(lp4330
S':'
asbag61
(g82
g63
NtRp4331
(dp4332
g66
(dp4333
sg75
g4318
sg68
(lp4334
g61
(g62
g63
NtRp4335
(dp4336
g66
(dp4337
g74
I5
ssg75
g4331
sg68
(lp4338
g3433
asbasbasbag61
(g77
g63
NtRp4339
(dp4340
g66
(dp4341
sg75
g3604
sg68
(lp4342
g61
(g82
g63
NtRp4343
(dp4344
g66
(dp4345
g86
g87
ssg75
g4339
sg68
(lp4346
S'status'
p4347
asbag61
(g82
g63
NtRp4348
(dp4349
g66
(dp4350
g93
g94
ssg75
g4339
sg68
(lp4351
S':'
asbag61
(g82
g63
NtRp4352
(dp4353
g66
(dp4354
sg75
g4339
sg68
(lp4355
g61
(g62
g63
NtRp4356
(dp4357
g66
(dp4358
g74
I5
ssg75
g4352
sg68
(lp4359
S'200'
p4360
asbasbasbag61
(g77
g63
NtRp4361
(dp4362
g66
(dp4363
sg75
g3604
sg68
(lp4364
g61
(g82
g63
NtRp4365
(dp4366
g66
(dp4367
g86
g87
ssg75
g4361
sg68
(lp4368
S'view'
p4369
asbag61
(g82
g63
NtRp4370
(dp4371
g66
(dp4372
g93
g94
ssg75
g4361
sg68
(lp4373
S':'
asbag61
(g82
g63
NtRp4374
(dp4375
g66
(dp4376
sg75
g4361
sg68
(lp4377
g61
(g62
g63
NtRp4378
(dp4379
g66
(dp4380
g74
I5
ssg75
g4374
sg68
(lp4381
S'main/login.html'
p4382
asbasbasbasbasbsS'locals'
p4383
(dp4384
S'query'
p4385
S'"INSERT INTO auth_user(first_name,last_name,regis...8ef05c6304815b4e8940e22c7be\',\'\',\'Admin1@ucm.es\');"'
p4386
sS'self'
p4387
S'<gluon.dal.MySQLAdapter object>'
p4388
sS'e'
S'ProgrammingError(1146, "Table \'UserDB.auth_user\' doesn\'t exist")'
p4389
sS'fields'
p4390
S"[(<gluon.dal.Field object>, 'Bertoldo'), (<gluon.dal.Field object>, 'Pedralbes'), (<gluon.dal.Field object>, ''), (<gluon.dal.Field object>, ''), (<gluon.dal.Field object>, <gluon.validators.LazyCrypt object>), (<gluon.dal.Field object>, ''), (<gluon.dal.Field object>, 'Admin1@ucm.es')]"
p4391
sS'table'
p4392
S'<Table auth_user (id,first_name,last_name,email,...stration_key,reset_password_key,registration_id)>'
p4393
sssS'traceback'
p4394
S'Traceback (most recent call last):\n  File "/home/adrian/web2py/gluon/restricted.py", line 212, in restricted\n    exec ccode in environment\n  File "/home/adrian/web2py/applications/CygnusCloud/models/db.py", line 45, in <module>\n    email = \'Admin1@ucm.es\',first_name=\'Bertoldo\',last_name=\'Pedralbes\')\n  File "/home/adrian/web2py/gluon/dal.py", line 7918, in insert\n    ret =  self._db._adapter.insert(self,self._listify(fields))\n  File "/home/adrian/web2py/gluon/dal.py", line 1176, in insert\n    raise e\nProgrammingError: (1146, "Table \'UserDB.auth_user\' doesn\'t exist")\n'
p4395
s.