(dp1
S'output'
p2
S'<class \'_mysql_exceptions.ProgrammingError\'> (1146, "Table \'userDB.auth_user\' doesn\'t exist")'
p3
sS'layer'
p4
S'/home/adrian/web2py/applications/CygnusCloud/models/db.py'
p5
sS'code'
p6
S"# -*- coding: utf-8 -*-\nfrom configuration import DBConfigurator\n\n\nconf = DBConfigurator('170590ucm')\nconf.dropDatabase('userDB')\nconf.createDatabase('userDB')\nuserDB = DAL('mysql://CygnusCloud:cygnuscloud2012@localhost/userDB')\n\n# Autentication\nfrom gluon.tools import Auth\nauth = Auth(userDB)\nauth.define_tables()\n\n#Usuario de prueba\nu1 = userDB.auth_user.insert(password = userDB.auth_user.password.validate('1234')[0],\n                    email = 'Admin1@ucm.es',first_name='Bertoldo',last_name='Pedralbes')\n#A\xc3\xb1adimos los grupos\nauth.add_group('Student', 'Only run virtual machines available')\nauth.add_group('Administrator', 'All privilages available')\n\n#Enlazamos los usuarios a los grupos\nauth.add_membership('Administrator',u1)\n      \nuserDB.define_table('ClassGroup',\n   Field('userId','integer', 'reference auth_user' ),\n   Field('cod','integer','reference UserGroup'),\n   Field('curseGroup','reference UserGroup',length=1 ),\n   primarykey=['cod','curseGroup','userId'])\n   \nuserDB.define_table('Subjects',\n   Field('code','integer'),\n   Field('name',length=15))\n   \nuserDB.define_table('UserGroup',\n   Field('yearGroup','integer', 'reference Users'),\n   Field('cod','integer','reference subjects'),\n   Field('curse','integer'),\n   Field('curseGroup', length=1),\n   primarykey=['cod','curseGroup'])\n   \nuserDB.define_table('VMByGroup',\n   Field('VMName',length=20),\n   Field('cod','integer','reference UserGroup'),\n   Field('curseGroup','reference UserGroup',length=1 ),\n   primarykey=['cod','curseGroup','VMName'])\n"
p7
sS'snapshot'
p8
(dp9
S'exception'
p10
(dp11
S'__module__'
p12
S"'_mysql_exceptions'"
p13
sS'__getslice__'
p14
S"<method-wrapper '__getslice__' of ProgrammingError object>"
p15
sS'__str__'
p16
S"<method-wrapper '__str__' of ProgrammingError object>"
p17
sS'__reduce__'
p18
S'<built-in method __reduce__ of ProgrammingError object>'
p19
sS'__dict__'
p20
S'{}'
p21
sS'__sizeof__'
p22
S'<built-in method __sizeof__ of ProgrammingError object>'
p23
sS'__weakref__'
p24
S'None'
p25
sS'__init__'
p26
S"<method-wrapper '__init__' of ProgrammingError object>"
p27
sS'__setattr__'
p28
S"<method-wrapper '__setattr__' of ProgrammingError object>"
p29
sS'__reduce_ex__'
p30
S'<built-in method __reduce_ex__ of ProgrammingError object>'
p31
sS'__new__'
p32
S'<built-in method __new__ of type object>'
p33
sS'__format__'
p34
S'<built-in method __format__ of ProgrammingError object>'
p35
sS'__class__'
p36
S"<class '_mysql_exceptions.ProgrammingError'>"
p37
sS'__doc__'
p38
S"'Exception raised for programming errors, e.g. ta...t, wrong number\\n    of parameters specified, etc.'"
p39
sS'__getitem__'
p40
S"<method-wrapper '__getitem__' of ProgrammingError object>"
p41
sS'__setstate__'
p42
S'<built-in method __setstate__ of ProgrammingError object>'
p43
sS'__getattribute__'
p44
S"<method-wrapper '__getattribute__' of ProgrammingError object>"
p45
sS'args'
p46
S'(1146, "Table \'userDB.auth_user\' doesn\'t exist")'
p47
sS'__subclasshook__'
p48
S'<built-in method __subclasshook__ of type object>'
p49
sS'__unicode__'
p50
S'<built-in method __unicode__ of ProgrammingError object>'
p51
sS'__delattr__'
p52
S"<method-wrapper '__delattr__' of ProgrammingError object>"
p53
sS'__repr__'
p54
S"<method-wrapper '__repr__' of ProgrammingError object>"
p55
sS'__hash__'
p56
S"<method-wrapper '__hash__' of ProgrammingError object>"
p57
ssS'evalue'
p58
S'(1146, "Table \'userDB.auth_user\' doesn\'t exist")'
p59
sS'request'
p60
ccopy_reg
_reconstructor
p61
(cgluon.html
BEAUTIFY
p62
c__builtin__
object
p63
NtRp64
(dp65
S'attributes'
p66
(dp67
sS'components'
p68
(lp69
g61
(cgluon.html
TABLE
p70
g63
NtRp71
(dp72
g66
(dp73
S'level'
p74
I5
ssS'parent'
p75
Nsg68
(lp76
g61
(cgluon.html
TR
p77
g63
NtRp78
(dp79
g66
(dp80
sg75
g71
sg68
(lp81
g61
(cgluon.html
TD
p82
g63
NtRp83
(dp84
g66
(dp85
S'_style'
p86
S'font-weight:bold;vertical-align:top'
p87
ssg75
g78
sg68
(lp88
S'ajax'
p89
asbag61
(g82
g63
NtRp90
(dp91
g66
(dp92
S'_valign'
p93
S'top'
p94
ssg75
g78
sg68
(lp95
S':'
asbag61
(g82
g63
NtRp96
(dp97
g66
(dp98
sg75
g78
sg68
(lp99
g61
(g62
g63
NtRp100
(dp101
g66
(dp102
g74
I5
ssg75
g96
sg68
(lp103
S'False'
p104
asbasbasbag61
(g77
g63
NtRp105
(dp106
g66
(dp107
sg75
g71
sg68
(lp108
g61
(g82
g63
NtRp109
(dp110
g66
(dp111
g86
g87
ssg75
g105
sg68
(lp112
S'application'
p113
asbag61
(g82
g63
NtRp114
(dp115
g66
(dp116
g93
g94
ssg75
g105
sg68
(lp117
S':'
asbag61
(g82
g63
NtRp118
(dp119
g66
(dp120
sg75
g105
sg68
(lp121
g61
(g62
g63
NtRp122
(dp123
g66
(dp124
g74
I5
ssg75
g118
sg68
(lp125
S'CygnusCloud'
p126
asbasbasbag61
(g77
g63
NtRp127
(dp128
g66
(dp129
sg75
g71
sg68
(lp130
g61
(g82
g63
NtRp131
(dp132
g66
(dp133
g86
g87
ssg75
g127
sg68
(lp134
g46
asbag61
(g82
g63
NtRp135
(dp136
g66
(dp137
g93
g94
ssg75
g127
sg68
(lp138
S':'
asbag61
(g82
g63
NtRp139
(dp140
g66
(dp141
sg75
g127
sg68
(lp142
g61
(g62
g63
NtRp143
(dp144
g66
(dp145
g74
I5
ssg75
g139
sg68
(lp146
g61
(g70
g63
NtRp147
(dp148
g66
(dp149
g74
I4
ssg75
Nsg68
(lp150
sbasbasbasbag61
(g77
g63
NtRp151
(dp152
g66
(dp153
sg75
g71
sg68
(lp154
g61
(g82
g63
NtRp155
(dp156
g66
(dp157
g86
g87
ssg75
g151
sg68
(lp158
S'body'
p159
asbag61
(g82
g63
NtRp160
(dp161
g66
(dp162
g93
g94
ssg75
g151
sg68
(lp163
S':'
asbag61
(g82
g63
NtRp164
(dp165
g66
(dp166
sg75
g151
sg68
(lp167
g61
(g62
g63
NtRp168
(dp169
g66
(dp170
g74
I5
ssg75
g164
sg68
(lp171
S'<cStringIO.StringO object at 0x2af6c38>'
p172
asbasbasbag61
(g77
g63
NtRp173
(dp174
g66
(dp175
sg75
g71
sg68
(lp176
g61
(g82
g63
NtRp177
(dp178
g66
(dp179
g86
g87
ssg75
g173
sg68
(lp180
S'cid'
p181
asbag61
(g82
g63
NtRp182
(dp183
g66
(dp184
g93
g94
ssg75
g173
sg68
(lp185
S':'
asbag61
(g82
g63
NtRp186
(dp187
g66
(dp188
sg75
g173
sg68
(lp189
g61
(g62
g63
NtRp190
(dp191
g66
(dp192
g74
I5
ssg75
g186
sg68
(lp193
S'None'
p194
asbasbasbag61
(g77
g63
NtRp195
(dp196
g66
(dp197
sg75
g71
sg68
(lp198
g61
(g82
g63
NtRp199
(dp200
g66
(dp201
g86
g87
ssg75
g195
sg68
(lp202
S'client'
p203
asbag61
(g82
g63
NtRp204
(dp205
g66
(dp206
g93
g94
ssg75
g195
sg68
(lp207
S':'
asbag61
(g82
g63
NtRp208
(dp209
g66
(dp210
sg75
g195
sg68
(lp211
g61
(g62
g63
NtRp212
(dp213
g66
(dp214
g74
I5
ssg75
g208
sg68
(lp215
S'127.0.0.1'
p216
asbasbasbag61
(g77
g63
NtRp217
(dp218
g66
(dp219
sg75
g71
sg68
(lp220
g61
(g82
g63
NtRp221
(dp222
g66
(dp223
g86
g87
ssg75
g217
sg68
(lp224
S'controller'
p225
asbag61
(g82
g63
NtRp226
(dp227
g66
(dp228
g93
g94
ssg75
g217
sg68
(lp229
S':'
asbag61
(g82
g63
NtRp230
(dp231
g66
(dp232
sg75
g217
sg68
(lp233
g61
(g62
g63
NtRp234
(dp235
g66
(dp236
g74
I5
ssg75
g230
sg68
(lp237
S'main'
p238
asbasbasbag61
(g77
g63
NtRp239
(dp240
g66
(dp241
sg75
g71
sg68
(lp242
g61
(g82
g63
NtRp243
(dp244
g66
(dp245
g86
g87
ssg75
g239
sg68
(lp246
S'cookies'
p247
asbag61
(g82
g63
NtRp248
(dp249
g66
(dp250
g93
g94
ssg75
g239
sg68
(lp251
S':'
asbag61
(g82
g63
NtRp252
(dp253
g66
(dp254
sg75
g239
sg68
(lp255
g61
(g62
g63
NtRp256
(dp257
g66
(dp258
g74
I5
ssg75
g252
sg68
(lp259
g61
(g70
g63
NtRp260
(dp261
g66
(dp262
g74
I4
ssg75
Nsg68
(lp263
g61
(g77
g63
NtRp264
(dp265
g66
(dp266
sg75
g260
sg68
(lp267
g61
(g82
g63
NtRp268
(dp269
g66
(dp270
g86
g87
ssg75
g264
sg68
(lp271
S'session_id_admin'
p272
asbag61
(g82
g63
NtRp273
(dp274
g66
(dp275
g93
g94
ssg75
g264
sg68
(lp276
S':'
asbag61
(g82
g63
NtRp277
(dp278
g66
(dp279
sg75
g264
sg68
(lp280
g61
(g62
g63
NtRp281
(dp282
g66
(dp283
g74
I4
ssg75
g277
sg68
(lp284
S'127.0.0.1-55f52477-473c-42b8-b923-a29e2f1fa64b'
p285
ag61
(g70
g63
NtRp286
(dp287
g66
(dp288
g74
I3
ssg75
Nsg68
(lp289
g61
(g77
g63
NtRp290
(dp291
g66
(dp292
sg75
g286
sg68
(lp293
g61
(g82
g63
NtRp294
(dp295
g66
(dp296
g86
g87
ssg75
g290
sg68
(lp297
S'comment'
p298
asbag61
(g82
g63
NtRp299
(dp300
g66
(dp301
g93
g94
ssg75
g290
sg68
(lp302
S':'
asbag61
(g82
g63
NtRp303
(dp304
g66
(dp305
sg75
g290
sg68
(lp306
g61
(g62
g63
NtRp307
(dp308
g66
(dp309
g74
I3
ssg75
g303
sg68
(lp310
S''
asbasbasbag61
(g77
g63
NtRp311
(dp312
g66
(dp313
sg75
g286
sg68
(lp314
g61
(g82
g63
NtRp315
(dp316
g66
(dp317
g86
g87
ssg75
g311
sg68
(lp318
S'domain'
p319
asbag61
(g82
g63
NtRp320
(dp321
g66
(dp322
g93
g94
ssg75
g311
sg68
(lp323
S':'
asbag61
(g82
g63
NtRp324
(dp325
g66
(dp326
sg75
g311
sg68
(lp327
g61
(g62
g63
NtRp328
(dp329
g66
(dp330
g74
I3
ssg75
g324
sg68
(lp331
S''
asbasbasbag61
(g77
g63
NtRp332
(dp333
g66
(dp334
sg75
g286
sg68
(lp335
g61
(g82
g63
NtRp336
(dp337
g66
(dp338
g86
g87
ssg75
g332
sg68
(lp339
S'expires'
p340
asbag61
(g82
g63
NtRp341
(dp342
g66
(dp343
g93
g94
ssg75
g332
sg68
(lp344
S':'
asbag61
(g82
g63
NtRp345
(dp346
g66
(dp347
sg75
g332
sg68
(lp348
g61
(g62
g63
NtRp349
(dp350
g66
(dp351
g74
I3
ssg75
g345
sg68
(lp352
S''
asbasbasbag61
(g77
g63
NtRp353
(dp354
g66
(dp355
sg75
g286
sg68
(lp356
g61
(g82
g63
NtRp357
(dp358
g66
(dp359
g86
g87
ssg75
g353
sg68
(lp360
S'httponly'
p361
asbag61
(g82
g63
NtRp362
(dp363
g66
(dp364
g93
g94
ssg75
g353
sg68
(lp365
S':'
asbag61
(g82
g63
NtRp366
(dp367
g66
(dp368
sg75
g353
sg68
(lp369
g61
(g62
g63
NtRp370
(dp371
g66
(dp372
g74
I3
ssg75
g366
sg68
(lp373
S''
asbasbasbag61
(g77
g63
NtRp374
(dp375
g66
(dp376
sg75
g286
sg68
(lp377
g61
(g82
g63
NtRp378
(dp379
g66
(dp380
g86
g87
ssg75
g374
sg68
(lp381
S'max-age'
p382
asbag61
(g82
g63
NtRp383
(dp384
g66
(dp385
g93
g94
ssg75
g374
sg68
(lp386
S':'
asbag61
(g82
g63
NtRp387
(dp388
g66
(dp389
sg75
g374
sg68
(lp390
g61
(g62
g63
NtRp391
(dp392
g66
(dp393
g74
I3
ssg75
g387
sg68
(lp394
S''
asbasbasbag61
(g77
g63
NtRp395
(dp396
g66
(dp397
sg75
g286
sg68
(lp398
g61
(g82
g63
NtRp399
(dp400
g66
(dp401
g86
g87
ssg75
g395
sg68
(lp402
S'path'
p403
asbag61
(g82
g63
NtRp404
(dp405
g66
(dp406
g93
g94
ssg75
g395
sg68
(lp407
S':'
asbag61
(g82
g63
NtRp408
(dp409
g66
(dp410
sg75
g395
sg68
(lp411
g61
(g62
g63
NtRp412
(dp413
g66
(dp414
g74
I3
ssg75
g408
sg68
(lp415
S''
asbasbasbag61
(g77
g63
NtRp416
(dp417
g66
(dp418
sg75
g286
sg68
(lp419
g61
(g82
g63
NtRp420
(dp421
g66
(dp422
g86
g87
ssg75
g416
sg68
(lp423
S'secure'
p424
asbag61
(g82
g63
NtRp425
(dp426
g66
(dp427
g93
g94
ssg75
g416
sg68
(lp428
S':'
asbag61
(g82
g63
NtRp429
(dp430
g66
(dp431
sg75
g416
sg68
(lp432
g61
(g62
g63
NtRp433
(dp434
g66
(dp435
g74
I3
ssg75
g429
sg68
(lp436
S''
asbasbasbag61
(g77
g63
NtRp437
(dp438
g66
(dp439
sg75
g286
sg68
(lp440
g61
(g82
g63
NtRp441
(dp442
g66
(dp443
g86
g87
ssg75
g437
sg68
(lp444
S'version'
p445
asbag61
(g82
g63
NtRp446
(dp447
g66
(dp448
g93
g94
ssg75
g437
sg68
(lp449
S':'
asbag61
(g82
g63
NtRp450
(dp451
g66
(dp452
sg75
g437
sg68
(lp453
g61
(g62
g63
NtRp454
(dp455
g66
(dp456
g74
I3
ssg75
g450
sg68
(lp457
S''
asbasbasbasbasbasbasbag61
(g77
g63
NtRp458
(dp459
g66
(dp460
sg75
g260
sg68
(lp461
g61
(g82
g63
NtRp462
(dp463
g66
(dp464
g86
g87
ssg75
g458
sg68
(lp465
S'session_id_cygnuscloud'
p466
asbag61
(g82
g63
NtRp467
(dp468
g66
(dp469
g93
g94
ssg75
g458
sg68
(lp470
S':'
asbag61
(g82
g63
NtRp471
(dp472
g66
(dp473
sg75
g458
sg68
(lp474
g61
(g62
g63
NtRp475
(dp476
g66
(dp477
g74
I4
ssg75
g471
sg68
(lp478
S'127.0.0.1-791acaf2-7386-46dc-b011-4810dc00037c'
p479
ag61
(g70
g63
NtRp480
(dp481
g66
(dp482
g74
I3
ssg75
Nsg68
(lp483
g61
(g77
g63
NtRp484
(dp485
g66
(dp486
sg75
g480
sg68
(lp487
g61
(g82
g63
NtRp488
(dp489
g66
(dp490
g86
g87
ssg75
g484
sg68
(lp491
g298
asbag61
(g82
g63
NtRp492
(dp493
g66
(dp494
g93
g94
ssg75
g484
sg68
(lp495
S':'
asbag61
(g82
g63
NtRp496
(dp497
g66
(dp498
sg75
g484
sg68
(lp499
g61
(g62
g63
NtRp500
(dp501
g66
(dp502
g74
I3
ssg75
g496
sg68
(lp503
S''
asbasbasbag61
(g77
g63
NtRp504
(dp505
g66
(dp506
sg75
g480
sg68
(lp507
g61
(g82
g63
NtRp508
(dp509
g66
(dp510
g86
g87
ssg75
g504
sg68
(lp511
g319
asbag61
(g82
g63
NtRp512
(dp513
g66
(dp514
g93
g94
ssg75
g504
sg68
(lp515
S':'
asbag61
(g82
g63
NtRp516
(dp517
g66
(dp518
sg75
g504
sg68
(lp519
g61
(g62
g63
NtRp520
(dp521
g66
(dp522
g74
I3
ssg75
g516
sg68
(lp523
S''
asbasbasbag61
(g77
g63
NtRp524
(dp525
g66
(dp526
sg75
g480
sg68
(lp527
g61
(g82
g63
NtRp528
(dp529
g66
(dp530
g86
g87
ssg75
g524
sg68
(lp531
g340
asbag61
(g82
g63
NtRp532
(dp533
g66
(dp534
g93
g94
ssg75
g524
sg68
(lp535
S':'
asbag61
(g82
g63
NtRp536
(dp537
g66
(dp538
sg75
g524
sg68
(lp539
g61
(g62
g63
NtRp540
(dp541
g66
(dp542
g74
I3
ssg75
g536
sg68
(lp543
S''
asbasbasbag61
(g77
g63
NtRp544
(dp545
g66
(dp546
sg75
g480
sg68
(lp547
g61
(g82
g63
NtRp548
(dp549
g66
(dp550
g86
g87
ssg75
g544
sg68
(lp551
g361
asbag61
(g82
g63
NtRp552
(dp553
g66
(dp554
g93
g94
ssg75
g544
sg68
(lp555
S':'
asbag61
(g82
g63
NtRp556
(dp557
g66
(dp558
sg75
g544
sg68
(lp559
g61
(g62
g63
NtRp560
(dp561
g66
(dp562
g74
I3
ssg75
g556
sg68
(lp563
S''
asbasbasbag61
(g77
g63
NtRp564
(dp565
g66
(dp566
sg75
g480
sg68
(lp567
g61
(g82
g63
NtRp568
(dp569
g66
(dp570
g86
g87
ssg75
g564
sg68
(lp571
g382
asbag61
(g82
g63
NtRp572
(dp573
g66
(dp574
g93
g94
ssg75
g564
sg68
(lp575
S':'
asbag61
(g82
g63
NtRp576
(dp577
g66
(dp578
sg75
g564
sg68
(lp579
g61
(g62
g63
NtRp580
(dp581
g66
(dp582
g74
I3
ssg75
g576
sg68
(lp583
S''
asbasbasbag61
(g77
g63
NtRp584
(dp585
g66
(dp586
sg75
g480
sg68
(lp587
g61
(g82
g63
NtRp588
(dp589
g66
(dp590
g86
g87
ssg75
g584
sg68
(lp591
g403
asbag61
(g82
g63
NtRp592
(dp593
g66
(dp594
g93
g94
ssg75
g584
sg68
(lp595
S':'
asbag61
(g82
g63
NtRp596
(dp597
g66
(dp598
sg75
g584
sg68
(lp599
g61
(g62
g63
NtRp600
(dp601
g66
(dp602
g74
I3
ssg75
g596
sg68
(lp603
S''
asbasbasbag61
(g77
g63
NtRp604
(dp605
g66
(dp606
sg75
g480
sg68
(lp607
g61
(g82
g63
NtRp608
(dp609
g66
(dp610
g86
g87
ssg75
g604
sg68
(lp611
g424
asbag61
(g82
g63
NtRp612
(dp613
g66
(dp614
g93
g94
ssg75
g604
sg68
(lp615
S':'
asbag61
(g82
g63
NtRp616
(dp617
g66
(dp618
sg75
g604
sg68
(lp619
g61
(g62
g63
NtRp620
(dp621
g66
(dp622
g74
I3
ssg75
g616
sg68
(lp623
S''
asbasbasbag61
(g77
g63
NtRp624
(dp625
g66
(dp626
sg75
g480
sg68
(lp627
g61
(g82
g63
NtRp628
(dp629
g66
(dp630
g86
g87
ssg75
g624
sg68
(lp631
g445
asbag61
(g82
g63
NtRp632
(dp633
g66
(dp634
g93
g94
ssg75
g624
sg68
(lp635
S':'
asbag61
(g82
g63
NtRp636
(dp637
g66
(dp638
sg75
g624
sg68
(lp639
g61
(g62
g63
NtRp640
(dp641
g66
(dp642
g74
I3
ssg75
g636
sg68
(lp643
S''
asbasbasbasbasbasbasbag61
(g77
g63
NtRp644
(dp645
g66
(dp646
sg75
g260
sg68
(lp647
g61
(g82
g63
NtRp648
(dp649
g66
(dp650
g86
g87
ssg75
g644
sg68
(lp651
S'session_id_welcome'
p652
asbag61
(g82
g63
NtRp653
(dp654
g66
(dp655
g93
g94
ssg75
g644
sg68
(lp656
S':'
asbag61
(g82
g63
NtRp657
(dp658
g66
(dp659
sg75
g644
sg68
(lp660
g61
(g62
g63
NtRp661
(dp662
g66
(dp663
g74
I4
ssg75
g657
sg68
(lp664
S'127.0.0.1-ed3399df-33a9-4506-9f65-53bddd2578f7'
p665
ag61
(g70
g63
NtRp666
(dp667
g66
(dp668
g74
I3
ssg75
Nsg68
(lp669
g61
(g77
g63
NtRp670
(dp671
g66
(dp672
sg75
g666
sg68
(lp673
g61
(g82
g63
NtRp674
(dp675
g66
(dp676
g86
g87
ssg75
g670
sg68
(lp677
g298
asbag61
(g82
g63
NtRp678
(dp679
g66
(dp680
g93
g94
ssg75
g670
sg68
(lp681
S':'
asbag61
(g82
g63
NtRp682
(dp683
g66
(dp684
sg75
g670
sg68
(lp685
g61
(g62
g63
NtRp686
(dp687
g66
(dp688
g74
I3
ssg75
g682
sg68
(lp689
S''
asbasbasbag61
(g77
g63
NtRp690
(dp691
g66
(dp692
sg75
g666
sg68
(lp693
g61
(g82
g63
NtRp694
(dp695
g66
(dp696
g86
g87
ssg75
g690
sg68
(lp697
g319
asbag61
(g82
g63
NtRp698
(dp699
g66
(dp700
g93
g94
ssg75
g690
sg68
(lp701
S':'
asbag61
(g82
g63
NtRp702
(dp703
g66
(dp704
sg75
g690
sg68
(lp705
g61
(g62
g63
NtRp706
(dp707
g66
(dp708
g74
I3
ssg75
g702
sg68
(lp709
S''
asbasbasbag61
(g77
g63
NtRp710
(dp711
g66
(dp712
sg75
g666
sg68
(lp713
g61
(g82
g63
NtRp714
(dp715
g66
(dp716
g86
g87
ssg75
g710
sg68
(lp717
g340
asbag61
(g82
g63
NtRp718
(dp719
g66
(dp720
g93
g94
ssg75
g710
sg68
(lp721
S':'
asbag61
(g82
g63
NtRp722
(dp723
g66
(dp724
sg75
g710
sg68
(lp725
g61
(g62
g63
NtRp726
(dp727
g66
(dp728
g74
I3
ssg75
g722
sg68
(lp729
S''
asbasbasbag61
(g77
g63
NtRp730
(dp731
g66
(dp732
sg75
g666
sg68
(lp733
g61
(g82
g63
NtRp734
(dp735
g66
(dp736
g86
g87
ssg75
g730
sg68
(lp737
g361
asbag61
(g82
g63
NtRp738
(dp739
g66
(dp740
g93
g94
ssg75
g730
sg68
(lp741
S':'
asbag61
(g82
g63
NtRp742
(dp743
g66
(dp744
sg75
g730
sg68
(lp745
g61
(g62
g63
NtRp746
(dp747
g66
(dp748
g74
I3
ssg75
g742
sg68
(lp749
S''
asbasbasbag61
(g77
g63
NtRp750
(dp751
g66
(dp752
sg75
g666
sg68
(lp753
g61
(g82
g63
NtRp754
(dp755
g66
(dp756
g86
g87
ssg75
g750
sg68
(lp757
g382
asbag61
(g82
g63
NtRp758
(dp759
g66
(dp760
g93
g94
ssg75
g750
sg68
(lp761
S':'
asbag61
(g82
g63
NtRp762
(dp763
g66
(dp764
sg75
g750
sg68
(lp765
g61
(g62
g63
NtRp766
(dp767
g66
(dp768
g74
I3
ssg75
g762
sg68
(lp769
S''
asbasbasbag61
(g77
g63
NtRp770
(dp771
g66
(dp772
sg75
g666
sg68
(lp773
g61
(g82
g63
NtRp774
(dp775
g66
(dp776
g86
g87
ssg75
g770
sg68
(lp777
g403
asbag61
(g82
g63
NtRp778
(dp779
g66
(dp780
g93
g94
ssg75
g770
sg68
(lp781
S':'
asbag61
(g82
g63
NtRp782
(dp783
g66
(dp784
sg75
g770
sg68
(lp785
g61
(g62
g63
NtRp786
(dp787
g66
(dp788
g74
I3
ssg75
g782
sg68
(lp789
S''
asbasbasbag61
(g77
g63
NtRp790
(dp791
g66
(dp792
sg75
g666
sg68
(lp793
g61
(g82
g63
NtRp794
(dp795
g66
(dp796
g86
g87
ssg75
g790
sg68
(lp797
g424
asbag61
(g82
g63
NtRp798
(dp799
g66
(dp800
g93
g94
ssg75
g790
sg68
(lp801
S':'
asbag61
(g82
g63
NtRp802
(dp803
g66
(dp804
sg75
g790
sg68
(lp805
g61
(g62
g63
NtRp806
(dp807
g66
(dp808
g74
I3
ssg75
g802
sg68
(lp809
S''
asbasbasbag61
(g77
g63
NtRp810
(dp811
g66
(dp812
sg75
g666
sg68
(lp813
g61
(g82
g63
NtRp814
(dp815
g66
(dp816
g86
g87
ssg75
g810
sg68
(lp817
g445
asbag61
(g82
g63
NtRp818
(dp819
g66
(dp820
g93
g94
ssg75
g810
sg68
(lp821
S':'
asbag61
(g82
g63
NtRp822
(dp823
g66
(dp824
sg75
g810
sg68
(lp825
g61
(g62
g63
NtRp826
(dp827
g66
(dp828
g74
I3
ssg75
g822
sg68
(lp829
S''
asbasbasbasbasbasbasbasbasbasbasbag61
(g77
g63
NtRp830
(dp831
g66
(dp832
sg75
g71
sg68
(lp833
g61
(g82
g63
NtRp834
(dp835
g66
(dp836
g86
g87
ssg75
g830
sg68
(lp837
S'env'
p838
asbag61
(g82
g63
NtRp839
(dp840
g66
(dp841
g93
g94
ssg75
g830
sg68
(lp842
S':'
asbag61
(g82
g63
NtRp843
(dp844
g66
(dp845
sg75
g830
sg68
(lp846
g61
(g62
g63
NtRp847
(dp848
g66
(dp849
g74
I5
ssg75
g843
sg68
(lp850
g61
(g70
g63
NtRp851
(dp852
g66
(dp853
g74
I4
ssg75
Nsg68
(lp854
g61
(g77
g63
NtRp855
(dp856
g66
(dp857
sg75
g851
sg68
(lp858
g61
(g82
g63
NtRp859
(dp860
g66
(dp861
g86
g87
ssg75
g855
sg68
(lp862
S'app_folders'
p863
asbag61
(g82
g63
NtRp864
(dp865
g66
(dp866
g93
g94
ssg75
g855
sg68
(lp867
S':'
asbag61
(g82
g63
NtRp868
(dp869
g66
(dp870
sg75
g855
sg68
(lp871
g61
(g62
g63
NtRp872
(dp873
g66
(dp874
g74
I4
ssg75
g868
sg68
(lp875
S"set(['/home/adrian/web2py/applications/admin/', '/home/adrian/web2py/applications/welcome/', '/home/adrian/web2py/applications/CygnusCloud/'])"
p876
asbasbasbag61
(g77
g63
NtRp877
(dp878
g66
(dp879
sg75
g851
sg68
(lp880
g61
(g82
g63
NtRp881
(dp882
g66
(dp883
g86
g87
ssg75
g877
sg68
(lp884
S'applications_parent'
p885
asbag61
(g82
g63
NtRp886
(dp887
g66
(dp888
g93
g94
ssg75
g877
sg68
(lp889
S':'
asbag61
(g82
g63
NtRp890
(dp891
g66
(dp892
sg75
g877
sg68
(lp893
g61
(g62
g63
NtRp894
(dp895
g66
(dp896
g74
I4
ssg75
g890
sg68
(lp897
S'/home/adrian/web2py'
p898
asbasbasbag61
(g77
g63
NtRp899
(dp900
g66
(dp901
sg75
g851
sg68
(lp902
g61
(g82
g63
NtRp903
(dp904
g66
(dp905
g86
g87
ssg75
g899
sg68
(lp906
S'cmd_args'
p907
asbag61
(g82
g63
NtRp908
(dp909
g66
(dp910
g93
g94
ssg75
g899
sg68
(lp911
S':'
asbag61
(g82
g63
NtRp912
(dp913
g66
(dp914
sg75
g899
sg68
(lp915
g61
(g62
g63
NtRp916
(dp917
g66
(dp918
g74
I4
ssg75
g912
sg68
(lp919
g61
(g70
g63
NtRp920
(dp921
g66
(dp922
g74
I3
ssg75
Nsg68
(lp923
sbasbasbasbag61
(g77
g63
NtRp924
(dp925
g66
(dp926
sg75
g851
sg68
(lp927
g61
(g82
g63
NtRp928
(dp929
g66
(dp930
g86
g87
ssg75
g924
sg68
(lp931
S'cmd_options'
p932
asbag61
(g82
g63
NtRp933
(dp934
g66
(dp935
g93
g94
ssg75
g924
sg68
(lp936
S':'
asbag61
(g82
g63
NtRp937
(dp938
g66
(dp939
sg75
g924
sg68
(lp940
g61
(g62
g63
NtRp941
(dp942
g66
(dp943
g74
I4
ssg75
g937
sg68
(lp944
S"<Values at 0x2a81bd8: {'verbose': False, 'ip': '127.0.0.1', 'with_scheduler': False, 'ips': [], 'shutdown_timeout': 5, 'taskbar': False, 'port': 8000, 'maxthreads': None, 'softcron': False, 'server_name': 'adri-EasyNote', 'bpython': False, 'nogui': False, 'pid_filename': 'httpserver.pid', 'extcron': False, 'runcron': False, 'run_system_tests': False, 'test': None, 'folder': '/home/adrian/web2py', 'config': '', 'minthreads': None, 'winservice': '', 'shell': None, 'run': '', 'log_filename': 'httpserver.log', 'debuglevel': 30, 'args': [''], 'socket_timeout': 5, 'ssl_ca_certificate': None, 'scheduler': None, 'profiler_filename': None, 'ssl_private_key': '', 'scheduler_groups': None, 'password': 'cygnuscloud2012', 'request_queue_size': 5, 'ssl_certificate': '', 'cronjob': False, 'numthreads': None, 'quiet': False, 'interfaces': None, 'import_models': False, 'timeout': 10, 'plain': False, 'nobanner': False}>"
p945
asbasbasbag61
(g77
g63
NtRp946
(dp947
g66
(dp948
sg75
g851
sg68
(lp949
g61
(g82
g63
NtRp950
(dp951
g66
(dp952
g86
g87
ssg75
g946
sg68
(lp953
S'db_sessions'
p954
asbag61
(g82
g63
NtRp955
(dp956
g66
(dp957
g93
g94
ssg75
g946
sg68
(lp958
S':'
asbag61
(g82
g63
NtRp959
(dp960
g66
(dp961
sg75
g946
sg68
(lp962
g61
(g62
g63
NtRp963
(dp964
g66
(dp965
g74
I4
ssg75
g959
sg68
(lp966
S'set([])'
p967
asbasbasbag61
(g77
g63
NtRp968
(dp969
g66
(dp970
sg75
g851
sg68
(lp971
g61
(g82
g63
NtRp972
(dp973
g66
(dp974
g86
g87
ssg75
g968
sg68
(lp975
S'debugging'
p976
asbag61
(g82
g63
NtRp977
(dp978
g66
(dp979
g93
g94
ssg75
g968
sg68
(lp980
S':'
asbag61
(g82
g63
NtRp981
(dp982
g66
(dp983
sg75
g968
sg68
(lp984
g61
(g62
g63
NtRp985
(dp986
g66
(dp987
g74
I4
ssg75
g981
sg68
(lp988
g104
asbasbasbag61
(g77
g63
NtRp989
(dp990
g66
(dp991
sg75
g851
sg68
(lp992
g61
(g82
g63
NtRp993
(dp994
g66
(dp995
g86
g87
ssg75
g989
sg68
(lp996
S'gluon_parent'
p997
asbag61
(g82
g63
NtRp998
(dp999
g66
(dp1000
g93
g94
ssg75
g989
sg68
(lp1001
S':'
asbag61
(g82
g63
NtRp1002
(dp1003
g66
(dp1004
sg75
g989
sg68
(lp1005
g61
(g62
g63
NtRp1006
(dp1007
g66
(dp1008
g74
I4
ssg75
g1002
sg68
(lp1009
S'/home/adrian/web2py'
p1010
asbasbasbag61
(g77
g63
NtRp1011
(dp1012
g66
(dp1013
sg75
g851
sg68
(lp1014
g61
(g82
g63
NtRp1015
(dp1016
g66
(dp1017
g86
g87
ssg75
g1011
sg68
(lp1018
S'http_accept'
p1019
asbag61
(g82
g63
NtRp1020
(dp1021
g66
(dp1022
g93
g94
ssg75
g1011
sg68
(lp1023
S':'
asbag61
(g82
g63
NtRp1024
(dp1025
g66
(dp1026
sg75
g1011
sg68
(lp1027
g61
(g62
g63
NtRp1028
(dp1029
g66
(dp1030
g74
I4
ssg75
g1024
sg68
(lp1031
S'text/html,application/xhtml+xml,application/xml;q=0.9,*/*;q=0.8'
p1032
asbasbasbag61
(g77
g63
NtRp1033
(dp1034
g66
(dp1035
sg75
g851
sg68
(lp1036
g61
(g82
g63
NtRp1037
(dp1038
g66
(dp1039
g86
g87
ssg75
g1033
sg68
(lp1040
S'http_accept_charset'
p1041
asbag61
(g82
g63
NtRp1042
(dp1043
g66
(dp1044
g93
g94
ssg75
g1033
sg68
(lp1045
S':'
asbag61
(g82
g63
NtRp1046
(dp1047
g66
(dp1048
sg75
g1033
sg68
(lp1049
g61
(g62
g63
NtRp1050
(dp1051
g66
(dp1052
g74
I4
ssg75
g1046
sg68
(lp1053
S'ISO-8859-1,utf-8;q=0.7,*;q=0.3'
p1054
asbasbasbag61
(g77
g63
NtRp1055
(dp1056
g66
(dp1057
sg75
g851
sg68
(lp1058
g61
(g82
g63
NtRp1059
(dp1060
g66
(dp1061
g86
g87
ssg75
g1055
sg68
(lp1062
S'http_accept_encoding'
p1063
asbag61
(g82
g63
NtRp1064
(dp1065
g66
(dp1066
g93
g94
ssg75
g1055
sg68
(lp1067
S':'
asbag61
(g82
g63
NtRp1068
(dp1069
g66
(dp1070
sg75
g1055
sg68
(lp1071
g61
(g62
g63
NtRp1072
(dp1073
g66
(dp1074
g74
I4
ssg75
g1068
sg68
(lp1075
S'gzip,deflate,sdch'
p1076
asbasbasbag61
(g77
g63
NtRp1077
(dp1078
g66
(dp1079
sg75
g851
sg68
(lp1080
g61
(g82
g63
NtRp1081
(dp1082
g66
(dp1083
g86
g87
ssg75
g1077
sg68
(lp1084
S'http_accept_language'
p1085
asbag61
(g82
g63
NtRp1086
(dp1087
g66
(dp1088
g93
g94
ssg75
g1077
sg68
(lp1089
S':'
asbag61
(g82
g63
NtRp1090
(dp1091
g66
(dp1092
sg75
g1077
sg68
(lp1093
g61
(g62
g63
NtRp1094
(dp1095
g66
(dp1096
g74
I4
ssg75
g1090
sg68
(lp1097
S'es-ES,es;q=0.8'
p1098
asbasbasbag61
(g77
g63
NtRp1099
(dp1100
g66
(dp1101
sg75
g851
sg68
(lp1102
g61
(g82
g63
NtRp1103
(dp1104
g66
(dp1105
g86
g87
ssg75
g1099
sg68
(lp1106
S'http_cache_control'
p1107
asbag61
(g82
g63
NtRp1108
(dp1109
g66
(dp1110
g93
g94
ssg75
g1099
sg68
(lp1111
S':'
asbag61
(g82
g63
NtRp1112
(dp1113
g66
(dp1114
sg75
g1099
sg68
(lp1115
g61
(g62
g63
NtRp1116
(dp1117
g66
(dp1118
g74
I4
ssg75
g1112
sg68
(lp1119
S'max-age=0'
p1120
asbasbasbag61
(g77
g63
NtRp1121
(dp1122
g66
(dp1123
sg75
g851
sg68
(lp1124
g61
(g82
g63
NtRp1125
(dp1126
g66
(dp1127
g86
g87
ssg75
g1121
sg68
(lp1128
S'http_connection'
p1129
asbag61
(g82
g63
NtRp1130
(dp1131
g66
(dp1132
g93
g94
ssg75
g1121
sg68
(lp1133
S':'
asbag61
(g82
g63
NtRp1134
(dp1135
g66
(dp1136
sg75
g1121
sg68
(lp1137
g61
(g62
g63
NtRp1138
(dp1139
g66
(dp1140
g74
I4
ssg75
g1134
sg68
(lp1141
S'keep-alive'
p1142
asbasbasbag61
(g77
g63
NtRp1143
(dp1144
g66
(dp1145
sg75
g851
sg68
(lp1146
g61
(g82
g63
NtRp1147
(dp1148
g66
(dp1149
g86
g87
ssg75
g1143
sg68
(lp1150
S'http_cookie'
p1151
asbag61
(g82
g63
NtRp1152
(dp1153
g66
(dp1154
g93
g94
ssg75
g1143
sg68
(lp1155
S':'
asbag61
(g82
g63
NtRp1156
(dp1157
g66
(dp1158
sg75
g1143
sg68
(lp1159
g61
(g62
g63
NtRp1160
(dp1161
g66
(dp1162
g74
I4
ssg75
g1156
sg68
(lp1163
S'session_id_welcome=127.0.0.1-ed3399df-33a9-4506-9f65-53bddd2578f7; session_id_cygnuscloud=127.0.0.1-791acaf2-7386-46dc-b011-4810dc00037c; session_id_admin=127.0.0.1-55f52477-473c-42b8-b923-a29e2f1fa64b'
p1164
asbasbasbag61
(g77
g63
NtRp1165
(dp1166
g66
(dp1167
sg75
g851
sg68
(lp1168
g61
(g82
g63
NtRp1169
(dp1170
g66
(dp1171
g86
g87
ssg75
g1165
sg68
(lp1172
S'http_host'
p1173
asbag61
(g82
g63
NtRp1174
(dp1175
g66
(dp1176
g93
g94
ssg75
g1165
sg68
(lp1177
S':'
asbag61
(g82
g63
NtRp1178
(dp1179
g66
(dp1180
sg75
g1165
sg68
(lp1181
g61
(g62
g63
NtRp1182
(dp1183
g66
(dp1184
g74
I4
ssg75
g1178
sg68
(lp1185
S'127.0.0.1:8000'
p1186
asbasbasbag61
(g77
g63
NtRp1187
(dp1188
g66
(dp1189
sg75
g851
sg68
(lp1190
g61
(g82
g63
NtRp1191
(dp1192
g66
(dp1193
g86
g87
ssg75
g1187
sg68
(lp1194
S'http_user_agent'
p1195
asbag61
(g82
g63
NtRp1196
(dp1197
g66
(dp1198
g93
g94
ssg75
g1187
sg68
(lp1199
S':'
asbag61
(g82
g63
NtRp1200
(dp1201
g66
(dp1202
sg75
g1187
sg68
(lp1203
g61
(g62
g63
NtRp1204
(dp1205
g66
(dp1206
g74
I4
ssg75
g1200
sg68
(lp1207
S'Mozilla/5.0 (X11; Linux x86_64) AppleWebKit/537.11 (KHTML, like Gecko) Chrome/23.0.1271.64 Safari/537.11'
p1208
asbasbasbag61
(g77
g63
NtRp1209
(dp1210
g66
(dp1211
sg75
g851
sg68
(lp1212
g61
(g82
g63
NtRp1213
(dp1214
g66
(dp1215
g86
g87
ssg75
g1209
sg68
(lp1216
S'is_jython'
p1217
asbag61
(g82
g63
NtRp1218
(dp1219
g66
(dp1220
g93
g94
ssg75
g1209
sg68
(lp1221
S':'
asbag61
(g82
g63
NtRp1222
(dp1223
g66
(dp1224
sg75
g1209
sg68
(lp1225
g61
(g62
g63
NtRp1226
(dp1227
g66
(dp1228
g74
I4
ssg75
g1222
sg68
(lp1229
g104
asbasbasbag61
(g77
g63
NtRp1230
(dp1231
g66
(dp1232
sg75
g851
sg68
(lp1233
g61
(g82
g63
NtRp1234
(dp1235
g66
(dp1236
g86
g87
ssg75
g1230
sg68
(lp1237
S'is_pypy'
p1238
asbag61
(g82
g63
NtRp1239
(dp1240
g66
(dp1241
g93
g94
ssg75
g1230
sg68
(lp1242
S':'
asbag61
(g82
g63
NtRp1243
(dp1244
g66
(dp1245
sg75
g1230
sg68
(lp1246
g61
(g62
g63
NtRp1247
(dp1248
g66
(dp1249
g74
I4
ssg75
g1243
sg68
(lp1250
g104
asbasbasbag61
(g77
g63
NtRp1251
(dp1252
g66
(dp1253
sg75
g851
sg68
(lp1254
g61
(g82
g63
NtRp1255
(dp1256
g66
(dp1257
g86
g87
ssg75
g1251
sg68
(lp1258
S'local_hosts'
p1259
asbag61
(g82
g63
NtRp1260
(dp1261
g66
(dp1262
g93
g94
ssg75
g1251
sg68
(lp1263
S':'
asbag61
(g82
g63
NtRp1264
(dp1265
g66
(dp1266
sg75
g1251
sg68
(lp1267
g61
(g62
g63
NtRp1268
(dp1269
g66
(dp1270
g74
I4
ssg75
g1264
sg68
(lp1271
g61
(g70
g63
NtRp1272
(dp1273
g66
(dp1274
g74
I3
ssg75
Nsg68
(lp1275
g61
(g77
g63
NtRp1276
(dp1277
g66
(dp1278
sg75
g1272
sg68
(lp1279
g61
(g82
g63
NtRp1280
(dp1281
g66
(dp1282
sg75
g1276
sg68
(lp1283
g61
(g62
g63
NtRp1284
(dp1285
g66
(dp1286
g74
I3
ssg75
g1280
sg68
(lp1287
S'adri-EasyNote'
p1288
asbasbasbag61
(g77
g63
NtRp1289
(dp1290
g66
(dp1291
sg75
g1272
sg68
(lp1292
g61
(g82
g63
NtRp1293
(dp1294
g66
(dp1295
sg75
g1289
sg68
(lp1296
g61
(g62
g63
NtRp1297
(dp1298
g66
(dp1299
g74
I3
ssg75
g1293
sg68
(lp1300
S'::1'
p1301
asbasbasbag61
(g77
g63
NtRp1302
(dp1303
g66
(dp1304
sg75
g1272
sg68
(lp1305
g61
(g82
g63
NtRp1306
(dp1307
g66
(dp1308
sg75
g1302
sg68
(lp1309
g61
(g62
g63
NtRp1310
(dp1311
g66
(dp1312
g74
I3
ssg75
g1306
sg68
(lp1313
S'127.0.1.1'
p1314
asbasbasbag61
(g77
g63
NtRp1315
(dp1316
g66
(dp1317
sg75
g1272
sg68
(lp1318
g61
(g82
g63
NtRp1319
(dp1320
g66
(dp1321
sg75
g1315
sg68
(lp1322
g61
(g62
g63
NtRp1323
(dp1324
g66
(dp1325
g74
I3
ssg75
g1319
sg68
(lp1326
S'::ffff:127.0.0.1'
p1327
asbasbasbag61
(g77
g63
NtRp1328
(dp1329
g66
(dp1330
sg75
g1272
sg68
(lp1331
g61
(g82
g63
NtRp1332
(dp1333
g66
(dp1334
sg75
g1328
sg68
(lp1335
g61
(g62
g63
NtRp1336
(dp1337
g66
(dp1338
g74
I3
ssg75
g1332
sg68
(lp1339
S'127.0.0.1'
p1340
asbasbasbasbasbasbasbag61
(g77
g63
NtRp1341
(dp1342
g66
(dp1343
sg75
g851
sg68
(lp1344
g61
(g82
g63
NtRp1345
(dp1346
g66
(dp1347
g86
g87
ssg75
g1341
sg68
(lp1348
S'path_info'
p1349
asbag61
(g82
g63
NtRp1350
(dp1351
g66
(dp1352
g93
g94
ssg75
g1341
sg68
(lp1353
S':'
asbag61
(g82
g63
NtRp1354
(dp1355
g66
(dp1356
sg75
g1341
sg68
(lp1357
g61
(g62
g63
NtRp1358
(dp1359
g66
(dp1360
g74
I4
ssg75
g1354
sg68
(lp1361
S'/CygnusCloud/main/login'
p1362
asbasbasbag61
(g77
g63
NtRp1363
(dp1364
g66
(dp1365
sg75
g851
sg68
(lp1366
g61
(g82
g63
NtRp1367
(dp1368
g66
(dp1369
g86
g87
ssg75
g1363
sg68
(lp1370
S'query_string'
p1371
asbag61
(g82
g63
NtRp1372
(dp1373
g66
(dp1374
g93
g94
ssg75
g1363
sg68
(lp1375
S':'
asbag61
(g82
g63
NtRp1376
(dp1377
g66
(dp1378
sg75
g1363
sg68
(lp1379
g61
(g62
g63
NtRp1380
(dp1381
g66
(dp1382
g74
I4
ssg75
g1376
sg68
(lp1383
S''
asbasbasbag61
(g77
g63
NtRp1384
(dp1385
g66
(dp1386
sg75
g851
sg68
(lp1387
g61
(g82
g63
NtRp1388
(dp1389
g66
(dp1390
g86
g87
ssg75
g1384
sg68
(lp1391
S'remote_addr'
p1392
asbag61
(g82
g63
NtRp1393
(dp1394
g66
(dp1395
g93
g94
ssg75
g1384
sg68
(lp1396
S':'
asbag61
(g82
g63
NtRp1397
(dp1398
g66
(dp1399
sg75
g1384
sg68
(lp1400
g61
(g62
g63
NtRp1401
(dp1402
g66
(dp1403
g74
I4
ssg75
g1397
sg68
(lp1404
g216
asbasbasbag61
(g77
g63
NtRp1405
(dp1406
g66
(dp1407
sg75
g851
sg68
(lp1408
g61
(g82
g63
NtRp1409
(dp1410
g66
(dp1411
g86
g87
ssg75
g1405
sg68
(lp1412
S'remote_port'
p1413
asbag61
(g82
g63
NtRp1414
(dp1415
g66
(dp1416
g93
g94
ssg75
g1405
sg68
(lp1417
S':'
asbag61
(g82
g63
NtRp1418
(dp1419
g66
(dp1420
sg75
g1405
sg68
(lp1421
g61
(g62
g63
NtRp1422
(dp1423
g66
(dp1424
g74
I4
ssg75
g1418
sg68
(lp1425
S'41179'
p1426
asbasbasbag61
(g77
g63
NtRp1427
(dp1428
g66
(dp1429
sg75
g851
sg68
(lp1430
g61
(g82
g63
NtRp1431
(dp1432
g66
(dp1433
g86
g87
ssg75
g1427
sg68
(lp1434
S'request_method'
p1435
asbag61
(g82
g63
NtRp1436
(dp1437
g66
(dp1438
g93
g94
ssg75
g1427
sg68
(lp1439
S':'
asbag61
(g82
g63
NtRp1440
(dp1441
g66
(dp1442
sg75
g1427
sg68
(lp1443
g61
(g62
g63
NtRp1444
(dp1445
g66
(dp1446
g74
I4
ssg75
g1440
sg68
(lp1447
S'GET'
p1448
asbasbasbag61
(g77
g63
NtRp1449
(dp1450
g66
(dp1451
sg75
g851
sg68
(lp1452
g61
(g82
g63
NtRp1453
(dp1454
g66
(dp1455
g86
g87
ssg75
g1449
sg68
(lp1456
S'request_uri'
p1457
asbag61
(g82
g63
NtRp1458
(dp1459
g66
(dp1460
g93
g94
ssg75
g1449
sg68
(lp1461
S':'
asbag61
(g82
g63
NtRp1462
(dp1463
g66
(dp1464
sg75
g1449
sg68
(lp1465
g61
(g62
g63
NtRp1466
(dp1467
g66
(dp1468
g74
I4
ssg75
g1462
sg68
(lp1469
g1362
asbasbasbag61
(g77
g63
NtRp1470
(dp1471
g66
(dp1472
sg75
g851
sg68
(lp1473
g61
(g82
g63
NtRp1474
(dp1475
g66
(dp1476
g86
g87
ssg75
g1470
sg68
(lp1477
S'script_name'
p1478
asbag61
(g82
g63
NtRp1479
(dp1480
g66
(dp1481
g93
g94
ssg75
g1470
sg68
(lp1482
S':'
asbag61
(g82
g63
NtRp1483
(dp1484
g66
(dp1485
sg75
g1470
sg68
(lp1486
g61
(g62
g63
NtRp1487
(dp1488
g66
(dp1489
g74
I4
ssg75
g1483
sg68
(lp1490
S''
asbasbasbag61
(g77
g63
NtRp1491
(dp1492
g66
(dp1493
sg75
g851
sg68
(lp1494
g61
(g82
g63
NtRp1495
(dp1496
g66
(dp1497
g86
g87
ssg75
g1491
sg68
(lp1498
S'server_name'
p1499
asbag61
(g82
g63
NtRp1500
(dp1501
g66
(dp1502
g93
g94
ssg75
g1491
sg68
(lp1503
S':'
asbag61
(g82
g63
NtRp1504
(dp1505
g66
(dp1506
sg75
g1491
sg68
(lp1507
g61
(g62
g63
NtRp1508
(dp1509
g66
(dp1510
g74
I4
ssg75
g1504
sg68
(lp1511
S'adri-EasyNote'
p1512
asbasbasbag61
(g77
g63
NtRp1513
(dp1514
g66
(dp1515
sg75
g851
sg68
(lp1516
g61
(g82
g63
NtRp1517
(dp1518
g66
(dp1519
g86
g87
ssg75
g1513
sg68
(lp1520
S'server_port'
p1521
asbag61
(g82
g63
NtRp1522
(dp1523
g66
(dp1524
g93
g94
ssg75
g1513
sg68
(lp1525
S':'
asbag61
(g82
g63
NtRp1526
(dp1527
g66
(dp1528
sg75
g1513
sg68
(lp1529
g61
(g62
g63
NtRp1530
(dp1531
g66
(dp1532
g74
I4
ssg75
g1526
sg68
(lp1533
S'8000'
p1534
asbasbasbag61
(g77
g63
NtRp1535
(dp1536
g66
(dp1537
sg75
g851
sg68
(lp1538
g61
(g82
g63
NtRp1539
(dp1540
g66
(dp1541
g86
g87
ssg75
g1535
sg68
(lp1542
S'server_protocol'
p1543
asbag61
(g82
g63
NtRp1544
(dp1545
g66
(dp1546
g93
g94
ssg75
g1535
sg68
(lp1547
S':'
asbag61
(g82
g63
NtRp1548
(dp1549
g66
(dp1550
sg75
g1535
sg68
(lp1551
g61
(g62
g63
NtRp1552
(dp1553
g66
(dp1554
g74
I4
ssg75
g1548
sg68
(lp1555
S'HTTP/1.1'
p1556
asbasbasbag61
(g77
g63
NtRp1557
(dp1558
g66
(dp1559
sg75
g851
sg68
(lp1560
g61
(g82
g63
NtRp1561
(dp1562
g66
(dp1563
g86
g87
ssg75
g1557
sg68
(lp1564
S'server_software'
p1565
asbag61
(g82
g63
NtRp1566
(dp1567
g66
(dp1568
g93
g94
ssg75
g1557
sg68
(lp1569
S':'
asbag61
(g82
g63
NtRp1570
(dp1571
g66
(dp1572
sg75
g1557
sg68
(lp1573
g61
(g62
g63
NtRp1574
(dp1575
g66
(dp1576
g74
I4
ssg75
g1570
sg68
(lp1577
S'Rocket 1.2.6'
p1578
asbasbasbag61
(g77
g63
NtRp1579
(dp1580
g66
(dp1581
sg75
g851
sg68
(lp1582
g61
(g82
g63
NtRp1583
(dp1584
g66
(dp1585
g86
g87
ssg75
g1579
sg68
(lp1586
S'web2py_path'
p1587
asbag61
(g82
g63
NtRp1588
(dp1589
g66
(dp1590
g93
g94
ssg75
g1579
sg68
(lp1591
S':'
asbag61
(g82
g63
NtRp1592
(dp1593
g66
(dp1594
sg75
g1579
sg68
(lp1595
g61
(g62
g63
NtRp1596
(dp1597
g66
(dp1598
g74
I4
ssg75
g1592
sg68
(lp1599
g898
asbasbasbag61
(g77
g63
NtRp1600
(dp1601
g66
(dp1602
sg75
g851
sg68
(lp1603
g61
(g82
g63
NtRp1604
(dp1605
g66
(dp1606
g86
g87
ssg75
g1600
sg68
(lp1607
S'web2py_version'
p1608
asbag61
(g82
g63
NtRp1609
(dp1610
g66
(dp1611
g93
g94
ssg75
g1600
sg68
(lp1612
S':'
asbag61
(g82
g63
NtRp1613
(dp1614
g66
(dp1615
sg75
g1600
sg68
(lp1616
g61
(g62
g63
NtRp1617
(dp1618
g66
(dp1619
g74
I4
ssg75
g1613
sg68
(lp1620
g61
(g70
g63
NtRp1621
(dp1622
g66
(dp1623
g74
I3
ssg75
Nsg68
(lp1624
g61
(g77
g63
NtRp1625
(dp1626
g66
(dp1627
sg75
g1621
sg68
(lp1628
g61
(g82
g63
NtRp1629
(dp1630
g66
(dp1631
sg75
g1625
sg68
(lp1632
g61
(g62
g63
NtRp1633
(dp1634
g66
(dp1635
g74
I3
ssg75
g1629
sg68
(lp1636
S'2'
asbasbasbag61
(g77
g63
NtRp1637
(dp1638
g66
(dp1639
sg75
g1621
sg68
(lp1640
g61
(g82
g63
NtRp1641
(dp1642
g66
(dp1643
sg75
g1637
sg68
(lp1644
g61
(g62
g63
NtRp1645
(dp1646
g66
(dp1647
g74
I3
ssg75
g1641
sg68
(lp1648
S'3'
asbasbasbag61
(g77
g63
NtRp1649
(dp1650
g66
(dp1651
sg75
g1621
sg68
(lp1652
g61
(g82
g63
NtRp1653
(dp1654
g66
(dp1655
sg75
g1649
sg68
(lp1656
g61
(g62
g63
NtRp1657
(dp1658
g66
(dp1659
g74
I3
ssg75
g1653
sg68
(lp1660
S'2'
asbasbasbag61
(g77
g63
NtRp1661
(dp1662
g66
(dp1663
sg75
g1621
sg68
(lp1664
g61
(g82
g63
NtRp1665
(dp1666
g66
(dp1667
sg75
g1661
sg68
(lp1668
g61
(g62
g63
NtRp1669
(dp1670
g66
(dp1671
g74
I3
ssg75
g1665
sg68
(lp1672
S'datetime.datetime(2012, 12, 17, 15, 3, 30)'
p1673
asbasbasbag61
(g77
g63
NtRp1674
(dp1675
g66
(dp1676
sg75
g1621
sg68
(lp1677
g61
(g82
g63
NtRp1678
(dp1679
g66
(dp1680
sg75
g1674
sg68
(lp1681
g61
(g62
g63
NtRp1682
(dp1683
g66
(dp1684
g74
I3
ssg75
g1678
sg68
(lp1685
S'stable'
p1686
asbasbasbasbasbasbasbag61
(g77
g63
NtRp1687
(dp1688
g66
(dp1689
sg75
g851
sg68
(lp1690
g61
(g82
g63
NtRp1691
(dp1692
g66
(dp1693
g86
g87
ssg75
g1687
sg68
(lp1694
S'wsgi_errors'
p1695
asbag61
(g82
g63
NtRp1696
(dp1697
g66
(dp1698
g93
g94
ssg75
g1687
sg68
(lp1699
S':'
asbag61
(g82
g63
NtRp1700
(dp1701
g66
(dp1702
sg75
g1687
sg68
(lp1703
g61
(g62
g63
NtRp1704
(dp1705
g66
(dp1706
g74
I4
ssg75
g1700
sg68
(lp1707
S"<open file '<stderr>', mode 'w' at 0x7f13978c7270>"
p1708
asbasbasbag61
(g77
g63
NtRp1709
(dp1710
g66
(dp1711
sg75
g851
sg68
(lp1712
g61
(g82
g63
NtRp1713
(dp1714
g66
(dp1715
g86
g87
ssg75
g1709
sg68
(lp1716
S'wsgi_file_wrapper'
p1717
asbag61
(g82
g63
NtRp1718
(dp1719
g66
(dp1720
g93
g94
ssg75
g1709
sg68
(lp1721
S':'
asbag61
(g82
g63
NtRp1722
(dp1723
g66
(dp1724
sg75
g1709
sg68
(lp1725
g61
(g62
g63
NtRp1726
(dp1727
g66
(dp1728
g74
I4
ssg75
g1722
sg68
(lp1729
S'<class wsgiref.util.FileWrapper at 0x29b5db8>'
p1730
asbasbasbag61
(g77
g63
NtRp1731
(dp1732
g66
(dp1733
sg75
g851
sg68
(lp1734
g61
(g82
g63
NtRp1735
(dp1736
g66
(dp1737
g86
g87
ssg75
g1731
sg68
(lp1738
S'wsgi_input'
p1739
asbag61
(g82
g63
NtRp1740
(dp1741
g66
(dp1742
g93
g94
ssg75
g1731
sg68
(lp1743
S':'
asbag61
(g82
g63
NtRp1744
(dp1745
g66
(dp1746
sg75
g1731
sg68
(lp1747
g61
(g62
g63
NtRp1748
(dp1749
g66
(dp1750
g74
I4
ssg75
g1744
sg68
(lp1751
S'<socket._fileobject object at 0x7f1370388550>'
p1752
asbasbasbag61
(g77
g63
NtRp1753
(dp1754
g66
(dp1755
sg75
g851
sg68
(lp1756
g61
(g82
g63
NtRp1757
(dp1758
g66
(dp1759
g86
g87
ssg75
g1753
sg68
(lp1760
S'wsgi_multiprocess'
p1761
asbag61
(g82
g63
NtRp1762
(dp1763
g66
(dp1764
g93
g94
ssg75
g1753
sg68
(lp1765
S':'
asbag61
(g82
g63
NtRp1766
(dp1767
g66
(dp1768
sg75
g1753
sg68
(lp1769
g61
(g62
g63
NtRp1770
(dp1771
g66
(dp1772
g74
I4
ssg75
g1766
sg68
(lp1773
g104
asbasbasbag61
(g77
g63
NtRp1774
(dp1775
g66
(dp1776
sg75
g851
sg68
(lp1777
g61
(g82
g63
NtRp1778
(dp1779
g66
(dp1780
g86
g87
ssg75
g1774
sg68
(lp1781
S'wsgi_multithread'
p1782
asbag61
(g82
g63
NtRp1783
(dp1784
g66
(dp1785
g93
g94
ssg75
g1774
sg68
(lp1786
S':'
asbag61
(g82
g63
NtRp1787
(dp1788
g66
(dp1789
sg75
g1774
sg68
(lp1790
g61
(g62
g63
NtRp1791
(dp1792
g66
(dp1793
g74
I4
ssg75
g1787
sg68
(lp1794
S'True'
p1795
asbasbasbag61
(g77
g63
NtRp1796
(dp1797
g66
(dp1798
sg75
g851
sg68
(lp1799
g61
(g82
g63
NtRp1800
(dp1801
g66
(dp1802
g86
g87
ssg75
g1796
sg68
(lp1803
S'wsgi_run_once'
p1804
asbag61
(g82
g63
NtRp1805
(dp1806
g66
(dp1807
g93
g94
ssg75
g1796
sg68
(lp1808
S':'
asbag61
(g82
g63
NtRp1809
(dp1810
g66
(dp1811
sg75
g1796
sg68
(lp1812
g61
(g62
g63
NtRp1813
(dp1814
g66
(dp1815
g74
I4
ssg75
g1809
sg68
(lp1816
g104
asbasbasbag61
(g77
g63
NtRp1817
(dp1818
g66
(dp1819
sg75
g851
sg68
(lp1820
g61
(g82
g63
NtRp1821
(dp1822
g66
(dp1823
g86
g87
ssg75
g1817
sg68
(lp1824
S'wsgi_url_scheme'
p1825
asbag61
(g82
g63
NtRp1826
(dp1827
g66
(dp1828
g93
g94
ssg75
g1817
sg68
(lp1829
S':'
asbag61
(g82
g63
NtRp1830
(dp1831
g66
(dp1832
sg75
g1817
sg68
(lp1833
g61
(g62
g63
NtRp1834
(dp1835
g66
(dp1836
g74
I4
ssg75
g1830
sg68
(lp1837
S'http'
p1838
asbasbasbag61
(g77
g63
NtRp1839
(dp1840
g66
(dp1841
sg75
g851
sg68
(lp1842
g61
(g82
g63
NtRp1843
(dp1844
g66
(dp1845
g86
g87
ssg75
g1839
sg68
(lp1846
S'wsgi_version'
p1847
asbag61
(g82
g63
NtRp1848
(dp1849
g66
(dp1850
g93
g94
ssg75
g1839
sg68
(lp1851
S':'
asbag61
(g82
g63
NtRp1852
(dp1853
g66
(dp1854
sg75
g1839
sg68
(lp1855
g61
(g62
g63
NtRp1856
(dp1857
g66
(dp1858
g74
I4
ssg75
g1852
sg68
(lp1859
g61
(g70
g63
NtRp1860
(dp1861
g66
(dp1862
g74
I3
ssg75
Nsg68
(lp1863
g61
(g77
g63
NtRp1864
(dp1865
g66
(dp1866
sg75
g1860
sg68
(lp1867
g61
(g82
g63
NtRp1868
(dp1869
g66
(dp1870
sg75
g1864
sg68
(lp1871
g61
(g62
g63
NtRp1872
(dp1873
g66
(dp1874
g74
I3
ssg75
g1868
sg68
(lp1875
S'1'
asbasbasbag61
(g77
g63
NtRp1876
(dp1877
g66
(dp1878
sg75
g1860
sg68
(lp1879
g61
(g82
g63
NtRp1880
(dp1881
g66
(dp1882
sg75
g1876
sg68
(lp1883
g61
(g62
g63
NtRp1884
(dp1885
g66
(dp1886
g74
I3
ssg75
g1880
sg68
(lp1887
S'0'
asbasbasbasbasbasbasbasbasbasbasbag61
(g77
g63
NtRp1888
(dp1889
g66
(dp1890
sg75
g71
sg68
(lp1891
g61
(g82
g63
NtRp1892
(dp1893
g66
(dp1894
g86
g87
ssg75
g1888
sg68
(lp1895
S'extension'
p1896
asbag61
(g82
g63
NtRp1897
(dp1898
g66
(dp1899
g93
g94
ssg75
g1888
sg68
(lp1900
S':'
asbag61
(g82
g63
NtRp1901
(dp1902
g66
(dp1903
sg75
g1888
sg68
(lp1904
g61
(g62
g63
NtRp1905
(dp1906
g66
(dp1907
g74
I5
ssg75
g1901
sg68
(lp1908
S'html'
p1909
asbasbasbag61
(g77
g63
NtRp1910
(dp1911
g66
(dp1912
sg75
g71
sg68
(lp1913
g61
(g82
g63
NtRp1914
(dp1915
g66
(dp1916
g86
g87
ssg75
g1910
sg68
(lp1917
S'folder'
p1918
asbag61
(g82
g63
NtRp1919
(dp1920
g66
(dp1921
g93
g94
ssg75
g1910
sg68
(lp1922
S':'
asbag61
(g82
g63
NtRp1923
(dp1924
g66
(dp1925
sg75
g1910
sg68
(lp1926
g61
(g62
g63
NtRp1927
(dp1928
g66
(dp1929
g74
I5
ssg75
g1923
sg68
(lp1930
S'/home/adrian/web2py/applications/CygnusCloud/'
p1931
asbasbasbag61
(g77
g63
NtRp1932
(dp1933
g66
(dp1934
sg75
g71
sg68
(lp1935
g61
(g82
g63
NtRp1936
(dp1937
g66
(dp1938
g86
g87
ssg75
g1932
sg68
(lp1939
S'function'
p1940
asbag61
(g82
g63
NtRp1941
(dp1942
g66
(dp1943
g93
g94
ssg75
g1932
sg68
(lp1944
S':'
asbag61
(g82
g63
NtRp1945
(dp1946
g66
(dp1947
sg75
g1932
sg68
(lp1948
g61
(g62
g63
NtRp1949
(dp1950
g66
(dp1951
g74
I5
ssg75
g1945
sg68
(lp1952
S'login'
p1953
asbasbasbag61
(g77
g63
NtRp1954
(dp1955
g66
(dp1956
sg75
g71
sg68
(lp1957
g61
(g82
g63
NtRp1958
(dp1959
g66
(dp1960
g86
g87
ssg75
g1954
sg68
(lp1961
S'get_vars'
p1962
asbag61
(g82
g63
NtRp1963
(dp1964
g66
(dp1965
g93
g94
ssg75
g1954
sg68
(lp1966
S':'
asbag61
(g82
g63
NtRp1967
(dp1968
g66
(dp1969
sg75
g1954
sg68
(lp1970
g61
(g62
g63
NtRp1971
(dp1972
g66
(dp1973
g74
I5
ssg75
g1967
sg68
(lp1974
g61
(g70
g63
NtRp1975
(dp1976
g66
(dp1977
g74
I4
ssg75
Nsg68
(lp1978
sbasbasbasbag61
(g77
g63
NtRp1979
(dp1980
g66
(dp1981
sg75
g71
sg68
(lp1982
g61
(g82
g63
NtRp1983
(dp1984
g66
(dp1985
g86
g87
ssg75
g1979
sg68
(lp1986
S'global_settings'
p1987
asbag61
(g82
g63
NtRp1988
(dp1989
g66
(dp1990
g93
g94
ssg75
g1979
sg68
(lp1991
S':'
asbag61
(g82
g63
NtRp1992
(dp1993
g66
(dp1994
sg75
g1979
sg68
(lp1995
g61
(g62
g63
NtRp1996
(dp1997
g66
(dp1998
g74
I5
ssg75
g1992
sg68
(lp1999
g61
(g70
g63
NtRp2000
(dp2001
g66
(dp2002
g74
I4
ssg75
Nsg68
(lp2003
g61
(g77
g63
NtRp2004
(dp2005
g66
(dp2006
sg75
g2000
sg68
(lp2007
g61
(g82
g63
NtRp2008
(dp2009
g66
(dp2010
g86
g87
ssg75
g2004
sg68
(lp2011
g863
asbag61
(g82
g63
NtRp2012
(dp2013
g66
(dp2014
g93
g94
ssg75
g2004
sg68
(lp2015
S':'
asbag61
(g82
g63
NtRp2016
(dp2017
g66
(dp2018
sg75
g2004
sg68
(lp2019
g61
(g62
g63
NtRp2020
(dp2021
g66
(dp2022
g74
I4
ssg75
g2016
sg68
(lp2023
S"set(['/home/adrian/web2py/applications/admin/', '/home/adrian/web2py/applications/welcome/', '/home/adrian/web2py/applications/CygnusCloud/'])"
p2024
asbasbasbag61
(g77
g63
NtRp2025
(dp2026
g66
(dp2027
sg75
g2000
sg68
(lp2028
g61
(g82
g63
NtRp2029
(dp2030
g66
(dp2031
g86
g87
ssg75
g2025
sg68
(lp2032
g885
asbag61
(g82
g63
NtRp2033
(dp2034
g66
(dp2035
g93
g94
ssg75
g2025
sg68
(lp2036
S':'
asbag61
(g82
g63
NtRp2037
(dp2038
g66
(dp2039
sg75
g2025
sg68
(lp2040
g61
(g62
g63
NtRp2041
(dp2042
g66
(dp2043
g74
I4
ssg75
g2037
sg68
(lp2044
g898
asbasbasbag61
(g77
g63
NtRp2045
(dp2046
g66
(dp2047
sg75
g2000
sg68
(lp2048
g61
(g82
g63
NtRp2049
(dp2050
g66
(dp2051
g86
g87
ssg75
g2045
sg68
(lp2052
g907
asbag61
(g82
g63
NtRp2053
(dp2054
g66
(dp2055
g93
g94
ssg75
g2045
sg68
(lp2056
S':'
asbag61
(g82
g63
NtRp2057
(dp2058
g66
(dp2059
sg75
g2045
sg68
(lp2060
g61
(g62
g63
NtRp2061
(dp2062
g66
(dp2063
g74
I4
ssg75
g2057
sg68
(lp2064
g61
(g70
g63
NtRp2065
(dp2066
g66
(dp2067
g74
I3
ssg75
Nsg68
(lp2068
sbasbasbasbag61
(g77
g63
NtRp2069
(dp2070
g66
(dp2071
sg75
g2000
sg68
(lp2072
g61
(g82
g63
NtRp2073
(dp2074
g66
(dp2075
g86
g87
ssg75
g2069
sg68
(lp2076
g932
asbag61
(g82
g63
NtRp2077
(dp2078
g66
(dp2079
g93
g94
ssg75
g2069
sg68
(lp2080
S':'
asbag61
(g82
g63
NtRp2081
(dp2082
g66
(dp2083
sg75
g2069
sg68
(lp2084
g61
(g62
g63
NtRp2085
(dp2086
g66
(dp2087
g74
I4
ssg75
g2081
sg68
(lp2088
S"<Values at 0x2a81bd8: {'verbose': False, 'ip': '127.0.0.1', 'with_scheduler': False, 'ips': [], 'shutdown_timeout': 5, 'taskbar': False, 'port': 8000, 'maxthreads': None, 'softcron': False, 'server_name': 'adri-EasyNote', 'bpython': False, 'nogui': False, 'pid_filename': 'httpserver.pid', 'extcron': False, 'runcron': False, 'run_system_tests': False, 'test': None, 'folder': '/home/adrian/web2py', 'config': '', 'minthreads': None, 'winservice': '', 'shell': None, 'run': '', 'log_filename': 'httpserver.log', 'debuglevel': 30, 'args': [''], 'socket_timeout': 5, 'ssl_ca_certificate': None, 'scheduler': None, 'profiler_filename': None, 'ssl_private_key': '', 'scheduler_groups': None, 'password': 'cygnuscloud2012', 'request_queue_size': 5, 'ssl_certificate': '', 'cronjob': False, 'numthreads': None, 'quiet': False, 'interfaces': None, 'import_models': False, 'timeout': 10, 'plain': False, 'nobanner': False}>"
p2089
asbasbasbag61
(g77
g63
NtRp2090
(dp2091
g66
(dp2092
sg75
g2000
sg68
(lp2093
g61
(g82
g63
NtRp2094
(dp2095
g66
(dp2096
g86
g87
ssg75
g2090
sg68
(lp2097
g954
asbag61
(g82
g63
NtRp2098
(dp2099
g66
(dp2100
g93
g94
ssg75
g2090
sg68
(lp2101
S':'
asbag61
(g82
g63
NtRp2102
(dp2103
g66
(dp2104
sg75
g2090
sg68
(lp2105
g61
(g62
g63
NtRp2106
(dp2107
g66
(dp2108
g74
I4
ssg75
g2102
sg68
(lp2109
S'set([])'
p2110
asbasbasbag61
(g77
g63
NtRp2111
(dp2112
g66
(dp2113
sg75
g2000
sg68
(lp2114
g61
(g82
g63
NtRp2115
(dp2116
g66
(dp2117
g86
g87
ssg75
g2111
sg68
(lp2118
g976
asbag61
(g82
g63
NtRp2119
(dp2120
g66
(dp2121
g93
g94
ssg75
g2111
sg68
(lp2122
S':'
asbag61
(g82
g63
NtRp2123
(dp2124
g66
(dp2125
sg75
g2111
sg68
(lp2126
g61
(g62
g63
NtRp2127
(dp2128
g66
(dp2129
g74
I4
ssg75
g2123
sg68
(lp2130
g104
asbasbasbag61
(g77
g63
NtRp2131
(dp2132
g66
(dp2133
sg75
g2000
sg68
(lp2134
g61
(g82
g63
NtRp2135
(dp2136
g66
(dp2137
g86
g87
ssg75
g2131
sg68
(lp2138
g997
asbag61
(g82
g63
NtRp2139
(dp2140
g66
(dp2141
g93
g94
ssg75
g2131
sg68
(lp2142
S':'
asbag61
(g82
g63
NtRp2143
(dp2144
g66
(dp2145
sg75
g2131
sg68
(lp2146
g61
(g62
g63
NtRp2147
(dp2148
g66
(dp2149
g74
I4
ssg75
g2143
sg68
(lp2150
g1010
asbasbasbag61
(g77
g63
NtRp2151
(dp2152
g66
(dp2153
sg75
g2000
sg68
(lp2154
g61
(g82
g63
NtRp2155
(dp2156
g66
(dp2157
g86
g87
ssg75
g2151
sg68
(lp2158
g1217
asbag61
(g82
g63
NtRp2159
(dp2160
g66
(dp2161
g93
g94
ssg75
g2151
sg68
(lp2162
S':'
asbag61
(g82
g63
NtRp2163
(dp2164
g66
(dp2165
sg75
g2151
sg68
(lp2166
g61
(g62
g63
NtRp2167
(dp2168
g66
(dp2169
g74
I4
ssg75
g2163
sg68
(lp2170
g104
asbasbasbag61
(g77
g63
NtRp2171
(dp2172
g66
(dp2173
sg75
g2000
sg68
(lp2174
g61
(g82
g63
NtRp2175
(dp2176
g66
(dp2177
g86
g87
ssg75
g2171
sg68
(lp2178
g1238
asbag61
(g82
g63
NtRp2179
(dp2180
g66
(dp2181
g93
g94
ssg75
g2171
sg68
(lp2182
S':'
asbag61
(g82
g63
NtRp2183
(dp2184
g66
(dp2185
sg75
g2171
sg68
(lp2186
g61
(g62
g63
NtRp2187
(dp2188
g66
(dp2189
g74
I4
ssg75
g2183
sg68
(lp2190
g104
asbasbasbag61
(g77
g63
NtRp2191
(dp2192
g66
(dp2193
sg75
g2000
sg68
(lp2194
g61
(g82
g63
NtRp2195
(dp2196
g66
(dp2197
g86
g87
ssg75
g2191
sg68
(lp2198
g1259
asbag61
(g82
g63
NtRp2199
(dp2200
g66
(dp2201
g93
g94
ssg75
g2191
sg68
(lp2202
S':'
asbag61
(g82
g63
NtRp2203
(dp2204
g66
(dp2205
sg75
g2191
sg68
(lp2206
g61
(g62
g63
NtRp2207
(dp2208
g66
(dp2209
g74
I4
ssg75
g2203
sg68
(lp2210
g61
(g70
g63
NtRp2211
(dp2212
g66
(dp2213
g74
I3
ssg75
Nsg68
(lp2214
g61
(g77
g63
NtRp2215
(dp2216
g66
(dp2217
sg75
g2211
sg68
(lp2218
g61
(g82
g63
NtRp2219
(dp2220
g66
(dp2221
sg75
g2215
sg68
(lp2222
g61
(g62
g63
NtRp2223
(dp2224
g66
(dp2225
g74
I3
ssg75
g2219
sg68
(lp2226
g1288
asbasbasbag61
(g77
g63
NtRp2227
(dp2228
g66
(dp2229
sg75
g2211
sg68
(lp2230
g61
(g82
g63
NtRp2231
(dp2232
g66
(dp2233
sg75
g2227
sg68
(lp2234
g61
(g62
g63
NtRp2235
(dp2236
g66
(dp2237
g74
I3
ssg75
g2231
sg68
(lp2238
g1301
asbasbasbag61
(g77
g63
NtRp2239
(dp2240
g66
(dp2241
sg75
g2211
sg68
(lp2242
g61
(g82
g63
NtRp2243
(dp2244
g66
(dp2245
sg75
g2239
sg68
(lp2246
g61
(g62
g63
NtRp2247
(dp2248
g66
(dp2249
g74
I3
ssg75
g2243
sg68
(lp2250
g1314
asbasbasbag61
(g77
g63
NtRp2251
(dp2252
g66
(dp2253
sg75
g2211
sg68
(lp2254
g61
(g82
g63
NtRp2255
(dp2256
g66
(dp2257
sg75
g2251
sg68
(lp2258
g61
(g62
g63
NtRp2259
(dp2260
g66
(dp2261
g74
I3
ssg75
g2255
sg68
(lp2262
g1327
asbasbasbag61
(g77
g63
NtRp2263
(dp2264
g66
(dp2265
sg75
g2211
sg68
(lp2266
g61
(g82
g63
NtRp2267
(dp2268
g66
(dp2269
sg75
g2263
sg68
(lp2270
g61
(g62
g63
NtRp2271
(dp2272
g66
(dp2273
g74
I3
ssg75
g2267
sg68
(lp2274
g1340
asbasbasbasbasbasbasbag61
(g77
g63
NtRp2275
(dp2276
g66
(dp2277
sg75
g2000
sg68
(lp2278
g61
(g82
g63
NtRp2279
(dp2280
g66
(dp2281
g86
g87
ssg75
g2275
sg68
(lp2282
g1608
asbag61
(g82
g63
NtRp2283
(dp2284
g66
(dp2285
g93
g94
ssg75
g2275
sg68
(lp2286
S':'
asbag61
(g82
g63
NtRp2287
(dp2288
g66
(dp2289
sg75
g2275
sg68
(lp2290
g61
(g62
g63
NtRp2291
(dp2292
g66
(dp2293
g74
I4
ssg75
g2287
sg68
(lp2294
g61
(g70
g63
NtRp2295
(dp2296
g66
(dp2297
g74
I3
ssg75
Nsg68
(lp2298
g61
(g77
g63
NtRp2299
(dp2300
g66
(dp2301
sg75
g2295
sg68
(lp2302
g61
(g82
g63
NtRp2303
(dp2304
g66
(dp2305
sg75
g2299
sg68
(lp2306
g61
(g62
g63
NtRp2307
(dp2308
g66
(dp2309
g74
I3
ssg75
g2303
sg68
(lp2310
S'2'
asbasbasbag61
(g77
g63
NtRp2311
(dp2312
g66
(dp2313
sg75
g2295
sg68
(lp2314
g61
(g82
g63
NtRp2315
(dp2316
g66
(dp2317
sg75
g2311
sg68
(lp2318
g61
(g62
g63
NtRp2319
(dp2320
g66
(dp2321
g74
I3
ssg75
g2315
sg68
(lp2322
S'3'
asbasbasbag61
(g77
g63
NtRp2323
(dp2324
g66
(dp2325
sg75
g2295
sg68
(lp2326
g61
(g82
g63
NtRp2327
(dp2328
g66
(dp2329
sg75
g2323
sg68
(lp2330
g61
(g62
g63
NtRp2331
(dp2332
g66
(dp2333
g74
I3
ssg75
g2327
sg68
(lp2334
S'2'
asbasbasbag61
(g77
g63
NtRp2335
(dp2336
g66
(dp2337
sg75
g2295
sg68
(lp2338
g61
(g82
g63
NtRp2339
(dp2340
g66
(dp2341
sg75
g2335
sg68
(lp2342
g61
(g62
g63
NtRp2343
(dp2344
g66
(dp2345
g74
I3
ssg75
g2339
sg68
(lp2346
S'datetime.datetime(2012, 12, 17, 15, 3, 30)'
p2347
asbasbasbag61
(g77
g63
NtRp2348
(dp2349
g66
(dp2350
sg75
g2295
sg68
(lp2351
g61
(g82
g63
NtRp2352
(dp2353
g66
(dp2354
sg75
g2348
sg68
(lp2355
g61
(g62
g63
NtRp2356
(dp2357
g66
(dp2358
g74
I3
ssg75
g2352
sg68
(lp2359
g1686
asbasbasbasbasbasbasbasbasbasbasbag61
(g77
g63
NtRp2360
(dp2361
g66
(dp2362
sg75
g71
sg68
(lp2363
g61
(g82
g63
NtRp2364
(dp2365
g66
(dp2366
g86
g87
ssg75
g2360
sg68
(lp2367
S'is_https'
p2368
asbag61
(g82
g63
NtRp2369
(dp2370
g66
(dp2371
g93
g94
ssg75
g2360
sg68
(lp2372
S':'
asbag61
(g82
g63
NtRp2373
(dp2374
g66
(dp2375
sg75
g2360
sg68
(lp2376
g61
(g62
g63
NtRp2377
(dp2378
g66
(dp2379
g74
I5
ssg75
g2373
sg68
(lp2380
g104
asbasbasbag61
(g77
g63
NtRp2381
(dp2382
g66
(dp2383
sg75
g71
sg68
(lp2384
g61
(g82
g63
NtRp2385
(dp2386
g66
(dp2387
g86
g87
ssg75
g2381
sg68
(lp2388
S'is_local'
p2389
asbag61
(g82
g63
NtRp2390
(dp2391
g66
(dp2392
g93
g94
ssg75
g2381
sg68
(lp2393
S':'
asbag61
(g82
g63
NtRp2394
(dp2395
g66
(dp2396
sg75
g2381
sg68
(lp2397
g61
(g62
g63
NtRp2398
(dp2399
g66
(dp2400
g74
I5
ssg75
g2394
sg68
(lp2401
g1795
asbasbasbag61
(g77
g63
NtRp2402
(dp2403
g66
(dp2404
sg75
g71
sg68
(lp2405
g61
(g82
g63
NtRp2406
(dp2407
g66
(dp2408
g86
g87
ssg75
g2402
sg68
(lp2409
S'is_restful'
p2410
asbag61
(g82
g63
NtRp2411
(dp2412
g66
(dp2413
g93
g94
ssg75
g2402
sg68
(lp2414
S':'
asbag61
(g82
g63
NtRp2415
(dp2416
g66
(dp2417
sg75
g2402
sg68
(lp2418
g61
(g62
g63
NtRp2419
(dp2420
g66
(dp2421
g74
I5
ssg75
g2415
sg68
(lp2422
g104
asbasbasbag61
(g77
g63
NtRp2423
(dp2424
g66
(dp2425
sg75
g71
sg68
(lp2426
g61
(g82
g63
NtRp2427
(dp2428
g66
(dp2429
g86
g87
ssg75
g2423
sg68
(lp2430
S'now'
p2431
asbag61
(g82
g63
NtRp2432
(dp2433
g66
(dp2434
g93
g94
ssg75
g2423
sg68
(lp2435
S':'
asbag61
(g82
g63
NtRp2436
(dp2437
g66
(dp2438
sg75
g2423
sg68
(lp2439
g61
(g62
g63
NtRp2440
(dp2441
g66
(dp2442
g74
I5
ssg75
g2436
sg68
(lp2443
S'datetime.datetime(2013, 2, 5, 17, 24, 55, 950336)'
p2444
asbasbasbag61
(g77
g63
NtRp2445
(dp2446
g66
(dp2447
sg75
g71
sg68
(lp2448
g61
(g82
g63
NtRp2449
(dp2450
g66
(dp2451
g86
g87
ssg75
g2445
sg68
(lp2452
S'post_vars'
p2453
asbag61
(g82
g63
NtRp2454
(dp2455
g66
(dp2456
g93
g94
ssg75
g2445
sg68
(lp2457
S':'
asbag61
(g82
g63
NtRp2458
(dp2459
g66
(dp2460
sg75
g2445
sg68
(lp2461
g61
(g62
g63
NtRp2462
(dp2463
g66
(dp2464
g74
I5
ssg75
g2458
sg68
(lp2465
g61
(g70
g63
NtRp2466
(dp2467
g66
(dp2468
g74
I4
ssg75
Nsg68
(lp2469
sbasbasbasbag61
(g77
g63
NtRp2470
(dp2471
g66
(dp2472
sg75
g71
sg68
(lp2473
g61
(g82
g63
NtRp2474
(dp2475
g66
(dp2476
g86
g87
ssg75
g2470
sg68
(lp2477
S'raw_args'
p2478
asbag61
(g82
g63
NtRp2479
(dp2480
g66
(dp2481
g93
g94
ssg75
g2470
sg68
(lp2482
S':'
asbag61
(g82
g63
NtRp2483
(dp2484
g66
(dp2485
sg75
g2470
sg68
(lp2486
g61
(g62
g63
NtRp2487
(dp2488
g66
(dp2489
g74
I5
ssg75
g2483
sg68
(lp2490
S''
asbasbasbag61
(g77
g63
NtRp2491
(dp2492
g66
(dp2493
sg75
g71
sg68
(lp2494
g61
(g82
g63
NtRp2495
(dp2496
g66
(dp2497
g86
g87
ssg75
g2491
sg68
(lp2498
S'raw_extension'
p2499
asbag61
(g82
g63
NtRp2500
(dp2501
g66
(dp2502
g93
g94
ssg75
g2491
sg68
(lp2503
S':'
asbag61
(g82
g63
NtRp2504
(dp2505
g66
(dp2506
sg75
g2491
sg68
(lp2507
g61
(g62
g63
NtRp2508
(dp2509
g66
(dp2510
g74
I5
ssg75
g2504
sg68
(lp2511
S'None'
p2512
asbasbasbag61
(g77
g63
NtRp2513
(dp2514
g66
(dp2515
sg75
g71
sg68
(lp2516
g61
(g82
g63
NtRp2517
(dp2518
g66
(dp2519
g86
g87
ssg75
g2513
sg68
(lp2520
S'url'
p2521
asbag61
(g82
g63
NtRp2522
(dp2523
g66
(dp2524
g93
g94
ssg75
g2513
sg68
(lp2525
S':'
asbag61
(g82
g63
NtRp2526
(dp2527
g66
(dp2528
sg75
g2513
sg68
(lp2529
g61
(g62
g63
NtRp2530
(dp2531
g66
(dp2532
g74
I5
ssg75
g2526
sg68
(lp2533
g1362
asbasbasbag61
(g77
g63
NtRp2534
(dp2535
g66
(dp2536
sg75
g71
sg68
(lp2537
g61
(g82
g63
NtRp2538
(dp2539
g66
(dp2540
g86
g87
ssg75
g2534
sg68
(lp2541
S'utcnow'
p2542
asbag61
(g82
g63
NtRp2543
(dp2544
g66
(dp2545
g93
g94
ssg75
g2534
sg68
(lp2546
S':'
asbag61
(g82
g63
NtRp2547
(dp2548
g66
(dp2549
sg75
g2534
sg68
(lp2550
g61
(g62
g63
NtRp2551
(dp2552
g66
(dp2553
g74
I5
ssg75
g2547
sg68
(lp2554
S'datetime.datetime(2013, 2, 5, 16, 24, 55, 950412)'
p2555
asbasbasbag61
(g77
g63
NtRp2556
(dp2557
g66
(dp2558
sg75
g71
sg68
(lp2559
g61
(g82
g63
NtRp2560
(dp2561
g66
(dp2562
g86
g87
ssg75
g2556
sg68
(lp2563
S'uuid'
p2564
asbag61
(g82
g63
NtRp2565
(dp2566
g66
(dp2567
g93
g94
ssg75
g2556
sg68
(lp2568
S':'
asbag61
(g82
g63
NtRp2569
(dp2570
g66
(dp2571
sg75
g2556
sg68
(lp2572
g61
(g62
g63
NtRp2573
(dp2574
g66
(dp2575
g74
I5
ssg75
g2569
sg68
(lp2576
S'CygnusCloud/127.0.0.1.2013-02-05.17-24-55.1b6f7af1-0752-4868-a04d-d0d9377d3ecd'
p2577
asbasbasbag61
(g77
g63
NtRp2578
(dp2579
g66
(dp2580
sg75
g71
sg68
(lp2581
g61
(g82
g63
NtRp2582
(dp2583
g66
(dp2584
g86
g87
ssg75
g2578
sg68
(lp2585
S'vars'
p2586
asbag61
(g82
g63
NtRp2587
(dp2588
g66
(dp2589
g93
g94
ssg75
g2578
sg68
(lp2590
S':'
asbag61
(g82
g63
NtRp2591
(dp2592
g66
(dp2593
sg75
g2578
sg68
(lp2594
g61
(g62
g63
NtRp2595
(dp2596
g66
(dp2597
g74
I5
ssg75
g2591
sg68
(lp2598
g61
(g70
g63
NtRp2599
(dp2600
g66
(dp2601
g74
I4
ssg75
Nsg68
(lp2602
sbasbasbasbag61
(g77
g63
NtRp2603
(dp2604
g66
(dp2605
sg75
g71
sg68
(lp2606
g61
(g82
g63
NtRp2607
(dp2608
g66
(dp2609
g86
g87
ssg75
g2603
sg68
(lp2610
S'wsgi'
p2611
asbag61
(g82
g63
NtRp2612
(dp2613
g66
(dp2614
g93
g94
ssg75
g2603
sg68
(lp2615
S':'
asbag61
(g82
g63
NtRp2616
(dp2617
g66
(dp2618
sg75
g2603
sg68
(lp2619
g61
(g62
g63
NtRp2620
(dp2621
g66
(dp2622
g74
I5
ssg75
g2616
sg68
(lp2623
g61
(g70
g63
NtRp2624
(dp2625
g66
(dp2626
g74
I4
ssg75
Nsg68
(lp2627
g61
(g77
g63
NtRp2628
(dp2629
g66
(dp2630
sg75
g2624
sg68
(lp2631
g61
(g82
g63
NtRp2632
(dp2633
g66
(dp2634
g86
g87
ssg75
g2628
sg68
(lp2635
S'environ'
p2636
asbag61
(g82
g63
NtRp2637
(dp2638
g66
(dp2639
g93
g94
ssg75
g2628
sg68
(lp2640
S':'
asbag61
(g82
g63
NtRp2641
(dp2642
g66
(dp2643
sg75
g2628
sg68
(lp2644
g61
(g62
g63
NtRp2645
(dp2646
g66
(dp2647
g74
I4
ssg75
g2641
sg68
(lp2648
g61
(g70
g63
NtRp2649
(dp2650
g66
(dp2651
g74
I3
ssg75
Nsg68
(lp2652
g61
(g77
g63
NtRp2653
(dp2654
g66
(dp2655
sg75
g2649
sg68
(lp2656
g61
(g82
g63
NtRp2657
(dp2658
g66
(dp2659
g86
g87
ssg75
g2653
sg68
(lp2660
S'HTTP_ACCEPT'
p2661
asbag61
(g82
g63
NtRp2662
(dp2663
g66
(dp2664
g93
g94
ssg75
g2653
sg68
(lp2665
S':'
asbag61
(g82
g63
NtRp2666
(dp2667
g66
(dp2668
sg75
g2653
sg68
(lp2669
g61
(g62
g63
NtRp2670
(dp2671
g66
(dp2672
g74
I3
ssg75
g2666
sg68
(lp2673
g1032
asbasbasbag61
(g77
g63
NtRp2674
(dp2675
g66
(dp2676
sg75
g2649
sg68
(lp2677
g61
(g82
g63
NtRp2678
(dp2679
g66
(dp2680
g86
g87
ssg75
g2674
sg68
(lp2681
S'HTTP_ACCEPT_CHARSET'
p2682
asbag61
(g82
g63
NtRp2683
(dp2684
g66
(dp2685
g93
g94
ssg75
g2674
sg68
(lp2686
S':'
asbag61
(g82
g63
NtRp2687
(dp2688
g66
(dp2689
sg75
g2674
sg68
(lp2690
g61
(g62
g63
NtRp2691
(dp2692
g66
(dp2693
g74
I3
ssg75
g2687
sg68
(lp2694
g1054
asbasbasbag61
(g77
g63
NtRp2695
(dp2696
g66
(dp2697
sg75
g2649
sg68
(lp2698
g61
(g82
g63
NtRp2699
(dp2700
g66
(dp2701
g86
g87
ssg75
g2695
sg68
(lp2702
S'HTTP_ACCEPT_ENCODING'
p2703
asbag61
(g82
g63
NtRp2704
(dp2705
g66
(dp2706
g93
g94
ssg75
g2695
sg68
(lp2707
S':'
asbag61
(g82
g63
NtRp2708
(dp2709
g66
(dp2710
sg75
g2695
sg68
(lp2711
g61
(g62
g63
NtRp2712
(dp2713
g66
(dp2714
g74
I3
ssg75
g2708
sg68
(lp2715
g1076
asbasbasbag61
(g77
g63
NtRp2716
(dp2717
g66
(dp2718
sg75
g2649
sg68
(lp2719
g61
(g82
g63
NtRp2720
(dp2721
g66
(dp2722
g86
g87
ssg75
g2716
sg68
(lp2723
S'HTTP_ACCEPT_LANGUAGE'
p2724
asbag61
(g82
g63
NtRp2725
(dp2726
g66
(dp2727
g93
g94
ssg75
g2716
sg68
(lp2728
S':'
asbag61
(g82
g63
NtRp2729
(dp2730
g66
(dp2731
sg75
g2716
sg68
(lp2732
g61
(g62
g63
NtRp2733
(dp2734
g66
(dp2735
g74
I3
ssg75
g2729
sg68
(lp2736
g1098
asbasbasbag61
(g77
g63
NtRp2737
(dp2738
g66
(dp2739
sg75
g2649
sg68
(lp2740
g61
(g82
g63
NtRp2741
(dp2742
g66
(dp2743
g86
g87
ssg75
g2737
sg68
(lp2744
S'HTTP_CACHE_CONTROL'
p2745
asbag61
(g82
g63
NtRp2746
(dp2747
g66
(dp2748
g93
g94
ssg75
g2737
sg68
(lp2749
S':'
asbag61
(g82
g63
NtRp2750
(dp2751
g66
(dp2752
sg75
g2737
sg68
(lp2753
g61
(g62
g63
NtRp2754
(dp2755
g66
(dp2756
g74
I3
ssg75
g2750
sg68
(lp2757
g1120
asbasbasbag61
(g77
g63
NtRp2758
(dp2759
g66
(dp2760
sg75
g2649
sg68
(lp2761
g61
(g82
g63
NtRp2762
(dp2763
g66
(dp2764
g86
g87
ssg75
g2758
sg68
(lp2765
S'HTTP_CONNECTION'
p2766
asbag61
(g82
g63
NtRp2767
(dp2768
g66
(dp2769
g93
g94
ssg75
g2758
sg68
(lp2770
S':'
asbag61
(g82
g63
NtRp2771
(dp2772
g66
(dp2773
sg75
g2758
sg68
(lp2774
g61
(g62
g63
NtRp2775
(dp2776
g66
(dp2777
g74
I3
ssg75
g2771
sg68
(lp2778
g1142
asbasbasbag61
(g77
g63
NtRp2779
(dp2780
g66
(dp2781
sg75
g2649
sg68
(lp2782
g61
(g82
g63
NtRp2783
(dp2784
g66
(dp2785
g86
g87
ssg75
g2779
sg68
(lp2786
S'HTTP_COOKIE'
p2787
asbag61
(g82
g63
NtRp2788
(dp2789
g66
(dp2790
g93
g94
ssg75
g2779
sg68
(lp2791
S':'
asbag61
(g82
g63
NtRp2792
(dp2793
g66
(dp2794
sg75
g2779
sg68
(lp2795
g61
(g62
g63
NtRp2796
(dp2797
g66
(dp2798
g74
I3
ssg75
g2792
sg68
(lp2799
g1164
asbasbasbag61
(g77
g63
NtRp2800
(dp2801
g66
(dp2802
sg75
g2649
sg68
(lp2803
g61
(g82
g63
NtRp2804
(dp2805
g66
(dp2806
g86
g87
ssg75
g2800
sg68
(lp2807
S'HTTP_HOST'
p2808
asbag61
(g82
g63
NtRp2809
(dp2810
g66
(dp2811
g93
g94
ssg75
g2800
sg68
(lp2812
S':'
asbag61
(g82
g63
NtRp2813
(dp2814
g66
(dp2815
sg75
g2800
sg68
(lp2816
g61
(g62
g63
NtRp2817
(dp2818
g66
(dp2819
g74
I3
ssg75
g2813
sg68
(lp2820
g1186
asbasbasbag61
(g77
g63
NtRp2821
(dp2822
g66
(dp2823
sg75
g2649
sg68
(lp2824
g61
(g82
g63
NtRp2825
(dp2826
g66
(dp2827
g86
g87
ssg75
g2821
sg68
(lp2828
S'HTTP_USER_AGENT'
p2829
asbag61
(g82
g63
NtRp2830
(dp2831
g66
(dp2832
g93
g94
ssg75
g2821
sg68
(lp2833
S':'
asbag61
(g82
g63
NtRp2834
(dp2835
g66
(dp2836
sg75
g2821
sg68
(lp2837
g61
(g62
g63
NtRp2838
(dp2839
g66
(dp2840
g74
I3
ssg75
g2834
sg68
(lp2841
g1208
asbasbasbag61
(g77
g63
NtRp2842
(dp2843
g66
(dp2844
sg75
g2649
sg68
(lp2845
g61
(g82
g63
NtRp2846
(dp2847
g66
(dp2848
g86
g87
ssg75
g2842
sg68
(lp2849
S'PATH_INFO'
p2850
asbag61
(g82
g63
NtRp2851
(dp2852
g66
(dp2853
g93
g94
ssg75
g2842
sg68
(lp2854
S':'
asbag61
(g82
g63
NtRp2855
(dp2856
g66
(dp2857
sg75
g2842
sg68
(lp2858
g61
(g62
g63
NtRp2859
(dp2860
g66
(dp2861
g74
I3
ssg75
g2855
sg68
(lp2862
g1362
asbasbasbag61
(g77
g63
NtRp2863
(dp2864
g66
(dp2865
sg75
g2649
sg68
(lp2866
g61
(g82
g63
NtRp2867
(dp2868
g66
(dp2869
g86
g87
ssg75
g2863
sg68
(lp2870
S'QUERY_STRING'
p2871
asbag61
(g82
g63
NtRp2872
(dp2873
g66
(dp2874
g93
g94
ssg75
g2863
sg68
(lp2875
S':'
asbag61
(g82
g63
NtRp2876
(dp2877
g66
(dp2878
sg75
g2863
sg68
(lp2879
g61
(g62
g63
NtRp2880
(dp2881
g66
(dp2882
g74
I3
ssg75
g2876
sg68
(lp2883
S''
asbasbasbag61
(g77
g63
NtRp2884
(dp2885
g66
(dp2886
sg75
g2649
sg68
(lp2887
g61
(g82
g63
NtRp2888
(dp2889
g66
(dp2890
g86
g87
ssg75
g2884
sg68
(lp2891
S'REMOTE_ADDR'
p2892
asbag61
(g82
g63
NtRp2893
(dp2894
g66
(dp2895
g93
g94
ssg75
g2884
sg68
(lp2896
S':'
asbag61
(g82
g63
NtRp2897
(dp2898
g66
(dp2899
sg75
g2884
sg68
(lp2900
g61
(g62
g63
NtRp2901
(dp2902
g66
(dp2903
g74
I3
ssg75
g2897
sg68
(lp2904
g216
asbasbasbag61
(g77
g63
NtRp2905
(dp2906
g66
(dp2907
sg75
g2649
sg68
(lp2908
g61
(g82
g63
NtRp2909
(dp2910
g66
(dp2911
g86
g87
ssg75
g2905
sg68
(lp2912
S'REMOTE_PORT'
p2913
asbag61
(g82
g63
NtRp2914
(dp2915
g66
(dp2916
g93
g94
ssg75
g2905
sg68
(lp2917
S':'
asbag61
(g82
g63
NtRp2918
(dp2919
g66
(dp2920
sg75
g2905
sg68
(lp2921
g61
(g62
g63
NtRp2922
(dp2923
g66
(dp2924
g74
I3
ssg75
g2918
sg68
(lp2925
g1426
asbasbasbag61
(g77
g63
NtRp2926
(dp2927
g66
(dp2928
sg75
g2649
sg68
(lp2929
g61
(g82
g63
NtRp2930
(dp2931
g66
(dp2932
g86
g87
ssg75
g2926
sg68
(lp2933
S'REQUEST_METHOD'
p2934
asbag61
(g82
g63
NtRp2935
(dp2936
g66
(dp2937
g93
g94
ssg75
g2926
sg68
(lp2938
S':'
asbag61
(g82
g63
NtRp2939
(dp2940
g66
(dp2941
sg75
g2926
sg68
(lp2942
g61
(g62
g63
NtRp2943
(dp2944
g66
(dp2945
g74
I3
ssg75
g2939
sg68
(lp2946
g1448
asbasbasbag61
(g77
g63
NtRp2947
(dp2948
g66
(dp2949
sg75
g2649
sg68
(lp2950
g61
(g82
g63
NtRp2951
(dp2952
g66
(dp2953
g86
g87
ssg75
g2947
sg68
(lp2954
S'REQUEST_URI'
p2955
asbag61
(g82
g63
NtRp2956
(dp2957
g66
(dp2958
g93
g94
ssg75
g2947
sg68
(lp2959
S':'
asbag61
(g82
g63
NtRp2960
(dp2961
g66
(dp2962
sg75
g2947
sg68
(lp2963
g61
(g62
g63
NtRp2964
(dp2965
g66
(dp2966
g74
I3
ssg75
g2960
sg68
(lp2967
g1362
asbasbasbag61
(g77
g63
NtRp2968
(dp2969
g66
(dp2970
sg75
g2649
sg68
(lp2971
g61
(g82
g63
NtRp2972
(dp2973
g66
(dp2974
g86
g87
ssg75
g2968
sg68
(lp2975
S'SCRIPT_NAME'
p2976
asbag61
(g82
g63
NtRp2977
(dp2978
g66
(dp2979
g93
g94
ssg75
g2968
sg68
(lp2980
S':'
asbag61
(g82
g63
NtRp2981
(dp2982
g66
(dp2983
sg75
g2968
sg68
(lp2984
g61
(g62
g63
NtRp2985
(dp2986
g66
(dp2987
g74
I3
ssg75
g2981
sg68
(lp2988
S''
asbasbasbag61
(g77
g63
NtRp2989
(dp2990
g66
(dp2991
sg75
g2649
sg68
(lp2992
g61
(g82
g63
NtRp2993
(dp2994
g66
(dp2995
g86
g87
ssg75
g2989
sg68
(lp2996
S'SERVER_NAME'
p2997
asbag61
(g82
g63
NtRp2998
(dp2999
g66
(dp3000
g93
g94
ssg75
g2989
sg68
(lp3001
S':'
asbag61
(g82
g63
NtRp3002
(dp3003
g66
(dp3004
sg75
g2989
sg68
(lp3005
g61
(g62
g63
NtRp3006
(dp3007
g66
(dp3008
g74
I3
ssg75
g3002
sg68
(lp3009
g1512
asbasbasbag61
(g77
g63
NtRp3010
(dp3011
g66
(dp3012
sg75
g2649
sg68
(lp3013
g61
(g82
g63
NtRp3014
(dp3015
g66
(dp3016
g86
g87
ssg75
g3010
sg68
(lp3017
S'SERVER_PORT'
p3018
asbag61
(g82
g63
NtRp3019
(dp3020
g66
(dp3021
g93
g94
ssg75
g3010
sg68
(lp3022
S':'
asbag61
(g82
g63
NtRp3023
(dp3024
g66
(dp3025
sg75
g3010
sg68
(lp3026
g61
(g62
g63
NtRp3027
(dp3028
g66
(dp3029
g74
I3
ssg75
g3023
sg68
(lp3030
g1534
asbasbasbag61
(g77
g63
NtRp3031
(dp3032
g66
(dp3033
sg75
g2649
sg68
(lp3034
g61
(g82
g63
NtRp3035
(dp3036
g66
(dp3037
g86
g87
ssg75
g3031
sg68
(lp3038
S'SERVER_PROTOCOL'
p3039
asbag61
(g82
g63
NtRp3040
(dp3041
g66
(dp3042
g93
g94
ssg75
g3031
sg68
(lp3043
S':'
asbag61
(g82
g63
NtRp3044
(dp3045
g66
(dp3046
sg75
g3031
sg68
(lp3047
g61
(g62
g63
NtRp3048
(dp3049
g66
(dp3050
g74
I3
ssg75
g3044
sg68
(lp3051
g1556
asbasbasbag61
(g77
g63
NtRp3052
(dp3053
g66
(dp3054
sg75
g2649
sg68
(lp3055
g61
(g82
g63
NtRp3056
(dp3057
g66
(dp3058
g86
g87
ssg75
g3052
sg68
(lp3059
S'SERVER_SOFTWARE'
p3060
asbag61
(g82
g63
NtRp3061
(dp3062
g66
(dp3063
g93
g94
ssg75
g3052
sg68
(lp3064
S':'
asbag61
(g82
g63
NtRp3065
(dp3066
g66
(dp3067
sg75
g3052
sg68
(lp3068
g61
(g62
g63
NtRp3069
(dp3070
g66
(dp3071
g74
I3
ssg75
g3065
sg68
(lp3072
g1578
asbasbasbag61
(g77
g63
NtRp3073
(dp3074
g66
(dp3075
sg75
g2649
sg68
(lp3076
g61
(g82
g63
NtRp3077
(dp3078
g66
(dp3079
g86
g87
ssg75
g3073
sg68
(lp3080
S'wsgi.errors'
p3081
asbag61
(g82
g63
NtRp3082
(dp3083
g66
(dp3084
g93
g94
ssg75
g3073
sg68
(lp3085
S':'
asbag61
(g82
g63
NtRp3086
(dp3087
g66
(dp3088
sg75
g3073
sg68
(lp3089
g61
(g62
g63
NtRp3090
(dp3091
g66
(dp3092
g74
I3
ssg75
g3086
sg68
(lp3093
S"<open file '<stderr>', mode 'w' at 0x7f13978c7270>"
p3094
asbasbasbag61
(g77
g63
NtRp3095
(dp3096
g66
(dp3097
sg75
g2649
sg68
(lp3098
g61
(g82
g63
NtRp3099
(dp3100
g66
(dp3101
g86
g87
ssg75
g3095
sg68
(lp3102
S'wsgi.file_wrapper'
p3103
asbag61
(g82
g63
NtRp3104
(dp3105
g66
(dp3106
g93
g94
ssg75
g3095
sg68
(lp3107
S':'
asbag61
(g82
g63
NtRp3108
(dp3109
g66
(dp3110
sg75
g3095
sg68
(lp3111
g61
(g62
g63
NtRp3112
(dp3113
g66
(dp3114
g74
I3
ssg75
g3108
sg68
(lp3115
S'<class wsgiref.util.FileWrapper at 0x29b5db8>'
p3116
asbasbasbag61
(g77
g63
NtRp3117
(dp3118
g66
(dp3119
sg75
g2649
sg68
(lp3120
g61
(g82
g63
NtRp3121
(dp3122
g66
(dp3123
g86
g87
ssg75
g3117
sg68
(lp3124
S'wsgi.input'
p3125
asbag61
(g82
g63
NtRp3126
(dp3127
g66
(dp3128
g93
g94
ssg75
g3117
sg68
(lp3129
S':'
asbag61
(g82
g63
NtRp3130
(dp3131
g66
(dp3132
sg75
g3117
sg68
(lp3133
g61
(g62
g63
NtRp3134
(dp3135
g66
(dp3136
g74
I3
ssg75
g3130
sg68
(lp3137
S'<cStringIO.StringO object at 0x2af6c38>'
p3138
asbasbasbag61
(g77
g63
NtRp3139
(dp3140
g66
(dp3141
sg75
g2649
sg68
(lp3142
g61
(g82
g63
NtRp3143
(dp3144
g66
(dp3145
g86
g87
ssg75
g3139
sg68
(lp3146
S'wsgi.multiprocess'
p3147
asbag61
(g82
g63
NtRp3148
(dp3149
g66
(dp3150
g93
g94
ssg75
g3139
sg68
(lp3151
S':'
asbag61
(g82
g63
NtRp3152
(dp3153
g66
(dp3154
sg75
g3139
sg68
(lp3155
g61
(g62
g63
NtRp3156
(dp3157
g66
(dp3158
g74
I3
ssg75
g3152
sg68
(lp3159
g104
asbasbasbag61
(g77
g63
NtRp3160
(dp3161
g66
(dp3162
sg75
g2649
sg68
(lp3163
g61
(g82
g63
NtRp3164
(dp3165
g66
(dp3166
g86
g87
ssg75
g3160
sg68
(lp3167
S'wsgi.multithread'
p3168
asbag61
(g82
g63
NtRp3169
(dp3170
g66
(dp3171
g93
g94
ssg75
g3160
sg68
(lp3172
S':'
asbag61
(g82
g63
NtRp3173
(dp3174
g66
(dp3175
sg75
g3160
sg68
(lp3176
g61
(g62
g63
NtRp3177
(dp3178
g66
(dp3179
g74
I3
ssg75
g3173
sg68
(lp3180
g1795
asbasbasbag61
(g77
g63
NtRp3181
(dp3182
g66
(dp3183
sg75
g2649
sg68
(lp3184
g61
(g82
g63
NtRp3185
(dp3186
g66
(dp3187
g86
g87
ssg75
g3181
sg68
(lp3188
S'wsgi.run_once'
p3189
asbag61
(g82
g63
NtRp3190
(dp3191
g66
(dp3192
g93
g94
ssg75
g3181
sg68
(lp3193
S':'
asbag61
(g82
g63
NtRp3194
(dp3195
g66
(dp3196
sg75
g3181
sg68
(lp3197
g61
(g62
g63
NtRp3198
(dp3199
g66
(dp3200
g74
I3
ssg75
g3194
sg68
(lp3201
g104
asbasbasbag61
(g77
g63
NtRp3202
(dp3203
g66
(dp3204
sg75
g2649
sg68
(lp3205
g61
(g82
g63
NtRp3206
(dp3207
g66
(dp3208
g86
g87
ssg75
g3202
sg68
(lp3209
S'wsgi.url_scheme'
p3210
asbag61
(g82
g63
NtRp3211
(dp3212
g66
(dp3213
g93
g94
ssg75
g3202
sg68
(lp3214
S':'
asbag61
(g82
g63
NtRp3215
(dp3216
g66
(dp3217
sg75
g3202
sg68
(lp3218
g61
(g62
g63
NtRp3219
(dp3220
g66
(dp3221
g74
I3
ssg75
g3215
sg68
(lp3222
g1838
asbasbasbag61
(g77
g63
NtRp3223
(dp3224
g66
(dp3225
sg75
g2649
sg68
(lp3226
g61
(g82
g63
NtRp3227
(dp3228
g66
(dp3229
g86
g87
ssg75
g3223
sg68
(lp3230
S'wsgi.version'
p3231
asbag61
(g82
g63
NtRp3232
(dp3233
g66
(dp3234
g93
g94
ssg75
g3223
sg68
(lp3235
S':'
asbag61
(g82
g63
NtRp3236
(dp3237
g66
(dp3238
sg75
g3223
sg68
(lp3239
g61
(g62
g63
NtRp3240
(dp3241
g66
(dp3242
g74
I3
ssg75
g3236
sg68
(lp3243
S'1'
asbasbasbasbasbasbasbasbasbasbasbasbasbsS'frames'
p3244
(lp3245
(dp3246
S'file'
p3247
S'/home/adrian/web2py/gluon/restricted.py'
p3248
sS'dump'
p3249
(dp3250
S'environment'
p3251
S"{'A': <class 'gluon.html.A'>, 'Auth': <class 'gluon.tools.Auth'>, 'B': <class 'gluon.html.B'>, 'BEAUTIFY': <class 'gluon.html.BEAUTIFY'>, 'BODY': <class 'gluon.html.BODY'>, 'BR': <class 'gluon.html.BR'>, 'BUTTON': <class 'gluon.html.BUTTON'>, 'CAT': <class 'gluon.html.CAT'>, 'CENTER': <class 'gluon.html.CENTER'>, 'CLEANUP': <class 'gluon.validators.CLEANUP'>, ...}"
p3252
sS'ccode'
p3253
S'<code object <module> at 0x7f1380210430, file "/...y/applications/CygnusCloud/models/db.py", line 2>'
p3254
ssS'lnum'
p3255
I212
sS'lines'
p3256
(dp3257
I207
S'    try:'
p3258
sI208
S'        if isinstance(code, types.CodeType):'
p3259
sI209
S'            ccode = code'
p3260
sI210
S'        else:'
p3261
sI211
S'            ccode = compile2(code, layer)'
p3262
sI212
S'        exec ccode in environment'
p3263
sI213
S'    except HTTP:'
p3264
sI214
S'        raise'
p3265
sI215
S'    except RestrictedError:'
p3266
sI216
S'        # do not encapsulate (obfuscate) the original RestrictedError'
p3267
ssS'call'
p3268
S'(code="# -*- coding: utf-8 -*-\\nfrom configuration impor... ),\\n   primarykey=[\'cod\',\'curseGroup\',\'VMName\'])\\n", environment={\'A\': <class \'gluon.html.A\'>, \'Auth\': <class \'gluon.tools.Auth\'>, \'B\': <class \'gluon.html.B\'>, \'BEAUTIFY\': <class \'gluon.html.BEAUTIFY\'>, \'BODY\': <class \'gluon.html.BODY\'>, \'BR\': <class \'gluon.html.BR\'>, \'BUTTON\': <class \'gluon.html.BUTTON\'>, \'CAT\': <class \'gluon.html.CAT\'>, \'CENTER\': <class \'gluon.html.CENTER\'>, \'CLEANUP\': <class \'gluon.validators.CLEANUP\'>, ...}, layer=\'/home/adrian/web2py/applications/CygnusCloud/models/db.py\')'
p3269
sS'func'
p3270
S'restricted'
p3271
sa(dp3272
g3247
S'/home/adrian/web2py/applications/CygnusCloud/models/db.py'
p3273
sg3249
(dp3274
S'first_name'
p3275
S'undefined'
p3276
sS'last_name'
p3277
g3276
sS'email'
p3278
g3276
ssg3255
I17
sg3256
(dp3279
I12
S'auth = Auth(userDB)'
p3280
sI13
S'auth.define_tables()'
p3281
sI14
S''
sI15
S'#Usuario de prueba'
p3282
sI16
S"u1 = userDB.auth_user.insert(password = userDB.auth_user.password.validate('1234')[0],"
p3283
sI17
S"                    email = 'Admin1@ucm.es',first_name='Bertoldo',last_name='Pedralbes')"
p3284
sI18
S'#A\xc3\xb1adimos los grupos'
p3285
sI19
S"auth.add_group('Student', 'Only run virtual machines available')"
p3286
sI20
S"auth.add_group('Administrator', 'All privilages available')"
p3287
sI21
S''
ssg3268
S'()'
p3288
sg3270
S'<module>'
p3289
sa(dp3290
g3247
S'/home/adrian/web2py/gluon/dal.py'
p3291
sg3249
(dp3292
S'self._listify'
p3293
S'<bound method Table._listify of <Table auth_user...tration_key,reset_password_key,registration_id)>>'
p3294
sS'fields'
p3295
S"{'email': 'Admin1@ucm.es', 'first_name': 'Bertoldo', 'last_name': 'Pedralbes', 'password': <gluon.validators.LazyCrypt object>, 'registration_id': '', 'registration_key': '', 'reset_password_key': ''}"
p3296
sS'self'
p3297
S'<Table auth_user (id,first_name,last_name,email,...stration_key,reset_password_key,registration_id)>'
p3298
sS'ret'
p3299
g3276
sS'self._db._adapter'
p3300
S'<gluon.dal.MySQLAdapter object>'
p3301
sS'self._db._adapter.insert'
p3302
S'<bound method MySQLAdapter.insert of <gluon.dal.MySQLAdapter object>>'
p3303
sS'self._db'
p3304
S'<DAL uri="mysql://******:cygnuscloud2012@localhost/userDB">'
p3305
ssg3255
I7918
sg3256
(dp3306
I7913
S'        return self._db._adapter._insert(self,self._listify(fields))'
p3307
sI7914
S''
sI7915
S'    def insert(self, **fields):'
p3308
sI7916
S'        self._attempt_upload(fields)'
p3309
sI7917
S'        if any(f(fields) for f in self._before_insert): return 0'
p3310
sI7918
S'        ret =  self._db._adapter.insert(self,self._listify(fields))'
p3311
sI7919
S'        if ret and self._after_insert:'
p3312
sI7920
S'            fields = Row(fields)'
p3313
sI7921
S'            [f(fields,ret) for f in self._after_insert]'
p3314
sI7922
S'        return ret'
p3315
ssg3268
S"(self=<Table auth_user (id,first_name,last_name,email,...stration_key,reset_password_key,registration_id)>, **fields={'email': 'Admin1@ucm.es', 'first_name': 'Bertoldo', 'last_name': 'Pedralbes', 'password': <gluon.validators.LazyCrypt object>, 'registration_id': '', 'registration_key': '', 'reset_password_key': ''})"
p3316
sg3270
S'insert'
p3317
sa(dp3318
g3247
S'/home/adrian/web2py/gluon/dal.py'
p3319
sg3249
(dp3320
S'e'
S'ProgrammingError(1146, "Table \'userDB.auth_user\' doesn\'t exist")'
p3321
ssg3255
I1176
sg3256
(dp3322
I1171
S'            self.execute(query)'
p3323
sI1172
S'        except Exception:'
p3324
sI1173
S'            e = sys.exc_info()[1]'
p3325
sI1174
S'            if isinstance(e,self.integrity_error_class()):'
p3326
sI1175
S'                return None'
p3327
sI1176
S'            raise e'
p3328
sI1177
S"        if hasattr(table,'_primarykey'):"
p3329
sI1178
S'            return dict([(k[0].name, k[1]) for k in fields \\'
p3330
sI1179
S'                             if k[0].name in table._primarykey])'
p3331
sI1180
S'        id = self.lastrowid(table)'
p3332
ssg3268
S"(self=<gluon.dal.MySQLAdapter object>, table=<Table auth_user (id,first_name,last_name,email,...stration_key,reset_password_key,registration_id)>, fields=[(<gluon.dal.Field object>, 'Bertoldo'), (<gluon.dal.Field object>, 'Pedralbes'), (<gluon.dal.Field object>, ''), (<gluon.dal.Field object>, ''), (<gluon.dal.Field object>, <gluon.validators.LazyCrypt object>), (<gluon.dal.Field object>, ''), (<gluon.dal.Field object>, 'Admin1@ucm.es')])"
p3333
sg3270
g3317
sasS'pyver'
p3334
S'Python 2.7.3: /usr/bin/python'
p3335
sS'session'
p3336
g61
(g62
g63
NtRp3337
(dp3338
g66
(dp3339
sg68
(lp3340
g61
(g70
g63
NtRp3341
(dp3342
g66
(dp3343
g74
I5
ssg75
Nsg68
(lp3344
g61
(g77
g63
NtRp3345
(dp3346
g66
(dp3347
sg75
g3341
sg68
(lp3348
g61
(g82
g63
NtRp3349
(dp3350
g66
(dp3351
g86
g87
ssg75
g3345
sg68
(lp3352
S'flash'
p3353
asbag61
(g82
g63
NtRp3354
(dp3355
g66
(dp3356
g93
g94
ssg75
g3345
sg68
(lp3357
S':'
asbag61
(g82
g63
NtRp3358
(dp3359
g66
(dp3360
sg75
g3345
sg68
(lp3361
g61
(g62
g63
NtRp3362
(dp3363
g66
(dp3364
g74
I5
ssg75
g3358
sg68
(lp3365
S'None'
p3366
asbasbasbag61
(g77
g63
NtRp3367
(dp3368
g66
(dp3369
sg75
g3341
sg68
(lp3370
g61
(g82
g63
NtRp3371
(dp3372
g66
(dp3373
g86
g87
ssg75
g3367
sg68
(lp3374
S'last_orderby'
p3375
asbag61
(g82
g63
NtRp3376
(dp3377
g66
(dp3378
g93
g94
ssg75
g3367
sg68
(lp3379
S':'
asbag61
(g82
g63
NtRp3380
(dp3381
g66
(dp3382
sg75
g3367
sg68
(lp3383
g61
(g62
g63
NtRp3384
(dp3385
g66
(dp3386
g74
I5
ssg75
g3380
sg68
(lp3387
S'None'
p3388
asbasbasbag61
(g77
g63
NtRp3389
(dp3390
g66
(dp3391
sg75
g3341
sg68
(lp3392
g61
(g82
g63
NtRp3393
(dp3394
g66
(dp3395
g86
g87
ssg75
g3389
sg68
(lp3396
S'last_query'
p3397
asbag61
(g82
g63
NtRp3398
(dp3399
g66
(dp3400
g93
g94
ssg75
g3389
sg68
(lp3401
S':'
asbag61
(g82
g63
NtRp3402
(dp3403
g66
(dp3404
sg75
g3389
sg68
(lp3405
g61
(g62
g63
NtRp3406
(dp3407
g66
(dp3408
g74
I5
ssg75
g3402
sg68
(lp3409
S'userDB.auth_user.id>0'
p3410
asbasbasbasbasbsS'etype'
p3411
S"<class '_mysql_exceptions.ProgrammingError'>"
p3412
sS'date'
p3413
S'Tue Feb  5 17:24:57 2013'
p3414
sS'response'
p3415
g61
(g62
g63
NtRp3416
(dp3417
g66
(dp3418
sg68
(lp3419
g61
(g70
g63
NtRp3420
(dp3421
g66
(dp3422
g74
I5
ssg75
Nsg68
(lp3423
g61
(g77
g63
NtRp3424
(dp3425
g66
(dp3426
sg75
g3420
sg68
(lp3427
g61
(g82
g63
NtRp3428
(dp3429
g66
(dp3430
g86
g87
ssg75
g3424
sg68
(lp3431
g159
asbag61
(g82
g63
NtRp3432
(dp3433
g66
(dp3434
g93
g94
ssg75
g3424
sg68
(lp3435
S':'
asbag61
(g82
g63
NtRp3436
(dp3437
g66
(dp3438
sg75
g3424
sg68
(lp3439
g61
(g62
g63
NtRp3440
(dp3441
g66
(dp3442
g74
I5
ssg75
g3436
sg68
(lp3443
S'<cStringIO.StringO object at 0x7f138c17e340>'
p3444
asbasbasbag61
(g77
g63
NtRp3445
(dp3446
g66
(dp3447
sg75
g3420
sg68
(lp3448
g61
(g82
g63
NtRp3449
(dp3450
g66
(dp3451
g86
g87
ssg75
g3445
sg68
(lp3452
g247
asbag61
(g82
g63
NtRp3453
(dp3454
g66
(dp3455
g93
g94
ssg75
g3445
sg68
(lp3456
S':'
asbag61
(g82
g63
NtRp3457
(dp3458
g66
(dp3459
sg75
g3445
sg68
(lp3460
g61
(g62
g63
NtRp3461
(dp3462
g66
(dp3463
g74
I5
ssg75
g3457
sg68
(lp3464
g61
(g70
g63
NtRp3465
(dp3466
g66
(dp3467
g74
I4
ssg75
Nsg68
(lp3468
g61
(g77
g63
NtRp3469
(dp3470
g66
(dp3471
sg75
g3465
sg68
(lp3472
g61
(g82
g63
NtRp3473
(dp3474
g66
(dp3475
g86
g87
ssg75
g3469
sg68
(lp3476
S'session_id_cygnuscloud'
p3477
asbag61
(g82
g63
NtRp3478
(dp3479
g66
(dp3480
g93
g94
ssg75
g3469
sg68
(lp3481
S':'
asbag61
(g82
g63
NtRp3482
(dp3483
g66
(dp3484
sg75
g3469
sg68
(lp3485
g61
(g62
g63
NtRp3486
(dp3487
g66
(dp3488
g74
I4
ssg75
g3482
sg68
(lp3489
g479
ag61
(g70
g63
NtRp3490
(dp3491
g66
(dp3492
g74
I3
ssg75
Nsg68
(lp3493
g61
(g77
g63
NtRp3494
(dp3495
g66
(dp3496
sg75
g3490
sg68
(lp3497
g61
(g82
g63
NtRp3498
(dp3499
g66
(dp3500
g86
g87
ssg75
g3494
sg68
(lp3501
g298
asbag61
(g82
g63
NtRp3502
(dp3503
g66
(dp3504
g93
g94
ssg75
g3494
sg68
(lp3505
S':'
asbag61
(g82
g63
NtRp3506
(dp3507
g66
(dp3508
sg75
g3494
sg68
(lp3509
g61
(g62
g63
NtRp3510
(dp3511
g66
(dp3512
g74
I3
ssg75
g3506
sg68
(lp3513
S''
asbasbasbag61
(g77
g63
NtRp3514
(dp3515
g66
(dp3516
sg75
g3490
sg68
(lp3517
g61
(g82
g63
NtRp3518
(dp3519
g66
(dp3520
g86
g87
ssg75
g3514
sg68
(lp3521
g319
asbag61
(g82
g63
NtRp3522
(dp3523
g66
(dp3524
g93
g94
ssg75
g3514
sg68
(lp3525
S':'
asbag61
(g82
g63
NtRp3526
(dp3527
g66
(dp3528
sg75
g3514
sg68
(lp3529
g61
(g62
g63
NtRp3530
(dp3531
g66
(dp3532
g74
I3
ssg75
g3526
sg68
(lp3533
S''
asbasbasbag61
(g77
g63
NtRp3534
(dp3535
g66
(dp3536
sg75
g3490
sg68
(lp3537
g61
(g82
g63
NtRp3538
(dp3539
g66
(dp3540
g86
g87
ssg75
g3534
sg68
(lp3541
g340
asbag61
(g82
g63
NtRp3542
(dp3543
g66
(dp3544
g93
g94
ssg75
g3534
sg68
(lp3545
S':'
asbag61
(g82
g63
NtRp3546
(dp3547
g66
(dp3548
sg75
g3534
sg68
(lp3549
g61
(g62
g63
NtRp3550
(dp3551
g66
(dp3552
g74
I3
ssg75
g3546
sg68
(lp3553
S''
asbasbasbag61
(g77
g63
NtRp3554
(dp3555
g66
(dp3556
sg75
g3490
sg68
(lp3557
g61
(g82
g63
NtRp3558
(dp3559
g66
(dp3560
g86
g87
ssg75
g3554
sg68
(lp3561
g361
asbag61
(g82
g63
NtRp3562
(dp3563
g66
(dp3564
g93
g94
ssg75
g3554
sg68
(lp3565
S':'
asbag61
(g82
g63
NtRp3566
(dp3567
g66
(dp3568
sg75
g3554
sg68
(lp3569
g61
(g62
g63
NtRp3570
(dp3571
g66
(dp3572
g74
I3
ssg75
g3566
sg68
(lp3573
S''
asbasbasbag61
(g77
g63
NtRp3574
(dp3575
g66
(dp3576
sg75
g3490
sg68
(lp3577
g61
(g82
g63
NtRp3578
(dp3579
g66
(dp3580
g86
g87
ssg75
g3574
sg68
(lp3581
g382
asbag61
(g82
g63
NtRp3582
(dp3583
g66
(dp3584
g93
g94
ssg75
g3574
sg68
(lp3585
S':'
asbag61
(g82
g63
NtRp3586
(dp3587
g66
(dp3588
sg75
g3574
sg68
(lp3589
g61
(g62
g63
NtRp3590
(dp3591
g66
(dp3592
g74
I3
ssg75
g3586
sg68
(lp3593
S''
asbasbasbag61
(g77
g63
NtRp3594
(dp3595
g66
(dp3596
sg75
g3490
sg68
(lp3597
g61
(g82
g63
NtRp3598
(dp3599
g66
(dp3600
g86
g87
ssg75
g3594
sg68
(lp3601
g403
asbag61
(g82
g63
NtRp3602
(dp3603
g66
(dp3604
g93
g94
ssg75
g3594
sg68
(lp3605
S':'
asbag61
(g82
g63
NtRp3606
(dp3607
g66
(dp3608
sg75
g3594
sg68
(lp3609
g61
(g62
g63
NtRp3610
(dp3611
g66
(dp3612
g74
I3
ssg75
g3606
sg68
(lp3613
S'/'
asbasbasbag61
(g77
g63
NtRp3614
(dp3615
g66
(dp3616
sg75
g3490
sg68
(lp3617
g61
(g82
g63
NtRp3618
(dp3619
g66
(dp3620
g86
g87
ssg75
g3614
sg68
(lp3621
g424
asbag61
(g82
g63
NtRp3622
(dp3623
g66
(dp3624
g93
g94
ssg75
g3614
sg68
(lp3625
S':'
asbag61
(g82
g63
NtRp3626
(dp3627
g66
(dp3628
sg75
g3614
sg68
(lp3629
g61
(g62
g63
NtRp3630
(dp3631
g66
(dp3632
g74
I3
ssg75
g3626
sg68
(lp3633
S''
asbasbasbag61
(g77
g63
NtRp3634
(dp3635
g66
(dp3636
sg75
g3490
sg68
(lp3637
g61
(g82
g63
NtRp3638
(dp3639
g66
(dp3640
g86
g87
ssg75
g3634
sg68
(lp3641
g445
asbag61
(g82
g63
NtRp3642
(dp3643
g66
(dp3644
g93
g94
ssg75
g3634
sg68
(lp3645
S':'
asbag61
(g82
g63
NtRp3646
(dp3647
g66
(dp3648
sg75
g3634
sg68
(lp3649
g61
(g62
g63
NtRp3650
(dp3651
g66
(dp3652
g74
I3
ssg75
g3646
sg68
(lp3653
S''
asbasbasbasbasbasbasbasbasbasbasbag61
(g77
g63
NtRp3654
(dp3655
g66
(dp3656
sg75
g3420
sg68
(lp3657
g61
(g82
g63
NtRp3658
(dp3659
g66
(dp3660
g86
g87
ssg75
g3654
sg68
(lp3661
S'delimiters'
p3662
asbag61
(g82
g63
NtRp3663
(dp3664
g66
(dp3665
g93
g94
ssg75
g3654
sg68
(lp3666
S':'
asbag61
(g82
g63
NtRp3667
(dp3668
g66
(dp3669
sg75
g3654
sg68
(lp3670
g61
(g62
g63
NtRp3671
(dp3672
g66
(dp3673
g74
I5
ssg75
g3667
sg68
(lp3674
g61
(g70
g63
NtRp3675
(dp3676
g66
(dp3677
g74
I4
ssg75
Nsg68
(lp3678
g61
(g77
g63
NtRp3679
(dp3680
g66
(dp3681
sg75
g3675
sg68
(lp3682
g61
(g82
g63
NtRp3683
(dp3684
g66
(dp3685
sg75
g3679
sg68
(lp3686
g61
(g62
g63
NtRp3687
(dp3688
g66
(dp3689
g74
I4
ssg75
g3683
sg68
(lp3690
S'{{'
p3691
asbasbasbag61
(g77
g63
NtRp3692
(dp3693
g66
(dp3694
sg75
g3675
sg68
(lp3695
g61
(g82
g63
NtRp3696
(dp3697
g66
(dp3698
sg75
g3692
sg68
(lp3699
g61
(g62
g63
NtRp3700
(dp3701
g66
(dp3702
g74
I4
ssg75
g3696
sg68
(lp3703
S'}}'
p3704
asbasbasbasbasbasbasbag61
(g77
g63
NtRp3705
(dp3706
g66
(dp3707
sg75
g3420
sg68
(lp3708
g61
(g82
g63
NtRp3709
(dp3710
g66
(dp3711
g86
g87
ssg75
g3705
sg68
(lp3712
S'files'
p3713
asbag61
(g82
g63
NtRp3714
(dp3715
g66
(dp3716
g93
g94
ssg75
g3705
sg68
(lp3717
S':'
asbag61
(g82
g63
NtRp3718
(dp3719
g66
(dp3720
sg75
g3705
sg68
(lp3721
g61
(g62
g63
NtRp3722
(dp3723
g66
(dp3724
g74
I5
ssg75
g3718
sg68
(lp3725
g61
(g70
g63
NtRp3726
(dp3727
g66
(dp3728
g74
I4
ssg75
Nsg68
(lp3729
sbasbasbasbag61
(g77
g63
NtRp3730
(dp3731
g66
(dp3732
sg75
g3420
sg68
(lp3733
g61
(g82
g63
NtRp3734
(dp3735
g66
(dp3736
g86
g87
ssg75
g3730
sg68
(lp3737
S'flash'
p3738
asbag61
(g82
g63
NtRp3739
(dp3740
g66
(dp3741
g93
g94
ssg75
g3730
sg68
(lp3742
S':'
asbag61
(g82
g63
NtRp3743
(dp3744
g66
(dp3745
sg75
g3730
sg68
(lp3746
g61
(g62
g63
NtRp3747
(dp3748
g66
(dp3749
g74
I5
ssg75
g3743
sg68
(lp3750
S''
asbasbasbag61
(g77
g63
NtRp3751
(dp3752
g66
(dp3753
sg75
g3420
sg68
(lp3754
g61
(g82
g63
NtRp3755
(dp3756
g66
(dp3757
g86
g87
ssg75
g3751
sg68
(lp3758
S'generic_patterns'
p3759
asbag61
(g82
g63
NtRp3760
(dp3761
g66
(dp3762
g93
g94
ssg75
g3751
sg68
(lp3763
S':'
asbag61
(g82
g63
NtRp3764
(dp3765
g66
(dp3766
sg75
g3751
sg68
(lp3767
g61
(g62
g63
NtRp3768
(dp3769
g66
(dp3770
g74
I5
ssg75
g3764
sg68
(lp3771
g61
(g70
g63
NtRp3772
(dp3773
g66
(dp3774
g74
I4
ssg75
Nsg68
(lp3775
sbasbasbasbag61
(g77
g63
NtRp3776
(dp3777
g66
(dp3778
sg75
g3420
sg68
(lp3779
g61
(g82
g63
NtRp3780
(dp3781
g66
(dp3782
g86
g87
ssg75
g3776
sg68
(lp3783
S'headers'
p3784
asbag61
(g82
g63
NtRp3785
(dp3786
g66
(dp3787
g93
g94
ssg75
g3776
sg68
(lp3788
S':'
asbag61
(g82
g63
NtRp3789
(dp3790
g66
(dp3791
sg75
g3776
sg68
(lp3792
g61
(g62
g63
NtRp3793
(dp3794
g66
(dp3795
g74
I5
ssg75
g3789
sg68
(lp3796
g61
(g70
g63
NtRp3797
(dp3798
g66
(dp3799
g74
I4
ssg75
Nsg68
(lp3800
g61
(g77
g63
NtRp3801
(dp3802
g66
(dp3803
sg75
g3797
sg68
(lp3804
g61
(g82
g63
NtRp3805
(dp3806
g66
(dp3807
g86
g87
ssg75
g3801
sg68
(lp3808
S'X-Powered-By'
p3809
asbag61
(g82
g63
NtRp3810
(dp3811
g66
(dp3812
g93
g94
ssg75
g3801
sg68
(lp3813
S':'
asbag61
(g82
g63
NtRp3814
(dp3815
g66
(dp3816
sg75
g3801
sg68
(lp3817
g61
(g62
g63
NtRp3818
(dp3819
g66
(dp3820
g74
I4
ssg75
g3814
sg68
(lp3821
S'web2py'
p3822
asbasbasbasbasbasbasbag61
(g77
g63
NtRp3823
(dp3824
g66
(dp3825
sg75
g3420
sg68
(lp3826
g61
(g82
g63
NtRp3827
(dp3828
g66
(dp3829
g86
g87
ssg75
g3823
sg68
(lp3830
S'menu'
p3831
asbag61
(g82
g63
NtRp3832
(dp3833
g66
(dp3834
g93
g94
ssg75
g3823
sg68
(lp3835
S':'
asbag61
(g82
g63
NtRp3836
(dp3837
g66
(dp3838
sg75
g3823
sg68
(lp3839
g61
(g62
g63
NtRp3840
(dp3841
g66
(dp3842
g74
I5
ssg75
g3836
sg68
(lp3843
g61
(g70
g63
NtRp3844
(dp3845
g66
(dp3846
g74
I4
ssg75
Nsg68
(lp3847
sbasbasbasbag61
(g77
g63
NtRp3848
(dp3849
g66
(dp3850
sg75
g3420
sg68
(lp3851
g61
(g82
g63
NtRp3852
(dp3853
g66
(dp3854
g86
g87
ssg75
g3848
sg68
(lp3855
S'meta'
p3856
asbag61
(g82
g63
NtRp3857
(dp3858
g66
(dp3859
g93
g94
ssg75
g3848
sg68
(lp3860
S':'
asbag61
(g82
g63
NtRp3861
(dp3862
g66
(dp3863
sg75
g3848
sg68
(lp3864
g61
(g62
g63
NtRp3865
(dp3866
g66
(dp3867
g74
I5
ssg75
g3861
sg68
(lp3868
g61
(g70
g63
NtRp3869
(dp3870
g66
(dp3871
g74
I4
ssg75
Nsg68
(lp3872
sbasbasbasbag61
(g77
g63
NtRp3873
(dp3874
g66
(dp3875
sg75
g3420
sg68
(lp3876
g61
(g82
g63
NtRp3877
(dp3878
g66
(dp3879
g86
g87
ssg75
g3873
sg68
(lp3880
S'models_to_run'
p3881
asbag61
(g82
g63
NtRp3882
(dp3883
g66
(dp3884
g93
g94
ssg75
g3873
sg68
(lp3885
S':'
asbag61
(g82
g63
NtRp3886
(dp3887
g66
(dp3888
sg75
g3873
sg68
(lp3889
g61
(g62
g63
NtRp3890
(dp3891
g66
(dp3892
g74
I5
ssg75
g3886
sg68
(lp3893
g61
(g70
g63
NtRp3894
(dp3895
g66
(dp3896
g74
I4
ssg75
Nsg68
(lp3897
g61
(g77
g63
NtRp3898
(dp3899
g66
(dp3900
sg75
g3894
sg68
(lp3901
g61
(g82
g63
NtRp3902
(dp3903
g66
(dp3904
sg75
g3898
sg68
(lp3905
g61
(g62
g63
NtRp3906
(dp3907
g66
(dp3908
g74
I4
ssg75
g3902
sg68
(lp3909
S'^\\w+\\.py$'
p3910
asbasbasbag61
(g77
g63
NtRp3911
(dp3912
g66
(dp3913
sg75
g3894
sg68
(lp3914
g61
(g82
g63
NtRp3915
(dp3916
g66
(dp3917
sg75
g3911
sg68
(lp3918
g61
(g62
g63
NtRp3919
(dp3920
g66
(dp3921
g74
I4
ssg75
g3915
sg68
(lp3922
S'^main/\\w+\\.py$'
p3923
asbasbasbag61
(g77
g63
NtRp3924
(dp3925
g66
(dp3926
sg75
g3894
sg68
(lp3927
g61
(g82
g63
NtRp3928
(dp3929
g66
(dp3930
sg75
g3924
sg68
(lp3931
g61
(g62
g63
NtRp3932
(dp3933
g66
(dp3934
g74
I4
ssg75
g3928
sg68
(lp3935
S'^main/login/\\w+\\.py$'
p3936
asbasbasbasbasbasbasbag61
(g77
g63
NtRp3937
(dp3938
g66
(dp3939
sg75
g3420
sg68
(lp3940
g61
(g82
g63
NtRp3941
(dp3942
g66
(dp3943
g86
g87
ssg75
g3937
sg68
(lp3944
S'postprocessing'
p3945
asbag61
(g82
g63
NtRp3946
(dp3947
g66
(dp3948
g93
g94
ssg75
g3937
sg68
(lp3949
S':'
asbag61
(g82
g63
NtRp3950
(dp3951
g66
(dp3952
sg75
g3937
sg68
(lp3953
g61
(g62
g63
NtRp3954
(dp3955
g66
(dp3956
g74
I5
ssg75
g3950
sg68
(lp3957
g61
(g70
g63
NtRp3958
(dp3959
g66
(dp3960
g74
I4
ssg75
Nsg68
(lp3961
sbasbasbasbag61
(g77
g63
NtRp3962
(dp3963
g66
(dp3964
sg75
g3420
sg68
(lp3965
g61
(g82
g63
NtRp3966
(dp3967
g66
(dp3968
g86
g87
ssg75
g3962
sg68
(lp3969
S'session_cookie_expires'
p3970
asbag61
(g82
g63
NtRp3971
(dp3972
g66
(dp3973
g93
g94
ssg75
g3962
sg68
(lp3974
S':'
asbag61
(g82
g63
NtRp3975
(dp3976
g66
(dp3977
sg75
g3962
sg68
(lp3978
g61
(g62
g63
NtRp3979
(dp3980
g66
(dp3981
g74
I5
ssg75
g3975
sg68
(lp3982
S'None'
p3983
asbasbasbag61
(g77
g63
NtRp3984
(dp3985
g66
(dp3986
sg75
g3420
sg68
(lp3987
g61
(g82
g63
NtRp3988
(dp3989
g66
(dp3990
g86
g87
ssg75
g3984
sg68
(lp3991
S'session_data_name'
p3992
asbag61
(g82
g63
NtRp3993
(dp3994
g66
(dp3995
g93
g94
ssg75
g3984
sg68
(lp3996
S':'
asbag61
(g82
g63
NtRp3997
(dp3998
g66
(dp3999
sg75
g3984
sg68
(lp4000
g61
(g62
g63
NtRp4001
(dp4002
g66
(dp4003
g74
I5
ssg75
g3997
sg68
(lp4004
S'session_data_cygnuscloud'
p4005
asbasbasbag61
(g77
g63
NtRp4006
(dp4007
g66
(dp4008
sg75
g3420
sg68
(lp4009
g61
(g82
g63
NtRp4010
(dp4011
g66
(dp4012
g86
g87
ssg75
g4006
sg68
(lp4013
S'session_file'
p4014
asbag61
(g82
g63
NtRp4015
(dp4016
g66
(dp4017
g93
g94
ssg75
g4006
sg68
(lp4018
S':'
asbag61
(g82
g63
NtRp4019
(dp4020
g66
(dp4021
sg75
g4006
sg68
(lp4022
g61
(g62
g63
NtRp4023
(dp4024
g66
(dp4025
g74
I5
ssg75
g4019
sg68
(lp4026
S"<open file '/home/adrian/web2py/applications/CygnusCloud/sessions/127.0.0.1-791acaf2-7386-46dc-b011-4810dc00037c', mode 'rb+' at 0x7f13843cac00>"
p4027
asbasbasbag61
(g77
g63
NtRp4028
(dp4029
g66
(dp4030
sg75
g3420
sg68
(lp4031
g61
(g82
g63
NtRp4032
(dp4033
g66
(dp4034
g86
g87
ssg75
g4028
sg68
(lp4035
S'session_filename'
p4036
asbag61
(g82
g63
NtRp4037
(dp4038
g66
(dp4039
g93
g94
ssg75
g4028
sg68
(lp4040
S':'
asbag61
(g82
g63
NtRp4041
(dp4042
g66
(dp4043
sg75
g4028
sg68
(lp4044
g61
(g62
g63
NtRp4045
(dp4046
g66
(dp4047
g74
I5
ssg75
g4041
sg68
(lp4048
S'/home/adrian/web2py/applications/CygnusCloud/sessions/127.0.0.1-791acaf2-7386-46dc-b011-4810dc00037c'
p4049
asbasbasbag61
(g77
g63
NtRp4050
(dp4051
g66
(dp4052
sg75
g3420
sg68
(lp4053
g61
(g82
g63
NtRp4054
(dp4055
g66
(dp4056
g86
g87
ssg75
g4050
sg68
(lp4057
S'session_id'
p4058
asbag61
(g82
g63
NtRp4059
(dp4060
g66
(dp4061
g93
g94
ssg75
g4050
sg68
(lp4062
S':'
asbag61
(g82
g63
NtRp4063
(dp4064
g66
(dp4065
sg75
g4050
sg68
(lp4066
g61
(g62
g63
NtRp4067
(dp4068
g66
(dp4069
g74
I5
ssg75
g4063
sg68
(lp4070
g479
asbasbasbag61
(g77
g63
NtRp4071
(dp4072
g66
(dp4073
sg75
g3420
sg68
(lp4074
g61
(g82
g63
NtRp4075
(dp4076
g66
(dp4077
g86
g87
ssg75
g4071
sg68
(lp4078
S'session_id_name'
p4079
asbag61
(g82
g63
NtRp4080
(dp4081
g66
(dp4082
g93
g94
ssg75
g4071
sg68
(lp4083
S':'
asbag61
(g82
g63
NtRp4084
(dp4085
g66
(dp4086
sg75
g4071
sg68
(lp4087
g61
(g62
g63
NtRp4088
(dp4089
g66
(dp4090
g74
I5
ssg75
g4084
sg68
(lp4091
g3477
asbasbasbag61
(g77
g63
NtRp4092
(dp4093
g66
(dp4094
sg75
g3420
sg68
(lp4095
g61
(g82
g63
NtRp4096
(dp4097
g66
(dp4098
g86
g87
ssg75
g4092
sg68
(lp4099
S'session_locked'
p4100
asbag61
(g82
g63
NtRp4101
(dp4102
g66
(dp4103
g93
g94
ssg75
g4092
sg68
(lp4104
S':'
asbag61
(g82
g63
NtRp4105
(dp4106
g66
(dp4107
sg75
g4092
sg68
(lp4108
g61
(g62
g63
NtRp4109
(dp4110
g66
(dp4111
g74
I5
ssg75
g4105
sg68
(lp4112
g1795
asbasbasbag61
(g77
g63
NtRp4113
(dp4114
g66
(dp4115
sg75
g3420
sg68
(lp4116
g61
(g82
g63
NtRp4117
(dp4118
g66
(dp4119
g86
g87
ssg75
g4113
sg68
(lp4120
S'session_new'
p4121
asbag61
(g82
g63
NtRp4122
(dp4123
g66
(dp4124
g93
g94
ssg75
g4113
sg68
(lp4125
S':'
asbag61
(g82
g63
NtRp4126
(dp4127
g66
(dp4128
sg75
g4113
sg68
(lp4129
g61
(g62
g63
NtRp4130
(dp4131
g66
(dp4132
g74
I5
ssg75
g4126
sg68
(lp4133
g104
asbasbasbag61
(g77
g63
NtRp4134
(dp4135
g66
(dp4136
sg75
g3420
sg68
(lp4137
g61
(g82
g63
NtRp4138
(dp4139
g66
(dp4140
g86
g87
ssg75
g4134
sg68
(lp4141
S'session_storage_type'
p4142
asbag61
(g82
g63
NtRp4143
(dp4144
g66
(dp4145
g93
g94
ssg75
g4134
sg68
(lp4146
S':'
asbag61
(g82
g63
NtRp4147
(dp4148
g66
(dp4149
sg75
g4134
sg68
(lp4150
g61
(g62
g63
NtRp4151
(dp4152
g66
(dp4153
g74
I5
ssg75
g4147
sg68
(lp4154
g3247
asbasbasbag61
(g77
g63
NtRp4155
(dp4156
g66
(dp4157
sg75
g3420
sg68
(lp4158
g61
(g82
g63
NtRp4159
(dp4160
g66
(dp4161
g86
g87
ssg75
g4155
sg68
(lp4162
S'status'
p4163
asbag61
(g82
g63
NtRp4164
(dp4165
g66
(dp4166
g93
g94
ssg75
g4155
sg68
(lp4167
S':'
asbag61
(g82
g63
NtRp4168
(dp4169
g66
(dp4170
sg75
g4155
sg68
(lp4171
g61
(g62
g63
NtRp4172
(dp4173
g66
(dp4174
g74
I5
ssg75
g4168
sg68
(lp4175
S'200'
p4176
asbasbasbag61
(g77
g63
NtRp4177
(dp4178
g66
(dp4179
sg75
g3420
sg68
(lp4180
g61
(g82
g63
NtRp4181
(dp4182
g66
(dp4183
g86
g87
ssg75
g4177
sg68
(lp4184
S'view'
p4185
asbag61
(g82
g63
NtRp4186
(dp4187
g66
(dp4188
g93
g94
ssg75
g4177
sg68
(lp4189
S':'
asbag61
(g82
g63
NtRp4190
(dp4191
g66
(dp4192
sg75
g4177
sg68
(lp4193
g61
(g62
g63
NtRp4194
(dp4195
g66
(dp4196
g74
I5
ssg75
g4190
sg68
(lp4197
S'main/login.html'
p4198
asbasbasbasbasbsS'locals'
p4199
(dp4200
S'query'
p4201
S'"INSERT INTO auth_user(first_name,last_name,regis...1224b6cb32fe784c22c2aade226\',\'\',\'Admin1@ucm.es\');"'
p4202
sS'self'
p4203
S'<gluon.dal.MySQLAdapter object>'
p4204
sS'e'
S'ProgrammingError(1146, "Table \'userDB.auth_user\' doesn\'t exist")'
p4205
sS'fields'
p4206
S"[(<gluon.dal.Field object>, 'Bertoldo'), (<gluon.dal.Field object>, 'Pedralbes'), (<gluon.dal.Field object>, ''), (<gluon.dal.Field object>, ''), (<gluon.dal.Field object>, <gluon.validators.LazyCrypt object>), (<gluon.dal.Field object>, ''), (<gluon.dal.Field object>, 'Admin1@ucm.es')]"
p4207
sS'table'
p4208
S'<Table auth_user (id,first_name,last_name,email,...stration_key,reset_password_key,registration_id)>'
p4209
sssS'traceback'
p4210
S'Traceback (most recent call last):\n  File "/home/adrian/web2py/gluon/restricted.py", line 212, in restricted\n    exec ccode in environment\n  File "/home/adrian/web2py/applications/CygnusCloud/models/db.py", line 17, in <module>\n    email = \'Admin1@ucm.es\',first_name=\'Bertoldo\',last_name=\'Pedralbes\')\n  File "/home/adrian/web2py/gluon/dal.py", line 7918, in insert\n    ret =  self._db._adapter.insert(self,self._listify(fields))\n  File "/home/adrian/web2py/gluon/dal.py", line 1176, in insert\n    raise e\nProgrammingError: (1146, "Table \'userDB.auth_user\' doesn\'t exist")\n'
p4211
s.