(dp1
S'output'
p2
S"<type 'exceptions.NameError'> name 'form' is not defined"
p3
sS'layer'
p4
S'/home/adrian/web2py/applications/CygnusCloud/views/student/runVM.html'
p5
sS'code'
p6
S'response.write(\'<!DOCTYPE html>\\n<!-- paulirish.com/2008/conditional-stylesheets-vs-css-hacks-answer-neither/ -->\\n<!--[if lt IE 7]><html class="ie ie6 ie-lte9 ie-lte8 ie-lte7 no-js" lang="\', escape=False)\nresponse.write(T.accepted_language or \'en\')\nresponse.write(\'"> <![endif]-->\\n<!--[if IE 7]><html class="ie ie7 ie-lte9 ie-lte8 ie-lte7 no-js" lang="\', escape=False)\nresponse.write(T.accepted_language or \'en\')\nresponse.write(\'"> <![endif]-->\\n<!--[if IE 8]><html class="ie ie8 ie-lte9 ie-lte8 no-js" lang="\', escape=False)\nresponse.write(T.accepted_language or \'en\')\nresponse.write(\'"> <![endif]-->\\n<!--[if IE 9]><html class="ie9 ie-lte9 no-js" lang="\', escape=False)\nresponse.write(T.accepted_language or \'en\')\nresponse.write(\'"> <![endif]-->\\n<!--[if (gt IE 9)|!(IE)]><!--> <html class="no-js" lang="\', escape=False)\nresponse.write(T.accepted_language or \'en\')\nresponse.write(\'"> <!--<![endif]-->\\n\\n<head>\\n  <meta charset="utf-8" />\\n  <!-- www.phpied.com/conditional-comments-block-downloads/ -->\\n  <!-- Always force latest IE rendering engine\\n       (even in intranet) & Chrome Frame\\n       Remove this if you use the .htaccess -->\\n  <!--[if IE]>\\n      <meta http-equiv="X-UA-Compatible" content="IE=edge\', escape=False)\nresponse.write(not request.is_local and \',chrome=1\' or \'\')\nresponse.write(\'">\\n      <![endif]-->\\n\\n  <title>\', escape=False)\nresponse.write(response.title or request.application)\nresponse.write(\'</title>\\n\\n  <!-- http://dev.w3.org/html5/markup/meta.name.html -->\\n  <meta name="application-name" content="\', escape=False)\nresponse.write(request.application)\nresponse.write(\'" />\\n\\n  <!-- Speaking of Google, don\\\'t forget to set your site up:\\n       http://google.com/webmasters -->\\n  <meta name="google-site-verification" content="" />\\n\\n  <!--  Mobile Viewport Fix\\n        j.mp/mobileviewport & davidbcalhoun.com/2010/viewport-metatag\\n        device-width: Occupy full width of the screen in its current orientation\\n        initial-scale = 1.0 retains dimensions instead of zooming out if page height > device height\\n        user-scalable = yes allows the user to zoom in -->\\n  <meta name="viewport" content="width=device-width, initial-scale=1.0" />\\n\\n  <link rel="shortcut icon" href="\', escape=False)\nresponse.write(URL(\'static\',\'images/favicon.ico\'))\nresponse.write(\'" type="image/x-icon">\\n  <link rel="apple-touch-icon" href="\', escape=False)\nresponse.write(URL(\'static\',\'images/favicon.png\'))\nresponse.write(\'">\\n\\n  <!-- All JavaScript at the bottom, except for Modernizr which enables\\n       HTML5 elements & feature detects -->\\n  <script src="\', escape=False)\nresponse.write(URL(\'static\',\'js/modernizr.custom.js\'))\nresponse.write(\'"></script>\\n\\n  <!-- include stylesheets -->\\n  \', escape=False)\nresponse.files.append(URL(\'static\',\'css/web2py.css\'))\nresponse.files.append(URL(\'static\',\'css/bootstrap.min.css\'))\nresponse.files.append(URL(\'static\',\'css/bootstrap-responsive.min.css\'))\nresponse.files.append(URL(\'static\',\'css/web2py_bootstrap.css\'))\nresponse.write(\'\\n\\n  \', escape=False)\nresponse.write(\'<script type="text/javascript"><!--\\n    // These variables are used by the web2py_ajax_init function in web2py_ajax.js (which is loaded below).\\n    var w2p_ajax_confirm_message = "\', escape=False)\nresponse.write(T(\'Are you sure you want to delete this object?\'))\nresponse.write(\'";\\n    var w2p_ajax_date_format = "\', escape=False)\nresponse.write(T(\'%Y-%m-%d\'))\nresponse.write(\'";\\n    var w2p_ajax_datetime_format = "\', escape=False)\nresponse.write(T(\'%Y-%m-%d %H:%M:%S\'))\nresponse.write(\'";\\n    //--></script>\\n\', escape=False)\nresponse.files.insert(0,URL(\'static\',\'js/jquery.js\'))\nresponse.files.insert(1,URL(\'static\',\'css/calendar.css\'))\nresponse.files.insert(2,URL(\'static\',\'js/calendar.js\'))\nresponse.files.insert(3,URL(\'static\',\'js/web2py.js\'))\nresponse.include_meta()\nresponse.include_files()\nresponse.write(\'\\n\', escape=False)\nresponse.write(\'\\n\\n  \', escape=False)\n# using sidebars need to know what sidebar you want to use\nleft_sidebar_enabled = globals().get(\'left_sidebar_enabled\',False)\nright_sidebar_enabled = globals().get(\'right_sidebar_enabled\',False)\nmiddle_columns = {0:\'span12\',1:\'span9\',2:\'span6\'}[\n(left_sidebar_enabled and 1 or 0)+(right_sidebar_enabled and 1 or 0)]\nresponse.write(\'\\n\\n  <!-- uncomment here to load jquery-ui\\n       <link rel="stylesheet" href="http://ajax.googleapis.com/ajax/libs/jqueryui/1.8.16/themes/base/jquery-ui.css" type="text/css" media="all" />\\n       <script src="http://ajax.googleapis.com/ajax/libs/jqueryui/1.8.16/jquery-ui.min.js" type="text/javascript"></script>\\n       uncomment to load jquery-ui //-->\\n  <noscript><link href="\', escape=False)\nresponse.write(URL(\'static\', \'css/web2py_bootstrap_nojs.css\'))\nresponse.write(\'" rel="stylesheet" type="text/css" /></noscript>\\n  \', escape=False)\nresponse.write(\'\\n</head>\\n\\n<body>\\n\\n\\n  <!-- Navbar ================================================== -->\\n  <div class="navbar navbar-inverse navbar-fixed-top">\\n    <div class="flash">\', escape=False)\nresponse.write(response.flash or \'\')\nresponse.write(\'</div>\\n    <div class="navbar-inner">\\n      <div class="container">\\n              <!-- Barra de idiomas y de inicio de sesi\\xc3\\xb3n -->      \\n              \', escape=False)\nresponse.write(plugin_translate())\nresponse.write(\' \\n                <!-- start header -->\\n              \', escape=False)\ntry:\n    response.write(\'\\n              \', escape=False)\n    if(auth.user):\n        response.write(\'\\n              <!--\', escape=False)\n        nav = auth.navbar()\n        response.write(\'\\n              \', escape=False)\n        nav.components = nav.components[:4] + [\']\']\n        response.write(\'\\n              \', escape=False)\n        response.write(nav)\n        response.write(\'-->\\n          \', escape=False)\n        response.write(FORM(T(\'Bienvenido \' + str(auth.user[\'first_name\']) + \'   \')  ,A(T(\'Salir\'),callback=\n        auth.logout(URL(c=\'main\',f=\'login\')))))\n        response.write(\'\\n              \', escape=False)\n        pass\n    response.write(\'\\n              \', escape=False)\nexcept:pass\nresponse.write(\'\\n\\n\\n        <!-- the next tag is necessary for bootstrap menus, do not remove -->\\n        <button type="button" class="btn btn-navbar" data-toggle="collapse" data-target=".nav-collapse">\\n          <span class="icon-bar"></span>\\n          <span class="icon-bar"></span>\\n          <span class="icon-bar"></span>\\n        </button>\\n\\t\', escape=False)\nresponse.write(response.logo or \'\')\nresponse.write(\'\\n        <div class="nav-collapse">\\n          \', escape=False)\nis_mobile=request.user_agent().is_mobile\nresponse.write(\'\\n          \', escape=False)\nif response.menu:\n    response.write(\'\\n          \', escape=False)\n    response.write(MENU(response.menu, _class=\'mobile-menu nav\' if is_mobile else \'nav\',mobile=is_mobile,li_class=\'dropdown\',ul_class=\'dropdown-menu\'))\n    response.write(\'\\n          \', escape=False)\n    pass\nresponse.write(\'\\n          <!--Translate bar -->\\n        </div><!--/.nav-collapse -->\\n      </div>\\n    </div>\\n  </div><!--/top navbar -->\\n\\n  <div class="container">\\n    <!-- Masthead ================================================== -->\\n    <header class="mastheader row" id="header">\\n        <div class="span12">\\n            <div class="page-header">\\n                <h1>\\n                    \', escape=False)\nresponse.write(response.title or request.application)\nresponse.write(\'\\n                    <small>\', escape=False)\nresponse.write(response.subtitle or \'\')\nresponse.write(\'</small>\\n                </h1>\\n            </div>\\n        </div>\\n    </header>\\n\\n    <section id="main" class="main row">\\n        \', escape=False)\nif left_sidebar_enabled:\n    response.write(\'\\n        <div class="span3 left-sidebar">\\n            \', escape=False)\n    response.write(\'\\n            <h3>Left Sidebar</h3>\\n            <p></p>\\n            \', escape=False)\n    response.write(\'\\n        </div>\\n        \', escape=False)\n    pass\nresponse.write(\'\\n\\n        <div class="\', escape=False)\nresponse.write(middle_columns)\nresponse.write(\'">\\n            \', escape=False)\nresponse.write(\'\\n            \', escape=False)\nresponse.write(\'\\n<h1>Esta es la plantilla student/runVM.html</h1>\\n\', escape=False)\nresponse.write(form)\nresponse.write(\'\\n\', escape=False)\nresponse.write(\'\\n            \', escape=False)\nresponse.write(\'\\n        </div>\\n\\n        \', escape=False)\nif right_sidebar_enabled:\n    response.write(\'\\n        <div class="span3">\\n            \', escape=False)\n    response.write(\'\\n            <h3>Right Sidebar</h3>\\n            <p></p>\\n            \', escape=False)\n    response.write(\'\\n        </div>\\n        \', escape=False)\n    pass\nresponse.write(\'\\n    </section><!--/main-->\\n\\n    <!-- Footer ================================================== -->\\n    <div class="row">\\n        <footer class="footer span12" id="footer">\\n            <div class="footer-content">\\n                \', escape=False)\nresponse.write(\' <!-- this is default footer -->\\n                <div class="copyright pull-left">\', escape=False)\nresponse.write(T(\'Copyright\'))\nresponse.write(\' &#169; \', escape=False)\nresponse.write(request.now.year)\nresponse.write(\'</div>\\n                <div id="poweredBy" class="pull-right">\\n                    \', escape=False)\nresponse.write(T(\'Powered by\'))\nresponse.write(\'\\n                    <a href="http://www.web2py.com/">web2py</a>\\n                </div>\\n                \', escape=False)\nresponse.write(\'\\n            </div>\\n        </footer>\\n    </div>\\n\\n  </div> <!-- /container -->\\n\\n  <!-- The javascript =============================================\\n       (Placed at the end of the document so the pages load faster) -->\\n  <script src="\', escape=False)\nresponse.write(URL(\'static\',\'js/bootstrap.min.js\'))\nresponse.write(\'"></script>\\n  <script src="\', escape=False)\nresponse.write(URL(\'static\',\'js/web2py_bootstrap.js\'))\nresponse.write(\'"></script>\\n  <!--[if lt IE 7 ]>\\n      <script src="\', escape=False)\nresponse.write(URL(\'static\',\'js/dd_belatedpng.js\'))\nresponse.write(\'"></script>\\n      <script> DD_belatedPNG.fix(\\\'img, .png_bg\\\'); //fix any <img> or .png_bg background-images </script>\\n      <![endif]-->\\n  \\n  \', escape=False)\nif response.google_analytics_id:\n    response.write(\'\\n  <script src="\', escape=False)\n    response.write(URL(\'static\',\'js/analytics.js\'))\n    response.write(\'"></script>\\n  <script type="text/javascript">\\n  analytics.initialize({\\n    \\\'Google Analytics\\\':{trackingId:\\\'\', escape=False)\n    response.write(response.google_analytics_id)\n    response.write("\'} \\n  });</script>\\n  ", escape=False)\n    pass\nresponse.write(\'\\n  <script src="\', escape=False)\nresponse.write(URL(\'static\',\'js/share.js\',vars=dict(static=URL(\'static\',\'images\'))))\nresponse.write(\'"></script>\\n</body>\\n</html>\\n\', escape=False)'
p7
sS'snapshot'
p8
(dp9
S'exception'
p10
(dp11
S'__hash__'
p12
S"<method-wrapper '__hash__' of exceptions.NameError object>"
p13
sS'__setattr__'
p14
S"<method-wrapper '__setattr__' of exceptions.NameError object>"
p15
sS'__reduce_ex__'
p16
S'<built-in method __reduce_ex__ of exceptions.NameError object>'
p17
sS'__getslice__'
p18
S"<method-wrapper '__getslice__' of exceptions.NameError object>"
p19
sS'__getitem__'
p20
S"<method-wrapper '__getitem__' of exceptions.NameError object>"
p21
sS'__setstate__'
p22
S'<built-in method __setstate__ of exceptions.NameError object>'
p23
sS'args'
p24
S'("name \'form\' is not defined",)'
p25
sS'__reduce__'
p26
S'<built-in method __reduce__ of exceptions.NameError object>'
p27
sS'__str__'
p28
S"<method-wrapper '__str__' of exceptions.NameError object>"
p29
sS'__format__'
p30
S'<built-in method __format__ of exceptions.NameError object>'
p31
sS'__getattribute__'
p32
S"<method-wrapper '__getattribute__' of exceptions.NameError object>"
p33
sS'__class__'
p34
S"<type 'exceptions.NameError'>"
p35
sS'__unicode__'
p36
S'<built-in method __unicode__ of exceptions.NameError object>'
p37
sS'__delattr__'
p38
S"<method-wrapper '__delattr__' of exceptions.NameError object>"
p39
sS'__subclasshook__'
p40
S'<built-in method __subclasshook__ of type object>'
p41
sS'__repr__'
p42
S"<method-wrapper '__repr__' of exceptions.NameError object>"
p43
sS'__dict__'
p44
S'{}'
p45
sS'__sizeof__'
p46
S'<built-in method __sizeof__ of exceptions.NameError object>'
p47
sS'__doc__'
p48
S"'Name not found globally.'"
p49
sS'__init__'
p50
S"<method-wrapper '__init__' of exceptions.NameError object>"
p51
sS'__new__'
p52
S'<built-in method __new__ of type object>'
p53
ssS'evalue'
p54
S"name 'form' is not defined"
p55
sS'request'
p56
ccopy_reg
_reconstructor
p57
(cgluon.html
BEAUTIFY
p58
c__builtin__
object
p59
NtRp60
(dp61
S'attributes'
p62
(dp63
sS'components'
p64
(lp65
g57
(cgluon.html
TABLE
p66
g59
NtRp67
(dp68
g62
(dp69
S'level'
p70
I5
ssS'parent'
p71
Nsg64
(lp72
g57
(cgluon.html
TR
p73
g59
NtRp74
(dp75
g62
(dp76
sg71
g67
sg64
(lp77
g57
(cgluon.html
TD
p78
g59
NtRp79
(dp80
g62
(dp81
S'_style'
p82
S'font-weight:bold;vertical-align:top'
p83
ssg71
g74
sg64
(lp84
S'ajax'
p85
asbag57
(g78
g59
NtRp86
(dp87
g62
(dp88
S'_valign'
p89
S'top'
p90
ssg71
g74
sg64
(lp91
S':'
asbag57
(g78
g59
NtRp92
(dp93
g62
(dp94
sg71
g74
sg64
(lp95
g57
(g58
g59
NtRp96
(dp97
g62
(dp98
g70
I5
ssg71
g92
sg64
(lp99
S'False'
p100
asbasbasbag57
(g73
g59
NtRp101
(dp102
g62
(dp103
sg71
g67
sg64
(lp104
g57
(g78
g59
NtRp105
(dp106
g62
(dp107
g82
g83
ssg71
g101
sg64
(lp108
S'application'
p109
asbag57
(g78
g59
NtRp110
(dp111
g62
(dp112
g89
g90
ssg71
g101
sg64
(lp113
S':'
asbag57
(g78
g59
NtRp114
(dp115
g62
(dp116
sg71
g101
sg64
(lp117
g57
(g58
g59
NtRp118
(dp119
g62
(dp120
g70
I5
ssg71
g114
sg64
(lp121
S'CygnusCloud'
p122
asbasbasbag57
(g73
g59
NtRp123
(dp124
g62
(dp125
sg71
g67
sg64
(lp126
g57
(g78
g59
NtRp127
(dp128
g62
(dp129
g82
g83
ssg71
g123
sg64
(lp130
g24
asbag57
(g78
g59
NtRp131
(dp132
g62
(dp133
g89
g90
ssg71
g123
sg64
(lp134
S':'
asbag57
(g78
g59
NtRp135
(dp136
g62
(dp137
sg71
g123
sg64
(lp138
g57
(g58
g59
NtRp139
(dp140
g62
(dp141
g70
I5
ssg71
g135
sg64
(lp142
g57
(g66
g59
NtRp143
(dp144
g62
(dp145
g70
I4
ssg71
Nsg64
(lp146
sbasbasbasbag57
(g73
g59
NtRp147
(dp148
g62
(dp149
sg71
g67
sg64
(lp150
g57
(g78
g59
NtRp151
(dp152
g62
(dp153
g82
g83
ssg71
g147
sg64
(lp154
S'body'
p155
asbag57
(g78
g59
NtRp156
(dp157
g62
(dp158
g89
g90
ssg71
g147
sg64
(lp159
S':'
asbag57
(g78
g59
NtRp160
(dp161
g62
(dp162
sg71
g147
sg64
(lp163
g57
(g58
g59
NtRp164
(dp165
g62
(dp166
g70
I5
ssg71
g160
sg64
(lp167
S'<cStringIO.StringO object at 0x7fc184454848>'
p168
asbasbasbag57
(g73
g59
NtRp169
(dp170
g62
(dp171
sg71
g67
sg64
(lp172
g57
(g78
g59
NtRp173
(dp174
g62
(dp175
g82
g83
ssg71
g169
sg64
(lp176
S'cid'
p177
asbag57
(g78
g59
NtRp178
(dp179
g62
(dp180
g89
g90
ssg71
g169
sg64
(lp181
S':'
asbag57
(g78
g59
NtRp182
(dp183
g62
(dp184
sg71
g169
sg64
(lp185
g57
(g58
g59
NtRp186
(dp187
g62
(dp188
g70
I5
ssg71
g182
sg64
(lp189
S'None'
p190
asbasbasbag57
(g73
g59
NtRp191
(dp192
g62
(dp193
sg71
g67
sg64
(lp194
g57
(g78
g59
NtRp195
(dp196
g62
(dp197
g82
g83
ssg71
g191
sg64
(lp198
S'client'
p199
asbag57
(g78
g59
NtRp200
(dp201
g62
(dp202
g89
g90
ssg71
g191
sg64
(lp203
S':'
asbag57
(g78
g59
NtRp204
(dp205
g62
(dp206
sg71
g191
sg64
(lp207
g57
(g58
g59
NtRp208
(dp209
g62
(dp210
g70
I5
ssg71
g204
sg64
(lp211
S'127.0.0.1'
p212
asbasbasbag57
(g73
g59
NtRp213
(dp214
g62
(dp215
sg71
g67
sg64
(lp216
g57
(g78
g59
NtRp217
(dp218
g62
(dp219
g82
g83
ssg71
g213
sg64
(lp220
S'controller'
p221
asbag57
(g78
g59
NtRp222
(dp223
g62
(dp224
g89
g90
ssg71
g213
sg64
(lp225
S':'
asbag57
(g78
g59
NtRp226
(dp227
g62
(dp228
sg71
g213
sg64
(lp229
g57
(g58
g59
NtRp230
(dp231
g62
(dp232
g70
I5
ssg71
g226
sg64
(lp233
S'student'
p234
asbasbasbag57
(g73
g59
NtRp235
(dp236
g62
(dp237
sg71
g67
sg64
(lp238
g57
(g78
g59
NtRp239
(dp240
g62
(dp241
g82
g83
ssg71
g235
sg64
(lp242
S'cookies'
p243
asbag57
(g78
g59
NtRp244
(dp245
g62
(dp246
g89
g90
ssg71
g235
sg64
(lp247
S':'
asbag57
(g78
g59
NtRp248
(dp249
g62
(dp250
sg71
g235
sg64
(lp251
g57
(g58
g59
NtRp252
(dp253
g62
(dp254
g70
I5
ssg71
g248
sg64
(lp255
g57
(g66
g59
NtRp256
(dp257
g62
(dp258
g70
I4
ssg71
Nsg64
(lp259
g57
(g73
g59
NtRp260
(dp261
g62
(dp262
sg71
g256
sg64
(lp263
g57
(g78
g59
NtRp264
(dp265
g62
(dp266
g82
g83
ssg71
g260
sg64
(lp267
S'session_id_admin'
p268
asbag57
(g78
g59
NtRp269
(dp270
g62
(dp271
g89
g90
ssg71
g260
sg64
(lp272
S':'
asbag57
(g78
g59
NtRp273
(dp274
g62
(dp275
sg71
g260
sg64
(lp276
g57
(g58
g59
NtRp277
(dp278
g62
(dp279
g70
I4
ssg71
g273
sg64
(lp280
S'127.0.0.1-7a7b0e9f-92b6-46ca-90f6-4880939b54e8'
p281
ag57
(g66
g59
NtRp282
(dp283
g62
(dp284
g70
I3
ssg71
Nsg64
(lp285
g57
(g73
g59
NtRp286
(dp287
g62
(dp288
sg71
g282
sg64
(lp289
g57
(g78
g59
NtRp290
(dp291
g62
(dp292
g82
g83
ssg71
g286
sg64
(lp293
S'comment'
p294
asbag57
(g78
g59
NtRp295
(dp296
g62
(dp297
g89
g90
ssg71
g286
sg64
(lp298
S':'
asbag57
(g78
g59
NtRp299
(dp300
g62
(dp301
sg71
g286
sg64
(lp302
g57
(g58
g59
NtRp303
(dp304
g62
(dp305
g70
I3
ssg71
g299
sg64
(lp306
S''
asbasbasbag57
(g73
g59
NtRp307
(dp308
g62
(dp309
sg71
g282
sg64
(lp310
g57
(g78
g59
NtRp311
(dp312
g62
(dp313
g82
g83
ssg71
g307
sg64
(lp314
S'domain'
p315
asbag57
(g78
g59
NtRp316
(dp317
g62
(dp318
g89
g90
ssg71
g307
sg64
(lp319
S':'
asbag57
(g78
g59
NtRp320
(dp321
g62
(dp322
sg71
g307
sg64
(lp323
g57
(g58
g59
NtRp324
(dp325
g62
(dp326
g70
I3
ssg71
g320
sg64
(lp327
S''
asbasbasbag57
(g73
g59
NtRp328
(dp329
g62
(dp330
sg71
g282
sg64
(lp331
g57
(g78
g59
NtRp332
(dp333
g62
(dp334
g82
g83
ssg71
g328
sg64
(lp335
S'expires'
p336
asbag57
(g78
g59
NtRp337
(dp338
g62
(dp339
g89
g90
ssg71
g328
sg64
(lp340
S':'
asbag57
(g78
g59
NtRp341
(dp342
g62
(dp343
sg71
g328
sg64
(lp344
g57
(g58
g59
NtRp345
(dp346
g62
(dp347
g70
I3
ssg71
g341
sg64
(lp348
S''
asbasbasbag57
(g73
g59
NtRp349
(dp350
g62
(dp351
sg71
g282
sg64
(lp352
g57
(g78
g59
NtRp353
(dp354
g62
(dp355
g82
g83
ssg71
g349
sg64
(lp356
S'httponly'
p357
asbag57
(g78
g59
NtRp358
(dp359
g62
(dp360
g89
g90
ssg71
g349
sg64
(lp361
S':'
asbag57
(g78
g59
NtRp362
(dp363
g62
(dp364
sg71
g349
sg64
(lp365
g57
(g58
g59
NtRp366
(dp367
g62
(dp368
g70
I3
ssg71
g362
sg64
(lp369
S''
asbasbasbag57
(g73
g59
NtRp370
(dp371
g62
(dp372
sg71
g282
sg64
(lp373
g57
(g78
g59
NtRp374
(dp375
g62
(dp376
g82
g83
ssg71
g370
sg64
(lp377
S'max-age'
p378
asbag57
(g78
g59
NtRp379
(dp380
g62
(dp381
g89
g90
ssg71
g370
sg64
(lp382
S':'
asbag57
(g78
g59
NtRp383
(dp384
g62
(dp385
sg71
g370
sg64
(lp386
g57
(g58
g59
NtRp387
(dp388
g62
(dp389
g70
I3
ssg71
g383
sg64
(lp390
S''
asbasbasbag57
(g73
g59
NtRp391
(dp392
g62
(dp393
sg71
g282
sg64
(lp394
g57
(g78
g59
NtRp395
(dp396
g62
(dp397
g82
g83
ssg71
g391
sg64
(lp398
S'path'
p399
asbag57
(g78
g59
NtRp400
(dp401
g62
(dp402
g89
g90
ssg71
g391
sg64
(lp403
S':'
asbag57
(g78
g59
NtRp404
(dp405
g62
(dp406
sg71
g391
sg64
(lp407
g57
(g58
g59
NtRp408
(dp409
g62
(dp410
g70
I3
ssg71
g404
sg64
(lp411
S''
asbasbasbag57
(g73
g59
NtRp412
(dp413
g62
(dp414
sg71
g282
sg64
(lp415
g57
(g78
g59
NtRp416
(dp417
g62
(dp418
g82
g83
ssg71
g412
sg64
(lp419
S'secure'
p420
asbag57
(g78
g59
NtRp421
(dp422
g62
(dp423
g89
g90
ssg71
g412
sg64
(lp424
S':'
asbag57
(g78
g59
NtRp425
(dp426
g62
(dp427
sg71
g412
sg64
(lp428
g57
(g58
g59
NtRp429
(dp430
g62
(dp431
g70
I3
ssg71
g425
sg64
(lp432
S''
asbasbasbag57
(g73
g59
NtRp433
(dp434
g62
(dp435
sg71
g282
sg64
(lp436
g57
(g78
g59
NtRp437
(dp438
g62
(dp439
g82
g83
ssg71
g433
sg64
(lp440
S'version'
p441
asbag57
(g78
g59
NtRp442
(dp443
g62
(dp444
g89
g90
ssg71
g433
sg64
(lp445
S':'
asbag57
(g78
g59
NtRp446
(dp447
g62
(dp448
sg71
g433
sg64
(lp449
g57
(g58
g59
NtRp450
(dp451
g62
(dp452
g70
I3
ssg71
g446
sg64
(lp453
S''
asbasbasbasbasbasbasbag57
(g73
g59
NtRp454
(dp455
g62
(dp456
sg71
g256
sg64
(lp457
g57
(g78
g59
NtRp458
(dp459
g62
(dp460
g82
g83
ssg71
g454
sg64
(lp461
S'session_id_cygnuscloud'
p462
asbag57
(g78
g59
NtRp463
(dp464
g62
(dp465
g89
g90
ssg71
g454
sg64
(lp466
S':'
asbag57
(g78
g59
NtRp467
(dp468
g62
(dp469
sg71
g454
sg64
(lp470
g57
(g58
g59
NtRp471
(dp472
g62
(dp473
g70
I4
ssg71
g467
sg64
(lp474
S'127.0.0.1-dee08b32-fb5f-41b9-92ab-ea89938c46b9'
p475
ag57
(g66
g59
NtRp476
(dp477
g62
(dp478
g70
I3
ssg71
Nsg64
(lp479
g57
(g73
g59
NtRp480
(dp481
g62
(dp482
sg71
g476
sg64
(lp483
g57
(g78
g59
NtRp484
(dp485
g62
(dp486
g82
g83
ssg71
g480
sg64
(lp487
g294
asbag57
(g78
g59
NtRp488
(dp489
g62
(dp490
g89
g90
ssg71
g480
sg64
(lp491
S':'
asbag57
(g78
g59
NtRp492
(dp493
g62
(dp494
sg71
g480
sg64
(lp495
g57
(g58
g59
NtRp496
(dp497
g62
(dp498
g70
I3
ssg71
g492
sg64
(lp499
S''
asbasbasbag57
(g73
g59
NtRp500
(dp501
g62
(dp502
sg71
g476
sg64
(lp503
g57
(g78
g59
NtRp504
(dp505
g62
(dp506
g82
g83
ssg71
g500
sg64
(lp507
g315
asbag57
(g78
g59
NtRp508
(dp509
g62
(dp510
g89
g90
ssg71
g500
sg64
(lp511
S':'
asbag57
(g78
g59
NtRp512
(dp513
g62
(dp514
sg71
g500
sg64
(lp515
g57
(g58
g59
NtRp516
(dp517
g62
(dp518
g70
I3
ssg71
g512
sg64
(lp519
S''
asbasbasbag57
(g73
g59
NtRp520
(dp521
g62
(dp522
sg71
g476
sg64
(lp523
g57
(g78
g59
NtRp524
(dp525
g62
(dp526
g82
g83
ssg71
g520
sg64
(lp527
g336
asbag57
(g78
g59
NtRp528
(dp529
g62
(dp530
g89
g90
ssg71
g520
sg64
(lp531
S':'
asbag57
(g78
g59
NtRp532
(dp533
g62
(dp534
sg71
g520
sg64
(lp535
g57
(g58
g59
NtRp536
(dp537
g62
(dp538
g70
I3
ssg71
g532
sg64
(lp539
S''
asbasbasbag57
(g73
g59
NtRp540
(dp541
g62
(dp542
sg71
g476
sg64
(lp543
g57
(g78
g59
NtRp544
(dp545
g62
(dp546
g82
g83
ssg71
g540
sg64
(lp547
g357
asbag57
(g78
g59
NtRp548
(dp549
g62
(dp550
g89
g90
ssg71
g540
sg64
(lp551
S':'
asbag57
(g78
g59
NtRp552
(dp553
g62
(dp554
sg71
g540
sg64
(lp555
g57
(g58
g59
NtRp556
(dp557
g62
(dp558
g70
I3
ssg71
g552
sg64
(lp559
S''
asbasbasbag57
(g73
g59
NtRp560
(dp561
g62
(dp562
sg71
g476
sg64
(lp563
g57
(g78
g59
NtRp564
(dp565
g62
(dp566
g82
g83
ssg71
g560
sg64
(lp567
g378
asbag57
(g78
g59
NtRp568
(dp569
g62
(dp570
g89
g90
ssg71
g560
sg64
(lp571
S':'
asbag57
(g78
g59
NtRp572
(dp573
g62
(dp574
sg71
g560
sg64
(lp575
g57
(g58
g59
NtRp576
(dp577
g62
(dp578
g70
I3
ssg71
g572
sg64
(lp579
S''
asbasbasbag57
(g73
g59
NtRp580
(dp581
g62
(dp582
sg71
g476
sg64
(lp583
g57
(g78
g59
NtRp584
(dp585
g62
(dp586
g82
g83
ssg71
g580
sg64
(lp587
g399
asbag57
(g78
g59
NtRp588
(dp589
g62
(dp590
g89
g90
ssg71
g580
sg64
(lp591
S':'
asbag57
(g78
g59
NtRp592
(dp593
g62
(dp594
sg71
g580
sg64
(lp595
g57
(g58
g59
NtRp596
(dp597
g62
(dp598
g70
I3
ssg71
g592
sg64
(lp599
S''
asbasbasbag57
(g73
g59
NtRp600
(dp601
g62
(dp602
sg71
g476
sg64
(lp603
g57
(g78
g59
NtRp604
(dp605
g62
(dp606
g82
g83
ssg71
g600
sg64
(lp607
g420
asbag57
(g78
g59
NtRp608
(dp609
g62
(dp610
g89
g90
ssg71
g600
sg64
(lp611
S':'
asbag57
(g78
g59
NtRp612
(dp613
g62
(dp614
sg71
g600
sg64
(lp615
g57
(g58
g59
NtRp616
(dp617
g62
(dp618
g70
I3
ssg71
g612
sg64
(lp619
S''
asbasbasbag57
(g73
g59
NtRp620
(dp621
g62
(dp622
sg71
g476
sg64
(lp623
g57
(g78
g59
NtRp624
(dp625
g62
(dp626
g82
g83
ssg71
g620
sg64
(lp627
g441
asbag57
(g78
g59
NtRp628
(dp629
g62
(dp630
g89
g90
ssg71
g620
sg64
(lp631
S':'
asbag57
(g78
g59
NtRp632
(dp633
g62
(dp634
sg71
g620
sg64
(lp635
g57
(g58
g59
NtRp636
(dp637
g62
(dp638
g70
I3
ssg71
g632
sg64
(lp639
S''
asbasbasbasbasbasbasbag57
(g73
g59
NtRp640
(dp641
g62
(dp642
sg71
g256
sg64
(lp643
g57
(g78
g59
NtRp644
(dp645
g62
(dp646
g82
g83
ssg71
g640
sg64
(lp647
S'session_id_mywiki'
p648
asbag57
(g78
g59
NtRp649
(dp650
g62
(dp651
g89
g90
ssg71
g640
sg64
(lp652
S':'
asbag57
(g78
g59
NtRp653
(dp654
g62
(dp655
sg71
g640
sg64
(lp656
g57
(g58
g59
NtRp657
(dp658
g62
(dp659
g70
I4
ssg71
g653
sg64
(lp660
S'127.0.0.1-aefde2a7-d1f0-4f1d-b8ed-8ca22cb491de'
p661
ag57
(g66
g59
NtRp662
(dp663
g62
(dp664
g70
I3
ssg71
Nsg64
(lp665
g57
(g73
g59
NtRp666
(dp667
g62
(dp668
sg71
g662
sg64
(lp669
g57
(g78
g59
NtRp670
(dp671
g62
(dp672
g82
g83
ssg71
g666
sg64
(lp673
g294
asbag57
(g78
g59
NtRp674
(dp675
g62
(dp676
g89
g90
ssg71
g666
sg64
(lp677
S':'
asbag57
(g78
g59
NtRp678
(dp679
g62
(dp680
sg71
g666
sg64
(lp681
g57
(g58
g59
NtRp682
(dp683
g62
(dp684
g70
I3
ssg71
g678
sg64
(lp685
S''
asbasbasbag57
(g73
g59
NtRp686
(dp687
g62
(dp688
sg71
g662
sg64
(lp689
g57
(g78
g59
NtRp690
(dp691
g62
(dp692
g82
g83
ssg71
g686
sg64
(lp693
g315
asbag57
(g78
g59
NtRp694
(dp695
g62
(dp696
g89
g90
ssg71
g686
sg64
(lp697
S':'
asbag57
(g78
g59
NtRp698
(dp699
g62
(dp700
sg71
g686
sg64
(lp701
g57
(g58
g59
NtRp702
(dp703
g62
(dp704
g70
I3
ssg71
g698
sg64
(lp705
S''
asbasbasbag57
(g73
g59
NtRp706
(dp707
g62
(dp708
sg71
g662
sg64
(lp709
g57
(g78
g59
NtRp710
(dp711
g62
(dp712
g82
g83
ssg71
g706
sg64
(lp713
g336
asbag57
(g78
g59
NtRp714
(dp715
g62
(dp716
g89
g90
ssg71
g706
sg64
(lp717
S':'
asbag57
(g78
g59
NtRp718
(dp719
g62
(dp720
sg71
g706
sg64
(lp721
g57
(g58
g59
NtRp722
(dp723
g62
(dp724
g70
I3
ssg71
g718
sg64
(lp725
S''
asbasbasbag57
(g73
g59
NtRp726
(dp727
g62
(dp728
sg71
g662
sg64
(lp729
g57
(g78
g59
NtRp730
(dp731
g62
(dp732
g82
g83
ssg71
g726
sg64
(lp733
g357
asbag57
(g78
g59
NtRp734
(dp735
g62
(dp736
g89
g90
ssg71
g726
sg64
(lp737
S':'
asbag57
(g78
g59
NtRp738
(dp739
g62
(dp740
sg71
g726
sg64
(lp741
g57
(g58
g59
NtRp742
(dp743
g62
(dp744
g70
I3
ssg71
g738
sg64
(lp745
S''
asbasbasbag57
(g73
g59
NtRp746
(dp747
g62
(dp748
sg71
g662
sg64
(lp749
g57
(g78
g59
NtRp750
(dp751
g62
(dp752
g82
g83
ssg71
g746
sg64
(lp753
g378
asbag57
(g78
g59
NtRp754
(dp755
g62
(dp756
g89
g90
ssg71
g746
sg64
(lp757
S':'
asbag57
(g78
g59
NtRp758
(dp759
g62
(dp760
sg71
g746
sg64
(lp761
g57
(g58
g59
NtRp762
(dp763
g62
(dp764
g70
I3
ssg71
g758
sg64
(lp765
S''
asbasbasbag57
(g73
g59
NtRp766
(dp767
g62
(dp768
sg71
g662
sg64
(lp769
g57
(g78
g59
NtRp770
(dp771
g62
(dp772
g82
g83
ssg71
g766
sg64
(lp773
g399
asbag57
(g78
g59
NtRp774
(dp775
g62
(dp776
g89
g90
ssg71
g766
sg64
(lp777
S':'
asbag57
(g78
g59
NtRp778
(dp779
g62
(dp780
sg71
g766
sg64
(lp781
g57
(g58
g59
NtRp782
(dp783
g62
(dp784
g70
I3
ssg71
g778
sg64
(lp785
S''
asbasbasbag57
(g73
g59
NtRp786
(dp787
g62
(dp788
sg71
g662
sg64
(lp789
g57
(g78
g59
NtRp790
(dp791
g62
(dp792
g82
g83
ssg71
g786
sg64
(lp793
g420
asbag57
(g78
g59
NtRp794
(dp795
g62
(dp796
g89
g90
ssg71
g786
sg64
(lp797
S':'
asbag57
(g78
g59
NtRp798
(dp799
g62
(dp800
sg71
g786
sg64
(lp801
g57
(g58
g59
NtRp802
(dp803
g62
(dp804
g70
I3
ssg71
g798
sg64
(lp805
S''
asbasbasbag57
(g73
g59
NtRp806
(dp807
g62
(dp808
sg71
g662
sg64
(lp809
g57
(g78
g59
NtRp810
(dp811
g62
(dp812
g82
g83
ssg71
g806
sg64
(lp813
g441
asbag57
(g78
g59
NtRp814
(dp815
g62
(dp816
g89
g90
ssg71
g806
sg64
(lp817
S':'
asbag57
(g78
g59
NtRp818
(dp819
g62
(dp820
sg71
g806
sg64
(lp821
g57
(g58
g59
NtRp822
(dp823
g62
(dp824
g70
I3
ssg71
g818
sg64
(lp825
S''
asbasbasbasbasbasbasbag57
(g73
g59
NtRp826
(dp827
g62
(dp828
sg71
g256
sg64
(lp829
g57
(g78
g59
NtRp830
(dp831
g62
(dp832
g82
g83
ssg71
g826
sg64
(lp833
S'session_id_welcome'
p834
asbag57
(g78
g59
NtRp835
(dp836
g62
(dp837
g89
g90
ssg71
g826
sg64
(lp838
S':'
asbag57
(g78
g59
NtRp839
(dp840
g62
(dp841
sg71
g826
sg64
(lp842
g57
(g58
g59
NtRp843
(dp844
g62
(dp845
g70
I4
ssg71
g839
sg64
(lp846
S'127.0.0.1-0245b3a6-7d24-4f3e-8756-d219e3a2daea'
p847
ag57
(g66
g59
NtRp848
(dp849
g62
(dp850
g70
I3
ssg71
Nsg64
(lp851
g57
(g73
g59
NtRp852
(dp853
g62
(dp854
sg71
g848
sg64
(lp855
g57
(g78
g59
NtRp856
(dp857
g62
(dp858
g82
g83
ssg71
g852
sg64
(lp859
g294
asbag57
(g78
g59
NtRp860
(dp861
g62
(dp862
g89
g90
ssg71
g852
sg64
(lp863
S':'
asbag57
(g78
g59
NtRp864
(dp865
g62
(dp866
sg71
g852
sg64
(lp867
g57
(g58
g59
NtRp868
(dp869
g62
(dp870
g70
I3
ssg71
g864
sg64
(lp871
S''
asbasbasbag57
(g73
g59
NtRp872
(dp873
g62
(dp874
sg71
g848
sg64
(lp875
g57
(g78
g59
NtRp876
(dp877
g62
(dp878
g82
g83
ssg71
g872
sg64
(lp879
g315
asbag57
(g78
g59
NtRp880
(dp881
g62
(dp882
g89
g90
ssg71
g872
sg64
(lp883
S':'
asbag57
(g78
g59
NtRp884
(dp885
g62
(dp886
sg71
g872
sg64
(lp887
g57
(g58
g59
NtRp888
(dp889
g62
(dp890
g70
I3
ssg71
g884
sg64
(lp891
S''
asbasbasbag57
(g73
g59
NtRp892
(dp893
g62
(dp894
sg71
g848
sg64
(lp895
g57
(g78
g59
NtRp896
(dp897
g62
(dp898
g82
g83
ssg71
g892
sg64
(lp899
g336
asbag57
(g78
g59
NtRp900
(dp901
g62
(dp902
g89
g90
ssg71
g892
sg64
(lp903
S':'
asbag57
(g78
g59
NtRp904
(dp905
g62
(dp906
sg71
g892
sg64
(lp907
g57
(g58
g59
NtRp908
(dp909
g62
(dp910
g70
I3
ssg71
g904
sg64
(lp911
S''
asbasbasbag57
(g73
g59
NtRp912
(dp913
g62
(dp914
sg71
g848
sg64
(lp915
g57
(g78
g59
NtRp916
(dp917
g62
(dp918
g82
g83
ssg71
g912
sg64
(lp919
g357
asbag57
(g78
g59
NtRp920
(dp921
g62
(dp922
g89
g90
ssg71
g912
sg64
(lp923
S':'
asbag57
(g78
g59
NtRp924
(dp925
g62
(dp926
sg71
g912
sg64
(lp927
g57
(g58
g59
NtRp928
(dp929
g62
(dp930
g70
I3
ssg71
g924
sg64
(lp931
S''
asbasbasbag57
(g73
g59
NtRp932
(dp933
g62
(dp934
sg71
g848
sg64
(lp935
g57
(g78
g59
NtRp936
(dp937
g62
(dp938
g82
g83
ssg71
g932
sg64
(lp939
g378
asbag57
(g78
g59
NtRp940
(dp941
g62
(dp942
g89
g90
ssg71
g932
sg64
(lp943
S':'
asbag57
(g78
g59
NtRp944
(dp945
g62
(dp946
sg71
g932
sg64
(lp947
g57
(g58
g59
NtRp948
(dp949
g62
(dp950
g70
I3
ssg71
g944
sg64
(lp951
S''
asbasbasbag57
(g73
g59
NtRp952
(dp953
g62
(dp954
sg71
g848
sg64
(lp955
g57
(g78
g59
NtRp956
(dp957
g62
(dp958
g82
g83
ssg71
g952
sg64
(lp959
g399
asbag57
(g78
g59
NtRp960
(dp961
g62
(dp962
g89
g90
ssg71
g952
sg64
(lp963
S':'
asbag57
(g78
g59
NtRp964
(dp965
g62
(dp966
sg71
g952
sg64
(lp967
g57
(g58
g59
NtRp968
(dp969
g62
(dp970
g70
I3
ssg71
g964
sg64
(lp971
S''
asbasbasbag57
(g73
g59
NtRp972
(dp973
g62
(dp974
sg71
g848
sg64
(lp975
g57
(g78
g59
NtRp976
(dp977
g62
(dp978
g82
g83
ssg71
g972
sg64
(lp979
g420
asbag57
(g78
g59
NtRp980
(dp981
g62
(dp982
g89
g90
ssg71
g972
sg64
(lp983
S':'
asbag57
(g78
g59
NtRp984
(dp985
g62
(dp986
sg71
g972
sg64
(lp987
g57
(g58
g59
NtRp988
(dp989
g62
(dp990
g70
I3
ssg71
g984
sg64
(lp991
S''
asbasbasbag57
(g73
g59
NtRp992
(dp993
g62
(dp994
sg71
g848
sg64
(lp995
g57
(g78
g59
NtRp996
(dp997
g62
(dp998
g82
g83
ssg71
g992
sg64
(lp999
g441
asbag57
(g78
g59
NtRp1000
(dp1001
g62
(dp1002
g89
g90
ssg71
g992
sg64
(lp1003
S':'
asbag57
(g78
g59
NtRp1004
(dp1005
g62
(dp1006
sg71
g992
sg64
(lp1007
g57
(g58
g59
NtRp1008
(dp1009
g62
(dp1010
g70
I3
ssg71
g1004
sg64
(lp1011
S''
asbasbasbasbasbasbasbasbasbasbasbag57
(g73
g59
NtRp1012
(dp1013
g62
(dp1014
sg71
g67
sg64
(lp1015
g57
(g78
g59
NtRp1016
(dp1017
g62
(dp1018
g82
g83
ssg71
g1012
sg64
(lp1019
S'env'
p1020
asbag57
(g78
g59
NtRp1021
(dp1022
g62
(dp1023
g89
g90
ssg71
g1012
sg64
(lp1024
S':'
asbag57
(g78
g59
NtRp1025
(dp1026
g62
(dp1027
sg71
g1012
sg64
(lp1028
g57
(g58
g59
NtRp1029
(dp1030
g62
(dp1031
g70
I5
ssg71
g1025
sg64
(lp1032
g57
(g66
g59
NtRp1033
(dp1034
g62
(dp1035
g70
I4
ssg71
Nsg64
(lp1036
g57
(g73
g59
NtRp1037
(dp1038
g62
(dp1039
sg71
g1033
sg64
(lp1040
g57
(g78
g59
NtRp1041
(dp1042
g62
(dp1043
g82
g83
ssg71
g1037
sg64
(lp1044
S'app_folders'
p1045
asbag57
(g78
g59
NtRp1046
(dp1047
g62
(dp1048
g89
g90
ssg71
g1037
sg64
(lp1049
S':'
asbag57
(g78
g59
NtRp1050
(dp1051
g62
(dp1052
sg71
g1037
sg64
(lp1053
g57
(g58
g59
NtRp1054
(dp1055
g62
(dp1056
g70
I4
ssg71
g1050
sg64
(lp1057
S"set(['/home/adrian/web2py/applications/admin/', '/home/adrian/web2py/applications/welcome/', '/home/adrian/web2py/applications/examples/', '/home/adrian/web2py/applications/mywiki/', '/home/adrian/web2py/applications/CygnusCloud/'])"
p1058
asbasbasbag57
(g73
g59
NtRp1059
(dp1060
g62
(dp1061
sg71
g1033
sg64
(lp1062
g57
(g78
g59
NtRp1063
(dp1064
g62
(dp1065
g82
g83
ssg71
g1059
sg64
(lp1066
S'applications_parent'
p1067
asbag57
(g78
g59
NtRp1068
(dp1069
g62
(dp1070
g89
g90
ssg71
g1059
sg64
(lp1071
S':'
asbag57
(g78
g59
NtRp1072
(dp1073
g62
(dp1074
sg71
g1059
sg64
(lp1075
g57
(g58
g59
NtRp1076
(dp1077
g62
(dp1078
g70
I4
ssg71
g1072
sg64
(lp1079
S'/home/adrian/web2py'
p1080
asbasbasbag57
(g73
g59
NtRp1081
(dp1082
g62
(dp1083
sg71
g1033
sg64
(lp1084
g57
(g78
g59
NtRp1085
(dp1086
g62
(dp1087
g82
g83
ssg71
g1081
sg64
(lp1088
S'cmd_args'
p1089
asbag57
(g78
g59
NtRp1090
(dp1091
g62
(dp1092
g89
g90
ssg71
g1081
sg64
(lp1093
S':'
asbag57
(g78
g59
NtRp1094
(dp1095
g62
(dp1096
sg71
g1081
sg64
(lp1097
g57
(g58
g59
NtRp1098
(dp1099
g62
(dp1100
g70
I4
ssg71
g1094
sg64
(lp1101
g57
(g66
g59
NtRp1102
(dp1103
g62
(dp1104
g70
I3
ssg71
Nsg64
(lp1105
sbasbasbasbag57
(g73
g59
NtRp1106
(dp1107
g62
(dp1108
sg71
g1033
sg64
(lp1109
g57
(g78
g59
NtRp1110
(dp1111
g62
(dp1112
g82
g83
ssg71
g1106
sg64
(lp1113
S'cmd_options'
p1114
asbag57
(g78
g59
NtRp1115
(dp1116
g62
(dp1117
g89
g90
ssg71
g1106
sg64
(lp1118
S':'
asbag57
(g78
g59
NtRp1119
(dp1120
g62
(dp1121
sg71
g1106
sg64
(lp1122
g57
(g58
g59
NtRp1123
(dp1124
g62
(dp1125
g70
I4
ssg71
g1119
sg64
(lp1126
S"<Values at 0x1e95bd8: {'verbose': False, 'ip': '127.0.0.1', 'with_scheduler': False, 'ips': [], 'shutdown_timeout': 5, 'taskbar': False, 'port': 8000, 'maxthreads': None, 'softcron': False, 'server_name': 'adri-EasyNote', 'bpython': False, 'nogui': False, 'pid_filename': 'httpserver.pid', 'extcron': False, 'runcron': False, 'run_system_tests': False, 'test': None, 'folder': '/home/adrian/web2py', 'config': '', 'minthreads': None, 'winservice': '', 'shell': None, 'run': '', 'log_filename': 'httpserver.log', 'debuglevel': 30, 'args': [''], 'socket_timeout': 5, 'ssl_ca_certificate': None, 'scheduler': None, 'profiler_filename': None, 'ssl_private_key': '', 'scheduler_groups': None, 'password': 'cygnuscloud2012', 'request_queue_size': 5, 'ssl_certificate': '', 'cronjob': False, 'numthreads': None, 'quiet': False, 'interfaces': None, 'import_models': False, 'timeout': 10, 'plain': False, 'nobanner': False}>"
p1127
asbasbasbag57
(g73
g59
NtRp1128
(dp1129
g62
(dp1130
sg71
g1033
sg64
(lp1131
g57
(g78
g59
NtRp1132
(dp1133
g62
(dp1134
g82
g83
ssg71
g1128
sg64
(lp1135
S'db_sessions'
p1136
asbag57
(g78
g59
NtRp1137
(dp1138
g62
(dp1139
g89
g90
ssg71
g1128
sg64
(lp1140
S':'
asbag57
(g78
g59
NtRp1141
(dp1142
g62
(dp1143
sg71
g1128
sg64
(lp1144
g57
(g58
g59
NtRp1145
(dp1146
g62
(dp1147
g70
I4
ssg71
g1141
sg64
(lp1148
S'set([])'
p1149
asbasbasbag57
(g73
g59
NtRp1150
(dp1151
g62
(dp1152
sg71
g1033
sg64
(lp1153
g57
(g78
g59
NtRp1154
(dp1155
g62
(dp1156
g82
g83
ssg71
g1150
sg64
(lp1157
S'debugging'
p1158
asbag57
(g78
g59
NtRp1159
(dp1160
g62
(dp1161
g89
g90
ssg71
g1150
sg64
(lp1162
S':'
asbag57
(g78
g59
NtRp1163
(dp1164
g62
(dp1165
sg71
g1150
sg64
(lp1166
g57
(g58
g59
NtRp1167
(dp1168
g62
(dp1169
g70
I4
ssg71
g1163
sg64
(lp1170
g100
asbasbasbag57
(g73
g59
NtRp1171
(dp1172
g62
(dp1173
sg71
g1033
sg64
(lp1174
g57
(g78
g59
NtRp1175
(dp1176
g62
(dp1177
g82
g83
ssg71
g1171
sg64
(lp1178
S'gluon_parent'
p1179
asbag57
(g78
g59
NtRp1180
(dp1181
g62
(dp1182
g89
g90
ssg71
g1171
sg64
(lp1183
S':'
asbag57
(g78
g59
NtRp1184
(dp1185
g62
(dp1186
sg71
g1171
sg64
(lp1187
g57
(g58
g59
NtRp1188
(dp1189
g62
(dp1190
g70
I4
ssg71
g1184
sg64
(lp1191
S'/home/adrian/web2py'
p1192
asbasbasbag57
(g73
g59
NtRp1193
(dp1194
g62
(dp1195
sg71
g1033
sg64
(lp1196
g57
(g78
g59
NtRp1197
(dp1198
g62
(dp1199
g82
g83
ssg71
g1193
sg64
(lp1200
S'http_accept'
p1201
asbag57
(g78
g59
NtRp1202
(dp1203
g62
(dp1204
g89
g90
ssg71
g1193
sg64
(lp1205
S':'
asbag57
(g78
g59
NtRp1206
(dp1207
g62
(dp1208
sg71
g1193
sg64
(lp1209
g57
(g58
g59
NtRp1210
(dp1211
g62
(dp1212
g70
I4
ssg71
g1206
sg64
(lp1213
S'text/html,application/xhtml+xml,application/xml;q=0.9,*/*;q=0.8'
p1214
asbasbasbag57
(g73
g59
NtRp1215
(dp1216
g62
(dp1217
sg71
g1033
sg64
(lp1218
g57
(g78
g59
NtRp1219
(dp1220
g62
(dp1221
g82
g83
ssg71
g1215
sg64
(lp1222
S'http_accept_charset'
p1223
asbag57
(g78
g59
NtRp1224
(dp1225
g62
(dp1226
g89
g90
ssg71
g1215
sg64
(lp1227
S':'
asbag57
(g78
g59
NtRp1228
(dp1229
g62
(dp1230
sg71
g1215
sg64
(lp1231
g57
(g58
g59
NtRp1232
(dp1233
g62
(dp1234
g70
I4
ssg71
g1228
sg64
(lp1235
S'ISO-8859-1,utf-8;q=0.7,*;q=0.3'
p1236
asbasbasbag57
(g73
g59
NtRp1237
(dp1238
g62
(dp1239
sg71
g1033
sg64
(lp1240
g57
(g78
g59
NtRp1241
(dp1242
g62
(dp1243
g82
g83
ssg71
g1237
sg64
(lp1244
S'http_accept_encoding'
p1245
asbag57
(g78
g59
NtRp1246
(dp1247
g62
(dp1248
g89
g90
ssg71
g1237
sg64
(lp1249
S':'
asbag57
(g78
g59
NtRp1250
(dp1251
g62
(dp1252
sg71
g1237
sg64
(lp1253
g57
(g58
g59
NtRp1254
(dp1255
g62
(dp1256
g70
I4
ssg71
g1250
sg64
(lp1257
S'gzip,deflate,sdch'
p1258
asbasbasbag57
(g73
g59
NtRp1259
(dp1260
g62
(dp1261
sg71
g1033
sg64
(lp1262
g57
(g78
g59
NtRp1263
(dp1264
g62
(dp1265
g82
g83
ssg71
g1259
sg64
(lp1266
S'http_accept_language'
p1267
asbag57
(g78
g59
NtRp1268
(dp1269
g62
(dp1270
g89
g90
ssg71
g1259
sg64
(lp1271
S':'
asbag57
(g78
g59
NtRp1272
(dp1273
g62
(dp1274
sg71
g1259
sg64
(lp1275
g57
(g58
g59
NtRp1276
(dp1277
g62
(dp1278
g70
I4
ssg71
g1272
sg64
(lp1279
S'es-ES,es;q=0.8'
p1280
asbasbasbag57
(g73
g59
NtRp1281
(dp1282
g62
(dp1283
sg71
g1033
sg64
(lp1284
g57
(g78
g59
NtRp1285
(dp1286
g62
(dp1287
g82
g83
ssg71
g1281
sg64
(lp1288
S'http_cache_control'
p1289
asbag57
(g78
g59
NtRp1290
(dp1291
g62
(dp1292
g89
g90
ssg71
g1281
sg64
(lp1293
S':'
asbag57
(g78
g59
NtRp1294
(dp1295
g62
(dp1296
sg71
g1281
sg64
(lp1297
g57
(g58
g59
NtRp1298
(dp1299
g62
(dp1300
g70
I4
ssg71
g1294
sg64
(lp1301
S'max-age=0'
p1302
asbasbasbag57
(g73
g59
NtRp1303
(dp1304
g62
(dp1305
sg71
g1033
sg64
(lp1306
g57
(g78
g59
NtRp1307
(dp1308
g62
(dp1309
g82
g83
ssg71
g1303
sg64
(lp1310
S'http_connection'
p1311
asbag57
(g78
g59
NtRp1312
(dp1313
g62
(dp1314
g89
g90
ssg71
g1303
sg64
(lp1315
S':'
asbag57
(g78
g59
NtRp1316
(dp1317
g62
(dp1318
sg71
g1303
sg64
(lp1319
g57
(g58
g59
NtRp1320
(dp1321
g62
(dp1322
g70
I4
ssg71
g1316
sg64
(lp1323
S'keep-alive'
p1324
asbasbasbag57
(g73
g59
NtRp1325
(dp1326
g62
(dp1327
sg71
g1033
sg64
(lp1328
g57
(g78
g59
NtRp1329
(dp1330
g62
(dp1331
g82
g83
ssg71
g1325
sg64
(lp1332
S'http_cookie'
p1333
asbag57
(g78
g59
NtRp1334
(dp1335
g62
(dp1336
g89
g90
ssg71
g1325
sg64
(lp1337
S':'
asbag57
(g78
g59
NtRp1338
(dp1339
g62
(dp1340
sg71
g1325
sg64
(lp1341
g57
(g58
g59
NtRp1342
(dp1343
g62
(dp1344
g70
I4
ssg71
g1338
sg64
(lp1345
S'session_id_welcome=127.0.0.1-0245b3a6-7d24-4f3e-8756-d219e3a2daea; session_id_mywiki=127.0.0.1-aefde2a7-d1f0-4f1d-b8ed-8ca22cb491de; session_id_admin=127.0.0.1-7a7b0e9f-92b6-46ca-90f6-4880939b54e8; session_id_cygnuscloud=127.0.0.1-dee08b32-fb5f-41b9-92ab-ea89938c46b9'
p1346
asbasbasbag57
(g73
g59
NtRp1347
(dp1348
g62
(dp1349
sg71
g1033
sg64
(lp1350
g57
(g78
g59
NtRp1351
(dp1352
g62
(dp1353
g82
g83
ssg71
g1347
sg64
(lp1354
S'http_host'
p1355
asbag57
(g78
g59
NtRp1356
(dp1357
g62
(dp1358
g89
g90
ssg71
g1347
sg64
(lp1359
S':'
asbag57
(g78
g59
NtRp1360
(dp1361
g62
(dp1362
sg71
g1347
sg64
(lp1363
g57
(g58
g59
NtRp1364
(dp1365
g62
(dp1366
g70
I4
ssg71
g1360
sg64
(lp1367
S'127.0.0.1:8000'
p1368
asbasbasbag57
(g73
g59
NtRp1369
(dp1370
g62
(dp1371
sg71
g1033
sg64
(lp1372
g57
(g78
g59
NtRp1373
(dp1374
g62
(dp1375
g82
g83
ssg71
g1369
sg64
(lp1376
S'http_referer'
p1377
asbag57
(g78
g59
NtRp1378
(dp1379
g62
(dp1380
g89
g90
ssg71
g1369
sg64
(lp1381
S':'
asbag57
(g78
g59
NtRp1382
(dp1383
g62
(dp1384
sg71
g1369
sg64
(lp1385
g57
(g58
g59
NtRp1386
(dp1387
g62
(dp1388
g70
I4
ssg71
g1382
sg64
(lp1389
S'http://127.0.0.1:8000/CygnusCloud/main/login'
p1390
asbasbasbag57
(g73
g59
NtRp1391
(dp1392
g62
(dp1393
sg71
g1033
sg64
(lp1394
g57
(g78
g59
NtRp1395
(dp1396
g62
(dp1397
g82
g83
ssg71
g1391
sg64
(lp1398
S'http_user_agent'
p1399
asbag57
(g78
g59
NtRp1400
(dp1401
g62
(dp1402
g89
g90
ssg71
g1391
sg64
(lp1403
S':'
asbag57
(g78
g59
NtRp1404
(dp1405
g62
(dp1406
sg71
g1391
sg64
(lp1407
g57
(g58
g59
NtRp1408
(dp1409
g62
(dp1410
g70
I4
ssg71
g1404
sg64
(lp1411
S'Mozilla/5.0 (X11; Linux x86_64) AppleWebKit/537.11 (KHTML, like Gecko) Chrome/23.0.1271.64 Safari/537.11'
p1412
asbasbasbag57
(g73
g59
NtRp1413
(dp1414
g62
(dp1415
sg71
g1033
sg64
(lp1416
g57
(g78
g59
NtRp1417
(dp1418
g62
(dp1419
g82
g83
ssg71
g1413
sg64
(lp1420
S'is_jython'
p1421
asbag57
(g78
g59
NtRp1422
(dp1423
g62
(dp1424
g89
g90
ssg71
g1413
sg64
(lp1425
S':'
asbag57
(g78
g59
NtRp1426
(dp1427
g62
(dp1428
sg71
g1413
sg64
(lp1429
g57
(g58
g59
NtRp1430
(dp1431
g62
(dp1432
g70
I4
ssg71
g1426
sg64
(lp1433
g100
asbasbasbag57
(g73
g59
NtRp1434
(dp1435
g62
(dp1436
sg71
g1033
sg64
(lp1437
g57
(g78
g59
NtRp1438
(dp1439
g62
(dp1440
g82
g83
ssg71
g1434
sg64
(lp1441
S'is_pypy'
p1442
asbag57
(g78
g59
NtRp1443
(dp1444
g62
(dp1445
g89
g90
ssg71
g1434
sg64
(lp1446
S':'
asbag57
(g78
g59
NtRp1447
(dp1448
g62
(dp1449
sg71
g1434
sg64
(lp1450
g57
(g58
g59
NtRp1451
(dp1452
g62
(dp1453
g70
I4
ssg71
g1447
sg64
(lp1454
g100
asbasbasbag57
(g73
g59
NtRp1455
(dp1456
g62
(dp1457
sg71
g1033
sg64
(lp1458
g57
(g78
g59
NtRp1459
(dp1460
g62
(dp1461
g82
g83
ssg71
g1455
sg64
(lp1462
S'local_hosts'
p1463
asbag57
(g78
g59
NtRp1464
(dp1465
g62
(dp1466
g89
g90
ssg71
g1455
sg64
(lp1467
S':'
asbag57
(g78
g59
NtRp1468
(dp1469
g62
(dp1470
sg71
g1455
sg64
(lp1471
g57
(g58
g59
NtRp1472
(dp1473
g62
(dp1474
g70
I4
ssg71
g1468
sg64
(lp1475
g57
(g66
g59
NtRp1476
(dp1477
g62
(dp1478
g70
I3
ssg71
Nsg64
(lp1479
g57
(g73
g59
NtRp1480
(dp1481
g62
(dp1482
sg71
g1476
sg64
(lp1483
g57
(g78
g59
NtRp1484
(dp1485
g62
(dp1486
sg71
g1480
sg64
(lp1487
g57
(g58
g59
NtRp1488
(dp1489
g62
(dp1490
g70
I3
ssg71
g1484
sg64
(lp1491
S'adri-EasyNote'
p1492
asbasbasbag57
(g73
g59
NtRp1493
(dp1494
g62
(dp1495
sg71
g1476
sg64
(lp1496
g57
(g78
g59
NtRp1497
(dp1498
g62
(dp1499
sg71
g1493
sg64
(lp1500
g57
(g58
g59
NtRp1501
(dp1502
g62
(dp1503
g70
I3
ssg71
g1497
sg64
(lp1504
S'::1'
p1505
asbasbasbag57
(g73
g59
NtRp1506
(dp1507
g62
(dp1508
sg71
g1476
sg64
(lp1509
g57
(g78
g59
NtRp1510
(dp1511
g62
(dp1512
sg71
g1506
sg64
(lp1513
g57
(g58
g59
NtRp1514
(dp1515
g62
(dp1516
g70
I3
ssg71
g1510
sg64
(lp1517
S'127.0.1.1'
p1518
asbasbasbag57
(g73
g59
NtRp1519
(dp1520
g62
(dp1521
sg71
g1476
sg64
(lp1522
g57
(g78
g59
NtRp1523
(dp1524
g62
(dp1525
sg71
g1519
sg64
(lp1526
g57
(g58
g59
NtRp1527
(dp1528
g62
(dp1529
g70
I3
ssg71
g1523
sg64
(lp1530
S'::ffff:127.0.0.1'
p1531
asbasbasbag57
(g73
g59
NtRp1532
(dp1533
g62
(dp1534
sg71
g1476
sg64
(lp1535
g57
(g78
g59
NtRp1536
(dp1537
g62
(dp1538
sg71
g1532
sg64
(lp1539
g57
(g58
g59
NtRp1540
(dp1541
g62
(dp1542
g70
I3
ssg71
g1536
sg64
(lp1543
S'127.0.0.1'
p1544
asbasbasbasbasbasbasbag57
(g73
g59
NtRp1545
(dp1546
g62
(dp1547
sg71
g1033
sg64
(lp1548
g57
(g78
g59
NtRp1549
(dp1550
g62
(dp1551
g82
g83
ssg71
g1545
sg64
(lp1552
S'path_info'
p1553
asbag57
(g78
g59
NtRp1554
(dp1555
g62
(dp1556
g89
g90
ssg71
g1545
sg64
(lp1557
S':'
asbag57
(g78
g59
NtRp1558
(dp1559
g62
(dp1560
sg71
g1545
sg64
(lp1561
g57
(g58
g59
NtRp1562
(dp1563
g62
(dp1564
g70
I4
ssg71
g1558
sg64
(lp1565
S'/CygnusCloud/student/runVM'
p1566
asbasbasbag57
(g73
g59
NtRp1567
(dp1568
g62
(dp1569
sg71
g1033
sg64
(lp1570
g57
(g78
g59
NtRp1571
(dp1572
g62
(dp1573
g82
g83
ssg71
g1567
sg64
(lp1574
S'query_string'
p1575
asbag57
(g78
g59
NtRp1576
(dp1577
g62
(dp1578
g89
g90
ssg71
g1567
sg64
(lp1579
S':'
asbag57
(g78
g59
NtRp1580
(dp1581
g62
(dp1582
sg71
g1567
sg64
(lp1583
g57
(g58
g59
NtRp1584
(dp1585
g62
(dp1586
g70
I4
ssg71
g1580
sg64
(lp1587
S''
asbasbasbag57
(g73
g59
NtRp1588
(dp1589
g62
(dp1590
sg71
g1033
sg64
(lp1591
g57
(g78
g59
NtRp1592
(dp1593
g62
(dp1594
g82
g83
ssg71
g1588
sg64
(lp1595
S'remote_addr'
p1596
asbag57
(g78
g59
NtRp1597
(dp1598
g62
(dp1599
g89
g90
ssg71
g1588
sg64
(lp1600
S':'
asbag57
(g78
g59
NtRp1601
(dp1602
g62
(dp1603
sg71
g1588
sg64
(lp1604
g57
(g58
g59
NtRp1605
(dp1606
g62
(dp1607
g70
I4
ssg71
g1601
sg64
(lp1608
g212
asbasbasbag57
(g73
g59
NtRp1609
(dp1610
g62
(dp1611
sg71
g1033
sg64
(lp1612
g57
(g78
g59
NtRp1613
(dp1614
g62
(dp1615
g82
g83
ssg71
g1609
sg64
(lp1616
S'remote_port'
p1617
asbag57
(g78
g59
NtRp1618
(dp1619
g62
(dp1620
g89
g90
ssg71
g1609
sg64
(lp1621
S':'
asbag57
(g78
g59
NtRp1622
(dp1623
g62
(dp1624
sg71
g1609
sg64
(lp1625
g57
(g58
g59
NtRp1626
(dp1627
g62
(dp1628
g70
I4
ssg71
g1622
sg64
(lp1629
S'41276'
p1630
asbasbasbag57
(g73
g59
NtRp1631
(dp1632
g62
(dp1633
sg71
g1033
sg64
(lp1634
g57
(g78
g59
NtRp1635
(dp1636
g62
(dp1637
g82
g83
ssg71
g1631
sg64
(lp1638
S'request_method'
p1639
asbag57
(g78
g59
NtRp1640
(dp1641
g62
(dp1642
g89
g90
ssg71
g1631
sg64
(lp1643
S':'
asbag57
(g78
g59
NtRp1644
(dp1645
g62
(dp1646
sg71
g1631
sg64
(lp1647
g57
(g58
g59
NtRp1648
(dp1649
g62
(dp1650
g70
I4
ssg71
g1644
sg64
(lp1651
S'GET'
p1652
asbasbasbag57
(g73
g59
NtRp1653
(dp1654
g62
(dp1655
sg71
g1033
sg64
(lp1656
g57
(g78
g59
NtRp1657
(dp1658
g62
(dp1659
g82
g83
ssg71
g1653
sg64
(lp1660
S'request_uri'
p1661
asbag57
(g78
g59
NtRp1662
(dp1663
g62
(dp1664
g89
g90
ssg71
g1653
sg64
(lp1665
S':'
asbag57
(g78
g59
NtRp1666
(dp1667
g62
(dp1668
sg71
g1653
sg64
(lp1669
g57
(g58
g59
NtRp1670
(dp1671
g62
(dp1672
g70
I4
ssg71
g1666
sg64
(lp1673
g1566
asbasbasbag57
(g73
g59
NtRp1674
(dp1675
g62
(dp1676
sg71
g1033
sg64
(lp1677
g57
(g78
g59
NtRp1678
(dp1679
g62
(dp1680
g82
g83
ssg71
g1674
sg64
(lp1681
S'script_name'
p1682
asbag57
(g78
g59
NtRp1683
(dp1684
g62
(dp1685
g89
g90
ssg71
g1674
sg64
(lp1686
S':'
asbag57
(g78
g59
NtRp1687
(dp1688
g62
(dp1689
sg71
g1674
sg64
(lp1690
g57
(g58
g59
NtRp1691
(dp1692
g62
(dp1693
g70
I4
ssg71
g1687
sg64
(lp1694
S''
asbasbasbag57
(g73
g59
NtRp1695
(dp1696
g62
(dp1697
sg71
g1033
sg64
(lp1698
g57
(g78
g59
NtRp1699
(dp1700
g62
(dp1701
g82
g83
ssg71
g1695
sg64
(lp1702
S'server_name'
p1703
asbag57
(g78
g59
NtRp1704
(dp1705
g62
(dp1706
g89
g90
ssg71
g1695
sg64
(lp1707
S':'
asbag57
(g78
g59
NtRp1708
(dp1709
g62
(dp1710
sg71
g1695
sg64
(lp1711
g57
(g58
g59
NtRp1712
(dp1713
g62
(dp1714
g70
I4
ssg71
g1708
sg64
(lp1715
S'adri-EasyNote'
p1716
asbasbasbag57
(g73
g59
NtRp1717
(dp1718
g62
(dp1719
sg71
g1033
sg64
(lp1720
g57
(g78
g59
NtRp1721
(dp1722
g62
(dp1723
g82
g83
ssg71
g1717
sg64
(lp1724
S'server_port'
p1725
asbag57
(g78
g59
NtRp1726
(dp1727
g62
(dp1728
g89
g90
ssg71
g1717
sg64
(lp1729
S':'
asbag57
(g78
g59
NtRp1730
(dp1731
g62
(dp1732
sg71
g1717
sg64
(lp1733
g57
(g58
g59
NtRp1734
(dp1735
g62
(dp1736
g70
I4
ssg71
g1730
sg64
(lp1737
S'8000'
p1738
asbasbasbag57
(g73
g59
NtRp1739
(dp1740
g62
(dp1741
sg71
g1033
sg64
(lp1742
g57
(g78
g59
NtRp1743
(dp1744
g62
(dp1745
g82
g83
ssg71
g1739
sg64
(lp1746
S'server_protocol'
p1747
asbag57
(g78
g59
NtRp1748
(dp1749
g62
(dp1750
g89
g90
ssg71
g1739
sg64
(lp1751
S':'
asbag57
(g78
g59
NtRp1752
(dp1753
g62
(dp1754
sg71
g1739
sg64
(lp1755
g57
(g58
g59
NtRp1756
(dp1757
g62
(dp1758
g70
I4
ssg71
g1752
sg64
(lp1759
S'HTTP/1.1'
p1760
asbasbasbag57
(g73
g59
NtRp1761
(dp1762
g62
(dp1763
sg71
g1033
sg64
(lp1764
g57
(g78
g59
NtRp1765
(dp1766
g62
(dp1767
g82
g83
ssg71
g1761
sg64
(lp1768
S'server_software'
p1769
asbag57
(g78
g59
NtRp1770
(dp1771
g62
(dp1772
g89
g90
ssg71
g1761
sg64
(lp1773
S':'
asbag57
(g78
g59
NtRp1774
(dp1775
g62
(dp1776
sg71
g1761
sg64
(lp1777
g57
(g58
g59
NtRp1778
(dp1779
g62
(dp1780
g70
I4
ssg71
g1774
sg64
(lp1781
S'Rocket 1.2.6'
p1782
asbasbasbag57
(g73
g59
NtRp1783
(dp1784
g62
(dp1785
sg71
g1033
sg64
(lp1786
g57
(g78
g59
NtRp1787
(dp1788
g62
(dp1789
g82
g83
ssg71
g1783
sg64
(lp1790
S'web2py_path'
p1791
asbag57
(g78
g59
NtRp1792
(dp1793
g62
(dp1794
g89
g90
ssg71
g1783
sg64
(lp1795
S':'
asbag57
(g78
g59
NtRp1796
(dp1797
g62
(dp1798
sg71
g1783
sg64
(lp1799
g57
(g58
g59
NtRp1800
(dp1801
g62
(dp1802
g70
I4
ssg71
g1796
sg64
(lp1803
g1080
asbasbasbag57
(g73
g59
NtRp1804
(dp1805
g62
(dp1806
sg71
g1033
sg64
(lp1807
g57
(g78
g59
NtRp1808
(dp1809
g62
(dp1810
g82
g83
ssg71
g1804
sg64
(lp1811
S'web2py_version'
p1812
asbag57
(g78
g59
NtRp1813
(dp1814
g62
(dp1815
g89
g90
ssg71
g1804
sg64
(lp1816
S':'
asbag57
(g78
g59
NtRp1817
(dp1818
g62
(dp1819
sg71
g1804
sg64
(lp1820
g57
(g58
g59
NtRp1821
(dp1822
g62
(dp1823
g70
I4
ssg71
g1817
sg64
(lp1824
g57
(g66
g59
NtRp1825
(dp1826
g62
(dp1827
g70
I3
ssg71
Nsg64
(lp1828
g57
(g73
g59
NtRp1829
(dp1830
g62
(dp1831
sg71
g1825
sg64
(lp1832
g57
(g78
g59
NtRp1833
(dp1834
g62
(dp1835
sg71
g1829
sg64
(lp1836
g57
(g58
g59
NtRp1837
(dp1838
g62
(dp1839
g70
I3
ssg71
g1833
sg64
(lp1840
S'2'
asbasbasbag57
(g73
g59
NtRp1841
(dp1842
g62
(dp1843
sg71
g1825
sg64
(lp1844
g57
(g78
g59
NtRp1845
(dp1846
g62
(dp1847
sg71
g1841
sg64
(lp1848
g57
(g58
g59
NtRp1849
(dp1850
g62
(dp1851
g70
I3
ssg71
g1845
sg64
(lp1852
S'3'
asbasbasbag57
(g73
g59
NtRp1853
(dp1854
g62
(dp1855
sg71
g1825
sg64
(lp1856
g57
(g78
g59
NtRp1857
(dp1858
g62
(dp1859
sg71
g1853
sg64
(lp1860
g57
(g58
g59
NtRp1861
(dp1862
g62
(dp1863
g70
I3
ssg71
g1857
sg64
(lp1864
S'2'
asbasbasbag57
(g73
g59
NtRp1865
(dp1866
g62
(dp1867
sg71
g1825
sg64
(lp1868
g57
(g78
g59
NtRp1869
(dp1870
g62
(dp1871
sg71
g1865
sg64
(lp1872
g57
(g58
g59
NtRp1873
(dp1874
g62
(dp1875
g70
I3
ssg71
g1869
sg64
(lp1876
S'datetime.datetime(2012, 12, 17, 15, 3, 30)'
p1877
asbasbasbag57
(g73
g59
NtRp1878
(dp1879
g62
(dp1880
sg71
g1825
sg64
(lp1881
g57
(g78
g59
NtRp1882
(dp1883
g62
(dp1884
sg71
g1878
sg64
(lp1885
g57
(g58
g59
NtRp1886
(dp1887
g62
(dp1888
g70
I3
ssg71
g1882
sg64
(lp1889
S'stable'
p1890
asbasbasbasbasbasbasbag57
(g73
g59
NtRp1891
(dp1892
g62
(dp1893
sg71
g1033
sg64
(lp1894
g57
(g78
g59
NtRp1895
(dp1896
g62
(dp1897
g82
g83
ssg71
g1891
sg64
(lp1898
S'wsgi_errors'
p1899
asbag57
(g78
g59
NtRp1900
(dp1901
g62
(dp1902
g89
g90
ssg71
g1891
sg64
(lp1903
S':'
asbag57
(g78
g59
NtRp1904
(dp1905
g62
(dp1906
sg71
g1891
sg64
(lp1907
g57
(g58
g59
NtRp1908
(dp1909
g62
(dp1910
g70
I4
ssg71
g1904
sg64
(lp1911
S"<open file '<stderr>', mode 'w' at 0x7fc1a5585270>"
p1912
asbasbasbag57
(g73
g59
NtRp1913
(dp1914
g62
(dp1915
sg71
g1033
sg64
(lp1916
g57
(g78
g59
NtRp1917
(dp1918
g62
(dp1919
g82
g83
ssg71
g1913
sg64
(lp1920
S'wsgi_file_wrapper'
p1921
asbag57
(g78
g59
NtRp1922
(dp1923
g62
(dp1924
g89
g90
ssg71
g1913
sg64
(lp1925
S':'
asbag57
(g78
g59
NtRp1926
(dp1927
g62
(dp1928
sg71
g1913
sg64
(lp1929
g57
(g58
g59
NtRp1930
(dp1931
g62
(dp1932
g70
I4
ssg71
g1926
sg64
(lp1933
S'<class wsgiref.util.FileWrapper at 0x1dc9db8>'
p1934
asbasbasbag57
(g73
g59
NtRp1935
(dp1936
g62
(dp1937
sg71
g1033
sg64
(lp1938
g57
(g78
g59
NtRp1939
(dp1940
g62
(dp1941
g82
g83
ssg71
g1935
sg64
(lp1942
S'wsgi_input'
p1943
asbag57
(g78
g59
NtRp1944
(dp1945
g62
(dp1946
g89
g90
ssg71
g1935
sg64
(lp1947
S':'
asbag57
(g78
g59
NtRp1948
(dp1949
g62
(dp1950
sg71
g1935
sg64
(lp1951
g57
(g58
g59
NtRp1952
(dp1953
g62
(dp1954
g70
I4
ssg71
g1948
sg64
(lp1955
S'<socket._fileobject object at 0x7fc18c074850>'
p1956
asbasbasbag57
(g73
g59
NtRp1957
(dp1958
g62
(dp1959
sg71
g1033
sg64
(lp1960
g57
(g78
g59
NtRp1961
(dp1962
g62
(dp1963
g82
g83
ssg71
g1957
sg64
(lp1964
S'wsgi_multiprocess'
p1965
asbag57
(g78
g59
NtRp1966
(dp1967
g62
(dp1968
g89
g90
ssg71
g1957
sg64
(lp1969
S':'
asbag57
(g78
g59
NtRp1970
(dp1971
g62
(dp1972
sg71
g1957
sg64
(lp1973
g57
(g58
g59
NtRp1974
(dp1975
g62
(dp1976
g70
I4
ssg71
g1970
sg64
(lp1977
g100
asbasbasbag57
(g73
g59
NtRp1978
(dp1979
g62
(dp1980
sg71
g1033
sg64
(lp1981
g57
(g78
g59
NtRp1982
(dp1983
g62
(dp1984
g82
g83
ssg71
g1978
sg64
(lp1985
S'wsgi_multithread'
p1986
asbag57
(g78
g59
NtRp1987
(dp1988
g62
(dp1989
g89
g90
ssg71
g1978
sg64
(lp1990
S':'
asbag57
(g78
g59
NtRp1991
(dp1992
g62
(dp1993
sg71
g1978
sg64
(lp1994
g57
(g58
g59
NtRp1995
(dp1996
g62
(dp1997
g70
I4
ssg71
g1991
sg64
(lp1998
S'True'
p1999
asbasbasbag57
(g73
g59
NtRp2000
(dp2001
g62
(dp2002
sg71
g1033
sg64
(lp2003
g57
(g78
g59
NtRp2004
(dp2005
g62
(dp2006
g82
g83
ssg71
g2000
sg64
(lp2007
S'wsgi_run_once'
p2008
asbag57
(g78
g59
NtRp2009
(dp2010
g62
(dp2011
g89
g90
ssg71
g2000
sg64
(lp2012
S':'
asbag57
(g78
g59
NtRp2013
(dp2014
g62
(dp2015
sg71
g2000
sg64
(lp2016
g57
(g58
g59
NtRp2017
(dp2018
g62
(dp2019
g70
I4
ssg71
g2013
sg64
(lp2020
g100
asbasbasbag57
(g73
g59
NtRp2021
(dp2022
g62
(dp2023
sg71
g1033
sg64
(lp2024
g57
(g78
g59
NtRp2025
(dp2026
g62
(dp2027
g82
g83
ssg71
g2021
sg64
(lp2028
S'wsgi_url_scheme'
p2029
asbag57
(g78
g59
NtRp2030
(dp2031
g62
(dp2032
g89
g90
ssg71
g2021
sg64
(lp2033
S':'
asbag57
(g78
g59
NtRp2034
(dp2035
g62
(dp2036
sg71
g2021
sg64
(lp2037
g57
(g58
g59
NtRp2038
(dp2039
g62
(dp2040
g70
I4
ssg71
g2034
sg64
(lp2041
S'http'
p2042
asbasbasbag57
(g73
g59
NtRp2043
(dp2044
g62
(dp2045
sg71
g1033
sg64
(lp2046
g57
(g78
g59
NtRp2047
(dp2048
g62
(dp2049
g82
g83
ssg71
g2043
sg64
(lp2050
S'wsgi_version'
p2051
asbag57
(g78
g59
NtRp2052
(dp2053
g62
(dp2054
g89
g90
ssg71
g2043
sg64
(lp2055
S':'
asbag57
(g78
g59
NtRp2056
(dp2057
g62
(dp2058
sg71
g2043
sg64
(lp2059
g57
(g58
g59
NtRp2060
(dp2061
g62
(dp2062
g70
I4
ssg71
g2056
sg64
(lp2063
g57
(g66
g59
NtRp2064
(dp2065
g62
(dp2066
g70
I3
ssg71
Nsg64
(lp2067
g57
(g73
g59
NtRp2068
(dp2069
g62
(dp2070
sg71
g2064
sg64
(lp2071
g57
(g78
g59
NtRp2072
(dp2073
g62
(dp2074
sg71
g2068
sg64
(lp2075
g57
(g58
g59
NtRp2076
(dp2077
g62
(dp2078
g70
I3
ssg71
g2072
sg64
(lp2079
S'1'
asbasbasbag57
(g73
g59
NtRp2080
(dp2081
g62
(dp2082
sg71
g2064
sg64
(lp2083
g57
(g78
g59
NtRp2084
(dp2085
g62
(dp2086
sg71
g2080
sg64
(lp2087
g57
(g58
g59
NtRp2088
(dp2089
g62
(dp2090
g70
I3
ssg71
g2084
sg64
(lp2091
S'0'
asbasbasbasbasbasbasbasbasbasbasbag57
(g73
g59
NtRp2092
(dp2093
g62
(dp2094
sg71
g67
sg64
(lp2095
g57
(g78
g59
NtRp2096
(dp2097
g62
(dp2098
g82
g83
ssg71
g2092
sg64
(lp2099
S'extension'
p2100
asbag57
(g78
g59
NtRp2101
(dp2102
g62
(dp2103
g89
g90
ssg71
g2092
sg64
(lp2104
S':'
asbag57
(g78
g59
NtRp2105
(dp2106
g62
(dp2107
sg71
g2092
sg64
(lp2108
g57
(g58
g59
NtRp2109
(dp2110
g62
(dp2111
g70
I5
ssg71
g2105
sg64
(lp2112
S'html'
p2113
asbasbasbag57
(g73
g59
NtRp2114
(dp2115
g62
(dp2116
sg71
g67
sg64
(lp2117
g57
(g78
g59
NtRp2118
(dp2119
g62
(dp2120
g82
g83
ssg71
g2114
sg64
(lp2121
S'folder'
p2122
asbag57
(g78
g59
NtRp2123
(dp2124
g62
(dp2125
g89
g90
ssg71
g2114
sg64
(lp2126
S':'
asbag57
(g78
g59
NtRp2127
(dp2128
g62
(dp2129
sg71
g2114
sg64
(lp2130
g57
(g58
g59
NtRp2131
(dp2132
g62
(dp2133
g70
I5
ssg71
g2127
sg64
(lp2134
S'/home/adrian/web2py/applications/CygnusCloud/'
p2135
asbasbasbag57
(g73
g59
NtRp2136
(dp2137
g62
(dp2138
sg71
g67
sg64
(lp2139
g57
(g78
g59
NtRp2140
(dp2141
g62
(dp2142
g82
g83
ssg71
g2136
sg64
(lp2143
S'function'
p2144
asbag57
(g78
g59
NtRp2145
(dp2146
g62
(dp2147
g89
g90
ssg71
g2136
sg64
(lp2148
S':'
asbag57
(g78
g59
NtRp2149
(dp2150
g62
(dp2151
sg71
g2136
sg64
(lp2152
g57
(g58
g59
NtRp2153
(dp2154
g62
(dp2155
g70
I5
ssg71
g2149
sg64
(lp2156
S'runVM'
p2157
asbasbasbag57
(g73
g59
NtRp2158
(dp2159
g62
(dp2160
sg71
g67
sg64
(lp2161
g57
(g78
g59
NtRp2162
(dp2163
g62
(dp2164
g82
g83
ssg71
g2158
sg64
(lp2165
S'get_vars'
p2166
asbag57
(g78
g59
NtRp2167
(dp2168
g62
(dp2169
g89
g90
ssg71
g2158
sg64
(lp2170
S':'
asbag57
(g78
g59
NtRp2171
(dp2172
g62
(dp2173
sg71
g2158
sg64
(lp2174
g57
(g58
g59
NtRp2175
(dp2176
g62
(dp2177
g70
I5
ssg71
g2171
sg64
(lp2178
g57
(g66
g59
NtRp2179
(dp2180
g62
(dp2181
g70
I4
ssg71
Nsg64
(lp2182
sbasbasbasbag57
(g73
g59
NtRp2183
(dp2184
g62
(dp2185
sg71
g67
sg64
(lp2186
g57
(g78
g59
NtRp2187
(dp2188
g62
(dp2189
g82
g83
ssg71
g2183
sg64
(lp2190
S'global_settings'
p2191
asbag57
(g78
g59
NtRp2192
(dp2193
g62
(dp2194
g89
g90
ssg71
g2183
sg64
(lp2195
S':'
asbag57
(g78
g59
NtRp2196
(dp2197
g62
(dp2198
sg71
g2183
sg64
(lp2199
g57
(g58
g59
NtRp2200
(dp2201
g62
(dp2202
g70
I5
ssg71
g2196
sg64
(lp2203
g57
(g66
g59
NtRp2204
(dp2205
g62
(dp2206
g70
I4
ssg71
Nsg64
(lp2207
g57
(g73
g59
NtRp2208
(dp2209
g62
(dp2210
sg71
g2204
sg64
(lp2211
g57
(g78
g59
NtRp2212
(dp2213
g62
(dp2214
g82
g83
ssg71
g2208
sg64
(lp2215
g1045
asbag57
(g78
g59
NtRp2216
(dp2217
g62
(dp2218
g89
g90
ssg71
g2208
sg64
(lp2219
S':'
asbag57
(g78
g59
NtRp2220
(dp2221
g62
(dp2222
sg71
g2208
sg64
(lp2223
g57
(g58
g59
NtRp2224
(dp2225
g62
(dp2226
g70
I4
ssg71
g2220
sg64
(lp2227
S"set(['/home/adrian/web2py/applications/admin/', '/home/adrian/web2py/applications/welcome/', '/home/adrian/web2py/applications/examples/', '/home/adrian/web2py/applications/mywiki/', '/home/adrian/web2py/applications/CygnusCloud/'])"
p2228
asbasbasbag57
(g73
g59
NtRp2229
(dp2230
g62
(dp2231
sg71
g2204
sg64
(lp2232
g57
(g78
g59
NtRp2233
(dp2234
g62
(dp2235
g82
g83
ssg71
g2229
sg64
(lp2236
g1067
asbag57
(g78
g59
NtRp2237
(dp2238
g62
(dp2239
g89
g90
ssg71
g2229
sg64
(lp2240
S':'
asbag57
(g78
g59
NtRp2241
(dp2242
g62
(dp2243
sg71
g2229
sg64
(lp2244
g57
(g58
g59
NtRp2245
(dp2246
g62
(dp2247
g70
I4
ssg71
g2241
sg64
(lp2248
g1080
asbasbasbag57
(g73
g59
NtRp2249
(dp2250
g62
(dp2251
sg71
g2204
sg64
(lp2252
g57
(g78
g59
NtRp2253
(dp2254
g62
(dp2255
g82
g83
ssg71
g2249
sg64
(lp2256
g1089
asbag57
(g78
g59
NtRp2257
(dp2258
g62
(dp2259
g89
g90
ssg71
g2249
sg64
(lp2260
S':'
asbag57
(g78
g59
NtRp2261
(dp2262
g62
(dp2263
sg71
g2249
sg64
(lp2264
g57
(g58
g59
NtRp2265
(dp2266
g62
(dp2267
g70
I4
ssg71
g2261
sg64
(lp2268
g57
(g66
g59
NtRp2269
(dp2270
g62
(dp2271
g70
I3
ssg71
Nsg64
(lp2272
sbasbasbasbag57
(g73
g59
NtRp2273
(dp2274
g62
(dp2275
sg71
g2204
sg64
(lp2276
g57
(g78
g59
NtRp2277
(dp2278
g62
(dp2279
g82
g83
ssg71
g2273
sg64
(lp2280
g1114
asbag57
(g78
g59
NtRp2281
(dp2282
g62
(dp2283
g89
g90
ssg71
g2273
sg64
(lp2284
S':'
asbag57
(g78
g59
NtRp2285
(dp2286
g62
(dp2287
sg71
g2273
sg64
(lp2288
g57
(g58
g59
NtRp2289
(dp2290
g62
(dp2291
g70
I4
ssg71
g2285
sg64
(lp2292
S"<Values at 0x1e95bd8: {'verbose': False, 'ip': '127.0.0.1', 'with_scheduler': False, 'ips': [], 'shutdown_timeout': 5, 'taskbar': False, 'port': 8000, 'maxthreads': None, 'softcron': False, 'server_name': 'adri-EasyNote', 'bpython': False, 'nogui': False, 'pid_filename': 'httpserver.pid', 'extcron': False, 'runcron': False, 'run_system_tests': False, 'test': None, 'folder': '/home/adrian/web2py', 'config': '', 'minthreads': None, 'winservice': '', 'shell': None, 'run': '', 'log_filename': 'httpserver.log', 'debuglevel': 30, 'args': [''], 'socket_timeout': 5, 'ssl_ca_certificate': None, 'scheduler': None, 'profiler_filename': None, 'ssl_private_key': '', 'scheduler_groups': None, 'password': 'cygnuscloud2012', 'request_queue_size': 5, 'ssl_certificate': '', 'cronjob': False, 'numthreads': None, 'quiet': False, 'interfaces': None, 'import_models': False, 'timeout': 10, 'plain': False, 'nobanner': False}>"
p2293
asbasbasbag57
(g73
g59
NtRp2294
(dp2295
g62
(dp2296
sg71
g2204
sg64
(lp2297
g57
(g78
g59
NtRp2298
(dp2299
g62
(dp2300
g82
g83
ssg71
g2294
sg64
(lp2301
g1136
asbag57
(g78
g59
NtRp2302
(dp2303
g62
(dp2304
g89
g90
ssg71
g2294
sg64
(lp2305
S':'
asbag57
(g78
g59
NtRp2306
(dp2307
g62
(dp2308
sg71
g2294
sg64
(lp2309
g57
(g58
g59
NtRp2310
(dp2311
g62
(dp2312
g70
I4
ssg71
g2306
sg64
(lp2313
S'set([])'
p2314
asbasbasbag57
(g73
g59
NtRp2315
(dp2316
g62
(dp2317
sg71
g2204
sg64
(lp2318
g57
(g78
g59
NtRp2319
(dp2320
g62
(dp2321
g82
g83
ssg71
g2315
sg64
(lp2322
g1158
asbag57
(g78
g59
NtRp2323
(dp2324
g62
(dp2325
g89
g90
ssg71
g2315
sg64
(lp2326
S':'
asbag57
(g78
g59
NtRp2327
(dp2328
g62
(dp2329
sg71
g2315
sg64
(lp2330
g57
(g58
g59
NtRp2331
(dp2332
g62
(dp2333
g70
I4
ssg71
g2327
sg64
(lp2334
g100
asbasbasbag57
(g73
g59
NtRp2335
(dp2336
g62
(dp2337
sg71
g2204
sg64
(lp2338
g57
(g78
g59
NtRp2339
(dp2340
g62
(dp2341
g82
g83
ssg71
g2335
sg64
(lp2342
g1179
asbag57
(g78
g59
NtRp2343
(dp2344
g62
(dp2345
g89
g90
ssg71
g2335
sg64
(lp2346
S':'
asbag57
(g78
g59
NtRp2347
(dp2348
g62
(dp2349
sg71
g2335
sg64
(lp2350
g57
(g58
g59
NtRp2351
(dp2352
g62
(dp2353
g70
I4
ssg71
g2347
sg64
(lp2354
g1192
asbasbasbag57
(g73
g59
NtRp2355
(dp2356
g62
(dp2357
sg71
g2204
sg64
(lp2358
g57
(g78
g59
NtRp2359
(dp2360
g62
(dp2361
g82
g83
ssg71
g2355
sg64
(lp2362
g1421
asbag57
(g78
g59
NtRp2363
(dp2364
g62
(dp2365
g89
g90
ssg71
g2355
sg64
(lp2366
S':'
asbag57
(g78
g59
NtRp2367
(dp2368
g62
(dp2369
sg71
g2355
sg64
(lp2370
g57
(g58
g59
NtRp2371
(dp2372
g62
(dp2373
g70
I4
ssg71
g2367
sg64
(lp2374
g100
asbasbasbag57
(g73
g59
NtRp2375
(dp2376
g62
(dp2377
sg71
g2204
sg64
(lp2378
g57
(g78
g59
NtRp2379
(dp2380
g62
(dp2381
g82
g83
ssg71
g2375
sg64
(lp2382
g1442
asbag57
(g78
g59
NtRp2383
(dp2384
g62
(dp2385
g89
g90
ssg71
g2375
sg64
(lp2386
S':'
asbag57
(g78
g59
NtRp2387
(dp2388
g62
(dp2389
sg71
g2375
sg64
(lp2390
g57
(g58
g59
NtRp2391
(dp2392
g62
(dp2393
g70
I4
ssg71
g2387
sg64
(lp2394
g100
asbasbasbag57
(g73
g59
NtRp2395
(dp2396
g62
(dp2397
sg71
g2204
sg64
(lp2398
g57
(g78
g59
NtRp2399
(dp2400
g62
(dp2401
g82
g83
ssg71
g2395
sg64
(lp2402
g1463
asbag57
(g78
g59
NtRp2403
(dp2404
g62
(dp2405
g89
g90
ssg71
g2395
sg64
(lp2406
S':'
asbag57
(g78
g59
NtRp2407
(dp2408
g62
(dp2409
sg71
g2395
sg64
(lp2410
g57
(g58
g59
NtRp2411
(dp2412
g62
(dp2413
g70
I4
ssg71
g2407
sg64
(lp2414
g57
(g66
g59
NtRp2415
(dp2416
g62
(dp2417
g70
I3
ssg71
Nsg64
(lp2418
g57
(g73
g59
NtRp2419
(dp2420
g62
(dp2421
sg71
g2415
sg64
(lp2422
g57
(g78
g59
NtRp2423
(dp2424
g62
(dp2425
sg71
g2419
sg64
(lp2426
g57
(g58
g59
NtRp2427
(dp2428
g62
(dp2429
g70
I3
ssg71
g2423
sg64
(lp2430
g1492
asbasbasbag57
(g73
g59
NtRp2431
(dp2432
g62
(dp2433
sg71
g2415
sg64
(lp2434
g57
(g78
g59
NtRp2435
(dp2436
g62
(dp2437
sg71
g2431
sg64
(lp2438
g57
(g58
g59
NtRp2439
(dp2440
g62
(dp2441
g70
I3
ssg71
g2435
sg64
(lp2442
g1505
asbasbasbag57
(g73
g59
NtRp2443
(dp2444
g62
(dp2445
sg71
g2415
sg64
(lp2446
g57
(g78
g59
NtRp2447
(dp2448
g62
(dp2449
sg71
g2443
sg64
(lp2450
g57
(g58
g59
NtRp2451
(dp2452
g62
(dp2453
g70
I3
ssg71
g2447
sg64
(lp2454
g1518
asbasbasbag57
(g73
g59
NtRp2455
(dp2456
g62
(dp2457
sg71
g2415
sg64
(lp2458
g57
(g78
g59
NtRp2459
(dp2460
g62
(dp2461
sg71
g2455
sg64
(lp2462
g57
(g58
g59
NtRp2463
(dp2464
g62
(dp2465
g70
I3
ssg71
g2459
sg64
(lp2466
g1531
asbasbasbag57
(g73
g59
NtRp2467
(dp2468
g62
(dp2469
sg71
g2415
sg64
(lp2470
g57
(g78
g59
NtRp2471
(dp2472
g62
(dp2473
sg71
g2467
sg64
(lp2474
g57
(g58
g59
NtRp2475
(dp2476
g62
(dp2477
g70
I3
ssg71
g2471
sg64
(lp2478
g1544
asbasbasbasbasbasbasbag57
(g73
g59
NtRp2479
(dp2480
g62
(dp2481
sg71
g2204
sg64
(lp2482
g57
(g78
g59
NtRp2483
(dp2484
g62
(dp2485
g82
g83
ssg71
g2479
sg64
(lp2486
g1812
asbag57
(g78
g59
NtRp2487
(dp2488
g62
(dp2489
g89
g90
ssg71
g2479
sg64
(lp2490
S':'
asbag57
(g78
g59
NtRp2491
(dp2492
g62
(dp2493
sg71
g2479
sg64
(lp2494
g57
(g58
g59
NtRp2495
(dp2496
g62
(dp2497
g70
I4
ssg71
g2491
sg64
(lp2498
g57
(g66
g59
NtRp2499
(dp2500
g62
(dp2501
g70
I3
ssg71
Nsg64
(lp2502
g57
(g73
g59
NtRp2503
(dp2504
g62
(dp2505
sg71
g2499
sg64
(lp2506
g57
(g78
g59
NtRp2507
(dp2508
g62
(dp2509
sg71
g2503
sg64
(lp2510
g57
(g58
g59
NtRp2511
(dp2512
g62
(dp2513
g70
I3
ssg71
g2507
sg64
(lp2514
S'2'
asbasbasbag57
(g73
g59
NtRp2515
(dp2516
g62
(dp2517
sg71
g2499
sg64
(lp2518
g57
(g78
g59
NtRp2519
(dp2520
g62
(dp2521
sg71
g2515
sg64
(lp2522
g57
(g58
g59
NtRp2523
(dp2524
g62
(dp2525
g70
I3
ssg71
g2519
sg64
(lp2526
S'3'
asbasbasbag57
(g73
g59
NtRp2527
(dp2528
g62
(dp2529
sg71
g2499
sg64
(lp2530
g57
(g78
g59
NtRp2531
(dp2532
g62
(dp2533
sg71
g2527
sg64
(lp2534
g57
(g58
g59
NtRp2535
(dp2536
g62
(dp2537
g70
I3
ssg71
g2531
sg64
(lp2538
S'2'
asbasbasbag57
(g73
g59
NtRp2539
(dp2540
g62
(dp2541
sg71
g2499
sg64
(lp2542
g57
(g78
g59
NtRp2543
(dp2544
g62
(dp2545
sg71
g2539
sg64
(lp2546
g57
(g58
g59
NtRp2547
(dp2548
g62
(dp2549
g70
I3
ssg71
g2543
sg64
(lp2550
S'datetime.datetime(2012, 12, 17, 15, 3, 30)'
p2551
asbasbasbag57
(g73
g59
NtRp2552
(dp2553
g62
(dp2554
sg71
g2499
sg64
(lp2555
g57
(g78
g59
NtRp2556
(dp2557
g62
(dp2558
sg71
g2552
sg64
(lp2559
g57
(g58
g59
NtRp2560
(dp2561
g62
(dp2562
g70
I3
ssg71
g2556
sg64
(lp2563
g1890
asbasbasbasbasbasbasbasbasbasbasbag57
(g73
g59
NtRp2564
(dp2565
g62
(dp2566
sg71
g67
sg64
(lp2567
g57
(g78
g59
NtRp2568
(dp2569
g62
(dp2570
g82
g83
ssg71
g2564
sg64
(lp2571
S'is_https'
p2572
asbag57
(g78
g59
NtRp2573
(dp2574
g62
(dp2575
g89
g90
ssg71
g2564
sg64
(lp2576
S':'
asbag57
(g78
g59
NtRp2577
(dp2578
g62
(dp2579
sg71
g2564
sg64
(lp2580
g57
(g58
g59
NtRp2581
(dp2582
g62
(dp2583
g70
I5
ssg71
g2577
sg64
(lp2584
g100
asbasbasbag57
(g73
g59
NtRp2585
(dp2586
g62
(dp2587
sg71
g67
sg64
(lp2588
g57
(g78
g59
NtRp2589
(dp2590
g62
(dp2591
g82
g83
ssg71
g2585
sg64
(lp2592
S'is_local'
p2593
asbag57
(g78
g59
NtRp2594
(dp2595
g62
(dp2596
g89
g90
ssg71
g2585
sg64
(lp2597
S':'
asbag57
(g78
g59
NtRp2598
(dp2599
g62
(dp2600
sg71
g2585
sg64
(lp2601
g57
(g58
g59
NtRp2602
(dp2603
g62
(dp2604
g70
I5
ssg71
g2598
sg64
(lp2605
g1999
asbasbasbag57
(g73
g59
NtRp2606
(dp2607
g62
(dp2608
sg71
g67
sg64
(lp2609
g57
(g78
g59
NtRp2610
(dp2611
g62
(dp2612
g82
g83
ssg71
g2606
sg64
(lp2613
S'is_restful'
p2614
asbag57
(g78
g59
NtRp2615
(dp2616
g62
(dp2617
g89
g90
ssg71
g2606
sg64
(lp2618
S':'
asbag57
(g78
g59
NtRp2619
(dp2620
g62
(dp2621
sg71
g2606
sg64
(lp2622
g57
(g58
g59
NtRp2623
(dp2624
g62
(dp2625
g70
I5
ssg71
g2619
sg64
(lp2626
g100
asbasbasbag57
(g73
g59
NtRp2627
(dp2628
g62
(dp2629
sg71
g67
sg64
(lp2630
g57
(g78
g59
NtRp2631
(dp2632
g62
(dp2633
g82
g83
ssg71
g2627
sg64
(lp2634
S'now'
p2635
asbag57
(g78
g59
NtRp2636
(dp2637
g62
(dp2638
g89
g90
ssg71
g2627
sg64
(lp2639
S':'
asbag57
(g78
g59
NtRp2640
(dp2641
g62
(dp2642
sg71
g2627
sg64
(lp2643
g57
(g58
g59
NtRp2644
(dp2645
g62
(dp2646
g70
I5
ssg71
g2640
sg64
(lp2647
S'datetime.datetime(2013, 2, 6, 20, 18, 20, 439177)'
p2648
asbasbasbag57
(g73
g59
NtRp2649
(dp2650
g62
(dp2651
sg71
g67
sg64
(lp2652
g57
(g78
g59
NtRp2653
(dp2654
g62
(dp2655
g82
g83
ssg71
g2649
sg64
(lp2656
S'post_vars'
p2657
asbag57
(g78
g59
NtRp2658
(dp2659
g62
(dp2660
g89
g90
ssg71
g2649
sg64
(lp2661
S':'
asbag57
(g78
g59
NtRp2662
(dp2663
g62
(dp2664
sg71
g2649
sg64
(lp2665
g57
(g58
g59
NtRp2666
(dp2667
g62
(dp2668
g70
I5
ssg71
g2662
sg64
(lp2669
g57
(g66
g59
NtRp2670
(dp2671
g62
(dp2672
g70
I4
ssg71
Nsg64
(lp2673
sbasbasbasbag57
(g73
g59
NtRp2674
(dp2675
g62
(dp2676
sg71
g67
sg64
(lp2677
g57
(g78
g59
NtRp2678
(dp2679
g62
(dp2680
g82
g83
ssg71
g2674
sg64
(lp2681
S'raw_args'
p2682
asbag57
(g78
g59
NtRp2683
(dp2684
g62
(dp2685
g89
g90
ssg71
g2674
sg64
(lp2686
S':'
asbag57
(g78
g59
NtRp2687
(dp2688
g62
(dp2689
sg71
g2674
sg64
(lp2690
g57
(g58
g59
NtRp2691
(dp2692
g62
(dp2693
g70
I5
ssg71
g2687
sg64
(lp2694
S''
asbasbasbag57
(g73
g59
NtRp2695
(dp2696
g62
(dp2697
sg71
g67
sg64
(lp2698
g57
(g78
g59
NtRp2699
(dp2700
g62
(dp2701
g82
g83
ssg71
g2695
sg64
(lp2702
S'raw_extension'
p2703
asbag57
(g78
g59
NtRp2704
(dp2705
g62
(dp2706
g89
g90
ssg71
g2695
sg64
(lp2707
S':'
asbag57
(g78
g59
NtRp2708
(dp2709
g62
(dp2710
sg71
g2695
sg64
(lp2711
g57
(g58
g59
NtRp2712
(dp2713
g62
(dp2714
g70
I5
ssg71
g2708
sg64
(lp2715
S'None'
p2716
asbasbasbag57
(g73
g59
NtRp2717
(dp2718
g62
(dp2719
sg71
g67
sg64
(lp2720
g57
(g78
g59
NtRp2721
(dp2722
g62
(dp2723
g82
g83
ssg71
g2717
sg64
(lp2724
S'url'
p2725
asbag57
(g78
g59
NtRp2726
(dp2727
g62
(dp2728
g89
g90
ssg71
g2717
sg64
(lp2729
S':'
asbag57
(g78
g59
NtRp2730
(dp2731
g62
(dp2732
sg71
g2717
sg64
(lp2733
g57
(g58
g59
NtRp2734
(dp2735
g62
(dp2736
g70
I5
ssg71
g2730
sg64
(lp2737
g1566
asbasbasbag57
(g73
g59
NtRp2738
(dp2739
g62
(dp2740
sg71
g67
sg64
(lp2741
g57
(g78
g59
NtRp2742
(dp2743
g62
(dp2744
g82
g83
ssg71
g2738
sg64
(lp2745
S'utcnow'
p2746
asbag57
(g78
g59
NtRp2747
(dp2748
g62
(dp2749
g89
g90
ssg71
g2738
sg64
(lp2750
S':'
asbag57
(g78
g59
NtRp2751
(dp2752
g62
(dp2753
sg71
g2738
sg64
(lp2754
g57
(g58
g59
NtRp2755
(dp2756
g62
(dp2757
g70
I5
ssg71
g2751
sg64
(lp2758
S'datetime.datetime(2013, 2, 6, 19, 18, 20, 439225)'
p2759
asbasbasbag57
(g73
g59
NtRp2760
(dp2761
g62
(dp2762
sg71
g67
sg64
(lp2763
g57
(g78
g59
NtRp2764
(dp2765
g62
(dp2766
g82
g83
ssg71
g2760
sg64
(lp2767
S'uuid'
p2768
asbag57
(g78
g59
NtRp2769
(dp2770
g62
(dp2771
g89
g90
ssg71
g2760
sg64
(lp2772
S':'
asbag57
(g78
g59
NtRp2773
(dp2774
g62
(dp2775
sg71
g2760
sg64
(lp2776
g57
(g58
g59
NtRp2777
(dp2778
g62
(dp2779
g70
I5
ssg71
g2773
sg64
(lp2780
S'CygnusCloud/127.0.0.1.2013-02-06.20-18-20.026b8ec9-2665-43fd-9919-23b5fa3db86f'
p2781
asbasbasbag57
(g73
g59
NtRp2782
(dp2783
g62
(dp2784
sg71
g67
sg64
(lp2785
g57
(g78
g59
NtRp2786
(dp2787
g62
(dp2788
g82
g83
ssg71
g2782
sg64
(lp2789
S'vars'
p2790
asbag57
(g78
g59
NtRp2791
(dp2792
g62
(dp2793
g89
g90
ssg71
g2782
sg64
(lp2794
S':'
asbag57
(g78
g59
NtRp2795
(dp2796
g62
(dp2797
sg71
g2782
sg64
(lp2798
g57
(g58
g59
NtRp2799
(dp2800
g62
(dp2801
g70
I5
ssg71
g2795
sg64
(lp2802
g57
(g66
g59
NtRp2803
(dp2804
g62
(dp2805
g70
I4
ssg71
Nsg64
(lp2806
sbasbasbasbag57
(g73
g59
NtRp2807
(dp2808
g62
(dp2809
sg71
g67
sg64
(lp2810
g57
(g78
g59
NtRp2811
(dp2812
g62
(dp2813
g82
g83
ssg71
g2807
sg64
(lp2814
S'wsgi'
p2815
asbag57
(g78
g59
NtRp2816
(dp2817
g62
(dp2818
g89
g90
ssg71
g2807
sg64
(lp2819
S':'
asbag57
(g78
g59
NtRp2820
(dp2821
g62
(dp2822
sg71
g2807
sg64
(lp2823
g57
(g58
g59
NtRp2824
(dp2825
g62
(dp2826
g70
I5
ssg71
g2820
sg64
(lp2827
g57
(g66
g59
NtRp2828
(dp2829
g62
(dp2830
g70
I4
ssg71
Nsg64
(lp2831
g57
(g73
g59
NtRp2832
(dp2833
g62
(dp2834
sg71
g2828
sg64
(lp2835
g57
(g78
g59
NtRp2836
(dp2837
g62
(dp2838
g82
g83
ssg71
g2832
sg64
(lp2839
S'environ'
p2840
asbag57
(g78
g59
NtRp2841
(dp2842
g62
(dp2843
g89
g90
ssg71
g2832
sg64
(lp2844
S':'
asbag57
(g78
g59
NtRp2845
(dp2846
g62
(dp2847
sg71
g2832
sg64
(lp2848
g57
(g58
g59
NtRp2849
(dp2850
g62
(dp2851
g70
I4
ssg71
g2845
sg64
(lp2852
g57
(g66
g59
NtRp2853
(dp2854
g62
(dp2855
g70
I3
ssg71
Nsg64
(lp2856
g57
(g73
g59
NtRp2857
(dp2858
g62
(dp2859
sg71
g2853
sg64
(lp2860
g57
(g78
g59
NtRp2861
(dp2862
g62
(dp2863
g82
g83
ssg71
g2857
sg64
(lp2864
S'HTTP_ACCEPT'
p2865
asbag57
(g78
g59
NtRp2866
(dp2867
g62
(dp2868
g89
g90
ssg71
g2857
sg64
(lp2869
S':'
asbag57
(g78
g59
NtRp2870
(dp2871
g62
(dp2872
sg71
g2857
sg64
(lp2873
g57
(g58
g59
NtRp2874
(dp2875
g62
(dp2876
g70
I3
ssg71
g2870
sg64
(lp2877
g1214
asbasbasbag57
(g73
g59
NtRp2878
(dp2879
g62
(dp2880
sg71
g2853
sg64
(lp2881
g57
(g78
g59
NtRp2882
(dp2883
g62
(dp2884
g82
g83
ssg71
g2878
sg64
(lp2885
S'HTTP_ACCEPT_CHARSET'
p2886
asbag57
(g78
g59
NtRp2887
(dp2888
g62
(dp2889
g89
g90
ssg71
g2878
sg64
(lp2890
S':'
asbag57
(g78
g59
NtRp2891
(dp2892
g62
(dp2893
sg71
g2878
sg64
(lp2894
g57
(g58
g59
NtRp2895
(dp2896
g62
(dp2897
g70
I3
ssg71
g2891
sg64
(lp2898
g1236
asbasbasbag57
(g73
g59
NtRp2899
(dp2900
g62
(dp2901
sg71
g2853
sg64
(lp2902
g57
(g78
g59
NtRp2903
(dp2904
g62
(dp2905
g82
g83
ssg71
g2899
sg64
(lp2906
S'HTTP_ACCEPT_ENCODING'
p2907
asbag57
(g78
g59
NtRp2908
(dp2909
g62
(dp2910
g89
g90
ssg71
g2899
sg64
(lp2911
S':'
asbag57
(g78
g59
NtRp2912
(dp2913
g62
(dp2914
sg71
g2899
sg64
(lp2915
g57
(g58
g59
NtRp2916
(dp2917
g62
(dp2918
g70
I3
ssg71
g2912
sg64
(lp2919
g1258
asbasbasbag57
(g73
g59
NtRp2920
(dp2921
g62
(dp2922
sg71
g2853
sg64
(lp2923
g57
(g78
g59
NtRp2924
(dp2925
g62
(dp2926
g82
g83
ssg71
g2920
sg64
(lp2927
S'HTTP_ACCEPT_LANGUAGE'
p2928
asbag57
(g78
g59
NtRp2929
(dp2930
g62
(dp2931
g89
g90
ssg71
g2920
sg64
(lp2932
S':'
asbag57
(g78
g59
NtRp2933
(dp2934
g62
(dp2935
sg71
g2920
sg64
(lp2936
g57
(g58
g59
NtRp2937
(dp2938
g62
(dp2939
g70
I3
ssg71
g2933
sg64
(lp2940
g1280
asbasbasbag57
(g73
g59
NtRp2941
(dp2942
g62
(dp2943
sg71
g2853
sg64
(lp2944
g57
(g78
g59
NtRp2945
(dp2946
g62
(dp2947
g82
g83
ssg71
g2941
sg64
(lp2948
S'HTTP_CACHE_CONTROL'
p2949
asbag57
(g78
g59
NtRp2950
(dp2951
g62
(dp2952
g89
g90
ssg71
g2941
sg64
(lp2953
S':'
asbag57
(g78
g59
NtRp2954
(dp2955
g62
(dp2956
sg71
g2941
sg64
(lp2957
g57
(g58
g59
NtRp2958
(dp2959
g62
(dp2960
g70
I3
ssg71
g2954
sg64
(lp2961
g1302
asbasbasbag57
(g73
g59
NtRp2962
(dp2963
g62
(dp2964
sg71
g2853
sg64
(lp2965
g57
(g78
g59
NtRp2966
(dp2967
g62
(dp2968
g82
g83
ssg71
g2962
sg64
(lp2969
S'HTTP_CONNECTION'
p2970
asbag57
(g78
g59
NtRp2971
(dp2972
g62
(dp2973
g89
g90
ssg71
g2962
sg64
(lp2974
S':'
asbag57
(g78
g59
NtRp2975
(dp2976
g62
(dp2977
sg71
g2962
sg64
(lp2978
g57
(g58
g59
NtRp2979
(dp2980
g62
(dp2981
g70
I3
ssg71
g2975
sg64
(lp2982
g1324
asbasbasbag57
(g73
g59
NtRp2983
(dp2984
g62
(dp2985
sg71
g2853
sg64
(lp2986
g57
(g78
g59
NtRp2987
(dp2988
g62
(dp2989
g82
g83
ssg71
g2983
sg64
(lp2990
S'HTTP_COOKIE'
p2991
asbag57
(g78
g59
NtRp2992
(dp2993
g62
(dp2994
g89
g90
ssg71
g2983
sg64
(lp2995
S':'
asbag57
(g78
g59
NtRp2996
(dp2997
g62
(dp2998
sg71
g2983
sg64
(lp2999
g57
(g58
g59
NtRp3000
(dp3001
g62
(dp3002
g70
I3
ssg71
g2996
sg64
(lp3003
g1346
asbasbasbag57
(g73
g59
NtRp3004
(dp3005
g62
(dp3006
sg71
g2853
sg64
(lp3007
g57
(g78
g59
NtRp3008
(dp3009
g62
(dp3010
g82
g83
ssg71
g3004
sg64
(lp3011
S'HTTP_HOST'
p3012
asbag57
(g78
g59
NtRp3013
(dp3014
g62
(dp3015
g89
g90
ssg71
g3004
sg64
(lp3016
S':'
asbag57
(g78
g59
NtRp3017
(dp3018
g62
(dp3019
sg71
g3004
sg64
(lp3020
g57
(g58
g59
NtRp3021
(dp3022
g62
(dp3023
g70
I3
ssg71
g3017
sg64
(lp3024
g1368
asbasbasbag57
(g73
g59
NtRp3025
(dp3026
g62
(dp3027
sg71
g2853
sg64
(lp3028
g57
(g78
g59
NtRp3029
(dp3030
g62
(dp3031
g82
g83
ssg71
g3025
sg64
(lp3032
S'HTTP_REFERER'
p3033
asbag57
(g78
g59
NtRp3034
(dp3035
g62
(dp3036
g89
g90
ssg71
g3025
sg64
(lp3037
S':'
asbag57
(g78
g59
NtRp3038
(dp3039
g62
(dp3040
sg71
g3025
sg64
(lp3041
g57
(g58
g59
NtRp3042
(dp3043
g62
(dp3044
g70
I3
ssg71
g3038
sg64
(lp3045
g1390
asbasbasbag57
(g73
g59
NtRp3046
(dp3047
g62
(dp3048
sg71
g2853
sg64
(lp3049
g57
(g78
g59
NtRp3050
(dp3051
g62
(dp3052
g82
g83
ssg71
g3046
sg64
(lp3053
S'HTTP_USER_AGENT'
p3054
asbag57
(g78
g59
NtRp3055
(dp3056
g62
(dp3057
g89
g90
ssg71
g3046
sg64
(lp3058
S':'
asbag57
(g78
g59
NtRp3059
(dp3060
g62
(dp3061
sg71
g3046
sg64
(lp3062
g57
(g58
g59
NtRp3063
(dp3064
g62
(dp3065
g70
I3
ssg71
g3059
sg64
(lp3066
g1412
asbasbasbag57
(g73
g59
NtRp3067
(dp3068
g62
(dp3069
sg71
g2853
sg64
(lp3070
g57
(g78
g59
NtRp3071
(dp3072
g62
(dp3073
g82
g83
ssg71
g3067
sg64
(lp3074
S'PATH_INFO'
p3075
asbag57
(g78
g59
NtRp3076
(dp3077
g62
(dp3078
g89
g90
ssg71
g3067
sg64
(lp3079
S':'
asbag57
(g78
g59
NtRp3080
(dp3081
g62
(dp3082
sg71
g3067
sg64
(lp3083
g57
(g58
g59
NtRp3084
(dp3085
g62
(dp3086
g70
I3
ssg71
g3080
sg64
(lp3087
g1566
asbasbasbag57
(g73
g59
NtRp3088
(dp3089
g62
(dp3090
sg71
g2853
sg64
(lp3091
g57
(g78
g59
NtRp3092
(dp3093
g62
(dp3094
g82
g83
ssg71
g3088
sg64
(lp3095
S'QUERY_STRING'
p3096
asbag57
(g78
g59
NtRp3097
(dp3098
g62
(dp3099
g89
g90
ssg71
g3088
sg64
(lp3100
S':'
asbag57
(g78
g59
NtRp3101
(dp3102
g62
(dp3103
sg71
g3088
sg64
(lp3104
g57
(g58
g59
NtRp3105
(dp3106
g62
(dp3107
g70
I3
ssg71
g3101
sg64
(lp3108
S''
asbasbasbag57
(g73
g59
NtRp3109
(dp3110
g62
(dp3111
sg71
g2853
sg64
(lp3112
g57
(g78
g59
NtRp3113
(dp3114
g62
(dp3115
g82
g83
ssg71
g3109
sg64
(lp3116
S'REMOTE_ADDR'
p3117
asbag57
(g78
g59
NtRp3118
(dp3119
g62
(dp3120
g89
g90
ssg71
g3109
sg64
(lp3121
S':'
asbag57
(g78
g59
NtRp3122
(dp3123
g62
(dp3124
sg71
g3109
sg64
(lp3125
g57
(g58
g59
NtRp3126
(dp3127
g62
(dp3128
g70
I3
ssg71
g3122
sg64
(lp3129
g212
asbasbasbag57
(g73
g59
NtRp3130
(dp3131
g62
(dp3132
sg71
g2853
sg64
(lp3133
g57
(g78
g59
NtRp3134
(dp3135
g62
(dp3136
g82
g83
ssg71
g3130
sg64
(lp3137
S'REMOTE_PORT'
p3138
asbag57
(g78
g59
NtRp3139
(dp3140
g62
(dp3141
g89
g90
ssg71
g3130
sg64
(lp3142
S':'
asbag57
(g78
g59
NtRp3143
(dp3144
g62
(dp3145
sg71
g3130
sg64
(lp3146
g57
(g58
g59
NtRp3147
(dp3148
g62
(dp3149
g70
I3
ssg71
g3143
sg64
(lp3150
g1630
asbasbasbag57
(g73
g59
NtRp3151
(dp3152
g62
(dp3153
sg71
g2853
sg64
(lp3154
g57
(g78
g59
NtRp3155
(dp3156
g62
(dp3157
g82
g83
ssg71
g3151
sg64
(lp3158
S'REQUEST_METHOD'
p3159
asbag57
(g78
g59
NtRp3160
(dp3161
g62
(dp3162
g89
g90
ssg71
g3151
sg64
(lp3163
S':'
asbag57
(g78
g59
NtRp3164
(dp3165
g62
(dp3166
sg71
g3151
sg64
(lp3167
g57
(g58
g59
NtRp3168
(dp3169
g62
(dp3170
g70
I3
ssg71
g3164
sg64
(lp3171
g1652
asbasbasbag57
(g73
g59
NtRp3172
(dp3173
g62
(dp3174
sg71
g2853
sg64
(lp3175
g57
(g78
g59
NtRp3176
(dp3177
g62
(dp3178
g82
g83
ssg71
g3172
sg64
(lp3179
S'REQUEST_URI'
p3180
asbag57
(g78
g59
NtRp3181
(dp3182
g62
(dp3183
g89
g90
ssg71
g3172
sg64
(lp3184
S':'
asbag57
(g78
g59
NtRp3185
(dp3186
g62
(dp3187
sg71
g3172
sg64
(lp3188
g57
(g58
g59
NtRp3189
(dp3190
g62
(dp3191
g70
I3
ssg71
g3185
sg64
(lp3192
g1566
asbasbasbag57
(g73
g59
NtRp3193
(dp3194
g62
(dp3195
sg71
g2853
sg64
(lp3196
g57
(g78
g59
NtRp3197
(dp3198
g62
(dp3199
g82
g83
ssg71
g3193
sg64
(lp3200
S'SCRIPT_NAME'
p3201
asbag57
(g78
g59
NtRp3202
(dp3203
g62
(dp3204
g89
g90
ssg71
g3193
sg64
(lp3205
S':'
asbag57
(g78
g59
NtRp3206
(dp3207
g62
(dp3208
sg71
g3193
sg64
(lp3209
g57
(g58
g59
NtRp3210
(dp3211
g62
(dp3212
g70
I3
ssg71
g3206
sg64
(lp3213
S''
asbasbasbag57
(g73
g59
NtRp3214
(dp3215
g62
(dp3216
sg71
g2853
sg64
(lp3217
g57
(g78
g59
NtRp3218
(dp3219
g62
(dp3220
g82
g83
ssg71
g3214
sg64
(lp3221
S'SERVER_NAME'
p3222
asbag57
(g78
g59
NtRp3223
(dp3224
g62
(dp3225
g89
g90
ssg71
g3214
sg64
(lp3226
S':'
asbag57
(g78
g59
NtRp3227
(dp3228
g62
(dp3229
sg71
g3214
sg64
(lp3230
g57
(g58
g59
NtRp3231
(dp3232
g62
(dp3233
g70
I3
ssg71
g3227
sg64
(lp3234
g1716
asbasbasbag57
(g73
g59
NtRp3235
(dp3236
g62
(dp3237
sg71
g2853
sg64
(lp3238
g57
(g78
g59
NtRp3239
(dp3240
g62
(dp3241
g82
g83
ssg71
g3235
sg64
(lp3242
S'SERVER_PORT'
p3243
asbag57
(g78
g59
NtRp3244
(dp3245
g62
(dp3246
g89
g90
ssg71
g3235
sg64
(lp3247
S':'
asbag57
(g78
g59
NtRp3248
(dp3249
g62
(dp3250
sg71
g3235
sg64
(lp3251
g57
(g58
g59
NtRp3252
(dp3253
g62
(dp3254
g70
I3
ssg71
g3248
sg64
(lp3255
g1738
asbasbasbag57
(g73
g59
NtRp3256
(dp3257
g62
(dp3258
sg71
g2853
sg64
(lp3259
g57
(g78
g59
NtRp3260
(dp3261
g62
(dp3262
g82
g83
ssg71
g3256
sg64
(lp3263
S'SERVER_PROTOCOL'
p3264
asbag57
(g78
g59
NtRp3265
(dp3266
g62
(dp3267
g89
g90
ssg71
g3256
sg64
(lp3268
S':'
asbag57
(g78
g59
NtRp3269
(dp3270
g62
(dp3271
sg71
g3256
sg64
(lp3272
g57
(g58
g59
NtRp3273
(dp3274
g62
(dp3275
g70
I3
ssg71
g3269
sg64
(lp3276
g1760
asbasbasbag57
(g73
g59
NtRp3277
(dp3278
g62
(dp3279
sg71
g2853
sg64
(lp3280
g57
(g78
g59
NtRp3281
(dp3282
g62
(dp3283
g82
g83
ssg71
g3277
sg64
(lp3284
S'SERVER_SOFTWARE'
p3285
asbag57
(g78
g59
NtRp3286
(dp3287
g62
(dp3288
g89
g90
ssg71
g3277
sg64
(lp3289
S':'
asbag57
(g78
g59
NtRp3290
(dp3291
g62
(dp3292
sg71
g3277
sg64
(lp3293
g57
(g58
g59
NtRp3294
(dp3295
g62
(dp3296
g70
I3
ssg71
g3290
sg64
(lp3297
g1782
asbasbasbag57
(g73
g59
NtRp3298
(dp3299
g62
(dp3300
sg71
g2853
sg64
(lp3301
g57
(g78
g59
NtRp3302
(dp3303
g62
(dp3304
g82
g83
ssg71
g3298
sg64
(lp3305
S'wsgi.errors'
p3306
asbag57
(g78
g59
NtRp3307
(dp3308
g62
(dp3309
g89
g90
ssg71
g3298
sg64
(lp3310
S':'
asbag57
(g78
g59
NtRp3311
(dp3312
g62
(dp3313
sg71
g3298
sg64
(lp3314
g57
(g58
g59
NtRp3315
(dp3316
g62
(dp3317
g70
I3
ssg71
g3311
sg64
(lp3318
S"<open file '<stderr>', mode 'w' at 0x7fc1a5585270>"
p3319
asbasbasbag57
(g73
g59
NtRp3320
(dp3321
g62
(dp3322
sg71
g2853
sg64
(lp3323
g57
(g78
g59
NtRp3324
(dp3325
g62
(dp3326
g82
g83
ssg71
g3320
sg64
(lp3327
S'wsgi.file_wrapper'
p3328
asbag57
(g78
g59
NtRp3329
(dp3330
g62
(dp3331
g89
g90
ssg71
g3320
sg64
(lp3332
S':'
asbag57
(g78
g59
NtRp3333
(dp3334
g62
(dp3335
sg71
g3320
sg64
(lp3336
g57
(g58
g59
NtRp3337
(dp3338
g62
(dp3339
g70
I3
ssg71
g3333
sg64
(lp3340
S'<class wsgiref.util.FileWrapper at 0x1dc9db8>'
p3341
asbasbasbag57
(g73
g59
NtRp3342
(dp3343
g62
(dp3344
sg71
g2853
sg64
(lp3345
g57
(g78
g59
NtRp3346
(dp3347
g62
(dp3348
g82
g83
ssg71
g3342
sg64
(lp3349
S'wsgi.input'
p3350
asbag57
(g78
g59
NtRp3351
(dp3352
g62
(dp3353
g89
g90
ssg71
g3342
sg64
(lp3354
S':'
asbag57
(g78
g59
NtRp3355
(dp3356
g62
(dp3357
sg71
g3342
sg64
(lp3358
g57
(g58
g59
NtRp3359
(dp3360
g62
(dp3361
g70
I3
ssg71
g3355
sg64
(lp3362
S'<cStringIO.StringO object at 0x7fc184454848>'
p3363
asbasbasbag57
(g73
g59
NtRp3364
(dp3365
g62
(dp3366
sg71
g2853
sg64
(lp3367
g57
(g78
g59
NtRp3368
(dp3369
g62
(dp3370
g82
g83
ssg71
g3364
sg64
(lp3371
S'wsgi.multiprocess'
p3372
asbag57
(g78
g59
NtRp3373
(dp3374
g62
(dp3375
g89
g90
ssg71
g3364
sg64
(lp3376
S':'
asbag57
(g78
g59
NtRp3377
(dp3378
g62
(dp3379
sg71
g3364
sg64
(lp3380
g57
(g58
g59
NtRp3381
(dp3382
g62
(dp3383
g70
I3
ssg71
g3377
sg64
(lp3384
g100
asbasbasbag57
(g73
g59
NtRp3385
(dp3386
g62
(dp3387
sg71
g2853
sg64
(lp3388
g57
(g78
g59
NtRp3389
(dp3390
g62
(dp3391
g82
g83
ssg71
g3385
sg64
(lp3392
S'wsgi.multithread'
p3393
asbag57
(g78
g59
NtRp3394
(dp3395
g62
(dp3396
g89
g90
ssg71
g3385
sg64
(lp3397
S':'
asbag57
(g78
g59
NtRp3398
(dp3399
g62
(dp3400
sg71
g3385
sg64
(lp3401
g57
(g58
g59
NtRp3402
(dp3403
g62
(dp3404
g70
I3
ssg71
g3398
sg64
(lp3405
g1999
asbasbasbag57
(g73
g59
NtRp3406
(dp3407
g62
(dp3408
sg71
g2853
sg64
(lp3409
g57
(g78
g59
NtRp3410
(dp3411
g62
(dp3412
g82
g83
ssg71
g3406
sg64
(lp3413
S'wsgi.run_once'
p3414
asbag57
(g78
g59
NtRp3415
(dp3416
g62
(dp3417
g89
g90
ssg71
g3406
sg64
(lp3418
S':'
asbag57
(g78
g59
NtRp3419
(dp3420
g62
(dp3421
sg71
g3406
sg64
(lp3422
g57
(g58
g59
NtRp3423
(dp3424
g62
(dp3425
g70
I3
ssg71
g3419
sg64
(lp3426
g100
asbasbasbag57
(g73
g59
NtRp3427
(dp3428
g62
(dp3429
sg71
g2853
sg64
(lp3430
g57
(g78
g59
NtRp3431
(dp3432
g62
(dp3433
g82
g83
ssg71
g3427
sg64
(lp3434
S'wsgi.url_scheme'
p3435
asbag57
(g78
g59
NtRp3436
(dp3437
g62
(dp3438
g89
g90
ssg71
g3427
sg64
(lp3439
S':'
asbag57
(g78
g59
NtRp3440
(dp3441
g62
(dp3442
sg71
g3427
sg64
(lp3443
g57
(g58
g59
NtRp3444
(dp3445
g62
(dp3446
g70
I3
ssg71
g3440
sg64
(lp3447
g2042
asbasbasbag57
(g73
g59
NtRp3448
(dp3449
g62
(dp3450
sg71
g2853
sg64
(lp3451
g57
(g78
g59
NtRp3452
(dp3453
g62
(dp3454
g82
g83
ssg71
g3448
sg64
(lp3455
S'wsgi.version'
p3456
asbag57
(g78
g59
NtRp3457
(dp3458
g62
(dp3459
g89
g90
ssg71
g3448
sg64
(lp3460
S':'
asbag57
(g78
g59
NtRp3461
(dp3462
g62
(dp3463
sg71
g3448
sg64
(lp3464
g57
(g58
g59
NtRp3465
(dp3466
g62
(dp3467
g70
I3
ssg71
g3461
sg64
(lp3468
S'1'
asbasbasbasbasbasbasbasbasbasbasbasbasbsS'frames'
p3469
(lp3470
(dp3471
S'file'
p3472
S'/home/adrian/web2py/gluon/restricted.py'
p3473
sS'dump'
p3474
(dp3475
S'environment'
p3476
S"{'A': <class 'gluon.html.A'>, 'Auth': <class 'gluon.tools.Auth'>, 'B': <class 'gluon.html.B'>, 'BEAUTIFY': <class 'gluon.html.BEAUTIFY'>, 'BODY': <class 'gluon.html.BODY'>, 'BR': <class 'gluon.html.BR'>, 'BUTTON': <class 'gluon.html.BUTTON'>, 'CAT': <class 'gluon.html.CAT'>, 'CENTER': <class 'gluon.html.CENTER'>, 'CLEANUP': <class 'gluon.validators.CLEANUP'>, ...}"
p3477
sS'ccode'
p3478
S'<code object <module> at 0x7fc18c0748b0, file "/...ns/CygnusCloud/views/student/runVM.html", line 1>'
p3479
ssS'lnum'
p3480
I212
sS'lines'
p3481
(dp3482
I207
S'    try:'
p3483
sI208
S'        if isinstance(code, types.CodeType):'
p3484
sI209
S'            ccode = code'
p3485
sI210
S'        else:'
p3486
sI211
S'            ccode = compile2(code, layer)'
p3487
sI212
S'        exec ccode in environment'
p3488
sI213
S'    except HTTP:'
p3489
sI214
S'        raise'
p3490
sI215
S'    except RestrictedError:'
p3491
sI216
S'        # do not encapsulate (obfuscate) the original RestrictedError'
p3492
ssS'call'
p3493
S'(code=\'response.write(\\\'<!DOCTYPE html>\\\\n<!-- paulirish....(\\\'"></script>\\\\n</body>\\\\n</html>\\\\n\\\', escape=False)\', environment={\'A\': <class \'gluon.html.A\'>, \'Auth\': <class \'gluon.tools.Auth\'>, \'B\': <class \'gluon.html.B\'>, \'BEAUTIFY\': <class \'gluon.html.BEAUTIFY\'>, \'BODY\': <class \'gluon.html.BODY\'>, \'BR\': <class \'gluon.html.BR\'>, \'BUTTON\': <class \'gluon.html.BUTTON\'>, \'CAT\': <class \'gluon.html.CAT\'>, \'CENTER\': <class \'gluon.html.CENTER\'>, \'CLEANUP\': <class \'gluon.validators.CLEANUP\'>, ...}, layer=\'/home/adrian/web2py/applications/CygnusCloud/views/student/runVM.html\')'
p3494
sS'func'
p3495
S'restricted'
p3496
sa(dp3497
g3472
S'/home/adrian/web2py/applications/CygnusCloud/views/student/runVM.html'
p3498
sg3474
(dp3499
sg3480
I98
sg3481
(dp3500
I96
S"response.write('\\n            ', escape=False)"
p3501
sI97
S"response.write('\\n<h1>Esta es la plantilla student/runVM.html</h1>\\n', escape=False)"
p3502
sI98
S'response.write(form)'
p3503
sI99
S"response.write('\\n', escape=False)"
p3504
sI100
S"response.write('\\n            ', escape=False)"
p3505
sI101
S"response.write('\\n        </div>\\n\\n        ', escape=False)"
p3506
sI102
S'if right_sidebar_enabled:'
p3507
sI103
S'    response.write(\'\\n        <div class="span3">\\n            \', escape=False)'
p3508
sI104
S"    response.write('\\n            <h3>Right Sidebar</h3>\\n            <p></p>\\n            ', escape=False)"
p3509
sI105
S"    response.write('\\n        </div>\\n        ', escape=False)"
p3510
sI106
S'    pass'
p3511
sI107
S'response.write(\'\\n    </section><!--/main-->\\n\\n    <!-- Footer ================================================== -->\\n    <div class="row">\\n        <footer class="footer span12" id="footer">\\n            <div class="footer-content">\\n                \', escape=False)'
p3512
sI108
S'response.write(\' <!-- this is default footer -->\\n                <div class="copyright pull-left">\', escape=False)'
p3513
sI89
S'    response.write(\'\\n        <div class="span3 left-sidebar">\\n            \', escape=False)'
p3514
sI90
S"    response.write('\\n            <h3>Left Sidebar</h3>\\n            <p></p>\\n            ', escape=False)"
p3515
sI91
S"    response.write('\\n        </div>\\n        ', escape=False)"
p3516
sI92
S'    pass'
p3517
sI93
S'response.write(\'\\n\\n        <div class="\', escape=False)'
p3518
sI94
S'response.write(middle_columns)'
p3519
sI95
S'response.write(\'">\\n            \', escape=False)'
p3520
ssg3493
S'()'
p3521
sg3495
S'<module>'
p3522
sasS'pyver'
p3523
S'Python 2.7.3: /usr/bin/python'
p3524
sS'session'
p3525
g57
(g58
g59
NtRp3526
(dp3527
g62
(dp3528
sg64
(lp3529
g57
(g66
g59
NtRp3530
(dp3531
g62
(dp3532
g70
I5
ssg71
Nsg64
(lp3533
g57
(g73
g59
NtRp3534
(dp3535
g62
(dp3536
sg71
g3530
sg64
(lp3537
g57
(g78
g59
NtRp3538
(dp3539
g62
(dp3540
g82
g83
ssg71
g3534
sg64
(lp3541
S'auth'
p3542
asbag57
(g78
g59
NtRp3543
(dp3544
g62
(dp3545
g89
g90
ssg71
g3534
sg64
(lp3546
S':'
asbag57
(g78
g59
NtRp3547
(dp3548
g62
(dp3549
sg71
g3534
sg64
(lp3550
g57
(g58
g59
NtRp3551
(dp3552
g62
(dp3553
g70
I5
ssg71
g3547
sg64
(lp3554
S'None'
p3555
asbasbasbag57
(g73
g59
NtRp3556
(dp3557
g62
(dp3558
sg71
g3530
sg64
(lp3559
g57
(g78
g59
NtRp3560
(dp3561
g62
(dp3562
g82
g83
ssg71
g3556
sg64
(lp3563
S'flash'
p3564
asbag57
(g78
g59
NtRp3565
(dp3566
g62
(dp3567
g89
g90
ssg71
g3556
sg64
(lp3568
S':'
asbag57
(g78
g59
NtRp3569
(dp3570
g62
(dp3571
sg71
g3556
sg64
(lp3572
g57
(g58
g59
NtRp3573
(dp3574
g62
(dp3575
g70
I5
ssg71
g3569
sg64
(lp3576
S'Logged out'
p3577
asbasbasbag57
(g73
g59
NtRp3578
(dp3579
g62
(dp3580
sg71
g3530
sg64
(lp3581
g57
(g78
g59
NtRp3582
(dp3583
g62
(dp3584
g82
g83
ssg71
g3578
sg64
(lp3585
S'last_orderby'
p3586
asbag57
(g78
g59
NtRp3587
(dp3588
g62
(dp3589
g89
g90
ssg71
g3578
sg64
(lp3590
S':'
asbag57
(g78
g59
NtRp3591
(dp3592
g62
(dp3593
sg71
g3578
sg64
(lp3594
g57
(g58
g59
NtRp3595
(dp3596
g62
(dp3597
g70
I5
ssg71
g3591
sg64
(lp3598
S'None'
p3599
asbasbasbag57
(g73
g59
NtRp3600
(dp3601
g62
(dp3602
sg71
g3530
sg64
(lp3603
g57
(g78
g59
NtRp3604
(dp3605
g62
(dp3606
g82
g83
ssg71
g3600
sg64
(lp3607
S'last_query'
p3608
asbag57
(g78
g59
NtRp3609
(dp3610
g62
(dp3611
g89
g90
ssg71
g3600
sg64
(lp3612
S':'
asbag57
(g78
g59
NtRp3613
(dp3614
g62
(dp3615
sg71
g3600
sg64
(lp3616
g57
(g58
g59
NtRp3617
(dp3618
g62
(dp3619
g70
I5
ssg71
g3613
sg64
(lp3620
S'userDB.auth_permission.id>0'
p3621
asbasbasbasbasbsS'etype'
p3622
S"<type 'exceptions.NameError'>"
p3623
sS'date'
p3624
S'Wed Feb  6 20:18:20 2013'
p3625
sS'response'
p3626
g57
(g58
g59
NtRp3627
(dp3628
g62
(dp3629
sg64
(lp3630
g57
(g66
g59
NtRp3631
(dp3632
g62
(dp3633
g70
I5
ssg71
Nsg64
(lp3634
g57
(g73
g59
NtRp3635
(dp3636
g62
(dp3637
sg71
g3631
sg64
(lp3638
g57
(g78
g59
NtRp3639
(dp3640
g62
(dp3641
g82
g83
ssg71
g3635
sg64
(lp3642
g155
asbag57
(g78
g59
NtRp3643
(dp3644
g62
(dp3645
g89
g90
ssg71
g3635
sg64
(lp3646
S':'
asbag57
(g78
g59
NtRp3647
(dp3648
g62
(dp3649
sg71
g3635
sg64
(lp3650
g57
(g58
g59
NtRp3651
(dp3652
g62
(dp3653
g70
I5
ssg71
g3647
sg64
(lp3654
S'<cStringIO.StringO object at 0x7fc184454880>'
p3655
asbasbasbag57
(g73
g59
NtRp3656
(dp3657
g62
(dp3658
sg71
g3631
sg64
(lp3659
g57
(g78
g59
NtRp3660
(dp3661
g62
(dp3662
g82
g83
ssg71
g3656
sg64
(lp3663
g243
asbag57
(g78
g59
NtRp3664
(dp3665
g62
(dp3666
g89
g90
ssg71
g3656
sg64
(lp3667
S':'
asbag57
(g78
g59
NtRp3668
(dp3669
g62
(dp3670
sg71
g3656
sg64
(lp3671
g57
(g58
g59
NtRp3672
(dp3673
g62
(dp3674
g70
I5
ssg71
g3668
sg64
(lp3675
g57
(g66
g59
NtRp3676
(dp3677
g62
(dp3678
g70
I4
ssg71
Nsg64
(lp3679
g57
(g73
g59
NtRp3680
(dp3681
g62
(dp3682
sg71
g3676
sg64
(lp3683
g57
(g78
g59
NtRp3684
(dp3685
g62
(dp3686
g82
g83
ssg71
g3680
sg64
(lp3687
S'session_id_cygnuscloud'
p3688
asbag57
(g78
g59
NtRp3689
(dp3690
g62
(dp3691
g89
g90
ssg71
g3680
sg64
(lp3692
S':'
asbag57
(g78
g59
NtRp3693
(dp3694
g62
(dp3695
sg71
g3680
sg64
(lp3696
g57
(g58
g59
NtRp3697
(dp3698
g62
(dp3699
g70
I4
ssg71
g3693
sg64
(lp3700
g475
ag57
(g66
g59
NtRp3701
(dp3702
g62
(dp3703
g70
I3
ssg71
Nsg64
(lp3704
g57
(g73
g59
NtRp3705
(dp3706
g62
(dp3707
sg71
g3701
sg64
(lp3708
g57
(g78
g59
NtRp3709
(dp3710
g62
(dp3711
g82
g83
ssg71
g3705
sg64
(lp3712
g294
asbag57
(g78
g59
NtRp3713
(dp3714
g62
(dp3715
g89
g90
ssg71
g3705
sg64
(lp3716
S':'
asbag57
(g78
g59
NtRp3717
(dp3718
g62
(dp3719
sg71
g3705
sg64
(lp3720
g57
(g58
g59
NtRp3721
(dp3722
g62
(dp3723
g70
I3
ssg71
g3717
sg64
(lp3724
S''
asbasbasbag57
(g73
g59
NtRp3725
(dp3726
g62
(dp3727
sg71
g3701
sg64
(lp3728
g57
(g78
g59
NtRp3729
(dp3730
g62
(dp3731
g82
g83
ssg71
g3725
sg64
(lp3732
g315
asbag57
(g78
g59
NtRp3733
(dp3734
g62
(dp3735
g89
g90
ssg71
g3725
sg64
(lp3736
S':'
asbag57
(g78
g59
NtRp3737
(dp3738
g62
(dp3739
sg71
g3725
sg64
(lp3740
g57
(g58
g59
NtRp3741
(dp3742
g62
(dp3743
g70
I3
ssg71
g3737
sg64
(lp3744
S''
asbasbasbag57
(g73
g59
NtRp3745
(dp3746
g62
(dp3747
sg71
g3701
sg64
(lp3748
g57
(g78
g59
NtRp3749
(dp3750
g62
(dp3751
g82
g83
ssg71
g3745
sg64
(lp3752
g336
asbag57
(g78
g59
NtRp3753
(dp3754
g62
(dp3755
g89
g90
ssg71
g3745
sg64
(lp3756
S':'
asbag57
(g78
g59
NtRp3757
(dp3758
g62
(dp3759
sg71
g3745
sg64
(lp3760
g57
(g58
g59
NtRp3761
(dp3762
g62
(dp3763
g70
I3
ssg71
g3757
sg64
(lp3764
S''
asbasbasbag57
(g73
g59
NtRp3765
(dp3766
g62
(dp3767
sg71
g3701
sg64
(lp3768
g57
(g78
g59
NtRp3769
(dp3770
g62
(dp3771
g82
g83
ssg71
g3765
sg64
(lp3772
g357
asbag57
(g78
g59
NtRp3773
(dp3774
g62
(dp3775
g89
g90
ssg71
g3765
sg64
(lp3776
S':'
asbag57
(g78
g59
NtRp3777
(dp3778
g62
(dp3779
sg71
g3765
sg64
(lp3780
g57
(g58
g59
NtRp3781
(dp3782
g62
(dp3783
g70
I3
ssg71
g3777
sg64
(lp3784
S''
asbasbasbag57
(g73
g59
NtRp3785
(dp3786
g62
(dp3787
sg71
g3701
sg64
(lp3788
g57
(g78
g59
NtRp3789
(dp3790
g62
(dp3791
g82
g83
ssg71
g3785
sg64
(lp3792
g378
asbag57
(g78
g59
NtRp3793
(dp3794
g62
(dp3795
g89
g90
ssg71
g3785
sg64
(lp3796
S':'
asbag57
(g78
g59
NtRp3797
(dp3798
g62
(dp3799
sg71
g3785
sg64
(lp3800
g57
(g58
g59
NtRp3801
(dp3802
g62
(dp3803
g70
I3
ssg71
g3797
sg64
(lp3804
S''
asbasbasbag57
(g73
g59
NtRp3805
(dp3806
g62
(dp3807
sg71
g3701
sg64
(lp3808
g57
(g78
g59
NtRp3809
(dp3810
g62
(dp3811
g82
g83
ssg71
g3805
sg64
(lp3812
g399
asbag57
(g78
g59
NtRp3813
(dp3814
g62
(dp3815
g89
g90
ssg71
g3805
sg64
(lp3816
S':'
asbag57
(g78
g59
NtRp3817
(dp3818
g62
(dp3819
sg71
g3805
sg64
(lp3820
g57
(g58
g59
NtRp3821
(dp3822
g62
(dp3823
g70
I3
ssg71
g3817
sg64
(lp3824
S'/'
asbasbasbag57
(g73
g59
NtRp3825
(dp3826
g62
(dp3827
sg71
g3701
sg64
(lp3828
g57
(g78
g59
NtRp3829
(dp3830
g62
(dp3831
g82
g83
ssg71
g3825
sg64
(lp3832
g420
asbag57
(g78
g59
NtRp3833
(dp3834
g62
(dp3835
g89
g90
ssg71
g3825
sg64
(lp3836
S':'
asbag57
(g78
g59
NtRp3837
(dp3838
g62
(dp3839
sg71
g3825
sg64
(lp3840
g57
(g58
g59
NtRp3841
(dp3842
g62
(dp3843
g70
I3
ssg71
g3837
sg64
(lp3844
S''
asbasbasbag57
(g73
g59
NtRp3845
(dp3846
g62
(dp3847
sg71
g3701
sg64
(lp3848
g57
(g78
g59
NtRp3849
(dp3850
g62
(dp3851
g82
g83
ssg71
g3845
sg64
(lp3852
g441
asbag57
(g78
g59
NtRp3853
(dp3854
g62
(dp3855
g89
g90
ssg71
g3845
sg64
(lp3856
S':'
asbag57
(g78
g59
NtRp3857
(dp3858
g62
(dp3859
sg71
g3845
sg64
(lp3860
g57
(g58
g59
NtRp3861
(dp3862
g62
(dp3863
g70
I3
ssg71
g3857
sg64
(lp3864
S''
asbasbasbasbasbasbasbasbasbasbasbag57
(g73
g59
NtRp3865
(dp3866
g62
(dp3867
sg71
g3631
sg64
(lp3868
g57
(g78
g59
NtRp3869
(dp3870
g62
(dp3871
g82
g83
ssg71
g3865
sg64
(lp3872
S'delimiters'
p3873
asbag57
(g78
g59
NtRp3874
(dp3875
g62
(dp3876
g89
g90
ssg71
g3865
sg64
(lp3877
S':'
asbag57
(g78
g59
NtRp3878
(dp3879
g62
(dp3880
sg71
g3865
sg64
(lp3881
g57
(g58
g59
NtRp3882
(dp3883
g62
(dp3884
g70
I5
ssg71
g3878
sg64
(lp3885
g57
(g66
g59
NtRp3886
(dp3887
g62
(dp3888
g70
I4
ssg71
Nsg64
(lp3889
g57
(g73
g59
NtRp3890
(dp3891
g62
(dp3892
sg71
g3886
sg64
(lp3893
g57
(g78
g59
NtRp3894
(dp3895
g62
(dp3896
sg71
g3890
sg64
(lp3897
g57
(g58
g59
NtRp3898
(dp3899
g62
(dp3900
g70
I4
ssg71
g3894
sg64
(lp3901
S'{{'
p3902
asbasbasbag57
(g73
g59
NtRp3903
(dp3904
g62
(dp3905
sg71
g3886
sg64
(lp3906
g57
(g78
g59
NtRp3907
(dp3908
g62
(dp3909
sg71
g3903
sg64
(lp3910
g57
(g58
g59
NtRp3911
(dp3912
g62
(dp3913
g70
I4
ssg71
g3907
sg64
(lp3914
S'}}'
p3915
asbasbasbasbasbasbasbag57
(g73
g59
NtRp3916
(dp3917
g62
(dp3918
sg71
g3631
sg64
(lp3919
g57
(g78
g59
NtRp3920
(dp3921
g62
(dp3922
g82
g83
ssg71
g3916
sg64
(lp3923
S'files'
p3924
asbag57
(g78
g59
NtRp3925
(dp3926
g62
(dp3927
g89
g90
ssg71
g3916
sg64
(lp3928
S':'
asbag57
(g78
g59
NtRp3929
(dp3930
g62
(dp3931
sg71
g3916
sg64
(lp3932
g57
(g58
g59
NtRp3933
(dp3934
g62
(dp3935
g70
I5
ssg71
g3929
sg64
(lp3936
g57
(g66
g59
NtRp3937
(dp3938
g62
(dp3939
g70
I4
ssg71
Nsg64
(lp3940
g57
(g73
g59
NtRp3941
(dp3942
g62
(dp3943
sg71
g3937
sg64
(lp3944
g57
(g78
g59
NtRp3945
(dp3946
g62
(dp3947
sg71
g3941
sg64
(lp3948
g57
(g58
g59
NtRp3949
(dp3950
g62
(dp3951
g70
I4
ssg71
g3945
sg64
(lp3952
S'/CygnusCloud/static/js/jquery.js'
p3953
asbasbasbag57
(g73
g59
NtRp3954
(dp3955
g62
(dp3956
sg71
g3937
sg64
(lp3957
g57
(g78
g59
NtRp3958
(dp3959
g62
(dp3960
sg71
g3954
sg64
(lp3961
g57
(g58
g59
NtRp3962
(dp3963
g62
(dp3964
g70
I4
ssg71
g3958
sg64
(lp3965
S'/CygnusCloud/static/css/calendar.css'
p3966
asbasbasbag57
(g73
g59
NtRp3967
(dp3968
g62
(dp3969
sg71
g3937
sg64
(lp3970
g57
(g78
g59
NtRp3971
(dp3972
g62
(dp3973
sg71
g3967
sg64
(lp3974
g57
(g58
g59
NtRp3975
(dp3976
g62
(dp3977
g70
I4
ssg71
g3971
sg64
(lp3978
S'/CygnusCloud/static/js/calendar.js'
p3979
asbasbasbag57
(g73
g59
NtRp3980
(dp3981
g62
(dp3982
sg71
g3937
sg64
(lp3983
g57
(g78
g59
NtRp3984
(dp3985
g62
(dp3986
sg71
g3980
sg64
(lp3987
g57
(g58
g59
NtRp3988
(dp3989
g62
(dp3990
g70
I4
ssg71
g3984
sg64
(lp3991
S'/CygnusCloud/static/js/web2py.js'
p3992
asbasbasbag57
(g73
g59
NtRp3993
(dp3994
g62
(dp3995
sg71
g3937
sg64
(lp3996
g57
(g78
g59
NtRp3997
(dp3998
g62
(dp3999
sg71
g3993
sg64
(lp4000
g57
(g58
g59
NtRp4001
(dp4002
g62
(dp4003
g70
I4
ssg71
g3997
sg64
(lp4004
S'/CygnusCloud/static/css/web2py.css'
p4005
asbasbasbag57
(g73
g59
NtRp4006
(dp4007
g62
(dp4008
sg71
g3937
sg64
(lp4009
g57
(g78
g59
NtRp4010
(dp4011
g62
(dp4012
sg71
g4006
sg64
(lp4013
g57
(g58
g59
NtRp4014
(dp4015
g62
(dp4016
g70
I4
ssg71
g4010
sg64
(lp4017
S'/CygnusCloud/static/css/bootstrap.min.css'
p4018
asbasbasbag57
(g73
g59
NtRp4019
(dp4020
g62
(dp4021
sg71
g3937
sg64
(lp4022
g57
(g78
g59
NtRp4023
(dp4024
g62
(dp4025
sg71
g4019
sg64
(lp4026
g57
(g58
g59
NtRp4027
(dp4028
g62
(dp4029
g70
I4
ssg71
g4023
sg64
(lp4030
S'/CygnusCloud/static/css/bootstrap-responsive.min.css'
p4031
asbasbasbag57
(g73
g59
NtRp4032
(dp4033
g62
(dp4034
sg71
g3937
sg64
(lp4035
g57
(g78
g59
NtRp4036
(dp4037
g62
(dp4038
sg71
g4032
sg64
(lp4039
g57
(g58
g59
NtRp4040
(dp4041
g62
(dp4042
g70
I4
ssg71
g4036
sg64
(lp4043
S'/CygnusCloud/static/css/web2py_bootstrap.css'
p4044
asbasbasbasbasbasbasbag57
(g73
g59
NtRp4045
(dp4046
g62
(dp4047
sg71
g3631
sg64
(lp4048
g57
(g78
g59
NtRp4049
(dp4050
g62
(dp4051
g82
g83
ssg71
g4045
sg64
(lp4052
S'flash'
p4053
asbag57
(g78
g59
NtRp4054
(dp4055
g62
(dp4056
g89
g90
ssg71
g4045
sg64
(lp4057
S':'
asbag57
(g78
g59
NtRp4058
(dp4059
g62
(dp4060
sg71
g4045
sg64
(lp4061
g57
(g58
g59
NtRp4062
(dp4063
g62
(dp4064
g70
I5
ssg71
g4058
sg64
(lp4065
S'Sesi\xc3\xb3n iniciada'
p4066
asbasbasbag57
(g73
g59
NtRp4067
(dp4068
g62
(dp4069
sg71
g3631
sg64
(lp4070
g57
(g78
g59
NtRp4071
(dp4072
g62
(dp4073
g82
g83
ssg71
g4067
sg64
(lp4074
S'generic_patterns'
p4075
asbag57
(g78
g59
NtRp4076
(dp4077
g62
(dp4078
g89
g90
ssg71
g4067
sg64
(lp4079
S':'
asbag57
(g78
g59
NtRp4080
(dp4081
g62
(dp4082
sg71
g4067
sg64
(lp4083
g57
(g58
g59
NtRp4084
(dp4085
g62
(dp4086
g70
I5
ssg71
g4080
sg64
(lp4087
g57
(g66
g59
NtRp4088
(dp4089
g62
(dp4090
g70
I4
ssg71
Nsg64
(lp4091
sbasbasbasbag57
(g73
g59
NtRp4092
(dp4093
g62
(dp4094
sg71
g3631
sg64
(lp4095
g57
(g78
g59
NtRp4096
(dp4097
g62
(dp4098
g82
g83
ssg71
g4092
sg64
(lp4099
S'google_analytics_id'
p4100
asbag57
(g78
g59
NtRp4101
(dp4102
g62
(dp4103
g89
g90
ssg71
g4092
sg64
(lp4104
S':'
asbag57
(g78
g59
NtRp4105
(dp4106
g62
(dp4107
sg71
g4092
sg64
(lp4108
g57
(g58
g59
NtRp4109
(dp4110
g62
(dp4111
g70
I5
ssg71
g4105
sg64
(lp4112
S'None'
p4113
asbasbasbag57
(g73
g59
NtRp4114
(dp4115
g62
(dp4116
sg71
g3631
sg64
(lp4117
g57
(g78
g59
NtRp4118
(dp4119
g62
(dp4120
g82
g83
ssg71
g4114
sg64
(lp4121
S'headers'
p4122
asbag57
(g78
g59
NtRp4123
(dp4124
g62
(dp4125
g89
g90
ssg71
g4114
sg64
(lp4126
S':'
asbag57
(g78
g59
NtRp4127
(dp4128
g62
(dp4129
sg71
g4114
sg64
(lp4130
g57
(g58
g59
NtRp4131
(dp4132
g62
(dp4133
g70
I5
ssg71
g4127
sg64
(lp4134
g57
(g66
g59
NtRp4135
(dp4136
g62
(dp4137
g70
I4
ssg71
Nsg64
(lp4138
g57
(g73
g59
NtRp4139
(dp4140
g62
(dp4141
sg71
g4135
sg64
(lp4142
g57
(g78
g59
NtRp4143
(dp4144
g62
(dp4145
g82
g83
ssg71
g4139
sg64
(lp4146
S'X-Powered-By'
p4147
asbag57
(g78
g59
NtRp4148
(dp4149
g62
(dp4150
g89
g90
ssg71
g4139
sg64
(lp4151
S':'
asbag57
(g78
g59
NtRp4152
(dp4153
g62
(dp4154
sg71
g4139
sg64
(lp4155
g57
(g58
g59
NtRp4156
(dp4157
g62
(dp4158
g70
I4
ssg71
g4152
sg64
(lp4159
S'web2py'
p4160
asbasbasbasbasbasbasbag57
(g73
g59
NtRp4161
(dp4162
g62
(dp4163
sg71
g3631
sg64
(lp4164
g57
(g78
g59
NtRp4165
(dp4166
g62
(dp4167
g82
g83
ssg71
g4161
sg64
(lp4168
S'logo'
p4169
asbag57
(g78
g59
NtRp4170
(dp4171
g62
(dp4172
g89
g90
ssg71
g4161
sg64
(lp4173
S':'
asbag57
(g78
g59
NtRp4174
(dp4175
g62
(dp4176
sg71
g4161
sg64
(lp4177
g57
(g58
g59
NtRp4178
(dp4179
g62
(dp4180
g70
I5
ssg71
g4174
sg64
(lp4181
g57
(cgluon.html
A
p4182
g59
NtRp4183
(dp4184
g62
(dp4185
S'_class'
p4186
S'brand'
p4187
sS'_href'
p4188
S'http://www.web2py.com/'
p4189
ssg71
Nsg64
(lp4190
g57
(cgluon.html
B
p4191
g59
NtRp4192
(dp4193
g62
(dp4194
sg71
g4183
sg64
(lp4195
S'web'
p4196
ag57
(cgluon.html
SPAN
p4197
g59
NtRp4198
(dp4199
g62
(dp4200
sg71
g4192
sg64
(lp4201
I2
asbaS'py'
p4202
asbacgluon.html
XML_unpickle
p4203
(S's\r\x00\x00\x00&trade;&nbsp;'
tRp4204
asbasbasbasbag57
(g73
g59
NtRp4205
(dp4206
g62
(dp4207
sg71
g3631
sg64
(lp4208
g57
(g78
g59
NtRp4209
(dp4210
g62
(dp4211
g82
g83
ssg71
g4205
sg64
(lp4212
S'menu'
p4213
asbag57
(g78
g59
NtRp4214
(dp4215
g62
(dp4216
g89
g90
ssg71
g4205
sg64
(lp4217
S':'
asbag57
(g78
g59
NtRp4218
(dp4219
g62
(dp4220
sg71
g4205
sg64
(lp4221
g57
(g58
g59
NtRp4222
(dp4223
g62
(dp4224
g70
I5
ssg71
g4218
sg64
(lp4225
g57
(g66
g59
NtRp4226
(dp4227
g62
(dp4228
g70
I4
ssg71
Nsg64
(lp4229
g57
(g73
g59
NtRp4230
(dp4231
g62
(dp4232
sg71
g4226
sg64
(lp4233
g57
(g78
g59
NtRp4234
(dp4235
g62
(dp4236
sg71
g4230
sg64
(lp4237
g57
(g58
g59
NtRp4238
(dp4239
g62
(dp4240
g70
I4
ssg71
g4234
sg64
(lp4241
g57
(g66
g59
NtRp4242
(dp4243
g62
(dp4244
g70
I3
ssg71
Nsg64
(lp4245
g57
(g73
g59
NtRp4246
(dp4247
g62
(dp4248
sg71
g4242
sg64
(lp4249
g57
(g78
g59
NtRp4250
(dp4251
g62
(dp4252
sg71
g4246
sg64
(lp4253
g57
(g58
g59
NtRp4254
(dp4255
g62
(dp4256
g70
I3
ssg71
g4250
sg64
(lp4257
cgluon.languages
lazyT_unpickle
p4258
(S's\x11\x00\x00\x00Arrancar m\xc3\xa1quina'
tRp4259
asbasbasbag57
(g73
g59
NtRp4260
(dp4261
g62
(dp4262
sg71
g4242
sg64
(lp4263
g57
(g78
g59
NtRp4264
(dp4265
g62
(dp4266
sg71
g4260
sg64
(lp4267
g57
(g58
g59
NtRp4268
(dp4269
g62
(dp4270
g70
I3
ssg71
g4264
sg64
(lp4271
g100
asbasbasbag57
(g73
g59
NtRp4272
(dp4273
g62
(dp4274
sg71
g4242
sg64
(lp4275
g57
(g78
g59
NtRp4276
(dp4277
g62
(dp4278
sg71
g4272
sg64
(lp4279
g57
(g58
g59
NtRp4280
(dp4281
g62
(dp4282
g70
I3
ssg71
g4276
sg64
(lp4283
S'/CygnusCloud/student/runVM'
p4284
asbasbasbasbasbasbasbasbasbasbasbag57
(g73
g59
NtRp4285
(dp4286
g62
(dp4287
sg71
g3631
sg64
(lp4288
g57
(g78
g59
NtRp4289
(dp4290
g62
(dp4291
g82
g83
ssg71
g4285
sg64
(lp4292
S'meta'
p4293
asbag57
(g78
g59
NtRp4294
(dp4295
g62
(dp4296
g89
g90
ssg71
g4285
sg64
(lp4297
S':'
asbag57
(g78
g59
NtRp4298
(dp4299
g62
(dp4300
sg71
g4285
sg64
(lp4301
g57
(g58
g59
NtRp4302
(dp4303
g62
(dp4304
g70
I5
ssg71
g4298
sg64
(lp4305
g57
(g66
g59
NtRp4306
(dp4307
g62
(dp4308
g70
I4
ssg71
Nsg64
(lp4309
g57
(g73
g59
NtRp4310
(dp4311
g62
(dp4312
sg71
g4306
sg64
(lp4313
g57
(g78
g59
NtRp4314
(dp4315
g62
(dp4316
g82
g83
ssg71
g4310
sg64
(lp4317
S'author'
p4318
asbag57
(g78
g59
NtRp4319
(dp4320
g62
(dp4321
g89
g90
ssg71
g4310
sg64
(lp4322
S':'
asbag57
(g78
g59
NtRp4323
(dp4324
g62
(dp4325
sg71
g4310
sg64
(lp4326
g57
(g58
g59
NtRp4327
(dp4328
g62
(dp4329
g70
I4
ssg71
g4323
sg64
(lp4330
S'Your Name <you@example.com>'
p4331
asbasbasbag57
(g73
g59
NtRp4332
(dp4333
g62
(dp4334
sg71
g4306
sg64
(lp4335
g57
(g78
g59
NtRp4336
(dp4337
g62
(dp4338
g82
g83
ssg71
g4332
sg64
(lp4339
S'description'
p4340
asbag57
(g78
g59
NtRp4341
(dp4342
g62
(dp4343
g89
g90
ssg71
g4332
sg64
(lp4344
S':'
asbag57
(g78
g59
NtRp4345
(dp4346
g62
(dp4347
sg71
g4332
sg64
(lp4348
g57
(g58
g59
NtRp4349
(dp4350
g62
(dp4351
g70
I4
ssg71
g4345
sg64
(lp4352
S'a cool new app'
p4353
asbasbasbag57
(g73
g59
NtRp4354
(dp4355
g62
(dp4356
sg71
g4306
sg64
(lp4357
g57
(g78
g59
NtRp4358
(dp4359
g62
(dp4360
g82
g83
ssg71
g4354
sg64
(lp4361
S'generator'
p4362
asbag57
(g78
g59
NtRp4363
(dp4364
g62
(dp4365
g89
g90
ssg71
g4354
sg64
(lp4366
S':'
asbag57
(g78
g59
NtRp4367
(dp4368
g62
(dp4369
sg71
g4354
sg64
(lp4370
g57
(g58
g59
NtRp4371
(dp4372
g62
(dp4373
g70
I4
ssg71
g4367
sg64
(lp4374
S'Web2py Web Framework'
p4375
asbasbasbag57
(g73
g59
NtRp4376
(dp4377
g62
(dp4378
sg71
g4306
sg64
(lp4379
g57
(g78
g59
NtRp4380
(dp4381
g62
(dp4382
g82
g83
ssg71
g4376
sg64
(lp4383
S'keywords'
p4384
asbag57
(g78
g59
NtRp4385
(dp4386
g62
(dp4387
g89
g90
ssg71
g4376
sg64
(lp4388
S':'
asbag57
(g78
g59
NtRp4389
(dp4390
g62
(dp4391
sg71
g4376
sg64
(lp4392
g57
(g58
g59
NtRp4393
(dp4394
g62
(dp4395
g70
I4
ssg71
g4389
sg64
(lp4396
S'web2py, python, framework'
p4397
asbasbasbasbasbasbasbag57
(g73
g59
NtRp4398
(dp4399
g62
(dp4400
sg71
g3631
sg64
(lp4401
g57
(g78
g59
NtRp4402
(dp4403
g62
(dp4404
g82
g83
ssg71
g4398
sg64
(lp4405
S'models_to_run'
p4406
asbag57
(g78
g59
NtRp4407
(dp4408
g62
(dp4409
g89
g90
ssg71
g4398
sg64
(lp4410
S':'
asbag57
(g78
g59
NtRp4411
(dp4412
g62
(dp4413
sg71
g4398
sg64
(lp4414
g57
(g58
g59
NtRp4415
(dp4416
g62
(dp4417
g70
I5
ssg71
g4411
sg64
(lp4418
g57
(g66
g59
NtRp4419
(dp4420
g62
(dp4421
g70
I4
ssg71
Nsg64
(lp4422
g57
(g73
g59
NtRp4423
(dp4424
g62
(dp4425
sg71
g4419
sg64
(lp4426
g57
(g78
g59
NtRp4427
(dp4428
g62
(dp4429
sg71
g4423
sg64
(lp4430
g57
(g58
g59
NtRp4431
(dp4432
g62
(dp4433
g70
I4
ssg71
g4427
sg64
(lp4434
S'^\\w+\\.py$'
p4435
asbasbasbag57
(g73
g59
NtRp4436
(dp4437
g62
(dp4438
sg71
g4419
sg64
(lp4439
g57
(g78
g59
NtRp4440
(dp4441
g62
(dp4442
sg71
g4436
sg64
(lp4443
g57
(g58
g59
NtRp4444
(dp4445
g62
(dp4446
g70
I4
ssg71
g4440
sg64
(lp4447
S'^student/\\w+\\.py$'
p4448
asbasbasbag57
(g73
g59
NtRp4449
(dp4450
g62
(dp4451
sg71
g4419
sg64
(lp4452
g57
(g78
g59
NtRp4453
(dp4454
g62
(dp4455
sg71
g4449
sg64
(lp4456
g57
(g58
g59
NtRp4457
(dp4458
g62
(dp4459
g70
I4
ssg71
g4453
sg64
(lp4460
S'^student/runVM/\\w+\\.py$'
p4461
asbasbasbasbasbasbasbag57
(g73
g59
NtRp4462
(dp4463
g62
(dp4464
sg71
g3631
sg64
(lp4465
g57
(g78
g59
NtRp4466
(dp4467
g62
(dp4468
g82
g83
ssg71
g4462
sg64
(lp4469
S'postprocessing'
p4470
asbag57
(g78
g59
NtRp4471
(dp4472
g62
(dp4473
g89
g90
ssg71
g4462
sg64
(lp4474
S':'
asbag57
(g78
g59
NtRp4475
(dp4476
g62
(dp4477
sg71
g4462
sg64
(lp4478
g57
(g58
g59
NtRp4479
(dp4480
g62
(dp4481
g70
I5
ssg71
g4475
sg64
(lp4482
g57
(g66
g59
NtRp4483
(dp4484
g62
(dp4485
g70
I4
ssg71
Nsg64
(lp4486
sbasbasbasbag57
(g73
g59
NtRp4487
(dp4488
g62
(dp4489
sg71
g3631
sg64
(lp4490
g57
(g78
g59
NtRp4491
(dp4492
g62
(dp4493
g82
g83
ssg71
g4487
sg64
(lp4494
S'session_cookie_expires'
p4495
asbag57
(g78
g59
NtRp4496
(dp4497
g62
(dp4498
g89
g90
ssg71
g4487
sg64
(lp4499
S':'
asbag57
(g78
g59
NtRp4500
(dp4501
g62
(dp4502
sg71
g4487
sg64
(lp4503
g57
(g58
g59
NtRp4504
(dp4505
g62
(dp4506
g70
I5
ssg71
g4500
sg64
(lp4507
S'None'
p4508
asbasbasbag57
(g73
g59
NtRp4509
(dp4510
g62
(dp4511
sg71
g3631
sg64
(lp4512
g57
(g78
g59
NtRp4513
(dp4514
g62
(dp4515
g82
g83
ssg71
g4509
sg64
(lp4516
S'session_data_name'
p4517
asbag57
(g78
g59
NtRp4518
(dp4519
g62
(dp4520
g89
g90
ssg71
g4509
sg64
(lp4521
S':'
asbag57
(g78
g59
NtRp4522
(dp4523
g62
(dp4524
sg71
g4509
sg64
(lp4525
g57
(g58
g59
NtRp4526
(dp4527
g62
(dp4528
g70
I5
ssg71
g4522
sg64
(lp4529
S'session_data_cygnuscloud'
p4530
asbasbasbag57
(g73
g59
NtRp4531
(dp4532
g62
(dp4533
sg71
g3631
sg64
(lp4534
g57
(g78
g59
NtRp4535
(dp4536
g62
(dp4537
g82
g83
ssg71
g4531
sg64
(lp4538
S'session_file'
p4539
asbag57
(g78
g59
NtRp4540
(dp4541
g62
(dp4542
g89
g90
ssg71
g4531
sg64
(lp4543
S':'
asbag57
(g78
g59
NtRp4544
(dp4545
g62
(dp4546
sg71
g4531
sg64
(lp4547
g57
(g58
g59
NtRp4548
(dp4549
g62
(dp4550
g70
I5
ssg71
g4544
sg64
(lp4551
S"<open file '/home/adrian/web2py/applications/CygnusCloud/sessions/127.0.0.1-dee08b32-fb5f-41b9-92ab-ea89938c46b9', mode 'rb+' at 0x7fc194743a50>"
p4552
asbasbasbag57
(g73
g59
NtRp4553
(dp4554
g62
(dp4555
sg71
g3631
sg64
(lp4556
g57
(g78
g59
NtRp4557
(dp4558
g62
(dp4559
g82
g83
ssg71
g4553
sg64
(lp4560
S'session_filename'
p4561
asbag57
(g78
g59
NtRp4562
(dp4563
g62
(dp4564
g89
g90
ssg71
g4553
sg64
(lp4565
S':'
asbag57
(g78
g59
NtRp4566
(dp4567
g62
(dp4568
sg71
g4553
sg64
(lp4569
g57
(g58
g59
NtRp4570
(dp4571
g62
(dp4572
g70
I5
ssg71
g4566
sg64
(lp4573
S'/home/adrian/web2py/applications/CygnusCloud/sessions/127.0.0.1-dee08b32-fb5f-41b9-92ab-ea89938c46b9'
p4574
asbasbasbag57
(g73
g59
NtRp4575
(dp4576
g62
(dp4577
sg71
g3631
sg64
(lp4578
g57
(g78
g59
NtRp4579
(dp4580
g62
(dp4581
g82
g83
ssg71
g4575
sg64
(lp4582
S'session_id'
p4583
asbag57
(g78
g59
NtRp4584
(dp4585
g62
(dp4586
g89
g90
ssg71
g4575
sg64
(lp4587
S':'
asbag57
(g78
g59
NtRp4588
(dp4589
g62
(dp4590
sg71
g4575
sg64
(lp4591
g57
(g58
g59
NtRp4592
(dp4593
g62
(dp4594
g70
I5
ssg71
g4588
sg64
(lp4595
g475
asbasbasbag57
(g73
g59
NtRp4596
(dp4597
g62
(dp4598
sg71
g3631
sg64
(lp4599
g57
(g78
g59
NtRp4600
(dp4601
g62
(dp4602
g82
g83
ssg71
g4596
sg64
(lp4603
S'session_id_name'
p4604
asbag57
(g78
g59
NtRp4605
(dp4606
g62
(dp4607
g89
g90
ssg71
g4596
sg64
(lp4608
S':'
asbag57
(g78
g59
NtRp4609
(dp4610
g62
(dp4611
sg71
g4596
sg64
(lp4612
g57
(g58
g59
NtRp4613
(dp4614
g62
(dp4615
g70
I5
ssg71
g4609
sg64
(lp4616
g3688
asbasbasbag57
(g73
g59
NtRp4617
(dp4618
g62
(dp4619
sg71
g3631
sg64
(lp4620
g57
(g78
g59
NtRp4621
(dp4622
g62
(dp4623
g82
g83
ssg71
g4617
sg64
(lp4624
S'session_locked'
p4625
asbag57
(g78
g59
NtRp4626
(dp4627
g62
(dp4628
g89
g90
ssg71
g4617
sg64
(lp4629
S':'
asbag57
(g78
g59
NtRp4630
(dp4631
g62
(dp4632
sg71
g4617
sg64
(lp4633
g57
(g58
g59
NtRp4634
(dp4635
g62
(dp4636
g70
I5
ssg71
g4630
sg64
(lp4637
g1999
asbasbasbag57
(g73
g59
NtRp4638
(dp4639
g62
(dp4640
sg71
g3631
sg64
(lp4641
g57
(g78
g59
NtRp4642
(dp4643
g62
(dp4644
g82
g83
ssg71
g4638
sg64
(lp4645
S'session_new'
p4646
asbag57
(g78
g59
NtRp4647
(dp4648
g62
(dp4649
g89
g90
ssg71
g4638
sg64
(lp4650
S':'
asbag57
(g78
g59
NtRp4651
(dp4652
g62
(dp4653
sg71
g4638
sg64
(lp4654
g57
(g58
g59
NtRp4655
(dp4656
g62
(dp4657
g70
I5
ssg71
g4651
sg64
(lp4658
g100
asbasbasbag57
(g73
g59
NtRp4659
(dp4660
g62
(dp4661
sg71
g3631
sg64
(lp4662
g57
(g78
g59
NtRp4663
(dp4664
g62
(dp4665
g82
g83
ssg71
g4659
sg64
(lp4666
S'session_storage_type'
p4667
asbag57
(g78
g59
NtRp4668
(dp4669
g62
(dp4670
g89
g90
ssg71
g4659
sg64
(lp4671
S':'
asbag57
(g78
g59
NtRp4672
(dp4673
g62
(dp4674
sg71
g4659
sg64
(lp4675
g57
(g58
g59
NtRp4676
(dp4677
g62
(dp4678
g70
I5
ssg71
g4672
sg64
(lp4679
g3472
asbasbasbag57
(g73
g59
NtRp4680
(dp4681
g62
(dp4682
sg71
g3631
sg64
(lp4683
g57
(g78
g59
NtRp4684
(dp4685
g62
(dp4686
g82
g83
ssg71
g4680
sg64
(lp4687
S'status'
p4688
asbag57
(g78
g59
NtRp4689
(dp4690
g62
(dp4691
g89
g90
ssg71
g4680
sg64
(lp4692
S':'
asbag57
(g78
g59
NtRp4693
(dp4694
g62
(dp4695
sg71
g4680
sg64
(lp4696
g57
(g58
g59
NtRp4697
(dp4698
g62
(dp4699
g70
I5
ssg71
g4693
sg64
(lp4700
S'200'
p4701
asbasbasbag57
(g73
g59
NtRp4702
(dp4703
g62
(dp4704
sg71
g3631
sg64
(lp4705
g57
(g78
g59
NtRp4706
(dp4707
g62
(dp4708
g82
g83
ssg71
g4702
sg64
(lp4709
S'subtitle'
p4710
asbag57
(g78
g59
NtRp4711
(dp4712
g62
(dp4713
g89
g90
ssg71
g4702
sg64
(lp4714
S':'
asbag57
(g78
g59
NtRp4715
(dp4716
g62
(dp4717
sg71
g4702
sg64
(lp4718
g57
(g58
g59
NtRp4719
(dp4720
g62
(dp4721
g70
I5
ssg71
g4715
sg64
(lp4722
g4258
(S's\t\x00\x00\x00Adaptame!'
tRp4723
asbasbasbag57
(g73
g59
NtRp4724
(dp4725
g62
(dp4726
sg71
g3631
sg64
(lp4727
g57
(g78
g59
NtRp4728
(dp4729
g62
(dp4730
g82
g83
ssg71
g4724
sg64
(lp4731
S'title'
p4732
asbag57
(g78
g59
NtRp4733
(dp4734
g62
(dp4735
g89
g90
ssg71
g4724
sg64
(lp4736
S':'
asbag57
(g78
g59
NtRp4737
(dp4738
g62
(dp4739
sg71
g4724
sg64
(lp4740
g57
(g58
g59
NtRp4741
(dp4742
g62
(dp4743
g70
I5
ssg71
g4737
sg64
(lp4744
S'Cygnuscloud'
p4745
asbasbasbag57
(g73
g59
NtRp4746
(dp4747
g62
(dp4748
sg71
g3631
sg64
(lp4749
g57
(g78
g59
NtRp4750
(dp4751
g62
(dp4752
g82
g83
ssg71
g4746
sg64
(lp4753
S'view'
p4754
asbag57
(g78
g59
NtRp4755
(dp4756
g62
(dp4757
g89
g90
ssg71
g4746
sg64
(lp4758
S':'
asbag57
(g78
g59
NtRp4759
(dp4760
g62
(dp4761
sg71
g4746
sg64
(lp4762
g57
(g58
g59
NtRp4763
(dp4764
g62
(dp4765
g70
I5
ssg71
g4759
sg64
(lp4766
S'student/runVM.html'
p4767
asbasbasbasbasbsS'locals'
p4768
(dp4769
S'OBJECT'
p4770
S"<class 'gluon.html.OBJECT'>"
p4771
sS'SQLDB'
p4772
S"<class 'gluon.dal.DAL'>"
p4773
sg3525
S"<Storage {'last_query': 'userDB.auth_permission....login]': 'e8142dea-dc0c-4543-8327-c5188564c495'}>"
p4774
sS'LINK'
p4775
S"<class 'gluon.html.LINK'>"
p4776
sS'BR'
p4777
S"<class 'gluon.html.BR'>"
p4778
sS'local_import'
p4779
S'<function <lambda>>'
p4780
sS'OPTGROUP'
p4781
S"<class 'gluon.html.OPTGROUP'>"
p4782
sS'__package__'
p4783
S'None'
p4784
sS'plugin_translate'
p4785
S'<function plugin_translate>'
p4786
sS'PRE'
p4787
S"<class 'gluon.html.PRE'>"
p4788
sS'IS_INT_IN_RANGE'
p4789
S"<class 'gluon.validators.IS_INT_IN_RANGE'>"
p4790
sS'left_sidebar_enabled'
p4791
g100
sS'IS_LOWER'
p4792
S"<class 'gluon.validators.IS_LOWER'>"
p4793
sS'IS_STRONG'
p4794
S"<class 'gluon.validators.IS_STRONG'>"
p4795
sS'cache'
p4796
S'<gluon.cache.Cache object>'
p4797
sS'IS_IN_DB'
p4798
S"<class 'gluon.validators.IS_IN_DB'>"
p4799
sS'TAG'
p4800
S'<gluon.html.__TAG__ object>'
p4801
sS'SQLField'
p4802
S"<class 'gluon.dal.Field'>"
p4803
sS'BODY'
p4804
S"<class 'gluon.html.BODY'>"
p4805
sS'IS_DATE_IN_RANGE'
p4806
S"<class 'gluon.validators.IS_DATE_IN_RANGE'>"
p4807
sS'IFRAME'
p4808
S"<class 'gluon.html.IFRAME'>"
p4809
sS'URL'
p4810
S'<function URL>'
p4811
sS'__file__'
p4812
S"'/home/adrian/web2py/applications/CygnusCloud/views/student/runVM.html'"
p4813
sS'auth'
p4814
S'<gluon.tools.Auth object>'
p4815
sS'P'
S"<class 'gluon.html.P'>"
p4816
sS'TFOOT'
p4817
S"<class 'gluon.html.TFOOT'>"
p4818
sS'XHTML'
p4819
S"<class 'gluon.html.XHTML'>"
p4820
sS'ON'
p4821
g1999
sS'OL'
p4822
S"<class 'gluon.html.OL'>"
p4823
sS'TEXTAREA'
p4824
S"<class 'gluon.html.TEXTAREA'>"
p4825
sS'MENU'
p4826
S"<class 'gluon.html.MENU'>"
p4827
sS'EM'
p4828
S"<class 'gluon.html.EM'>"
p4829
sS'CODE'
p4830
S"<class 'gluon.html.CODE'>"
p4831
sS'HTTP'
p4832
S"<class 'gluon.http.HTTP'>"
p4833
sS'HR'
p4834
S"<class 'gluon.html.HR'>"
p4835
sS'IS_DATETIME'
p4836
S"<class 'gluon.validators.IS_DATETIME'>"
p4837
sS'HEAD'
p4838
S"<class 'gluon.html.HEAD'>"
p4839
sS'LABEL'
p4840
S"<class 'gluon.html.LABEL'>"
p4841
sS'CLEANUP'
p4842
S"<class 'gluon.validators.CLEANUP'>"
p4843
sS'DBConfigurator'
p4844
S"<class 'applications.CygnusCloud.modules.configuration.DBConfigurator'>"
p4845
sS'SELECT'
p4846
S"<class 'gluon.html.SELECT'>"
p4847
sS'CENTER'
p4848
S"<class 'gluon.html.CENTER'>"
p4849
sS'Auth'
p4850
S"<class 'gluon.tools.Auth'>"
p4851
sS'DEVELOPMENT_MENU'
p4852
g1999
sS'__builtins__'
p4853
S"{'ArithmeticError': <type 'exceptions.ArithmeticError'>, 'AssertionError': <type 'exceptions.AssertionError'>, 'AttributeError': <type 'exceptions.AttributeError'>, 'BaseException': <type 'exceptions.BaseException'>, 'BufferError': <type 'exceptions.BufferError'>, 'BytesWarning': <type 'exceptions.BytesWarning'>, 'DeprecationWarning': <type 'exceptions.DeprecationWarning'>, 'EOFError': <type 'exceptions.EOFError'>, 'Ellipsis': Ellipsis, 'EnvironmentError': <type 'exceptions.EnvironmentError'>, ...}"
p4854
sS'HTML'
p4855
S"<class 'gluon.html.HTML'>"
p4856
sS'SQLFORM'
p4857
S"<class 'gluon.sqlhtml.SQLFORM'>"
p4858
sS'LOAD'
p4859
S'<function LOAD>'
p4860
sS'redirect'
p4861
S'<function redirect>'
p4862
sS'FIELDSET'
p4863
S"<class 'gluon.html.FIELDSET'>"
p4864
sS'IS_EQUAL_TO'
p4865
S"<class 'gluon.validators.IS_EQUAL_TO'>"
p4866
sS'embed64'
p4867
S'<function embed64>'
p4868
sS'IS_LIST_OF'
p4869
S"<class 'gluon.validators.IS_LIST_OF'>"
p4870
sS'__name__'
p4871
S"'__restricted__'"
p4872
sS'EMBED'
p4873
S"<class 'gluon.html.EMBED'>"
p4874
sS'_'
S'<function _>'
p4875
sS'FORM'
p4876
S"<class 'gluon.html.FORM'>"
p4877
sS'H2'
p4878
S"<class 'gluon.html.H2'>"
p4879
sS'H3'
p4880
S"<class 'gluon.html.H3'>"
p4881
sS'BUTTON'
p4882
S"<class 'gluon.html.BUTTON'>"
p4883
sS'H1'
p4884
S"<class 'gluon.html.H1'>"
p4885
sS'H6'
p4886
S"<class 'gluon.html.H6'>"
p4887
sS'H4'
p4888
S"<class 'gluon.html.H4'>"
p4889
sS'H5'
p4890
S"<class 'gluon.html.H5'>"
p4891
sS'UL'
p4892
S"<class 'gluon.html.UL'>"
p4893
sS'IS_UPPER'
p4894
S"<class 'gluon.validators.IS_UPPER'>"
p4895
sS'xmlescape'
p4896
S'<function xmlescape>'
p4897
sS'IS_TIME'
p4898
S"<class 'gluon.validators.IS_TIME'>"
p4899
sS'OPTION'
p4900
S"<class 'gluon.html.OPTION'>"
p4901
sS'TITLE'
p4902
S"<class 'gluon.html.TITLE'>"
p4903
sS'CRYPT'
p4904
S"<class 'gluon.validators.CRYPT'>"
p4905
sS'IS_EMPTY_OR'
p4906
S"<class 'gluon.validators.IS_EMPTY_OR'>"
p4907
sS'MARKMIN'
p4908
S"<class 'gluon.html.MARKMIN'>"
p4909
sS'plugin_translate_current_language'
p4910
S"'es'"
p4911
sS'INPUT'
p4912
S"<class 'gluon.html.INPUT'>"
p4913
sS'STRONG'
p4914
S"<class 'gluon.html.STRONG'>"
p4915
sS'COL'
p4916
S"<class 'gluon.html.COL'>"
p4917
sS'SCRIPT'
p4918
S"<class 'gluon.html.SCRIPT'>"
p4919
sS'changeLanguage'
p4920
S'<function changeLanguage>'
p4921
sS'is_mobile'
p4922
g100
sS'TABLE'
p4923
S"<class 'gluon.html.TABLE'>"
p4924
sS'IS_IPV4'
p4925
S"<class 'gluon.validators.IS_IPV4'>"
p4926
sS'IS_LENGTH'
p4927
S"<class 'gluon.validators.IS_LENGTH'>"
p4928
sS'XML'
p4929
S"<class 'gluon.html.XML'>"
p4930
sS'B'
S"<class 'gluon.html.B'>"
p4931
sS'IMG'
p4932
S"<class 'gluon.html.IMG'>"
p4933
sS'SQLTABLE'
p4934
S"<class 'gluon.sqlhtml.SQLTABLE'>"
p4935
sS'IS_MATCH'
p4936
S"<class 'gluon.validators.IS_MATCH'>"
p4937
sS'IS_ALPHANUMERIC'
p4938
S"<class 'gluon.validators.IS_ALPHANUMERIC'>"
p4939
sS'SPAN'
p4940
S"<class 'gluon.html.SPAN'>"
p4941
sS'IS_SLUG'
p4942
S"<class 'gluon.validators.IS_SLUG'>"
p4943
sS'BEAUTIFY'
p4944
S"<class 'gluon.html.BEAUTIFY'>"
p4945
sS'META'
p4946
S"<class 'gluon.html.META'>"
p4947
sS'IS_DATE'
p4948
S"<class 'gluon.validators.IS_DATE'>"
p4949
sS'IS_EMAIL'
p4950
S"<class 'gluon.validators.IS_EMAIL'>"
p4951
sS'IS_NOT_EMPTY'
p4952
S"<class 'gluon.validators.IS_NOT_EMPTY'>"
p4953
sS'IS_FLOAT_IN_RANGE'
p4954
S"<class 'gluon.validators.IS_FLOAT_IN_RANGE'>"
p4955
sS'TBODY'
p4956
S"<class 'gluon.html.TBODY'>"
p4957
sS'CAT'
p4958
S"<class 'gluon.html.CAT'>"
p4959
sS'Field'
p4960
S"<class 'gluon.dal.Field'>"
p4961
sS'conf'
p4962
S'<applications.CygnusCloud.modules.configuration.DBConfigurator object>'
p4963
sS'middle_columns'
p4964
S"'span12'"
p4965
sS'DIV'
p4966
S"<class 'gluon.html.DIV'>"
p4967
sS'LEGEND'
p4968
S"<class 'gluon.html.LEGEND'>"
p4969
sS'COLGROUP'
p4970
S"<class 'gluon.html.COLGROUP'>"
p4971
sS'DAL'
p4972
S"<class 'gluon.dal.DAL'>"
p4973
sS'TT'
p4974
S"<class 'gluon.html.TT'>"
p4975
sS'TR'
p4976
S"<class 'gluon.html.TR'>"
p4977
sS'translateMenu'
p4978
S"<module 'applications.CygnusCloud.modules.transl...lications/CygnusCloud/modules/translateMenu.pyc'>"
p4979
sS'LI'
p4980
S"<class 'gluon.html.LI'>"
p4981
sS'right_sidebar_enabled'
p4982
g100
sS'nav'
p4983
S'<gluon.html.SPAN object>'
p4984
sS'TH'
p4985
S"<class 'gluon.html.TH'>"
p4986
sS'TD'
p4987
S"<class 'gluon.html.TD'>"
p4988
sS'IS_URL'
p4989
S"<class 'gluon.validators.IS_URL'>"
p4990
sS'A'
S"<class 'gluon.html.A'>"
p4991
sS'STYLE'
p4992
S"<class 'gluon.html.STYLE'>"
p4993
sS'IS_DATETIME_IN_RANGE'
p4994
S"<class 'gluon.validators.IS_DATETIME_IN_RANGE'>"
p4995
sS'IS_IMAGE'
p4996
S"<class 'gluon.validators.IS_IMAGE'>"
p4997
sS'I'
S"<class 'gluon.html.I'>"
p4998
sS'IS_NOT_IN_DB'
p4999
S"<class 'gluon.validators.IS_NOT_IN_DB'>"
p5000
sg3626
S"<Storage {'body': <cStringIO.StringO object at 0...t 0x7fc194938578>, 'view': 'student/runVM.html'}>"
p5001
sS'THEAD'
p5002
S"<class 'gluon.html.THEAD'>"
p5003
sS'userDB'
p5004
S'<DAL uri="mysql://******:cygnuscloud2012@localhost/UseresDB">'
p5005
sS'IS_NULL_OR'
p5006
S"<class 'gluon.validators.IS_EMPTY_OR'>"
p5007
sg56
S"<Storage {'function': 'runVM', 'body': <cStringI...ations/CygnusCloud/', 'post_vars': <Storage {}>}>"
p5008
sS'IS_EXPR'
p5009
S"<class 'gluon.validators.IS_EXPR'>"
p5010
sS'T'
S'<gluon.languages.translator object>'
p5011
sS'IS_IN_SET'
p5012
S"<class 'gluon.validators.IS_IN_SET'>"
p5013
sS'IS_UPLOAD_FILENAME'
p5014
S"<class 'gluon.validators.IS_UPLOAD_FILENAME'>"
p5015
sS'IS_DECIMAL_IN_RANGE'
p5016
S"<class 'gluon.validators.IS_DECIMAL_IN_RANGE'>"
p5017
sssS'traceback'
p5018
S'Traceback (most recent call last):\n  File "/home/adrian/web2py/gluon/restricted.py", line 212, in restricted\n    exec ccode in environment\n  File "/home/adrian/web2py/applications/CygnusCloud/views/student/runVM.html", line 98, in <module>\nNameError: name \'form\' is not defined\n'
p5019
s.