(dp1
S'output'
p2
S'<class \'_mysql_exceptions.ProgrammingError\'> (1064, "You have an error in your SQL syntax; check the manual that corresponds to your MySQL server version for the right syntax to use near \'IF NOT EXISTS DATABASE userDB\' at line 1")'
p3
sS'layer'
p4
S'/home/adrian/web2py/applications/CygnusCloud/models/db.py'
p5
sS'code'
p6
S"# -*- coding: utf-8 -*-\nfrom configuration import DBConfigurator\n\nconf = DBConfigurator('170590ucm')\nconf.createDatabase('userDB')\ndb = DAL('mysql://CygnusCloud:cygnuscloud2012@localhost/userDB')\n\ndb.define_table('image',\n   Field('title', unique=True),\n   Field('file', 'upload'),\n   format = '%(title)s')\n\ndb.define_table('post',\n   Field('image_id', 'reference image'),\n   Field('author'),\n   Field('email'),\n   Field('body', 'text'))\n\ndb.image.title.requires = IS_NOT_IN_DB(db, db.image.title)\ndb.post.image_id.requires = IS_IN_DB(db, db.image.id, '%(title)s')\ndb.post.author.requires = IS_NOT_EMPTY()\ndb.post.email.requires = IS_EMAIL()\ndb.post.body.requires = IS_NOT_EMPTY()\n\ndb.post.image_id.writable = db.post.image_id.readable = False\n\n# Autentication\nfrom gluon.tools import Auth\nauth = Auth(db)\nauth.define_tables(username=True)\n"
p7
sS'snapshot'
p8
(dp9
sS'traceback'
p10
S'Traceback (most recent call last):\n  File "/home/adrian/web2py/gluon/restricted.py", line 212, in restricted\n    exec ccode in environment\n  File "/home/adrian/web2py/applications/CygnusCloud/models/db.py", line 5, in <module>\n    conf.createDatabase(\'userDB\')\n  File "applications/CygnusCloud/modules/configuration.py", line 51, in createDatabase\n    cursor.execute(command)\n  File "/usr/lib/python2.7/dist-packages/MySQLdb/cursors.py", line 174, in execute\n    self.errorhandler(self, exc, value)\n  File "/usr/lib/python2.7/dist-packages/MySQLdb/connections.py", line 36, in defaulterrorhandler\n    raise errorclass, errorvalue\nProgrammingError: (1064, "You have an error in your SQL syntax; check the manual that corresponds to your MySQL server version for the right syntax to use near \'IF NOT EXISTS DATABASE userDB\' at line 1")\n'
p11
s.