(dp1
S'output'
p2
S"<class 'applications.CygnusCloud.modules.network.exceptions.networkManager.NetworkManagerException'> The host 127.0.0.1:15800 seems to be unreachable"
p3
sS'layer'
p4
S'/home/adrian/web2py/applications/CygnusCloud/models/db.py'
p5
sS'code'
p6
S"# -*- coding: utf-8 -*-\nfrom configuration import DBConfigurator\nfrom gluon.tools import Auth\nfrom serverConnector.constants import rootPassword\nfrom serverConnector.singletonServerConnector import Singleton\nfrom clusterServer.connector.clusterServerConnector import ClusterServerConnector\nfrom clusterServer.connector.clusterServerConnector import GenericWebCallback\nimport os\n\n\nprint os.getcwd() \n\n\nconf = DBConfigurator(rootPassword)\nconf.createDatabase('CygnusCloudUserDB')\n#conf.addUser('CygnusCloud','cygnuscloud2012', 'UserDB')\nuserDB = DAL('mysql://CygnusCloud:cygnuscloud2012@localhost/CygnusCloudUserDB',migrate_enabled=True, pool_size=0)\n\n\n# Autentication\nauth = Auth(userDB)\nauth.define_tables(migrate = True)\n\n\n\n\n#userDB.auth_user.email.requires = IS_NOT_IN_DB(userDB, userDB.auth_user.email)\n\nuserDB.define_table('Images',\n            Field('VMId','integer' ),\n            Field('name',length=20 ),\n            Field('description',length=500 ),\n            primarykey=['VMId'],migrate= True)\n\n\nuserDB.define_table('ClassGroup',\n   Field('yearGroup','integer', 'reference auth_user'),\n   Field('cod','integer','reference Subjects'),\n   Field('curse','integer'),\n   Field('curseGroup', length=1),\n   primarykey=['cod'],migrate= True)\n\nuserDB.define_table('UserGroup',\n   Field('userId',length = 512 ),\n   Field('cod','integer','reference ClassGroup'),\n   Field('curseGroup',length=1 ),\n   primarykey=['cod','curseGroup','userId'],migrate= True)\n\nuserDB.define_table('Subjects',\n   Field('code','integer'),\n   Field('name',length=50),\n   primarykey=['code'],migrate= True)\n\n\n\nuserDB.define_table('VMByGroup',\n   Field('VMId','integer','reference Images'),\n   Field('cod','integer','reference UserGroup'),\n   Field('curseGroup',length=1 ),\n   primarykey=['cod','curseGroup','VMId'],migrate= True)\n\n\n#Establecemos la conexi\xc3\xb3n con el servidor principal\nconnector = Singleton.getInstance()\n"
p7
sS'snapshot'
p8
(dp9
S'exception'
p10
(dp11
S'__module__'
p12
S"'applications.CygnusCloud.modules.network.exceptions.networkManager'"
p13
sS'__getslice__'
p14
S"<method-wrapper '__getslice__' of NetworkManagerException object>"
p15
sS'__str__'
p16
S"<method-wrapper '__str__' of NetworkManagerException object>"
p17
sS'__reduce__'
p18
S'<built-in method __reduce__ of NetworkManagerException object>'
p19
sS'__dict__'
p20
S'{}'
p21
sS'__sizeof__'
p22
S'<built-in method __sizeof__ of NetworkManagerException object>'
p23
sS'__weakref__'
p24
S'None'
p25
sS'__init__'
p26
S"<method-wrapper '__init__' of NetworkManagerException object>"
p27
sS'__setattr__'
p28
S"<method-wrapper '__setattr__' of NetworkManagerException object>"
p29
sS'__reduce_ex__'
p30
S'<built-in method __reduce_ex__ of NetworkManagerException object>'
p31
sS'__new__'
p32
S'<built-in method __new__ of type object>'
p33
sS'__format__'
p34
S'<built-in method __format__ of NetworkManagerException object>'
p35
sS'__class__'
p36
S"<class 'applications.CygnusCloud.modules.network.exceptions.networkManager.NetworkManagerException'>"
p37
sS'__doc__'
p38
S"'\\n    NetworkManager exception class\\n    '"
p39
sS'__getitem__'
p40
S"<method-wrapper '__getitem__' of NetworkManagerException object>"
p41
sS'__setstate__'
p42
S'<built-in method __setstate__ of NetworkManagerException object>'
p43
sS'__getattribute__'
p44
S"<method-wrapper '__getattribute__' of NetworkManagerException object>"
p45
sS'args'
p46
S"('The host 127.0.0.1:15800 seems to be unreachable',)"
p47
sS'__subclasshook__'
p48
S'<built-in method __subclasshook__ of type object>'
p49
sS'__unicode__'
p50
S'<built-in method __unicode__ of NetworkManagerException object>'
p51
sS'__delattr__'
p52
S"<method-wrapper '__delattr__' of NetworkManagerException object>"
p53
sS'__repr__'
p54
S"<method-wrapper '__repr__' of NetworkManagerException object>"
p55
sS'__hash__'
p56
S"<method-wrapper '__hash__' of NetworkManagerException object>"
p57
ssS'evalue'
p58
S'The host 127.0.0.1:15800 seems to be unreachable'
p59
sS'request'
p60
ccopy_reg
_reconstructor
p61
(cgluon.html
BEAUTIFY
p62
c__builtin__
object
p63
NtRp64
(dp65
S'attributes'
p66
(dp67
sS'components'
p68
(lp69
g61
(cgluon.html
TABLE
p70
g63
NtRp71
(dp72
g66
(dp73
S'level'
p74
I5
ssS'parent'
p75
Nsg68
(lp76
g61
(cgluon.html
TR
p77
g63
NtRp78
(dp79
g66
(dp80
sg75
g71
sg68
(lp81
g61
(cgluon.html
TD
p82
g63
NtRp83
(dp84
g66
(dp85
S'_style'
p86
S'font-weight:bold;vertical-align:top'
p87
ssg75
g78
sg68
(lp88
S'ajax'
p89
asbag61
(g82
g63
NtRp90
(dp91
g66
(dp92
S'_valign'
p93
S'top'
p94
ssg75
g78
sg68
(lp95
S':'
asbag61
(g82
g63
NtRp96
(dp97
g66
(dp98
sg75
g78
sg68
(lp99
g61
(g62
g63
NtRp100
(dp101
g66
(dp102
g74
I5
ssg75
g96
sg68
(lp103
S'False'
p104
asbasbasbag61
(g77
g63
NtRp105
(dp106
g66
(dp107
sg75
g71
sg68
(lp108
g61
(g82
g63
NtRp109
(dp110
g66
(dp111
g86
g87
ssg75
g105
sg68
(lp112
S'application'
p113
asbag61
(g82
g63
NtRp114
(dp115
g66
(dp116
g93
g94
ssg75
g105
sg68
(lp117
S':'
asbag61
(g82
g63
NtRp118
(dp119
g66
(dp120
sg75
g105
sg68
(lp121
g61
(g62
g63
NtRp122
(dp123
g66
(dp124
g74
I5
ssg75
g118
sg68
(lp125
S'CygnusCloud'
p126
asbasbasbag61
(g77
g63
NtRp127
(dp128
g66
(dp129
sg75
g71
sg68
(lp130
g61
(g82
g63
NtRp131
(dp132
g66
(dp133
g86
g87
ssg75
g127
sg68
(lp134
g46
asbag61
(g82
g63
NtRp135
(dp136
g66
(dp137
g93
g94
ssg75
g127
sg68
(lp138
S':'
asbag61
(g82
g63
NtRp139
(dp140
g66
(dp141
sg75
g127
sg68
(lp142
g61
(g62
g63
NtRp143
(dp144
g66
(dp145
g74
I5
ssg75
g139
sg68
(lp146
g61
(g70
g63
NtRp147
(dp148
g66
(dp149
g74
I4
ssg75
Nsg68
(lp150
sbasbasbasbag61
(g77
g63
NtRp151
(dp152
g66
(dp153
sg75
g71
sg68
(lp154
g61
(g82
g63
NtRp155
(dp156
g66
(dp157
g86
g87
ssg75
g151
sg68
(lp158
S'body'
p159
asbag61
(g82
g63
NtRp160
(dp161
g66
(dp162
g93
g94
ssg75
g151
sg68
(lp163
S':'
asbag61
(g82
g63
NtRp164
(dp165
g66
(dp166
sg75
g151
sg68
(lp167
g61
(g62
g63
NtRp168
(dp169
g66
(dp170
g74
I5
ssg75
g164
sg68
(lp171
S'<cStringIO.StringO object at 0x7fd04420aa78>'
p172
asbasbasbag61
(g77
g63
NtRp173
(dp174
g66
(dp175
sg75
g71
sg68
(lp176
g61
(g82
g63
NtRp177
(dp178
g66
(dp179
g86
g87
ssg75
g173
sg68
(lp180
S'cid'
p181
asbag61
(g82
g63
NtRp182
(dp183
g66
(dp184
g93
g94
ssg75
g173
sg68
(lp185
S':'
asbag61
(g82
g63
NtRp186
(dp187
g66
(dp188
sg75
g173
sg68
(lp189
g61
(g62
g63
NtRp190
(dp191
g66
(dp192
g74
I5
ssg75
g186
sg68
(lp193
S'None'
p194
asbasbasbag61
(g77
g63
NtRp195
(dp196
g66
(dp197
sg75
g71
sg68
(lp198
g61
(g82
g63
NtRp199
(dp200
g66
(dp201
g86
g87
ssg75
g195
sg68
(lp202
S'client'
p203
asbag61
(g82
g63
NtRp204
(dp205
g66
(dp206
g93
g94
ssg75
g195
sg68
(lp207
S':'
asbag61
(g82
g63
NtRp208
(dp209
g66
(dp210
sg75
g195
sg68
(lp211
g61
(g62
g63
NtRp212
(dp213
g66
(dp214
g74
I5
ssg75
g208
sg68
(lp215
S'127.0.0.1'
p216
asbasbasbag61
(g77
g63
NtRp217
(dp218
g66
(dp219
sg75
g71
sg68
(lp220
g61
(g82
g63
NtRp221
(dp222
g66
(dp223
g86
g87
ssg75
g217
sg68
(lp224
S'controller'
p225
asbag61
(g82
g63
NtRp226
(dp227
g66
(dp228
g93
g94
ssg75
g217
sg68
(lp229
S':'
asbag61
(g82
g63
NtRp230
(dp231
g66
(dp232
sg75
g217
sg68
(lp233
g61
(g62
g63
NtRp234
(dp235
g66
(dp236
g74
I5
ssg75
g230
sg68
(lp237
S'main'
p238
asbasbasbag61
(g77
g63
NtRp239
(dp240
g66
(dp241
sg75
g71
sg68
(lp242
g61
(g82
g63
NtRp243
(dp244
g66
(dp245
g86
g87
ssg75
g239
sg68
(lp246
S'cookies'
p247
asbag61
(g82
g63
NtRp248
(dp249
g66
(dp250
g93
g94
ssg75
g239
sg68
(lp251
S':'
asbag61
(g82
g63
NtRp252
(dp253
g66
(dp254
sg75
g239
sg68
(lp255
g61
(g62
g63
NtRp256
(dp257
g66
(dp258
g74
I5
ssg75
g252
sg68
(lp259
g61
(g70
g63
NtRp260
(dp261
g66
(dp262
g74
I4
ssg75
Nsg68
(lp263
g61
(g77
g63
NtRp264
(dp265
g66
(dp266
sg75
g260
sg68
(lp267
g61
(g82
g63
NtRp268
(dp269
g66
(dp270
g86
g87
ssg75
g264
sg68
(lp271
S'kaej_unique_user'
p272
asbag61
(g82
g63
NtRp273
(dp274
g66
(dp275
g93
g94
ssg75
g264
sg68
(lp276
S':'
asbag61
(g82
g63
NtRp277
(dp278
g66
(dp279
sg75
g264
sg68
(lp280
g61
(g62
g63
NtRp281
(dp282
g66
(dp283
g74
I4
ssg75
g277
sg68
(lp284
S'1'
ag61
(g70
g63
NtRp285
(dp286
g66
(dp287
g74
I3
ssg75
Nsg68
(lp288
g61
(g77
g63
NtRp289
(dp290
g66
(dp291
sg75
g285
sg68
(lp292
g61
(g82
g63
NtRp293
(dp294
g66
(dp295
g86
g87
ssg75
g289
sg68
(lp296
S'comment'
p297
asbag61
(g82
g63
NtRp298
(dp299
g66
(dp300
g93
g94
ssg75
g289
sg68
(lp301
S':'
asbag61
(g82
g63
NtRp302
(dp303
g66
(dp304
sg75
g289
sg68
(lp305
g61
(g62
g63
NtRp306
(dp307
g66
(dp308
g74
I3
ssg75
g302
sg68
(lp309
S''
asbasbasbag61
(g77
g63
NtRp310
(dp311
g66
(dp312
sg75
g285
sg68
(lp313
g61
(g82
g63
NtRp314
(dp315
g66
(dp316
g86
g87
ssg75
g310
sg68
(lp317
S'domain'
p318
asbag61
(g82
g63
NtRp319
(dp320
g66
(dp321
g93
g94
ssg75
g310
sg68
(lp322
S':'
asbag61
(g82
g63
NtRp323
(dp324
g66
(dp325
sg75
g310
sg68
(lp326
g61
(g62
g63
NtRp327
(dp328
g66
(dp329
g74
I3
ssg75
g323
sg68
(lp330
S''
asbasbasbag61
(g77
g63
NtRp331
(dp332
g66
(dp333
sg75
g285
sg68
(lp334
g61
(g82
g63
NtRp335
(dp336
g66
(dp337
g86
g87
ssg75
g331
sg68
(lp338
S'expires'
p339
asbag61
(g82
g63
NtRp340
(dp341
g66
(dp342
g93
g94
ssg75
g331
sg68
(lp343
S':'
asbag61
(g82
g63
NtRp344
(dp345
g66
(dp346
sg75
g331
sg68
(lp347
g61
(g62
g63
NtRp348
(dp349
g66
(dp350
g74
I3
ssg75
g344
sg68
(lp351
S''
asbasbasbag61
(g77
g63
NtRp352
(dp353
g66
(dp354
sg75
g285
sg68
(lp355
g61
(g82
g63
NtRp356
(dp357
g66
(dp358
g86
g87
ssg75
g352
sg68
(lp359
S'httponly'
p360
asbag61
(g82
g63
NtRp361
(dp362
g66
(dp363
g93
g94
ssg75
g352
sg68
(lp364
S':'
asbag61
(g82
g63
NtRp365
(dp366
g66
(dp367
sg75
g352
sg68
(lp368
g61
(g62
g63
NtRp369
(dp370
g66
(dp371
g74
I3
ssg75
g365
sg68
(lp372
S''
asbasbasbag61
(g77
g63
NtRp373
(dp374
g66
(dp375
sg75
g285
sg68
(lp376
g61
(g82
g63
NtRp377
(dp378
g66
(dp379
g86
g87
ssg75
g373
sg68
(lp380
S'max-age'
p381
asbag61
(g82
g63
NtRp382
(dp383
g66
(dp384
g93
g94
ssg75
g373
sg68
(lp385
S':'
asbag61
(g82
g63
NtRp386
(dp387
g66
(dp388
sg75
g373
sg68
(lp389
g61
(g62
g63
NtRp390
(dp391
g66
(dp392
g74
I3
ssg75
g386
sg68
(lp393
S''
asbasbasbag61
(g77
g63
NtRp394
(dp395
g66
(dp396
sg75
g285
sg68
(lp397
g61
(g82
g63
NtRp398
(dp399
g66
(dp400
g86
g87
ssg75
g394
sg68
(lp401
S'path'
p402
asbag61
(g82
g63
NtRp403
(dp404
g66
(dp405
g93
g94
ssg75
g394
sg68
(lp406
S':'
asbag61
(g82
g63
NtRp407
(dp408
g66
(dp409
sg75
g394
sg68
(lp410
g61
(g62
g63
NtRp411
(dp412
g66
(dp413
g74
I3
ssg75
g407
sg68
(lp414
S''
asbasbasbag61
(g77
g63
NtRp415
(dp416
g66
(dp417
sg75
g285
sg68
(lp418
g61
(g82
g63
NtRp419
(dp420
g66
(dp421
g86
g87
ssg75
g415
sg68
(lp422
S'secure'
p423
asbag61
(g82
g63
NtRp424
(dp425
g66
(dp426
g93
g94
ssg75
g415
sg68
(lp427
S':'
asbag61
(g82
g63
NtRp428
(dp429
g66
(dp430
sg75
g415
sg68
(lp431
g61
(g62
g63
NtRp432
(dp433
g66
(dp434
g74
I3
ssg75
g428
sg68
(lp435
S''
asbasbasbag61
(g77
g63
NtRp436
(dp437
g66
(dp438
sg75
g285
sg68
(lp439
g61
(g82
g63
NtRp440
(dp441
g66
(dp442
g86
g87
ssg75
g436
sg68
(lp443
S'version'
p444
asbag61
(g82
g63
NtRp445
(dp446
g66
(dp447
g93
g94
ssg75
g436
sg68
(lp448
S':'
asbag61
(g82
g63
NtRp449
(dp450
g66
(dp451
sg75
g436
sg68
(lp452
g61
(g62
g63
NtRp453
(dp454
g66
(dp455
g74
I3
ssg75
g449
sg68
(lp456
S''
asbasbasbasbasbasbasbag61
(g77
g63
NtRp457
(dp458
g66
(dp459
sg75
g260
sg68
(lp460
g61
(g82
g63
NtRp461
(dp462
g66
(dp463
g86
g87
ssg75
g457
sg68
(lp464
S'session_id_admin'
p465
asbag61
(g82
g63
NtRp466
(dp467
g66
(dp468
g93
g94
ssg75
g457
sg68
(lp469
S':'
asbag61
(g82
g63
NtRp470
(dp471
g66
(dp472
sg75
g457
sg68
(lp473
g61
(g62
g63
NtRp474
(dp475
g66
(dp476
g74
I4
ssg75
g470
sg68
(lp477
S'127.0.0.1-41da04db-390e-412d-bcee-51806220151f'
p478
ag61
(g70
g63
NtRp479
(dp480
g66
(dp481
g74
I3
ssg75
Nsg68
(lp482
g61
(g77
g63
NtRp483
(dp484
g66
(dp485
sg75
g479
sg68
(lp486
g61
(g82
g63
NtRp487
(dp488
g66
(dp489
g86
g87
ssg75
g483
sg68
(lp490
g297
asbag61
(g82
g63
NtRp491
(dp492
g66
(dp493
g93
g94
ssg75
g483
sg68
(lp494
S':'
asbag61
(g82
g63
NtRp495
(dp496
g66
(dp497
sg75
g483
sg68
(lp498
g61
(g62
g63
NtRp499
(dp500
g66
(dp501
g74
I3
ssg75
g495
sg68
(lp502
S''
asbasbasbag61
(g77
g63
NtRp503
(dp504
g66
(dp505
sg75
g479
sg68
(lp506
g61
(g82
g63
NtRp507
(dp508
g66
(dp509
g86
g87
ssg75
g503
sg68
(lp510
g318
asbag61
(g82
g63
NtRp511
(dp512
g66
(dp513
g93
g94
ssg75
g503
sg68
(lp514
S':'
asbag61
(g82
g63
NtRp515
(dp516
g66
(dp517
sg75
g503
sg68
(lp518
g61
(g62
g63
NtRp519
(dp520
g66
(dp521
g74
I3
ssg75
g515
sg68
(lp522
S''
asbasbasbag61
(g77
g63
NtRp523
(dp524
g66
(dp525
sg75
g479
sg68
(lp526
g61
(g82
g63
NtRp527
(dp528
g66
(dp529
g86
g87
ssg75
g523
sg68
(lp530
g339
asbag61
(g82
g63
NtRp531
(dp532
g66
(dp533
g93
g94
ssg75
g523
sg68
(lp534
S':'
asbag61
(g82
g63
NtRp535
(dp536
g66
(dp537
sg75
g523
sg68
(lp538
g61
(g62
g63
NtRp539
(dp540
g66
(dp541
g74
I3
ssg75
g535
sg68
(lp542
S''
asbasbasbag61
(g77
g63
NtRp543
(dp544
g66
(dp545
sg75
g479
sg68
(lp546
g61
(g82
g63
NtRp547
(dp548
g66
(dp549
g86
g87
ssg75
g543
sg68
(lp550
g360
asbag61
(g82
g63
NtRp551
(dp552
g66
(dp553
g93
g94
ssg75
g543
sg68
(lp554
S':'
asbag61
(g82
g63
NtRp555
(dp556
g66
(dp557
sg75
g543
sg68
(lp558
g61
(g62
g63
NtRp559
(dp560
g66
(dp561
g74
I3
ssg75
g555
sg68
(lp562
S''
asbasbasbag61
(g77
g63
NtRp563
(dp564
g66
(dp565
sg75
g479
sg68
(lp566
g61
(g82
g63
NtRp567
(dp568
g66
(dp569
g86
g87
ssg75
g563
sg68
(lp570
g381
asbag61
(g82
g63
NtRp571
(dp572
g66
(dp573
g93
g94
ssg75
g563
sg68
(lp574
S':'
asbag61
(g82
g63
NtRp575
(dp576
g66
(dp577
sg75
g563
sg68
(lp578
g61
(g62
g63
NtRp579
(dp580
g66
(dp581
g74
I3
ssg75
g575
sg68
(lp582
S''
asbasbasbag61
(g77
g63
NtRp583
(dp584
g66
(dp585
sg75
g479
sg68
(lp586
g61
(g82
g63
NtRp587
(dp588
g66
(dp589
g86
g87
ssg75
g583
sg68
(lp590
g402
asbag61
(g82
g63
NtRp591
(dp592
g66
(dp593
g93
g94
ssg75
g583
sg68
(lp594
S':'
asbag61
(g82
g63
NtRp595
(dp596
g66
(dp597
sg75
g583
sg68
(lp598
g61
(g62
g63
NtRp599
(dp600
g66
(dp601
g74
I3
ssg75
g595
sg68
(lp602
S''
asbasbasbag61
(g77
g63
NtRp603
(dp604
g66
(dp605
sg75
g479
sg68
(lp606
g61
(g82
g63
NtRp607
(dp608
g66
(dp609
g86
g87
ssg75
g603
sg68
(lp610
g423
asbag61
(g82
g63
NtRp611
(dp612
g66
(dp613
g93
g94
ssg75
g603
sg68
(lp614
S':'
asbag61
(g82
g63
NtRp615
(dp616
g66
(dp617
sg75
g603
sg68
(lp618
g61
(g62
g63
NtRp619
(dp620
g66
(dp621
g74
I3
ssg75
g615
sg68
(lp622
S''
asbasbasbag61
(g77
g63
NtRp623
(dp624
g66
(dp625
sg75
g479
sg68
(lp626
g61
(g82
g63
NtRp627
(dp628
g66
(dp629
g86
g87
ssg75
g623
sg68
(lp630
g444
asbag61
(g82
g63
NtRp631
(dp632
g66
(dp633
g93
g94
ssg75
g623
sg68
(lp634
S':'
asbag61
(g82
g63
NtRp635
(dp636
g66
(dp637
sg75
g623
sg68
(lp638
g61
(g62
g63
NtRp639
(dp640
g66
(dp641
g74
I3
ssg75
g635
sg68
(lp642
S''
asbasbasbasbasbasbasbag61
(g77
g63
NtRp643
(dp644
g66
(dp645
sg75
g260
sg68
(lp646
g61
(g82
g63
NtRp647
(dp648
g66
(dp649
g86
g87
ssg75
g643
sg68
(lp650
S'session_id_cygnuscloud'
p651
asbag61
(g82
g63
NtRp652
(dp653
g66
(dp654
g93
g94
ssg75
g643
sg68
(lp655
S':'
asbag61
(g82
g63
NtRp656
(dp657
g66
(dp658
sg75
g643
sg68
(lp659
g61
(g62
g63
NtRp660
(dp661
g66
(dp662
g74
I4
ssg75
g656
sg68
(lp663
S'127.0.0.1-c587975d-3dc0-4e19-8fd9-70fb7b0fbde9'
p664
ag61
(g70
g63
NtRp665
(dp666
g66
(dp667
g74
I3
ssg75
Nsg68
(lp668
g61
(g77
g63
NtRp669
(dp670
g66
(dp671
sg75
g665
sg68
(lp672
g61
(g82
g63
NtRp673
(dp674
g66
(dp675
g86
g87
ssg75
g669
sg68
(lp676
g297
asbag61
(g82
g63
NtRp677
(dp678
g66
(dp679
g93
g94
ssg75
g669
sg68
(lp680
S':'
asbag61
(g82
g63
NtRp681
(dp682
g66
(dp683
sg75
g669
sg68
(lp684
g61
(g62
g63
NtRp685
(dp686
g66
(dp687
g74
I3
ssg75
g681
sg68
(lp688
S''
asbasbasbag61
(g77
g63
NtRp689
(dp690
g66
(dp691
sg75
g665
sg68
(lp692
g61
(g82
g63
NtRp693
(dp694
g66
(dp695
g86
g87
ssg75
g689
sg68
(lp696
g318
asbag61
(g82
g63
NtRp697
(dp698
g66
(dp699
g93
g94
ssg75
g689
sg68
(lp700
S':'
asbag61
(g82
g63
NtRp701
(dp702
g66
(dp703
sg75
g689
sg68
(lp704
g61
(g62
g63
NtRp705
(dp706
g66
(dp707
g74
I3
ssg75
g701
sg68
(lp708
S''
asbasbasbag61
(g77
g63
NtRp709
(dp710
g66
(dp711
sg75
g665
sg68
(lp712
g61
(g82
g63
NtRp713
(dp714
g66
(dp715
g86
g87
ssg75
g709
sg68
(lp716
g339
asbag61
(g82
g63
NtRp717
(dp718
g66
(dp719
g93
g94
ssg75
g709
sg68
(lp720
S':'
asbag61
(g82
g63
NtRp721
(dp722
g66
(dp723
sg75
g709
sg68
(lp724
g61
(g62
g63
NtRp725
(dp726
g66
(dp727
g74
I3
ssg75
g721
sg68
(lp728
S''
asbasbasbag61
(g77
g63
NtRp729
(dp730
g66
(dp731
sg75
g665
sg68
(lp732
g61
(g82
g63
NtRp733
(dp734
g66
(dp735
g86
g87
ssg75
g729
sg68
(lp736
g360
asbag61
(g82
g63
NtRp737
(dp738
g66
(dp739
g93
g94
ssg75
g729
sg68
(lp740
S':'
asbag61
(g82
g63
NtRp741
(dp742
g66
(dp743
sg75
g729
sg68
(lp744
g61
(g62
g63
NtRp745
(dp746
g66
(dp747
g74
I3
ssg75
g741
sg68
(lp748
S''
asbasbasbag61
(g77
g63
NtRp749
(dp750
g66
(dp751
sg75
g665
sg68
(lp752
g61
(g82
g63
NtRp753
(dp754
g66
(dp755
g86
g87
ssg75
g749
sg68
(lp756
g381
asbag61
(g82
g63
NtRp757
(dp758
g66
(dp759
g93
g94
ssg75
g749
sg68
(lp760
S':'
asbag61
(g82
g63
NtRp761
(dp762
g66
(dp763
sg75
g749
sg68
(lp764
g61
(g62
g63
NtRp765
(dp766
g66
(dp767
g74
I3
ssg75
g761
sg68
(lp768
S''
asbasbasbag61
(g77
g63
NtRp769
(dp770
g66
(dp771
sg75
g665
sg68
(lp772
g61
(g82
g63
NtRp773
(dp774
g66
(dp775
g86
g87
ssg75
g769
sg68
(lp776
g402
asbag61
(g82
g63
NtRp777
(dp778
g66
(dp779
g93
g94
ssg75
g769
sg68
(lp780
S':'
asbag61
(g82
g63
NtRp781
(dp782
g66
(dp783
sg75
g769
sg68
(lp784
g61
(g62
g63
NtRp785
(dp786
g66
(dp787
g74
I3
ssg75
g781
sg68
(lp788
S''
asbasbasbag61
(g77
g63
NtRp789
(dp790
g66
(dp791
sg75
g665
sg68
(lp792
g61
(g82
g63
NtRp793
(dp794
g66
(dp795
g86
g87
ssg75
g789
sg68
(lp796
g423
asbag61
(g82
g63
NtRp797
(dp798
g66
(dp799
g93
g94
ssg75
g789
sg68
(lp800
S':'
asbag61
(g82
g63
NtRp801
(dp802
g66
(dp803
sg75
g789
sg68
(lp804
g61
(g62
g63
NtRp805
(dp806
g66
(dp807
g74
I3
ssg75
g801
sg68
(lp808
S''
asbasbasbag61
(g77
g63
NtRp809
(dp810
g66
(dp811
sg75
g665
sg68
(lp812
g61
(g82
g63
NtRp813
(dp814
g66
(dp815
g86
g87
ssg75
g809
sg68
(lp816
g444
asbag61
(g82
g63
NtRp817
(dp818
g66
(dp819
g93
g94
ssg75
g809
sg68
(lp820
S':'
asbag61
(g82
g63
NtRp821
(dp822
g66
(dp823
sg75
g809
sg68
(lp824
g61
(g62
g63
NtRp825
(dp826
g66
(dp827
g74
I3
ssg75
g821
sg68
(lp828
S''
asbasbasbasbasbasbasbag61
(g77
g63
NtRp829
(dp830
g66
(dp831
sg75
g260
sg68
(lp832
g61
(g82
g63
NtRp833
(dp834
g66
(dp835
g86
g87
ssg75
g829
sg68
(lp836
S'session_id_welcome'
p837
asbag61
(g82
g63
NtRp838
(dp839
g66
(dp840
g93
g94
ssg75
g829
sg68
(lp841
S':'
asbag61
(g82
g63
NtRp842
(dp843
g66
(dp844
sg75
g829
sg68
(lp845
g61
(g62
g63
NtRp846
(dp847
g66
(dp848
g74
I4
ssg75
g842
sg68
(lp849
S'127.0.0.1-ebfdc699-9472-4804-814f-75e37bc25576'
p850
ag61
(g70
g63
NtRp851
(dp852
g66
(dp853
g74
I3
ssg75
Nsg68
(lp854
g61
(g77
g63
NtRp855
(dp856
g66
(dp857
sg75
g851
sg68
(lp858
g61
(g82
g63
NtRp859
(dp860
g66
(dp861
g86
g87
ssg75
g855
sg68
(lp862
g297
asbag61
(g82
g63
NtRp863
(dp864
g66
(dp865
g93
g94
ssg75
g855
sg68
(lp866
S':'
asbag61
(g82
g63
NtRp867
(dp868
g66
(dp869
sg75
g855
sg68
(lp870
g61
(g62
g63
NtRp871
(dp872
g66
(dp873
g74
I3
ssg75
g867
sg68
(lp874
S''
asbasbasbag61
(g77
g63
NtRp875
(dp876
g66
(dp877
sg75
g851
sg68
(lp878
g61
(g82
g63
NtRp879
(dp880
g66
(dp881
g86
g87
ssg75
g875
sg68
(lp882
g318
asbag61
(g82
g63
NtRp883
(dp884
g66
(dp885
g93
g94
ssg75
g875
sg68
(lp886
S':'
asbag61
(g82
g63
NtRp887
(dp888
g66
(dp889
sg75
g875
sg68
(lp890
g61
(g62
g63
NtRp891
(dp892
g66
(dp893
g74
I3
ssg75
g887
sg68
(lp894
S''
asbasbasbag61
(g77
g63
NtRp895
(dp896
g66
(dp897
sg75
g851
sg68
(lp898
g61
(g82
g63
NtRp899
(dp900
g66
(dp901
g86
g87
ssg75
g895
sg68
(lp902
g339
asbag61
(g82
g63
NtRp903
(dp904
g66
(dp905
g93
g94
ssg75
g895
sg68
(lp906
S':'
asbag61
(g82
g63
NtRp907
(dp908
g66
(dp909
sg75
g895
sg68
(lp910
g61
(g62
g63
NtRp911
(dp912
g66
(dp913
g74
I3
ssg75
g907
sg68
(lp914
S''
asbasbasbag61
(g77
g63
NtRp915
(dp916
g66
(dp917
sg75
g851
sg68
(lp918
g61
(g82
g63
NtRp919
(dp920
g66
(dp921
g86
g87
ssg75
g915
sg68
(lp922
g360
asbag61
(g82
g63
NtRp923
(dp924
g66
(dp925
g93
g94
ssg75
g915
sg68
(lp926
S':'
asbag61
(g82
g63
NtRp927
(dp928
g66
(dp929
sg75
g915
sg68
(lp930
g61
(g62
g63
NtRp931
(dp932
g66
(dp933
g74
I3
ssg75
g927
sg68
(lp934
S''
asbasbasbag61
(g77
g63
NtRp935
(dp936
g66
(dp937
sg75
g851
sg68
(lp938
g61
(g82
g63
NtRp939
(dp940
g66
(dp941
g86
g87
ssg75
g935
sg68
(lp942
g381
asbag61
(g82
g63
NtRp943
(dp944
g66
(dp945
g93
g94
ssg75
g935
sg68
(lp946
S':'
asbag61
(g82
g63
NtRp947
(dp948
g66
(dp949
sg75
g935
sg68
(lp950
g61
(g62
g63
NtRp951
(dp952
g66
(dp953
g74
I3
ssg75
g947
sg68
(lp954
S''
asbasbasbag61
(g77
g63
NtRp955
(dp956
g66
(dp957
sg75
g851
sg68
(lp958
g61
(g82
g63
NtRp959
(dp960
g66
(dp961
g86
g87
ssg75
g955
sg68
(lp962
g402
asbag61
(g82
g63
NtRp963
(dp964
g66
(dp965
g93
g94
ssg75
g955
sg68
(lp966
S':'
asbag61
(g82
g63
NtRp967
(dp968
g66
(dp969
sg75
g955
sg68
(lp970
g61
(g62
g63
NtRp971
(dp972
g66
(dp973
g74
I3
ssg75
g967
sg68
(lp974
S''
asbasbasbag61
(g77
g63
NtRp975
(dp976
g66
(dp977
sg75
g851
sg68
(lp978
g61
(g82
g63
NtRp979
(dp980
g66
(dp981
g86
g87
ssg75
g975
sg68
(lp982
g423
asbag61
(g82
g63
NtRp983
(dp984
g66
(dp985
g93
g94
ssg75
g975
sg68
(lp986
S':'
asbag61
(g82
g63
NtRp987
(dp988
g66
(dp989
sg75
g975
sg68
(lp990
g61
(g62
g63
NtRp991
(dp992
g66
(dp993
g74
I3
ssg75
g987
sg68
(lp994
S''
asbasbasbag61
(g77
g63
NtRp995
(dp996
g66
(dp997
sg75
g851
sg68
(lp998
g61
(g82
g63
NtRp999
(dp1000
g66
(dp1001
g86
g87
ssg75
g995
sg68
(lp1002
g444
asbag61
(g82
g63
NtRp1003
(dp1004
g66
(dp1005
g93
g94
ssg75
g995
sg68
(lp1006
S':'
asbag61
(g82
g63
NtRp1007
(dp1008
g66
(dp1009
sg75
g995
sg68
(lp1010
g61
(g62
g63
NtRp1011
(dp1012
g66
(dp1013
g74
I3
ssg75
g1007
sg68
(lp1014
S''
asbasbasbasbasbasbasbasbasbasbasbag61
(g77
g63
NtRp1015
(dp1016
g66
(dp1017
sg75
g71
sg68
(lp1018
g61
(g82
g63
NtRp1019
(dp1020
g66
(dp1021
g86
g87
ssg75
g1015
sg68
(lp1022
S'env'
p1023
asbag61
(g82
g63
NtRp1024
(dp1025
g66
(dp1026
g93
g94
ssg75
g1015
sg68
(lp1027
S':'
asbag61
(g82
g63
NtRp1028
(dp1029
g66
(dp1030
sg75
g1015
sg68
(lp1031
g61
(g62
g63
NtRp1032
(dp1033
g66
(dp1034
g74
I5
ssg75
g1028
sg68
(lp1035
g61
(g70
g63
NtRp1036
(dp1037
g66
(dp1038
g74
I4
ssg75
Nsg68
(lp1039
g61
(g77
g63
NtRp1040
(dp1041
g66
(dp1042
sg75
g1036
sg68
(lp1043
g61
(g82
g63
NtRp1044
(dp1045
g66
(dp1046
g86
g87
ssg75
g1040
sg68
(lp1047
S'app_folders'
p1048
asbag61
(g82
g63
NtRp1049
(dp1050
g66
(dp1051
g93
g94
ssg75
g1040
sg68
(lp1052
S':'
asbag61
(g82
g63
NtRp1053
(dp1054
g66
(dp1055
sg75
g1040
sg68
(lp1056
g61
(g62
g63
NtRp1057
(dp1058
g66
(dp1059
g74
I4
ssg75
g1053
sg68
(lp1060
S"set(['/home/adrian/web2py/applications/admin/', '/home/adrian/web2py/applications/CygnusCloud/'])"
p1061
asbasbasbag61
(g77
g63
NtRp1062
(dp1063
g66
(dp1064
sg75
g1036
sg68
(lp1065
g61
(g82
g63
NtRp1066
(dp1067
g66
(dp1068
g86
g87
ssg75
g1062
sg68
(lp1069
S'applications_parent'
p1070
asbag61
(g82
g63
NtRp1071
(dp1072
g66
(dp1073
g93
g94
ssg75
g1062
sg68
(lp1074
S':'
asbag61
(g82
g63
NtRp1075
(dp1076
g66
(dp1077
sg75
g1062
sg68
(lp1078
g61
(g62
g63
NtRp1079
(dp1080
g66
(dp1081
g74
I4
ssg75
g1075
sg68
(lp1082
S'/home/adrian/web2py'
p1083
asbasbasbag61
(g77
g63
NtRp1084
(dp1085
g66
(dp1086
sg75
g1036
sg68
(lp1087
g61
(g82
g63
NtRp1088
(dp1089
g66
(dp1090
g86
g87
ssg75
g1084
sg68
(lp1091
S'cmd_args'
p1092
asbag61
(g82
g63
NtRp1093
(dp1094
g66
(dp1095
g93
g94
ssg75
g1084
sg68
(lp1096
S':'
asbag61
(g82
g63
NtRp1097
(dp1098
g66
(dp1099
sg75
g1084
sg68
(lp1100
g61
(g62
g63
NtRp1101
(dp1102
g66
(dp1103
g74
I4
ssg75
g1097
sg68
(lp1104
g61
(g70
g63
NtRp1105
(dp1106
g66
(dp1107
g74
I3
ssg75
Nsg68
(lp1108
sbasbasbasbag61
(g77
g63
NtRp1109
(dp1110
g66
(dp1111
sg75
g1036
sg68
(lp1112
g61
(g82
g63
NtRp1113
(dp1114
g66
(dp1115
g86
g87
ssg75
g1109
sg68
(lp1116
S'cmd_options'
p1117
asbag61
(g82
g63
NtRp1118
(dp1119
g66
(dp1120
g93
g94
ssg75
g1109
sg68
(lp1121
S':'
asbag61
(g82
g63
NtRp1122
(dp1123
g66
(dp1124
sg75
g1109
sg68
(lp1125
g61
(g62
g63
NtRp1126
(dp1127
g66
(dp1128
g74
I4
ssg75
g1122
sg68
(lp1129
S"<Values at 0x27ddbd8: {'verbose': False, 'ip': '127.0.0.1', 'with_scheduler': False, 'ips': [], 'shutdown_timeout': 5, 'taskbar': False, 'port': 8000, 'maxthreads': None, 'softcron': False, 'server_name': 'adri-EasyNote', 'bpython': False, 'nogui': False, 'pid_filename': 'httpserver.pid', 'extcron': False, 'runcron': False, 'run_system_tests': False, 'test': None, 'folder': '/home/adrian/web2py', 'config': '', 'minthreads': None, 'winservice': '', 'shell': None, 'run': '', 'log_filename': 'httpserver.log', 'debuglevel': 30, 'args': [''], 'socket_timeout': 5, 'ssl_ca_certificate': None, 'scheduler': None, 'profiler_filename': None, 'ssl_private_key': '', 'scheduler_groups': None, 'password': 'cygnuscloud2012', 'request_queue_size': 5, 'ssl_certificate': '', 'cronjob': False, 'numthreads': None, 'quiet': False, 'interfaces': None, 'import_models': False, 'timeout': 10, 'plain': False, 'nobanner': False}>"
p1130
asbasbasbag61
(g77
g63
NtRp1131
(dp1132
g66
(dp1133
sg75
g1036
sg68
(lp1134
g61
(g82
g63
NtRp1135
(dp1136
g66
(dp1137
g86
g87
ssg75
g1131
sg68
(lp1138
S'db_sessions'
p1139
asbag61
(g82
g63
NtRp1140
(dp1141
g66
(dp1142
g93
g94
ssg75
g1131
sg68
(lp1143
S':'
asbag61
(g82
g63
NtRp1144
(dp1145
g66
(dp1146
sg75
g1131
sg68
(lp1147
g61
(g62
g63
NtRp1148
(dp1149
g66
(dp1150
g74
I4
ssg75
g1144
sg68
(lp1151
S'set([])'
p1152
asbasbasbag61
(g77
g63
NtRp1153
(dp1154
g66
(dp1155
sg75
g1036
sg68
(lp1156
g61
(g82
g63
NtRp1157
(dp1158
g66
(dp1159
g86
g87
ssg75
g1153
sg68
(lp1160
S'debugging'
p1161
asbag61
(g82
g63
NtRp1162
(dp1163
g66
(dp1164
g93
g94
ssg75
g1153
sg68
(lp1165
S':'
asbag61
(g82
g63
NtRp1166
(dp1167
g66
(dp1168
sg75
g1153
sg68
(lp1169
g61
(g62
g63
NtRp1170
(dp1171
g66
(dp1172
g74
I4
ssg75
g1166
sg68
(lp1173
g104
asbasbasbag61
(g77
g63
NtRp1174
(dp1175
g66
(dp1176
sg75
g1036
sg68
(lp1177
g61
(g82
g63
NtRp1178
(dp1179
g66
(dp1180
g86
g87
ssg75
g1174
sg68
(lp1181
S'gluon_parent'
p1182
asbag61
(g82
g63
NtRp1183
(dp1184
g66
(dp1185
g93
g94
ssg75
g1174
sg68
(lp1186
S':'
asbag61
(g82
g63
NtRp1187
(dp1188
g66
(dp1189
sg75
g1174
sg68
(lp1190
g61
(g62
g63
NtRp1191
(dp1192
g66
(dp1193
g74
I4
ssg75
g1187
sg68
(lp1194
S'/home/adrian/web2py'
p1195
asbasbasbag61
(g77
g63
NtRp1196
(dp1197
g66
(dp1198
sg75
g1036
sg68
(lp1199
g61
(g82
g63
NtRp1200
(dp1201
g66
(dp1202
g86
g87
ssg75
g1196
sg68
(lp1203
S'http_accept'
p1204
asbag61
(g82
g63
NtRp1205
(dp1206
g66
(dp1207
g93
g94
ssg75
g1196
sg68
(lp1208
S':'
asbag61
(g82
g63
NtRp1209
(dp1210
g66
(dp1211
sg75
g1196
sg68
(lp1212
g61
(g62
g63
NtRp1213
(dp1214
g66
(dp1215
g74
I4
ssg75
g1209
sg68
(lp1216
S'text/html,application/xhtml+xml,application/xml;q=0.9,*/*;q=0.8'
p1217
asbasbasbag61
(g77
g63
NtRp1218
(dp1219
g66
(dp1220
sg75
g1036
sg68
(lp1221
g61
(g82
g63
NtRp1222
(dp1223
g66
(dp1224
g86
g87
ssg75
g1218
sg68
(lp1225
S'http_accept_charset'
p1226
asbag61
(g82
g63
NtRp1227
(dp1228
g66
(dp1229
g93
g94
ssg75
g1218
sg68
(lp1230
S':'
asbag61
(g82
g63
NtRp1231
(dp1232
g66
(dp1233
sg75
g1218
sg68
(lp1234
g61
(g62
g63
NtRp1235
(dp1236
g66
(dp1237
g74
I4
ssg75
g1231
sg68
(lp1238
S'ISO-8859-1,utf-8;q=0.7,*;q=0.3'
p1239
asbasbasbag61
(g77
g63
NtRp1240
(dp1241
g66
(dp1242
sg75
g1036
sg68
(lp1243
g61
(g82
g63
NtRp1244
(dp1245
g66
(dp1246
g86
g87
ssg75
g1240
sg68
(lp1247
S'http_accept_encoding'
p1248
asbag61
(g82
g63
NtRp1249
(dp1250
g66
(dp1251
g93
g94
ssg75
g1240
sg68
(lp1252
S':'
asbag61
(g82
g63
NtRp1253
(dp1254
g66
(dp1255
sg75
g1240
sg68
(lp1256
g61
(g62
g63
NtRp1257
(dp1258
g66
(dp1259
g74
I4
ssg75
g1253
sg68
(lp1260
S'gzip,deflate,sdch'
p1261
asbasbasbag61
(g77
g63
NtRp1262
(dp1263
g66
(dp1264
sg75
g1036
sg68
(lp1265
g61
(g82
g63
NtRp1266
(dp1267
g66
(dp1268
g86
g87
ssg75
g1262
sg68
(lp1269
S'http_accept_language'
p1270
asbag61
(g82
g63
NtRp1271
(dp1272
g66
(dp1273
g93
g94
ssg75
g1262
sg68
(lp1274
S':'
asbag61
(g82
g63
NtRp1275
(dp1276
g66
(dp1277
sg75
g1262
sg68
(lp1278
g61
(g62
g63
NtRp1279
(dp1280
g66
(dp1281
g74
I4
ssg75
g1275
sg68
(lp1282
S'es-ES,es;q=0.8'
p1283
asbasbasbag61
(g77
g63
NtRp1284
(dp1285
g66
(dp1286
sg75
g1036
sg68
(lp1287
g61
(g82
g63
NtRp1288
(dp1289
g66
(dp1290
g86
g87
ssg75
g1284
sg68
(lp1291
S'http_connection'
p1292
asbag61
(g82
g63
NtRp1293
(dp1294
g66
(dp1295
g93
g94
ssg75
g1284
sg68
(lp1296
S':'
asbag61
(g82
g63
NtRp1297
(dp1298
g66
(dp1299
sg75
g1284
sg68
(lp1300
g61
(g62
g63
NtRp1301
(dp1302
g66
(dp1303
g74
I4
ssg75
g1297
sg68
(lp1304
S'keep-alive'
p1305
asbasbasbag61
(g77
g63
NtRp1306
(dp1307
g66
(dp1308
sg75
g1036
sg68
(lp1309
g61
(g82
g63
NtRp1310
(dp1311
g66
(dp1312
g86
g87
ssg75
g1306
sg68
(lp1313
S'http_cookie'
p1314
asbag61
(g82
g63
NtRp1315
(dp1316
g66
(dp1317
g93
g94
ssg75
g1306
sg68
(lp1318
S':'
asbag61
(g82
g63
NtRp1319
(dp1320
g66
(dp1321
sg75
g1306
sg68
(lp1322
g61
(g62
g63
NtRp1323
(dp1324
g66
(dp1325
g74
I4
ssg75
g1319
sg68
(lp1326
S'kaej_unique_user=1; session_id_welcome=127.0.0.1-ebfdc699-9472-4804-814f-75e37bc25576; session_id_cygnuscloud=127.0.0.1-c587975d-3dc0-4e19-8fd9-70fb7b0fbde9; session_id_admin=127.0.0.1-41da04db-390e-412d-bcee-51806220151f'
p1327
asbasbasbag61
(g77
g63
NtRp1328
(dp1329
g66
(dp1330
sg75
g1036
sg68
(lp1331
g61
(g82
g63
NtRp1332
(dp1333
g66
(dp1334
g86
g87
ssg75
g1328
sg68
(lp1335
S'http_host'
p1336
asbag61
(g82
g63
NtRp1337
(dp1338
g66
(dp1339
g93
g94
ssg75
g1328
sg68
(lp1340
S':'
asbag61
(g82
g63
NtRp1341
(dp1342
g66
(dp1343
sg75
g1328
sg68
(lp1344
g61
(g62
g63
NtRp1345
(dp1346
g66
(dp1347
g74
I4
ssg75
g1341
sg68
(lp1348
S'127.0.0.1:8000'
p1349
asbasbasbag61
(g77
g63
NtRp1350
(dp1351
g66
(dp1352
sg75
g1036
sg68
(lp1353
g61
(g82
g63
NtRp1354
(dp1355
g66
(dp1356
g86
g87
ssg75
g1350
sg68
(lp1357
S'http_user_agent'
p1358
asbag61
(g82
g63
NtRp1359
(dp1360
g66
(dp1361
g93
g94
ssg75
g1350
sg68
(lp1362
S':'
asbag61
(g82
g63
NtRp1363
(dp1364
g66
(dp1365
sg75
g1350
sg68
(lp1366
g61
(g62
g63
NtRp1367
(dp1368
g66
(dp1369
g74
I4
ssg75
g1363
sg68
(lp1370
S'Mozilla/5.0 (X11; Linux x86_64) AppleWebKit/537.11 (KHTML, like Gecko) Chrome/23.0.1271.64 Safari/537.11'
p1371
asbasbasbag61
(g77
g63
NtRp1372
(dp1373
g66
(dp1374
sg75
g1036
sg68
(lp1375
g61
(g82
g63
NtRp1376
(dp1377
g66
(dp1378
g86
g87
ssg75
g1372
sg68
(lp1379
S'is_jython'
p1380
asbag61
(g82
g63
NtRp1381
(dp1382
g66
(dp1383
g93
g94
ssg75
g1372
sg68
(lp1384
S':'
asbag61
(g82
g63
NtRp1385
(dp1386
g66
(dp1387
sg75
g1372
sg68
(lp1388
g61
(g62
g63
NtRp1389
(dp1390
g66
(dp1391
g74
I4
ssg75
g1385
sg68
(lp1392
g104
asbasbasbag61
(g77
g63
NtRp1393
(dp1394
g66
(dp1395
sg75
g1036
sg68
(lp1396
g61
(g82
g63
NtRp1397
(dp1398
g66
(dp1399
g86
g87
ssg75
g1393
sg68
(lp1400
S'is_pypy'
p1401
asbag61
(g82
g63
NtRp1402
(dp1403
g66
(dp1404
g93
g94
ssg75
g1393
sg68
(lp1405
S':'
asbag61
(g82
g63
NtRp1406
(dp1407
g66
(dp1408
sg75
g1393
sg68
(lp1409
g61
(g62
g63
NtRp1410
(dp1411
g66
(dp1412
g74
I4
ssg75
g1406
sg68
(lp1413
g104
asbasbasbag61
(g77
g63
NtRp1414
(dp1415
g66
(dp1416
sg75
g1036
sg68
(lp1417
g61
(g82
g63
NtRp1418
(dp1419
g66
(dp1420
g86
g87
ssg75
g1414
sg68
(lp1421
S'local_hosts'
p1422
asbag61
(g82
g63
NtRp1423
(dp1424
g66
(dp1425
g93
g94
ssg75
g1414
sg68
(lp1426
S':'
asbag61
(g82
g63
NtRp1427
(dp1428
g66
(dp1429
sg75
g1414
sg68
(lp1430
g61
(g62
g63
NtRp1431
(dp1432
g66
(dp1433
g74
I4
ssg75
g1427
sg68
(lp1434
g61
(g70
g63
NtRp1435
(dp1436
g66
(dp1437
g74
I3
ssg75
Nsg68
(lp1438
g61
(g77
g63
NtRp1439
(dp1440
g66
(dp1441
sg75
g1435
sg68
(lp1442
g61
(g82
g63
NtRp1443
(dp1444
g66
(dp1445
sg75
g1439
sg68
(lp1446
g61
(g62
g63
NtRp1447
(dp1448
g66
(dp1449
g74
I3
ssg75
g1443
sg68
(lp1450
S'adri-EasyNote'
p1451
asbasbasbag61
(g77
g63
NtRp1452
(dp1453
g66
(dp1454
sg75
g1435
sg68
(lp1455
g61
(g82
g63
NtRp1456
(dp1457
g66
(dp1458
sg75
g1452
sg68
(lp1459
g61
(g62
g63
NtRp1460
(dp1461
g66
(dp1462
g74
I3
ssg75
g1456
sg68
(lp1463
S'::1'
p1464
asbasbasbag61
(g77
g63
NtRp1465
(dp1466
g66
(dp1467
sg75
g1435
sg68
(lp1468
g61
(g82
g63
NtRp1469
(dp1470
g66
(dp1471
sg75
g1465
sg68
(lp1472
g61
(g62
g63
NtRp1473
(dp1474
g66
(dp1475
g74
I3
ssg75
g1469
sg68
(lp1476
S'127.0.1.1'
p1477
asbasbasbag61
(g77
g63
NtRp1478
(dp1479
g66
(dp1480
sg75
g1435
sg68
(lp1481
g61
(g82
g63
NtRp1482
(dp1483
g66
(dp1484
sg75
g1478
sg68
(lp1485
g61
(g62
g63
NtRp1486
(dp1487
g66
(dp1488
g74
I3
ssg75
g1482
sg68
(lp1489
S'::ffff:127.0.0.1'
p1490
asbasbasbag61
(g77
g63
NtRp1491
(dp1492
g66
(dp1493
sg75
g1435
sg68
(lp1494
g61
(g82
g63
NtRp1495
(dp1496
g66
(dp1497
sg75
g1491
sg68
(lp1498
g61
(g62
g63
NtRp1499
(dp1500
g66
(dp1501
g74
I3
ssg75
g1495
sg68
(lp1502
S'127.0.0.1'
p1503
asbasbasbasbasbasbasbag61
(g77
g63
NtRp1504
(dp1505
g66
(dp1506
sg75
g1036
sg68
(lp1507
g61
(g82
g63
NtRp1508
(dp1509
g66
(dp1510
g86
g87
ssg75
g1504
sg68
(lp1511
S'path_info'
p1512
asbag61
(g82
g63
NtRp1513
(dp1514
g66
(dp1515
g93
g94
ssg75
g1504
sg68
(lp1516
S':'
asbag61
(g82
g63
NtRp1517
(dp1518
g66
(dp1519
sg75
g1504
sg68
(lp1520
g61
(g62
g63
NtRp1521
(dp1522
g66
(dp1523
g74
I4
ssg75
g1517
sg68
(lp1524
S'/CygnusCloud/main/login'
p1525
asbasbasbag61
(g77
g63
NtRp1526
(dp1527
g66
(dp1528
sg75
g1036
sg68
(lp1529
g61
(g82
g63
NtRp1530
(dp1531
g66
(dp1532
g86
g87
ssg75
g1526
sg68
(lp1533
S'query_string'
p1534
asbag61
(g82
g63
NtRp1535
(dp1536
g66
(dp1537
g93
g94
ssg75
g1526
sg68
(lp1538
S':'
asbag61
(g82
g63
NtRp1539
(dp1540
g66
(dp1541
sg75
g1526
sg68
(lp1542
g61
(g62
g63
NtRp1543
(dp1544
g66
(dp1545
g74
I4
ssg75
g1539
sg68
(lp1546
S''
asbasbasbag61
(g77
g63
NtRp1547
(dp1548
g66
(dp1549
sg75
g1036
sg68
(lp1550
g61
(g82
g63
NtRp1551
(dp1552
g66
(dp1553
g86
g87
ssg75
g1547
sg68
(lp1554
S'remote_addr'
p1555
asbag61
(g82
g63
NtRp1556
(dp1557
g66
(dp1558
g93
g94
ssg75
g1547
sg68
(lp1559
S':'
asbag61
(g82
g63
NtRp1560
(dp1561
g66
(dp1562
sg75
g1547
sg68
(lp1563
g61
(g62
g63
NtRp1564
(dp1565
g66
(dp1566
g74
I4
ssg75
g1560
sg68
(lp1567
g216
asbasbasbag61
(g77
g63
NtRp1568
(dp1569
g66
(dp1570
sg75
g1036
sg68
(lp1571
g61
(g82
g63
NtRp1572
(dp1573
g66
(dp1574
g86
g87
ssg75
g1568
sg68
(lp1575
S'remote_port'
p1576
asbag61
(g82
g63
NtRp1577
(dp1578
g66
(dp1579
g93
g94
ssg75
g1568
sg68
(lp1580
S':'
asbag61
(g82
g63
NtRp1581
(dp1582
g66
(dp1583
sg75
g1568
sg68
(lp1584
g61
(g62
g63
NtRp1585
(dp1586
g66
(dp1587
g74
I4
ssg75
g1581
sg68
(lp1588
S'33813'
p1589
asbasbasbag61
(g77
g63
NtRp1590
(dp1591
g66
(dp1592
sg75
g1036
sg68
(lp1593
g61
(g82
g63
NtRp1594
(dp1595
g66
(dp1596
g86
g87
ssg75
g1590
sg68
(lp1597
S'request_method'
p1598
asbag61
(g82
g63
NtRp1599
(dp1600
g66
(dp1601
g93
g94
ssg75
g1590
sg68
(lp1602
S':'
asbag61
(g82
g63
NtRp1603
(dp1604
g66
(dp1605
sg75
g1590
sg68
(lp1606
g61
(g62
g63
NtRp1607
(dp1608
g66
(dp1609
g74
I4
ssg75
g1603
sg68
(lp1610
S'GET'
p1611
asbasbasbag61
(g77
g63
NtRp1612
(dp1613
g66
(dp1614
sg75
g1036
sg68
(lp1615
g61
(g82
g63
NtRp1616
(dp1617
g66
(dp1618
g86
g87
ssg75
g1612
sg68
(lp1619
S'request_uri'
p1620
asbag61
(g82
g63
NtRp1621
(dp1622
g66
(dp1623
g93
g94
ssg75
g1612
sg68
(lp1624
S':'
asbag61
(g82
g63
NtRp1625
(dp1626
g66
(dp1627
sg75
g1612
sg68
(lp1628
g61
(g62
g63
NtRp1629
(dp1630
g66
(dp1631
g74
I4
ssg75
g1625
sg68
(lp1632
g1525
asbasbasbag61
(g77
g63
NtRp1633
(dp1634
g66
(dp1635
sg75
g1036
sg68
(lp1636
g61
(g82
g63
NtRp1637
(dp1638
g66
(dp1639
g86
g87
ssg75
g1633
sg68
(lp1640
S'script_name'
p1641
asbag61
(g82
g63
NtRp1642
(dp1643
g66
(dp1644
g93
g94
ssg75
g1633
sg68
(lp1645
S':'
asbag61
(g82
g63
NtRp1646
(dp1647
g66
(dp1648
sg75
g1633
sg68
(lp1649
g61
(g62
g63
NtRp1650
(dp1651
g66
(dp1652
g74
I4
ssg75
g1646
sg68
(lp1653
S''
asbasbasbag61
(g77
g63
NtRp1654
(dp1655
g66
(dp1656
sg75
g1036
sg68
(lp1657
g61
(g82
g63
NtRp1658
(dp1659
g66
(dp1660
g86
g87
ssg75
g1654
sg68
(lp1661
S'server_name'
p1662
asbag61
(g82
g63
NtRp1663
(dp1664
g66
(dp1665
g93
g94
ssg75
g1654
sg68
(lp1666
S':'
asbag61
(g82
g63
NtRp1667
(dp1668
g66
(dp1669
sg75
g1654
sg68
(lp1670
g61
(g62
g63
NtRp1671
(dp1672
g66
(dp1673
g74
I4
ssg75
g1667
sg68
(lp1674
S'adri-EasyNote'
p1675
asbasbasbag61
(g77
g63
NtRp1676
(dp1677
g66
(dp1678
sg75
g1036
sg68
(lp1679
g61
(g82
g63
NtRp1680
(dp1681
g66
(dp1682
g86
g87
ssg75
g1676
sg68
(lp1683
S'server_port'
p1684
asbag61
(g82
g63
NtRp1685
(dp1686
g66
(dp1687
g93
g94
ssg75
g1676
sg68
(lp1688
S':'
asbag61
(g82
g63
NtRp1689
(dp1690
g66
(dp1691
sg75
g1676
sg68
(lp1692
g61
(g62
g63
NtRp1693
(dp1694
g66
(dp1695
g74
I4
ssg75
g1689
sg68
(lp1696
S'8000'
p1697
asbasbasbag61
(g77
g63
NtRp1698
(dp1699
g66
(dp1700
sg75
g1036
sg68
(lp1701
g61
(g82
g63
NtRp1702
(dp1703
g66
(dp1704
g86
g87
ssg75
g1698
sg68
(lp1705
S'server_protocol'
p1706
asbag61
(g82
g63
NtRp1707
(dp1708
g66
(dp1709
g93
g94
ssg75
g1698
sg68
(lp1710
S':'
asbag61
(g82
g63
NtRp1711
(dp1712
g66
(dp1713
sg75
g1698
sg68
(lp1714
g61
(g62
g63
NtRp1715
(dp1716
g66
(dp1717
g74
I4
ssg75
g1711
sg68
(lp1718
S'HTTP/1.1'
p1719
asbasbasbag61
(g77
g63
NtRp1720
(dp1721
g66
(dp1722
sg75
g1036
sg68
(lp1723
g61
(g82
g63
NtRp1724
(dp1725
g66
(dp1726
g86
g87
ssg75
g1720
sg68
(lp1727
S'server_software'
p1728
asbag61
(g82
g63
NtRp1729
(dp1730
g66
(dp1731
g93
g94
ssg75
g1720
sg68
(lp1732
S':'
asbag61
(g82
g63
NtRp1733
(dp1734
g66
(dp1735
sg75
g1720
sg68
(lp1736
g61
(g62
g63
NtRp1737
(dp1738
g66
(dp1739
g74
I4
ssg75
g1733
sg68
(lp1740
S'Rocket 1.2.6'
p1741
asbasbasbag61
(g77
g63
NtRp1742
(dp1743
g66
(dp1744
sg75
g1036
sg68
(lp1745
g61
(g82
g63
NtRp1746
(dp1747
g66
(dp1748
g86
g87
ssg75
g1742
sg68
(lp1749
S'web2py_path'
p1750
asbag61
(g82
g63
NtRp1751
(dp1752
g66
(dp1753
g93
g94
ssg75
g1742
sg68
(lp1754
S':'
asbag61
(g82
g63
NtRp1755
(dp1756
g66
(dp1757
sg75
g1742
sg68
(lp1758
g61
(g62
g63
NtRp1759
(dp1760
g66
(dp1761
g74
I4
ssg75
g1755
sg68
(lp1762
g1083
asbasbasbag61
(g77
g63
NtRp1763
(dp1764
g66
(dp1765
sg75
g1036
sg68
(lp1766
g61
(g82
g63
NtRp1767
(dp1768
g66
(dp1769
g86
g87
ssg75
g1763
sg68
(lp1770
S'web2py_version'
p1771
asbag61
(g82
g63
NtRp1772
(dp1773
g66
(dp1774
g93
g94
ssg75
g1763
sg68
(lp1775
S':'
asbag61
(g82
g63
NtRp1776
(dp1777
g66
(dp1778
sg75
g1763
sg68
(lp1779
g61
(g62
g63
NtRp1780
(dp1781
g66
(dp1782
g74
I4
ssg75
g1776
sg68
(lp1783
g61
(g70
g63
NtRp1784
(dp1785
g66
(dp1786
g74
I3
ssg75
Nsg68
(lp1787
g61
(g77
g63
NtRp1788
(dp1789
g66
(dp1790
sg75
g1784
sg68
(lp1791
g61
(g82
g63
NtRp1792
(dp1793
g66
(dp1794
sg75
g1788
sg68
(lp1795
g61
(g62
g63
NtRp1796
(dp1797
g66
(dp1798
g74
I3
ssg75
g1792
sg68
(lp1799
S'2'
asbasbasbag61
(g77
g63
NtRp1800
(dp1801
g66
(dp1802
sg75
g1784
sg68
(lp1803
g61
(g82
g63
NtRp1804
(dp1805
g66
(dp1806
sg75
g1800
sg68
(lp1807
g61
(g62
g63
NtRp1808
(dp1809
g66
(dp1810
g74
I3
ssg75
g1804
sg68
(lp1811
S'3'
asbasbasbag61
(g77
g63
NtRp1812
(dp1813
g66
(dp1814
sg75
g1784
sg68
(lp1815
g61
(g82
g63
NtRp1816
(dp1817
g66
(dp1818
sg75
g1812
sg68
(lp1819
g61
(g62
g63
NtRp1820
(dp1821
g66
(dp1822
g74
I3
ssg75
g1816
sg68
(lp1823
S'2'
asbasbasbag61
(g77
g63
NtRp1824
(dp1825
g66
(dp1826
sg75
g1784
sg68
(lp1827
g61
(g82
g63
NtRp1828
(dp1829
g66
(dp1830
sg75
g1824
sg68
(lp1831
g61
(g62
g63
NtRp1832
(dp1833
g66
(dp1834
g74
I3
ssg75
g1828
sg68
(lp1835
S'datetime.datetime(2012, 12, 17, 15, 3, 30)'
p1836
asbasbasbag61
(g77
g63
NtRp1837
(dp1838
g66
(dp1839
sg75
g1784
sg68
(lp1840
g61
(g82
g63
NtRp1841
(dp1842
g66
(dp1843
sg75
g1837
sg68
(lp1844
g61
(g62
g63
NtRp1845
(dp1846
g66
(dp1847
g74
I3
ssg75
g1841
sg68
(lp1848
S'stable'
p1849
asbasbasbasbasbasbasbag61
(g77
g63
NtRp1850
(dp1851
g66
(dp1852
sg75
g1036
sg68
(lp1853
g61
(g82
g63
NtRp1854
(dp1855
g66
(dp1856
g86
g87
ssg75
g1850
sg68
(lp1857
S'wsgi_errors'
p1858
asbag61
(g82
g63
NtRp1859
(dp1860
g66
(dp1861
g93
g94
ssg75
g1850
sg68
(lp1862
S':'
asbag61
(g82
g63
NtRp1863
(dp1864
g66
(dp1865
sg75
g1850
sg68
(lp1866
g61
(g62
g63
NtRp1867
(dp1868
g66
(dp1869
g74
I4
ssg75
g1863
sg68
(lp1870
S"<open file '<stderr>', mode 'w' at 0x7fd05c555270>"
p1871
asbasbasbag61
(g77
g63
NtRp1872
(dp1873
g66
(dp1874
sg75
g1036
sg68
(lp1875
g61
(g82
g63
NtRp1876
(dp1877
g66
(dp1878
g86
g87
ssg75
g1872
sg68
(lp1879
S'wsgi_file_wrapper'
p1880
asbag61
(g82
g63
NtRp1881
(dp1882
g66
(dp1883
g93
g94
ssg75
g1872
sg68
(lp1884
S':'
asbag61
(g82
g63
NtRp1885
(dp1886
g66
(dp1887
sg75
g1872
sg68
(lp1888
g61
(g62
g63
NtRp1889
(dp1890
g66
(dp1891
g74
I4
ssg75
g1885
sg68
(lp1892
S'<class wsgiref.util.FileWrapper at 0x2711db8>'
p1893
asbasbasbag61
(g77
g63
NtRp1894
(dp1895
g66
(dp1896
sg75
g1036
sg68
(lp1897
g61
(g82
g63
NtRp1898
(dp1899
g66
(dp1900
g86
g87
ssg75
g1894
sg68
(lp1901
S'wsgi_input'
p1902
asbag61
(g82
g63
NtRp1903
(dp1904
g66
(dp1905
g93
g94
ssg75
g1894
sg68
(lp1906
S':'
asbag61
(g82
g63
NtRp1907
(dp1908
g66
(dp1909
sg75
g1894
sg68
(lp1910
g61
(g62
g63
NtRp1911
(dp1912
g66
(dp1913
g74
I4
ssg75
g1907
sg68
(lp1914
S'<socket._fileobject object at 0x7fd0403efe50>'
p1915
asbasbasbag61
(g77
g63
NtRp1916
(dp1917
g66
(dp1918
sg75
g1036
sg68
(lp1919
g61
(g82
g63
NtRp1920
(dp1921
g66
(dp1922
g86
g87
ssg75
g1916
sg68
(lp1923
S'wsgi_multiprocess'
p1924
asbag61
(g82
g63
NtRp1925
(dp1926
g66
(dp1927
g93
g94
ssg75
g1916
sg68
(lp1928
S':'
asbag61
(g82
g63
NtRp1929
(dp1930
g66
(dp1931
sg75
g1916
sg68
(lp1932
g61
(g62
g63
NtRp1933
(dp1934
g66
(dp1935
g74
I4
ssg75
g1929
sg68
(lp1936
g104
asbasbasbag61
(g77
g63
NtRp1937
(dp1938
g66
(dp1939
sg75
g1036
sg68
(lp1940
g61
(g82
g63
NtRp1941
(dp1942
g66
(dp1943
g86
g87
ssg75
g1937
sg68
(lp1944
S'wsgi_multithread'
p1945
asbag61
(g82
g63
NtRp1946
(dp1947
g66
(dp1948
g93
g94
ssg75
g1937
sg68
(lp1949
S':'
asbag61
(g82
g63
NtRp1950
(dp1951
g66
(dp1952
sg75
g1937
sg68
(lp1953
g61
(g62
g63
NtRp1954
(dp1955
g66
(dp1956
g74
I4
ssg75
g1950
sg68
(lp1957
S'True'
p1958
asbasbasbag61
(g77
g63
NtRp1959
(dp1960
g66
(dp1961
sg75
g1036
sg68
(lp1962
g61
(g82
g63
NtRp1963
(dp1964
g66
(dp1965
g86
g87
ssg75
g1959
sg68
(lp1966
S'wsgi_run_once'
p1967
asbag61
(g82
g63
NtRp1968
(dp1969
g66
(dp1970
g93
g94
ssg75
g1959
sg68
(lp1971
S':'
asbag61
(g82
g63
NtRp1972
(dp1973
g66
(dp1974
sg75
g1959
sg68
(lp1975
g61
(g62
g63
NtRp1976
(dp1977
g66
(dp1978
g74
I4
ssg75
g1972
sg68
(lp1979
g104
asbasbasbag61
(g77
g63
NtRp1980
(dp1981
g66
(dp1982
sg75
g1036
sg68
(lp1983
g61
(g82
g63
NtRp1984
(dp1985
g66
(dp1986
g86
g87
ssg75
g1980
sg68
(lp1987
S'wsgi_url_scheme'
p1988
asbag61
(g82
g63
NtRp1989
(dp1990
g66
(dp1991
g93
g94
ssg75
g1980
sg68
(lp1992
S':'
asbag61
(g82
g63
NtRp1993
(dp1994
g66
(dp1995
sg75
g1980
sg68
(lp1996
g61
(g62
g63
NtRp1997
(dp1998
g66
(dp1999
g74
I4
ssg75
g1993
sg68
(lp2000
S'http'
p2001
asbasbasbag61
(g77
g63
NtRp2002
(dp2003
g66
(dp2004
sg75
g1036
sg68
(lp2005
g61
(g82
g63
NtRp2006
(dp2007
g66
(dp2008
g86
g87
ssg75
g2002
sg68
(lp2009
S'wsgi_version'
p2010
asbag61
(g82
g63
NtRp2011
(dp2012
g66
(dp2013
g93
g94
ssg75
g2002
sg68
(lp2014
S':'
asbag61
(g82
g63
NtRp2015
(dp2016
g66
(dp2017
sg75
g2002
sg68
(lp2018
g61
(g62
g63
NtRp2019
(dp2020
g66
(dp2021
g74
I4
ssg75
g2015
sg68
(lp2022
g61
(g70
g63
NtRp2023
(dp2024
g66
(dp2025
g74
I3
ssg75
Nsg68
(lp2026
g61
(g77
g63
NtRp2027
(dp2028
g66
(dp2029
sg75
g2023
sg68
(lp2030
g61
(g82
g63
NtRp2031
(dp2032
g66
(dp2033
sg75
g2027
sg68
(lp2034
g61
(g62
g63
NtRp2035
(dp2036
g66
(dp2037
g74
I3
ssg75
g2031
sg68
(lp2038
S'1'
asbasbasbag61
(g77
g63
NtRp2039
(dp2040
g66
(dp2041
sg75
g2023
sg68
(lp2042
g61
(g82
g63
NtRp2043
(dp2044
g66
(dp2045
sg75
g2039
sg68
(lp2046
g61
(g62
g63
NtRp2047
(dp2048
g66
(dp2049
g74
I3
ssg75
g2043
sg68
(lp2050
S'0'
asbasbasbasbasbasbasbasbasbasbasbag61
(g77
g63
NtRp2051
(dp2052
g66
(dp2053
sg75
g71
sg68
(lp2054
g61
(g82
g63
NtRp2055
(dp2056
g66
(dp2057
g86
g87
ssg75
g2051
sg68
(lp2058
S'extension'
p2059
asbag61
(g82
g63
NtRp2060
(dp2061
g66
(dp2062
g93
g94
ssg75
g2051
sg68
(lp2063
S':'
asbag61
(g82
g63
NtRp2064
(dp2065
g66
(dp2066
sg75
g2051
sg68
(lp2067
g61
(g62
g63
NtRp2068
(dp2069
g66
(dp2070
g74
I5
ssg75
g2064
sg68
(lp2071
S'html'
p2072
asbasbasbag61
(g77
g63
NtRp2073
(dp2074
g66
(dp2075
sg75
g71
sg68
(lp2076
g61
(g82
g63
NtRp2077
(dp2078
g66
(dp2079
g86
g87
ssg75
g2073
sg68
(lp2080
S'folder'
p2081
asbag61
(g82
g63
NtRp2082
(dp2083
g66
(dp2084
g93
g94
ssg75
g2073
sg68
(lp2085
S':'
asbag61
(g82
g63
NtRp2086
(dp2087
g66
(dp2088
sg75
g2073
sg68
(lp2089
g61
(g62
g63
NtRp2090
(dp2091
g66
(dp2092
g74
I5
ssg75
g2086
sg68
(lp2093
S'/home/adrian/web2py/applications/CygnusCloud/'
p2094
asbasbasbag61
(g77
g63
NtRp2095
(dp2096
g66
(dp2097
sg75
g71
sg68
(lp2098
g61
(g82
g63
NtRp2099
(dp2100
g66
(dp2101
g86
g87
ssg75
g2095
sg68
(lp2102
S'function'
p2103
asbag61
(g82
g63
NtRp2104
(dp2105
g66
(dp2106
g93
g94
ssg75
g2095
sg68
(lp2107
S':'
asbag61
(g82
g63
NtRp2108
(dp2109
g66
(dp2110
sg75
g2095
sg68
(lp2111
g61
(g62
g63
NtRp2112
(dp2113
g66
(dp2114
g74
I5
ssg75
g2108
sg68
(lp2115
S'login'
p2116
asbasbasbag61
(g77
g63
NtRp2117
(dp2118
g66
(dp2119
sg75
g71
sg68
(lp2120
g61
(g82
g63
NtRp2121
(dp2122
g66
(dp2123
g86
g87
ssg75
g2117
sg68
(lp2124
S'get_vars'
p2125
asbag61
(g82
g63
NtRp2126
(dp2127
g66
(dp2128
g93
g94
ssg75
g2117
sg68
(lp2129
S':'
asbag61
(g82
g63
NtRp2130
(dp2131
g66
(dp2132
sg75
g2117
sg68
(lp2133
g61
(g62
g63
NtRp2134
(dp2135
g66
(dp2136
g74
I5
ssg75
g2130
sg68
(lp2137
g61
(g70
g63
NtRp2138
(dp2139
g66
(dp2140
g74
I4
ssg75
Nsg68
(lp2141
sbasbasbasbag61
(g77
g63
NtRp2142
(dp2143
g66
(dp2144
sg75
g71
sg68
(lp2145
g61
(g82
g63
NtRp2146
(dp2147
g66
(dp2148
g86
g87
ssg75
g2142
sg68
(lp2149
S'global_settings'
p2150
asbag61
(g82
g63
NtRp2151
(dp2152
g66
(dp2153
g93
g94
ssg75
g2142
sg68
(lp2154
S':'
asbag61
(g82
g63
NtRp2155
(dp2156
g66
(dp2157
sg75
g2142
sg68
(lp2158
g61
(g62
g63
NtRp2159
(dp2160
g66
(dp2161
g74
I5
ssg75
g2155
sg68
(lp2162
g61
(g70
g63
NtRp2163
(dp2164
g66
(dp2165
g74
I4
ssg75
Nsg68
(lp2166
g61
(g77
g63
NtRp2167
(dp2168
g66
(dp2169
sg75
g2163
sg68
(lp2170
g61
(g82
g63
NtRp2171
(dp2172
g66
(dp2173
g86
g87
ssg75
g2167
sg68
(lp2174
g1048
asbag61
(g82
g63
NtRp2175
(dp2176
g66
(dp2177
g93
g94
ssg75
g2167
sg68
(lp2178
S':'
asbag61
(g82
g63
NtRp2179
(dp2180
g66
(dp2181
sg75
g2167
sg68
(lp2182
g61
(g62
g63
NtRp2183
(dp2184
g66
(dp2185
g74
I4
ssg75
g2179
sg68
(lp2186
S"set(['/home/adrian/web2py/applications/admin/', '/home/adrian/web2py/applications/CygnusCloud/'])"
p2187
asbasbasbag61
(g77
g63
NtRp2188
(dp2189
g66
(dp2190
sg75
g2163
sg68
(lp2191
g61
(g82
g63
NtRp2192
(dp2193
g66
(dp2194
g86
g87
ssg75
g2188
sg68
(lp2195
g1070
asbag61
(g82
g63
NtRp2196
(dp2197
g66
(dp2198
g93
g94
ssg75
g2188
sg68
(lp2199
S':'
asbag61
(g82
g63
NtRp2200
(dp2201
g66
(dp2202
sg75
g2188
sg68
(lp2203
g61
(g62
g63
NtRp2204
(dp2205
g66
(dp2206
g74
I4
ssg75
g2200
sg68
(lp2207
g1083
asbasbasbag61
(g77
g63
NtRp2208
(dp2209
g66
(dp2210
sg75
g2163
sg68
(lp2211
g61
(g82
g63
NtRp2212
(dp2213
g66
(dp2214
g86
g87
ssg75
g2208
sg68
(lp2215
g1092
asbag61
(g82
g63
NtRp2216
(dp2217
g66
(dp2218
g93
g94
ssg75
g2208
sg68
(lp2219
S':'
asbag61
(g82
g63
NtRp2220
(dp2221
g66
(dp2222
sg75
g2208
sg68
(lp2223
g61
(g62
g63
NtRp2224
(dp2225
g66
(dp2226
g74
I4
ssg75
g2220
sg68
(lp2227
g61
(g70
g63
NtRp2228
(dp2229
g66
(dp2230
g74
I3
ssg75
Nsg68
(lp2231
sbasbasbasbag61
(g77
g63
NtRp2232
(dp2233
g66
(dp2234
sg75
g2163
sg68
(lp2235
g61
(g82
g63
NtRp2236
(dp2237
g66
(dp2238
g86
g87
ssg75
g2232
sg68
(lp2239
g1117
asbag61
(g82
g63
NtRp2240
(dp2241
g66
(dp2242
g93
g94
ssg75
g2232
sg68
(lp2243
S':'
asbag61
(g82
g63
NtRp2244
(dp2245
g66
(dp2246
sg75
g2232
sg68
(lp2247
g61
(g62
g63
NtRp2248
(dp2249
g66
(dp2250
g74
I4
ssg75
g2244
sg68
(lp2251
S"<Values at 0x27ddbd8: {'verbose': False, 'ip': '127.0.0.1', 'with_scheduler': False, 'ips': [], 'shutdown_timeout': 5, 'taskbar': False, 'port': 8000, 'maxthreads': None, 'softcron': False, 'server_name': 'adri-EasyNote', 'bpython': False, 'nogui': False, 'pid_filename': 'httpserver.pid', 'extcron': False, 'runcron': False, 'run_system_tests': False, 'test': None, 'folder': '/home/adrian/web2py', 'config': '', 'minthreads': None, 'winservice': '', 'shell': None, 'run': '', 'log_filename': 'httpserver.log', 'debuglevel': 30, 'args': [''], 'socket_timeout': 5, 'ssl_ca_certificate': None, 'scheduler': None, 'profiler_filename': None, 'ssl_private_key': '', 'scheduler_groups': None, 'password': 'cygnuscloud2012', 'request_queue_size': 5, 'ssl_certificate': '', 'cronjob': False, 'numthreads': None, 'quiet': False, 'interfaces': None, 'import_models': False, 'timeout': 10, 'plain': False, 'nobanner': False}>"
p2252
asbasbasbag61
(g77
g63
NtRp2253
(dp2254
g66
(dp2255
sg75
g2163
sg68
(lp2256
g61
(g82
g63
NtRp2257
(dp2258
g66
(dp2259
g86
g87
ssg75
g2253
sg68
(lp2260
g1139
asbag61
(g82
g63
NtRp2261
(dp2262
g66
(dp2263
g93
g94
ssg75
g2253
sg68
(lp2264
S':'
asbag61
(g82
g63
NtRp2265
(dp2266
g66
(dp2267
sg75
g2253
sg68
(lp2268
g61
(g62
g63
NtRp2269
(dp2270
g66
(dp2271
g74
I4
ssg75
g2265
sg68
(lp2272
S'set([])'
p2273
asbasbasbag61
(g77
g63
NtRp2274
(dp2275
g66
(dp2276
sg75
g2163
sg68
(lp2277
g61
(g82
g63
NtRp2278
(dp2279
g66
(dp2280
g86
g87
ssg75
g2274
sg68
(lp2281
g1161
asbag61
(g82
g63
NtRp2282
(dp2283
g66
(dp2284
g93
g94
ssg75
g2274
sg68
(lp2285
S':'
asbag61
(g82
g63
NtRp2286
(dp2287
g66
(dp2288
sg75
g2274
sg68
(lp2289
g61
(g62
g63
NtRp2290
(dp2291
g66
(dp2292
g74
I4
ssg75
g2286
sg68
(lp2293
g104
asbasbasbag61
(g77
g63
NtRp2294
(dp2295
g66
(dp2296
sg75
g2163
sg68
(lp2297
g61
(g82
g63
NtRp2298
(dp2299
g66
(dp2300
g86
g87
ssg75
g2294
sg68
(lp2301
g1182
asbag61
(g82
g63
NtRp2302
(dp2303
g66
(dp2304
g93
g94
ssg75
g2294
sg68
(lp2305
S':'
asbag61
(g82
g63
NtRp2306
(dp2307
g66
(dp2308
sg75
g2294
sg68
(lp2309
g61
(g62
g63
NtRp2310
(dp2311
g66
(dp2312
g74
I4
ssg75
g2306
sg68
(lp2313
g1195
asbasbasbag61
(g77
g63
NtRp2314
(dp2315
g66
(dp2316
sg75
g2163
sg68
(lp2317
g61
(g82
g63
NtRp2318
(dp2319
g66
(dp2320
g86
g87
ssg75
g2314
sg68
(lp2321
g1380
asbag61
(g82
g63
NtRp2322
(dp2323
g66
(dp2324
g93
g94
ssg75
g2314
sg68
(lp2325
S':'
asbag61
(g82
g63
NtRp2326
(dp2327
g66
(dp2328
sg75
g2314
sg68
(lp2329
g61
(g62
g63
NtRp2330
(dp2331
g66
(dp2332
g74
I4
ssg75
g2326
sg68
(lp2333
g104
asbasbasbag61
(g77
g63
NtRp2334
(dp2335
g66
(dp2336
sg75
g2163
sg68
(lp2337
g61
(g82
g63
NtRp2338
(dp2339
g66
(dp2340
g86
g87
ssg75
g2334
sg68
(lp2341
g1401
asbag61
(g82
g63
NtRp2342
(dp2343
g66
(dp2344
g93
g94
ssg75
g2334
sg68
(lp2345
S':'
asbag61
(g82
g63
NtRp2346
(dp2347
g66
(dp2348
sg75
g2334
sg68
(lp2349
g61
(g62
g63
NtRp2350
(dp2351
g66
(dp2352
g74
I4
ssg75
g2346
sg68
(lp2353
g104
asbasbasbag61
(g77
g63
NtRp2354
(dp2355
g66
(dp2356
sg75
g2163
sg68
(lp2357
g61
(g82
g63
NtRp2358
(dp2359
g66
(dp2360
g86
g87
ssg75
g2354
sg68
(lp2361
g1422
asbag61
(g82
g63
NtRp2362
(dp2363
g66
(dp2364
g93
g94
ssg75
g2354
sg68
(lp2365
S':'
asbag61
(g82
g63
NtRp2366
(dp2367
g66
(dp2368
sg75
g2354
sg68
(lp2369
g61
(g62
g63
NtRp2370
(dp2371
g66
(dp2372
g74
I4
ssg75
g2366
sg68
(lp2373
g61
(g70
g63
NtRp2374
(dp2375
g66
(dp2376
g74
I3
ssg75
Nsg68
(lp2377
g61
(g77
g63
NtRp2378
(dp2379
g66
(dp2380
sg75
g2374
sg68
(lp2381
g61
(g82
g63
NtRp2382
(dp2383
g66
(dp2384
sg75
g2378
sg68
(lp2385
g61
(g62
g63
NtRp2386
(dp2387
g66
(dp2388
g74
I3
ssg75
g2382
sg68
(lp2389
g1451
asbasbasbag61
(g77
g63
NtRp2390
(dp2391
g66
(dp2392
sg75
g2374
sg68
(lp2393
g61
(g82
g63
NtRp2394
(dp2395
g66
(dp2396
sg75
g2390
sg68
(lp2397
g61
(g62
g63
NtRp2398
(dp2399
g66
(dp2400
g74
I3
ssg75
g2394
sg68
(lp2401
g1464
asbasbasbag61
(g77
g63
NtRp2402
(dp2403
g66
(dp2404
sg75
g2374
sg68
(lp2405
g61
(g82
g63
NtRp2406
(dp2407
g66
(dp2408
sg75
g2402
sg68
(lp2409
g61
(g62
g63
NtRp2410
(dp2411
g66
(dp2412
g74
I3
ssg75
g2406
sg68
(lp2413
g1477
asbasbasbag61
(g77
g63
NtRp2414
(dp2415
g66
(dp2416
sg75
g2374
sg68
(lp2417
g61
(g82
g63
NtRp2418
(dp2419
g66
(dp2420
sg75
g2414
sg68
(lp2421
g61
(g62
g63
NtRp2422
(dp2423
g66
(dp2424
g74
I3
ssg75
g2418
sg68
(lp2425
g1490
asbasbasbag61
(g77
g63
NtRp2426
(dp2427
g66
(dp2428
sg75
g2374
sg68
(lp2429
g61
(g82
g63
NtRp2430
(dp2431
g66
(dp2432
sg75
g2426
sg68
(lp2433
g61
(g62
g63
NtRp2434
(dp2435
g66
(dp2436
g74
I3
ssg75
g2430
sg68
(lp2437
g1503
asbasbasbasbasbasbasbag61
(g77
g63
NtRp2438
(dp2439
g66
(dp2440
sg75
g2163
sg68
(lp2441
g61
(g82
g63
NtRp2442
(dp2443
g66
(dp2444
g86
g87
ssg75
g2438
sg68
(lp2445
g1771
asbag61
(g82
g63
NtRp2446
(dp2447
g66
(dp2448
g93
g94
ssg75
g2438
sg68
(lp2449
S':'
asbag61
(g82
g63
NtRp2450
(dp2451
g66
(dp2452
sg75
g2438
sg68
(lp2453
g61
(g62
g63
NtRp2454
(dp2455
g66
(dp2456
g74
I4
ssg75
g2450
sg68
(lp2457
g61
(g70
g63
NtRp2458
(dp2459
g66
(dp2460
g74
I3
ssg75
Nsg68
(lp2461
g61
(g77
g63
NtRp2462
(dp2463
g66
(dp2464
sg75
g2458
sg68
(lp2465
g61
(g82
g63
NtRp2466
(dp2467
g66
(dp2468
sg75
g2462
sg68
(lp2469
g61
(g62
g63
NtRp2470
(dp2471
g66
(dp2472
g74
I3
ssg75
g2466
sg68
(lp2473
S'2'
asbasbasbag61
(g77
g63
NtRp2474
(dp2475
g66
(dp2476
sg75
g2458
sg68
(lp2477
g61
(g82
g63
NtRp2478
(dp2479
g66
(dp2480
sg75
g2474
sg68
(lp2481
g61
(g62
g63
NtRp2482
(dp2483
g66
(dp2484
g74
I3
ssg75
g2478
sg68
(lp2485
S'3'
asbasbasbag61
(g77
g63
NtRp2486
(dp2487
g66
(dp2488
sg75
g2458
sg68
(lp2489
g61
(g82
g63
NtRp2490
(dp2491
g66
(dp2492
sg75
g2486
sg68
(lp2493
g61
(g62
g63
NtRp2494
(dp2495
g66
(dp2496
g74
I3
ssg75
g2490
sg68
(lp2497
S'2'
asbasbasbag61
(g77
g63
NtRp2498
(dp2499
g66
(dp2500
sg75
g2458
sg68
(lp2501
g61
(g82
g63
NtRp2502
(dp2503
g66
(dp2504
sg75
g2498
sg68
(lp2505
g61
(g62
g63
NtRp2506
(dp2507
g66
(dp2508
g74
I3
ssg75
g2502
sg68
(lp2509
S'datetime.datetime(2012, 12, 17, 15, 3, 30)'
p2510
asbasbasbag61
(g77
g63
NtRp2511
(dp2512
g66
(dp2513
sg75
g2458
sg68
(lp2514
g61
(g82
g63
NtRp2515
(dp2516
g66
(dp2517
sg75
g2511
sg68
(lp2518
g61
(g62
g63
NtRp2519
(dp2520
g66
(dp2521
g74
I3
ssg75
g2515
sg68
(lp2522
g1849
asbasbasbasbasbasbasbasbasbasbasbag61
(g77
g63
NtRp2523
(dp2524
g66
(dp2525
sg75
g71
sg68
(lp2526
g61
(g82
g63
NtRp2527
(dp2528
g66
(dp2529
g86
g87
ssg75
g2523
sg68
(lp2530
S'is_https'
p2531
asbag61
(g82
g63
NtRp2532
(dp2533
g66
(dp2534
g93
g94
ssg75
g2523
sg68
(lp2535
S':'
asbag61
(g82
g63
NtRp2536
(dp2537
g66
(dp2538
sg75
g2523
sg68
(lp2539
g61
(g62
g63
NtRp2540
(dp2541
g66
(dp2542
g74
I5
ssg75
g2536
sg68
(lp2543
g104
asbasbasbag61
(g77
g63
NtRp2544
(dp2545
g66
(dp2546
sg75
g71
sg68
(lp2547
g61
(g82
g63
NtRp2548
(dp2549
g66
(dp2550
g86
g87
ssg75
g2544
sg68
(lp2551
S'is_local'
p2552
asbag61
(g82
g63
NtRp2553
(dp2554
g66
(dp2555
g93
g94
ssg75
g2544
sg68
(lp2556
S':'
asbag61
(g82
g63
NtRp2557
(dp2558
g66
(dp2559
sg75
g2544
sg68
(lp2560
g61
(g62
g63
NtRp2561
(dp2562
g66
(dp2563
g74
I5
ssg75
g2557
sg68
(lp2564
g1958
asbasbasbag61
(g77
g63
NtRp2565
(dp2566
g66
(dp2567
sg75
g71
sg68
(lp2568
g61
(g82
g63
NtRp2569
(dp2570
g66
(dp2571
g86
g87
ssg75
g2565
sg68
(lp2572
S'is_restful'
p2573
asbag61
(g82
g63
NtRp2574
(dp2575
g66
(dp2576
g93
g94
ssg75
g2565
sg68
(lp2577
S':'
asbag61
(g82
g63
NtRp2578
(dp2579
g66
(dp2580
sg75
g2565
sg68
(lp2581
g61
(g62
g63
NtRp2582
(dp2583
g66
(dp2584
g74
I5
ssg75
g2578
sg68
(lp2585
g104
asbasbasbag61
(g77
g63
NtRp2586
(dp2587
g66
(dp2588
sg75
g71
sg68
(lp2589
g61
(g82
g63
NtRp2590
(dp2591
g66
(dp2592
g86
g87
ssg75
g2586
sg68
(lp2593
S'now'
p2594
asbag61
(g82
g63
NtRp2595
(dp2596
g66
(dp2597
g93
g94
ssg75
g2586
sg68
(lp2598
S':'
asbag61
(g82
g63
NtRp2599
(dp2600
g66
(dp2601
sg75
g2586
sg68
(lp2602
g61
(g62
g63
NtRp2603
(dp2604
g66
(dp2605
g74
I5
ssg75
g2599
sg68
(lp2606
S'datetime.datetime(2013, 2, 17, 17, 46, 20, 211647)'
p2607
asbasbasbag61
(g77
g63
NtRp2608
(dp2609
g66
(dp2610
sg75
g71
sg68
(lp2611
g61
(g82
g63
NtRp2612
(dp2613
g66
(dp2614
g86
g87
ssg75
g2608
sg68
(lp2615
S'post_vars'
p2616
asbag61
(g82
g63
NtRp2617
(dp2618
g66
(dp2619
g93
g94
ssg75
g2608
sg68
(lp2620
S':'
asbag61
(g82
g63
NtRp2621
(dp2622
g66
(dp2623
sg75
g2608
sg68
(lp2624
g61
(g62
g63
NtRp2625
(dp2626
g66
(dp2627
g74
I5
ssg75
g2621
sg68
(lp2628
g61
(g70
g63
NtRp2629
(dp2630
g66
(dp2631
g74
I4
ssg75
Nsg68
(lp2632
sbasbasbasbag61
(g77
g63
NtRp2633
(dp2634
g66
(dp2635
sg75
g71
sg68
(lp2636
g61
(g82
g63
NtRp2637
(dp2638
g66
(dp2639
g86
g87
ssg75
g2633
sg68
(lp2640
S'raw_args'
p2641
asbag61
(g82
g63
NtRp2642
(dp2643
g66
(dp2644
g93
g94
ssg75
g2633
sg68
(lp2645
S':'
asbag61
(g82
g63
NtRp2646
(dp2647
g66
(dp2648
sg75
g2633
sg68
(lp2649
g61
(g62
g63
NtRp2650
(dp2651
g66
(dp2652
g74
I5
ssg75
g2646
sg68
(lp2653
S''
asbasbasbag61
(g77
g63
NtRp2654
(dp2655
g66
(dp2656
sg75
g71
sg68
(lp2657
g61
(g82
g63
NtRp2658
(dp2659
g66
(dp2660
g86
g87
ssg75
g2654
sg68
(lp2661
S'raw_extension'
p2662
asbag61
(g82
g63
NtRp2663
(dp2664
g66
(dp2665
g93
g94
ssg75
g2654
sg68
(lp2666
S':'
asbag61
(g82
g63
NtRp2667
(dp2668
g66
(dp2669
sg75
g2654
sg68
(lp2670
g61
(g62
g63
NtRp2671
(dp2672
g66
(dp2673
g74
I5
ssg75
g2667
sg68
(lp2674
S'None'
p2675
asbasbasbag61
(g77
g63
NtRp2676
(dp2677
g66
(dp2678
sg75
g71
sg68
(lp2679
g61
(g82
g63
NtRp2680
(dp2681
g66
(dp2682
g86
g87
ssg75
g2676
sg68
(lp2683
S'url'
p2684
asbag61
(g82
g63
NtRp2685
(dp2686
g66
(dp2687
g93
g94
ssg75
g2676
sg68
(lp2688
S':'
asbag61
(g82
g63
NtRp2689
(dp2690
g66
(dp2691
sg75
g2676
sg68
(lp2692
g61
(g62
g63
NtRp2693
(dp2694
g66
(dp2695
g74
I5
ssg75
g2689
sg68
(lp2696
g1525
asbasbasbag61
(g77
g63
NtRp2697
(dp2698
g66
(dp2699
sg75
g71
sg68
(lp2700
g61
(g82
g63
NtRp2701
(dp2702
g66
(dp2703
g86
g87
ssg75
g2697
sg68
(lp2704
S'utcnow'
p2705
asbag61
(g82
g63
NtRp2706
(dp2707
g66
(dp2708
g93
g94
ssg75
g2697
sg68
(lp2709
S':'
asbag61
(g82
g63
NtRp2710
(dp2711
g66
(dp2712
sg75
g2697
sg68
(lp2713
g61
(g62
g63
NtRp2714
(dp2715
g66
(dp2716
g74
I5
ssg75
g2710
sg68
(lp2717
S'datetime.datetime(2013, 2, 17, 16, 46, 20, 211681)'
p2718
asbasbasbag61
(g77
g63
NtRp2719
(dp2720
g66
(dp2721
sg75
g71
sg68
(lp2722
g61
(g82
g63
NtRp2723
(dp2724
g66
(dp2725
g86
g87
ssg75
g2719
sg68
(lp2726
S'uuid'
p2727
asbag61
(g82
g63
NtRp2728
(dp2729
g66
(dp2730
g93
g94
ssg75
g2719
sg68
(lp2731
S':'
asbag61
(g82
g63
NtRp2732
(dp2733
g66
(dp2734
sg75
g2719
sg68
(lp2735
g61
(g62
g63
NtRp2736
(dp2737
g66
(dp2738
g74
I5
ssg75
g2732
sg68
(lp2739
S'CygnusCloud/127.0.0.1.2013-02-17.17-46-20.80fbceaa-0c32-4933-9cb2-916ec1bac907'
p2740
asbasbasbag61
(g77
g63
NtRp2741
(dp2742
g66
(dp2743
sg75
g71
sg68
(lp2744
g61
(g82
g63
NtRp2745
(dp2746
g66
(dp2747
g86
g87
ssg75
g2741
sg68
(lp2748
S'vars'
p2749
asbag61
(g82
g63
NtRp2750
(dp2751
g66
(dp2752
g93
g94
ssg75
g2741
sg68
(lp2753
S':'
asbag61
(g82
g63
NtRp2754
(dp2755
g66
(dp2756
sg75
g2741
sg68
(lp2757
g61
(g62
g63
NtRp2758
(dp2759
g66
(dp2760
g74
I5
ssg75
g2754
sg68
(lp2761
g61
(g70
g63
NtRp2762
(dp2763
g66
(dp2764
g74
I4
ssg75
Nsg68
(lp2765
sbasbasbasbag61
(g77
g63
NtRp2766
(dp2767
g66
(dp2768
sg75
g71
sg68
(lp2769
g61
(g82
g63
NtRp2770
(dp2771
g66
(dp2772
g86
g87
ssg75
g2766
sg68
(lp2773
S'wsgi'
p2774
asbag61
(g82
g63
NtRp2775
(dp2776
g66
(dp2777
g93
g94
ssg75
g2766
sg68
(lp2778
S':'
asbag61
(g82
g63
NtRp2779
(dp2780
g66
(dp2781
sg75
g2766
sg68
(lp2782
g61
(g62
g63
NtRp2783
(dp2784
g66
(dp2785
g74
I5
ssg75
g2779
sg68
(lp2786
g61
(g70
g63
NtRp2787
(dp2788
g66
(dp2789
g74
I4
ssg75
Nsg68
(lp2790
g61
(g77
g63
NtRp2791
(dp2792
g66
(dp2793
sg75
g2787
sg68
(lp2794
g61
(g82
g63
NtRp2795
(dp2796
g66
(dp2797
g86
g87
ssg75
g2791
sg68
(lp2798
S'environ'
p2799
asbag61
(g82
g63
NtRp2800
(dp2801
g66
(dp2802
g93
g94
ssg75
g2791
sg68
(lp2803
S':'
asbag61
(g82
g63
NtRp2804
(dp2805
g66
(dp2806
sg75
g2791
sg68
(lp2807
g61
(g62
g63
NtRp2808
(dp2809
g66
(dp2810
g74
I4
ssg75
g2804
sg68
(lp2811
g61
(g70
g63
NtRp2812
(dp2813
g66
(dp2814
g74
I3
ssg75
Nsg68
(lp2815
g61
(g77
g63
NtRp2816
(dp2817
g66
(dp2818
sg75
g2812
sg68
(lp2819
g61
(g82
g63
NtRp2820
(dp2821
g66
(dp2822
g86
g87
ssg75
g2816
sg68
(lp2823
S'HTTP_ACCEPT'
p2824
asbag61
(g82
g63
NtRp2825
(dp2826
g66
(dp2827
g93
g94
ssg75
g2816
sg68
(lp2828
S':'
asbag61
(g82
g63
NtRp2829
(dp2830
g66
(dp2831
sg75
g2816
sg68
(lp2832
g61
(g62
g63
NtRp2833
(dp2834
g66
(dp2835
g74
I3
ssg75
g2829
sg68
(lp2836
g1217
asbasbasbag61
(g77
g63
NtRp2837
(dp2838
g66
(dp2839
sg75
g2812
sg68
(lp2840
g61
(g82
g63
NtRp2841
(dp2842
g66
(dp2843
g86
g87
ssg75
g2837
sg68
(lp2844
S'HTTP_ACCEPT_CHARSET'
p2845
asbag61
(g82
g63
NtRp2846
(dp2847
g66
(dp2848
g93
g94
ssg75
g2837
sg68
(lp2849
S':'
asbag61
(g82
g63
NtRp2850
(dp2851
g66
(dp2852
sg75
g2837
sg68
(lp2853
g61
(g62
g63
NtRp2854
(dp2855
g66
(dp2856
g74
I3
ssg75
g2850
sg68
(lp2857
g1239
asbasbasbag61
(g77
g63
NtRp2858
(dp2859
g66
(dp2860
sg75
g2812
sg68
(lp2861
g61
(g82
g63
NtRp2862
(dp2863
g66
(dp2864
g86
g87
ssg75
g2858
sg68
(lp2865
S'HTTP_ACCEPT_ENCODING'
p2866
asbag61
(g82
g63
NtRp2867
(dp2868
g66
(dp2869
g93
g94
ssg75
g2858
sg68
(lp2870
S':'
asbag61
(g82
g63
NtRp2871
(dp2872
g66
(dp2873
sg75
g2858
sg68
(lp2874
g61
(g62
g63
NtRp2875
(dp2876
g66
(dp2877
g74
I3
ssg75
g2871
sg68
(lp2878
g1261
asbasbasbag61
(g77
g63
NtRp2879
(dp2880
g66
(dp2881
sg75
g2812
sg68
(lp2882
g61
(g82
g63
NtRp2883
(dp2884
g66
(dp2885
g86
g87
ssg75
g2879
sg68
(lp2886
S'HTTP_ACCEPT_LANGUAGE'
p2887
asbag61
(g82
g63
NtRp2888
(dp2889
g66
(dp2890
g93
g94
ssg75
g2879
sg68
(lp2891
S':'
asbag61
(g82
g63
NtRp2892
(dp2893
g66
(dp2894
sg75
g2879
sg68
(lp2895
g61
(g62
g63
NtRp2896
(dp2897
g66
(dp2898
g74
I3
ssg75
g2892
sg68
(lp2899
g1283
asbasbasbag61
(g77
g63
NtRp2900
(dp2901
g66
(dp2902
sg75
g2812
sg68
(lp2903
g61
(g82
g63
NtRp2904
(dp2905
g66
(dp2906
g86
g87
ssg75
g2900
sg68
(lp2907
S'HTTP_CONNECTION'
p2908
asbag61
(g82
g63
NtRp2909
(dp2910
g66
(dp2911
g93
g94
ssg75
g2900
sg68
(lp2912
S':'
asbag61
(g82
g63
NtRp2913
(dp2914
g66
(dp2915
sg75
g2900
sg68
(lp2916
g61
(g62
g63
NtRp2917
(dp2918
g66
(dp2919
g74
I3
ssg75
g2913
sg68
(lp2920
g1305
asbasbasbag61
(g77
g63
NtRp2921
(dp2922
g66
(dp2923
sg75
g2812
sg68
(lp2924
g61
(g82
g63
NtRp2925
(dp2926
g66
(dp2927
g86
g87
ssg75
g2921
sg68
(lp2928
S'HTTP_COOKIE'
p2929
asbag61
(g82
g63
NtRp2930
(dp2931
g66
(dp2932
g93
g94
ssg75
g2921
sg68
(lp2933
S':'
asbag61
(g82
g63
NtRp2934
(dp2935
g66
(dp2936
sg75
g2921
sg68
(lp2937
g61
(g62
g63
NtRp2938
(dp2939
g66
(dp2940
g74
I3
ssg75
g2934
sg68
(lp2941
g1327
asbasbasbag61
(g77
g63
NtRp2942
(dp2943
g66
(dp2944
sg75
g2812
sg68
(lp2945
g61
(g82
g63
NtRp2946
(dp2947
g66
(dp2948
g86
g87
ssg75
g2942
sg68
(lp2949
S'HTTP_HOST'
p2950
asbag61
(g82
g63
NtRp2951
(dp2952
g66
(dp2953
g93
g94
ssg75
g2942
sg68
(lp2954
S':'
asbag61
(g82
g63
NtRp2955
(dp2956
g66
(dp2957
sg75
g2942
sg68
(lp2958
g61
(g62
g63
NtRp2959
(dp2960
g66
(dp2961
g74
I3
ssg75
g2955
sg68
(lp2962
g1349
asbasbasbag61
(g77
g63
NtRp2963
(dp2964
g66
(dp2965
sg75
g2812
sg68
(lp2966
g61
(g82
g63
NtRp2967
(dp2968
g66
(dp2969
g86
g87
ssg75
g2963
sg68
(lp2970
S'HTTP_USER_AGENT'
p2971
asbag61
(g82
g63
NtRp2972
(dp2973
g66
(dp2974
g93
g94
ssg75
g2963
sg68
(lp2975
S':'
asbag61
(g82
g63
NtRp2976
(dp2977
g66
(dp2978
sg75
g2963
sg68
(lp2979
g61
(g62
g63
NtRp2980
(dp2981
g66
(dp2982
g74
I3
ssg75
g2976
sg68
(lp2983
g1371
asbasbasbag61
(g77
g63
NtRp2984
(dp2985
g66
(dp2986
sg75
g2812
sg68
(lp2987
g61
(g82
g63
NtRp2988
(dp2989
g66
(dp2990
g86
g87
ssg75
g2984
sg68
(lp2991
S'PATH_INFO'
p2992
asbag61
(g82
g63
NtRp2993
(dp2994
g66
(dp2995
g93
g94
ssg75
g2984
sg68
(lp2996
S':'
asbag61
(g82
g63
NtRp2997
(dp2998
g66
(dp2999
sg75
g2984
sg68
(lp3000
g61
(g62
g63
NtRp3001
(dp3002
g66
(dp3003
g74
I3
ssg75
g2997
sg68
(lp3004
g1525
asbasbasbag61
(g77
g63
NtRp3005
(dp3006
g66
(dp3007
sg75
g2812
sg68
(lp3008
g61
(g82
g63
NtRp3009
(dp3010
g66
(dp3011
g86
g87
ssg75
g3005
sg68
(lp3012
S'QUERY_STRING'
p3013
asbag61
(g82
g63
NtRp3014
(dp3015
g66
(dp3016
g93
g94
ssg75
g3005
sg68
(lp3017
S':'
asbag61
(g82
g63
NtRp3018
(dp3019
g66
(dp3020
sg75
g3005
sg68
(lp3021
g61
(g62
g63
NtRp3022
(dp3023
g66
(dp3024
g74
I3
ssg75
g3018
sg68
(lp3025
S''
asbasbasbag61
(g77
g63
NtRp3026
(dp3027
g66
(dp3028
sg75
g2812
sg68
(lp3029
g61
(g82
g63
NtRp3030
(dp3031
g66
(dp3032
g86
g87
ssg75
g3026
sg68
(lp3033
S'REMOTE_ADDR'
p3034
asbag61
(g82
g63
NtRp3035
(dp3036
g66
(dp3037
g93
g94
ssg75
g3026
sg68
(lp3038
S':'
asbag61
(g82
g63
NtRp3039
(dp3040
g66
(dp3041
sg75
g3026
sg68
(lp3042
g61
(g62
g63
NtRp3043
(dp3044
g66
(dp3045
g74
I3
ssg75
g3039
sg68
(lp3046
g216
asbasbasbag61
(g77
g63
NtRp3047
(dp3048
g66
(dp3049
sg75
g2812
sg68
(lp3050
g61
(g82
g63
NtRp3051
(dp3052
g66
(dp3053
g86
g87
ssg75
g3047
sg68
(lp3054
S'REMOTE_PORT'
p3055
asbag61
(g82
g63
NtRp3056
(dp3057
g66
(dp3058
g93
g94
ssg75
g3047
sg68
(lp3059
S':'
asbag61
(g82
g63
NtRp3060
(dp3061
g66
(dp3062
sg75
g3047
sg68
(lp3063
g61
(g62
g63
NtRp3064
(dp3065
g66
(dp3066
g74
I3
ssg75
g3060
sg68
(lp3067
g1589
asbasbasbag61
(g77
g63
NtRp3068
(dp3069
g66
(dp3070
sg75
g2812
sg68
(lp3071
g61
(g82
g63
NtRp3072
(dp3073
g66
(dp3074
g86
g87
ssg75
g3068
sg68
(lp3075
S'REQUEST_METHOD'
p3076
asbag61
(g82
g63
NtRp3077
(dp3078
g66
(dp3079
g93
g94
ssg75
g3068
sg68
(lp3080
S':'
asbag61
(g82
g63
NtRp3081
(dp3082
g66
(dp3083
sg75
g3068
sg68
(lp3084
g61
(g62
g63
NtRp3085
(dp3086
g66
(dp3087
g74
I3
ssg75
g3081
sg68
(lp3088
g1611
asbasbasbag61
(g77
g63
NtRp3089
(dp3090
g66
(dp3091
sg75
g2812
sg68
(lp3092
g61
(g82
g63
NtRp3093
(dp3094
g66
(dp3095
g86
g87
ssg75
g3089
sg68
(lp3096
S'REQUEST_URI'
p3097
asbag61
(g82
g63
NtRp3098
(dp3099
g66
(dp3100
g93
g94
ssg75
g3089
sg68
(lp3101
S':'
asbag61
(g82
g63
NtRp3102
(dp3103
g66
(dp3104
sg75
g3089
sg68
(lp3105
g61
(g62
g63
NtRp3106
(dp3107
g66
(dp3108
g74
I3
ssg75
g3102
sg68
(lp3109
g1525
asbasbasbag61
(g77
g63
NtRp3110
(dp3111
g66
(dp3112
sg75
g2812
sg68
(lp3113
g61
(g82
g63
NtRp3114
(dp3115
g66
(dp3116
g86
g87
ssg75
g3110
sg68
(lp3117
S'SCRIPT_NAME'
p3118
asbag61
(g82
g63
NtRp3119
(dp3120
g66
(dp3121
g93
g94
ssg75
g3110
sg68
(lp3122
S':'
asbag61
(g82
g63
NtRp3123
(dp3124
g66
(dp3125
sg75
g3110
sg68
(lp3126
g61
(g62
g63
NtRp3127
(dp3128
g66
(dp3129
g74
I3
ssg75
g3123
sg68
(lp3130
S''
asbasbasbag61
(g77
g63
NtRp3131
(dp3132
g66
(dp3133
sg75
g2812
sg68
(lp3134
g61
(g82
g63
NtRp3135
(dp3136
g66
(dp3137
g86
g87
ssg75
g3131
sg68
(lp3138
S'SERVER_NAME'
p3139
asbag61
(g82
g63
NtRp3140
(dp3141
g66
(dp3142
g93
g94
ssg75
g3131
sg68
(lp3143
S':'
asbag61
(g82
g63
NtRp3144
(dp3145
g66
(dp3146
sg75
g3131
sg68
(lp3147
g61
(g62
g63
NtRp3148
(dp3149
g66
(dp3150
g74
I3
ssg75
g3144
sg68
(lp3151
g1675
asbasbasbag61
(g77
g63
NtRp3152
(dp3153
g66
(dp3154
sg75
g2812
sg68
(lp3155
g61
(g82
g63
NtRp3156
(dp3157
g66
(dp3158
g86
g87
ssg75
g3152
sg68
(lp3159
S'SERVER_PORT'
p3160
asbag61
(g82
g63
NtRp3161
(dp3162
g66
(dp3163
g93
g94
ssg75
g3152
sg68
(lp3164
S':'
asbag61
(g82
g63
NtRp3165
(dp3166
g66
(dp3167
sg75
g3152
sg68
(lp3168
g61
(g62
g63
NtRp3169
(dp3170
g66
(dp3171
g74
I3
ssg75
g3165
sg68
(lp3172
g1697
asbasbasbag61
(g77
g63
NtRp3173
(dp3174
g66
(dp3175
sg75
g2812
sg68
(lp3176
g61
(g82
g63
NtRp3177
(dp3178
g66
(dp3179
g86
g87
ssg75
g3173
sg68
(lp3180
S'SERVER_PROTOCOL'
p3181
asbag61
(g82
g63
NtRp3182
(dp3183
g66
(dp3184
g93
g94
ssg75
g3173
sg68
(lp3185
S':'
asbag61
(g82
g63
NtRp3186
(dp3187
g66
(dp3188
sg75
g3173
sg68
(lp3189
g61
(g62
g63
NtRp3190
(dp3191
g66
(dp3192
g74
I3
ssg75
g3186
sg68
(lp3193
g1719
asbasbasbag61
(g77
g63
NtRp3194
(dp3195
g66
(dp3196
sg75
g2812
sg68
(lp3197
g61
(g82
g63
NtRp3198
(dp3199
g66
(dp3200
g86
g87
ssg75
g3194
sg68
(lp3201
S'SERVER_SOFTWARE'
p3202
asbag61
(g82
g63
NtRp3203
(dp3204
g66
(dp3205
g93
g94
ssg75
g3194
sg68
(lp3206
S':'
asbag61
(g82
g63
NtRp3207
(dp3208
g66
(dp3209
sg75
g3194
sg68
(lp3210
g61
(g62
g63
NtRp3211
(dp3212
g66
(dp3213
g74
I3
ssg75
g3207
sg68
(lp3214
g1741
asbasbasbag61
(g77
g63
NtRp3215
(dp3216
g66
(dp3217
sg75
g2812
sg68
(lp3218
g61
(g82
g63
NtRp3219
(dp3220
g66
(dp3221
g86
g87
ssg75
g3215
sg68
(lp3222
S'wsgi.errors'
p3223
asbag61
(g82
g63
NtRp3224
(dp3225
g66
(dp3226
g93
g94
ssg75
g3215
sg68
(lp3227
S':'
asbag61
(g82
g63
NtRp3228
(dp3229
g66
(dp3230
sg75
g3215
sg68
(lp3231
g61
(g62
g63
NtRp3232
(dp3233
g66
(dp3234
g74
I3
ssg75
g3228
sg68
(lp3235
S"<open file '<stderr>', mode 'w' at 0x7fd05c555270>"
p3236
asbasbasbag61
(g77
g63
NtRp3237
(dp3238
g66
(dp3239
sg75
g2812
sg68
(lp3240
g61
(g82
g63
NtRp3241
(dp3242
g66
(dp3243
g86
g87
ssg75
g3237
sg68
(lp3244
S'wsgi.file_wrapper'
p3245
asbag61
(g82
g63
NtRp3246
(dp3247
g66
(dp3248
g93
g94
ssg75
g3237
sg68
(lp3249
S':'
asbag61
(g82
g63
NtRp3250
(dp3251
g66
(dp3252
sg75
g3237
sg68
(lp3253
g61
(g62
g63
NtRp3254
(dp3255
g66
(dp3256
g74
I3
ssg75
g3250
sg68
(lp3257
S'<class wsgiref.util.FileWrapper at 0x2711db8>'
p3258
asbasbasbag61
(g77
g63
NtRp3259
(dp3260
g66
(dp3261
sg75
g2812
sg68
(lp3262
g61
(g82
g63
NtRp3263
(dp3264
g66
(dp3265
g86
g87
ssg75
g3259
sg68
(lp3266
S'wsgi.input'
p3267
asbag61
(g82
g63
NtRp3268
(dp3269
g66
(dp3270
g93
g94
ssg75
g3259
sg68
(lp3271
S':'
asbag61
(g82
g63
NtRp3272
(dp3273
g66
(dp3274
sg75
g3259
sg68
(lp3275
g61
(g62
g63
NtRp3276
(dp3277
g66
(dp3278
g74
I3
ssg75
g3272
sg68
(lp3279
S'<cStringIO.StringO object at 0x7fd04420aa78>'
p3280
asbasbasbag61
(g77
g63
NtRp3281
(dp3282
g66
(dp3283
sg75
g2812
sg68
(lp3284
g61
(g82
g63
NtRp3285
(dp3286
g66
(dp3287
g86
g87
ssg75
g3281
sg68
(lp3288
S'wsgi.multiprocess'
p3289
asbag61
(g82
g63
NtRp3290
(dp3291
g66
(dp3292
g93
g94
ssg75
g3281
sg68
(lp3293
S':'
asbag61
(g82
g63
NtRp3294
(dp3295
g66
(dp3296
sg75
g3281
sg68
(lp3297
g61
(g62
g63
NtRp3298
(dp3299
g66
(dp3300
g74
I3
ssg75
g3294
sg68
(lp3301
g104
asbasbasbag61
(g77
g63
NtRp3302
(dp3303
g66
(dp3304
sg75
g2812
sg68
(lp3305
g61
(g82
g63
NtRp3306
(dp3307
g66
(dp3308
g86
g87
ssg75
g3302
sg68
(lp3309
S'wsgi.multithread'
p3310
asbag61
(g82
g63
NtRp3311
(dp3312
g66
(dp3313
g93
g94
ssg75
g3302
sg68
(lp3314
S':'
asbag61
(g82
g63
NtRp3315
(dp3316
g66
(dp3317
sg75
g3302
sg68
(lp3318
g61
(g62
g63
NtRp3319
(dp3320
g66
(dp3321
g74
I3
ssg75
g3315
sg68
(lp3322
g1958
asbasbasbag61
(g77
g63
NtRp3323
(dp3324
g66
(dp3325
sg75
g2812
sg68
(lp3326
g61
(g82
g63
NtRp3327
(dp3328
g66
(dp3329
g86
g87
ssg75
g3323
sg68
(lp3330
S'wsgi.run_once'
p3331
asbag61
(g82
g63
NtRp3332
(dp3333
g66
(dp3334
g93
g94
ssg75
g3323
sg68
(lp3335
S':'
asbag61
(g82
g63
NtRp3336
(dp3337
g66
(dp3338
sg75
g3323
sg68
(lp3339
g61
(g62
g63
NtRp3340
(dp3341
g66
(dp3342
g74
I3
ssg75
g3336
sg68
(lp3343
g104
asbasbasbag61
(g77
g63
NtRp3344
(dp3345
g66
(dp3346
sg75
g2812
sg68
(lp3347
g61
(g82
g63
NtRp3348
(dp3349
g66
(dp3350
g86
g87
ssg75
g3344
sg68
(lp3351
S'wsgi.url_scheme'
p3352
asbag61
(g82
g63
NtRp3353
(dp3354
g66
(dp3355
g93
g94
ssg75
g3344
sg68
(lp3356
S':'
asbag61
(g82
g63
NtRp3357
(dp3358
g66
(dp3359
sg75
g3344
sg68
(lp3360
g61
(g62
g63
NtRp3361
(dp3362
g66
(dp3363
g74
I3
ssg75
g3357
sg68
(lp3364
g2001
asbasbasbag61
(g77
g63
NtRp3365
(dp3366
g66
(dp3367
sg75
g2812
sg68
(lp3368
g61
(g82
g63
NtRp3369
(dp3370
g66
(dp3371
g86
g87
ssg75
g3365
sg68
(lp3372
S'wsgi.version'
p3373
asbag61
(g82
g63
NtRp3374
(dp3375
g66
(dp3376
g93
g94
ssg75
g3365
sg68
(lp3377
S':'
asbag61
(g82
g63
NtRp3378
(dp3379
g66
(dp3380
sg75
g3365
sg68
(lp3381
g61
(g62
g63
NtRp3382
(dp3383
g66
(dp3384
g74
I3
ssg75
g3378
sg68
(lp3385
S'1'
asbasbasbasbasbasbasbasbasbasbasbasbasbsS'frames'
p3386
(lp3387
(dp3388
S'file'
p3389
S'/home/adrian/web2py/gluon/restricted.py'
p3390
sS'dump'
p3391
(dp3392
S'environment'
p3393
S"{'A': <class 'gluon.html.A'>, 'Auth': <class 'gluon.tools.Auth'>, 'B': <class 'gluon.html.B'>, 'BEAUTIFY': <class 'gluon.html.BEAUTIFY'>, 'BODY': <class 'gluon.html.BODY'>, 'BR': <class 'gluon.html.BR'>, 'BUTTON': <class 'gluon.html.BUTTON'>, 'CAT': <class 'gluon.html.CAT'>, 'CENTER': <class 'gluon.html.CENTER'>, 'CLEANUP': <class 'gluon.validators.CLEANUP'>, ...}"
p3394
sS'ccode'
p3395
S'<code object <module> at 0x7fd04040d930, file "/...y/applications/CygnusCloud/models/db.py", line 2>'
p3396
ssS'lnum'
p3397
I212
sS'lines'
p3398
(dp3399
I207
S'    try:'
p3400
sI208
S'        if isinstance(code, types.CodeType):'
p3401
sI209
S'            ccode = code'
p3402
sI210
S'        else:'
p3403
sI211
S'            ccode = compile2(code, layer)'
p3404
sI212
S'        exec ccode in environment'
p3405
sI213
S'    except HTTP:'
p3406
sI214
S'        raise'
p3407
sI215
S'    except RestrictedError:'
p3408
sI216
S'        # do not encapsulate (obfuscate) the original RestrictedError'
p3409
ssS'call'
p3410
S"(code='# -*- coding: utf-8 -*-\\nfrom configuration impor...or principal\\nconnector = Singleton.getInstance()\\n', environment={'A': <class 'gluon.html.A'>, 'Auth': <class 'gluon.tools.Auth'>, 'B': <class 'gluon.html.B'>, 'BEAUTIFY': <class 'gluon.html.BEAUTIFY'>, 'BODY': <class 'gluon.html.BODY'>, 'BR': <class 'gluon.html.BR'>, 'BUTTON': <class 'gluon.html.BUTTON'>, 'CAT': <class 'gluon.html.CAT'>, 'CENTER': <class 'gluon.html.CENTER'>, 'CLEANUP': <class 'gluon.validators.CLEANUP'>, ...}, layer='/home/adrian/web2py/applications/CygnusCloud/models/db.py')"
p3411
sS'func'
p3412
S'restricted'
p3413
sa(dp3414
g3389
S'/home/adrian/web2py/applications/CygnusCloud/models/db.py'
p3415
sg3391
(dp3416
S'connector'
p3417
S'undefined'
p3418
sS'Singleton.getInstance'
p3419
S'<function getInstance>'
p3420
sS'Singleton'
p3421
S"<class 'applications.CygnusCloud.modules.serverConnector.singletonServerConnector.Singleton'>"
p3422
ssg3397
I64
sg3398
(dp3423
I64
S'connector = Singleton.getInstance()'
p3424
sI55
S''
sI56
S"userDB.define_table('VMByGroup',"
p3425
sI57
S"   Field('VMId','integer','reference Images'),"
p3426
sI58
S"   Field('cod','integer','reference UserGroup'),"
p3427
sI59
S"   Field('curseGroup',length=1 ),"
p3428
sI60
S"   primarykey=['cod','curseGroup','VMId'],migrate= True)"
p3429
sI61
S''
sI62
S''
sI63
S'#Establecemos la conexi\xc3\xb3n con el servidor principal'
p3430
ssg3410
S'()'
p3431
sg3412
S'<module>'
p3432
sa(dp3433
g3389
S'/home/adrian/web2py/applications/CygnusCloud/modules/serverConnector/singletonServerConnector.py'
p3434
sg3391
(dp3435
S'builtinFalse'
p3436
g104
sS'staticConnector.connectToClusterServer'
p3437
S'<bound method ClusterServerConnector.connectToCl...erServerConnector.ClusterServerConnector object>>'
p3438
sS'global serverIp'
p3439
S"'127.0.0.1'"
p3440
sS'global certificatesPath'
p3441
S"'applications/CygnusCloud/static/Certificates'"
p3442
sS'staticConnector'
p3443
S'<applications.CygnusCloud.modules.clusterServer....terServerConnector.ClusterServerConnector object>'
p3444
sS'global serverPort'
p3445
S'15800'
p3446
sS'global statusInterval'
p3447
S'5'
ssg3397
I16
sg3398
(dp3448
I8
S'\tstaticConnector = None # None la primera vez. Despu\xc3\xa9s, no'
p3449
sI9
S''
sI10
S'\t@staticmethod'
p3450
sI11
S'\tdef getInstance():'
p3451
sI12
S'\t\tif (Singleton.staticConnector == None) :'
p3452
sI13
S'\t\t\t# El atributo est\xc3\xa1tico no est\xc3\xa1 inicializado => lo inicializamos'
p3453
sI14
S'\t\t\tstaticConnector = ClusterServerConnector(GenericWebCallback())'
p3454
sI15
S'\t\t\tstaticConnector.connectToDatabase(rootPassword,dbStatusName,dbStatusPath, webUserName, webUserPass,updateUserName, updateUserPass)'
p3455
sI16
S'\t\t\tstaticConnector.connectToClusterServer(certificatesPath,False,serverIp ,serverPort, statusInterval)'
p3456
sI17
S'\t\treturn staticConnector'
p3457
ssg3410
S'()'
p3458
sg3412
S'getInstance'
p3459
sa(dp3460
g3389
S'/home/adrian/web2py/applications/CygnusCloud/modules/clusterServer/connector/clusterServerConnector.py'
p3461
sg3391
(dp3462
S'clusterServerListenningPort'
p3463
S'15800'
p3464
sS'self'
p3465
S'<applications.CygnusCloud.modules.clusterServer....terServerConnector.ClusterServerConnector object>'
p3466
sS'self.__manager'
p3467
g3418
sS'callback'
p3468
S'<applications.CygnusCloud.modules.clusterServer....Connector._ClusterServerConnectorCallback object>'
p3469
sS'clusterServerIP'
p3470
S"'127.0.0.1'"
p3471
sS'builtinTrue'
p3472
g1958
ssg3397
I169
sg3398
(dp3473
I164
S'        self.__manager.startNetworkService()'
p3474
sI165
S'        callback = _ClusterServerConnectorCallback(self)'
p3475
sI166
S'        # Connect to the main server'
p3476
sI167
S'        self.__clusterServerIP = clusterServerIP'
p3477
sI168
S'        self.__clusterServerPort = clusterServerListenningPort'
p3478
sI169
S'        self.__manager.connectTo(clusterServerIP, clusterServerListenningPort, 5, callback, True)'
p3479
sI170
S'        while (not self.__manager.isConnectionReady(clusterServerIP, clusterServerListenningPort)) :'
p3480
sI171
S'            sleep(0.1)'
p3481
sI172
S'        # Create the packet handler'
p3482
sI173
S'        self.__pHandler = ClusterServerPacketHandler(self.__manager)'
p3483
ssg3410
S"(self=<applications.CygnusCloud.modules.clusterServer....terServerConnector.ClusterServerConnector object>, certificatePath='applications/CygnusCloud/static/Certificates', createReactorThread=False, clusterServerIP='127.0.0.1', clusterServerListenningPort=15800, statusDBUpdateInterval=5)"
p3484
sg3412
S'connectToClusterServer'
p3485
sa(dp3486
g3389
S'/home/adrian/web2py/applications/CygnusCloud/modules/network/networkManager.py'
p3487
sg3391
(dp3488
S'builtinstr'
p3489
S"<type 'str'>"
p3490
sS'global NetworkManagerException'
p3491
S"<class 'applications.CygnusCloud.modules.network.exceptions.networkManager.NetworkManagerException'>"
p3492
sS'host'
p3493
S"'127.0.0.1'"
p3494
sS'port'
p3495
S'15800'
p3496
ssg3397
I164
sg3398
(dp3497
I160
S'        while factory.isDisconnected() and time <= timeout:'
p3498
sI161
S'            sleep(0.01)'
p3499
sI162
S'            time += 0.01'
p3500
sI163
S'        if factory.isDisconnected() :'
p3501
sI164
S'            raise NetworkManagerException("The host " + host + ":" + str(port) +" seems to be unreachable")'
p3502
sI165
S'        # Create the new connection'
p3503
sI166
S'        connection = _NetworkConnection(False, host, port, factory, queue, thread, callbackObject)'
p3504
sI167
S'        # Add the new connection to the connection pool'
p3505
sI168
S'        self.__connectionPool[(host, port)] = connection'
p3506
sI159
S'        time = 0'
p3507
ssg3410
S"(self=<applications.CygnusCloud.modules.network.networkManager.NetworkManager instance>, host='127.0.0.1', port=15800, timeout=5, callbackObject=<applications.CygnusCloud.modules.clusterServer....Connector._ClusterServerConnectorCallback object>, useSSL=True)"
p3508
sg3412
S'connectTo'
p3509
sasS'pyver'
p3510
S'Python 2.7.3: /usr/bin/python'
p3511
sS'session'
p3512
g61
(g62
g63
NtRp3513
(dp3514
g66
(dp3515
sg68
(lp3516
g61
(g70
g63
NtRp3517
(dp3518
g66
(dp3519
g74
I5
ssg75
Nsg68
(lp3520
sbasbsS'etype'
p3521
S"<class 'applications.CygnusCloud.modules.network.exceptions.networkManager.NetworkManagerException'>"
p3522
sS'date'
p3523
S'Sun Feb 17 17:46:25 2013'
p3524
sS'response'
p3525
g61
(g62
g63
NtRp3526
(dp3527
g66
(dp3528
sg68
(lp3529
g61
(g70
g63
NtRp3530
(dp3531
g66
(dp3532
g74
I5
ssg75
Nsg68
(lp3533
g61
(g77
g63
NtRp3534
(dp3535
g66
(dp3536
sg75
g3530
sg68
(lp3537
g61
(g82
g63
NtRp3538
(dp3539
g66
(dp3540
g86
g87
ssg75
g3534
sg68
(lp3541
g159
asbag61
(g82
g63
NtRp3542
(dp3543
g66
(dp3544
g93
g94
ssg75
g3534
sg68
(lp3545
S':'
asbag61
(g82
g63
NtRp3546
(dp3547
g66
(dp3548
sg75
g3534
sg68
(lp3549
g61
(g62
g63
NtRp3550
(dp3551
g66
(dp3552
g74
I5
ssg75
g3546
sg68
(lp3553
S'<cStringIO.StringO object at 0x7fd0403fff10>'
p3554
asbasbasbag61
(g77
g63
NtRp3555
(dp3556
g66
(dp3557
sg75
g3530
sg68
(lp3558
g61
(g82
g63
NtRp3559
(dp3560
g66
(dp3561
g86
g87
ssg75
g3555
sg68
(lp3562
g247
asbag61
(g82
g63
NtRp3563
(dp3564
g66
(dp3565
g93
g94
ssg75
g3555
sg68
(lp3566
S':'
asbag61
(g82
g63
NtRp3567
(dp3568
g66
(dp3569
sg75
g3555
sg68
(lp3570
g61
(g62
g63
NtRp3571
(dp3572
g66
(dp3573
g74
I5
ssg75
g3567
sg68
(lp3574
g61
(g70
g63
NtRp3575
(dp3576
g66
(dp3577
g74
I4
ssg75
Nsg68
(lp3578
g61
(g77
g63
NtRp3579
(dp3580
g66
(dp3581
sg75
g3575
sg68
(lp3582
g61
(g82
g63
NtRp3583
(dp3584
g66
(dp3585
g86
g87
ssg75
g3579
sg68
(lp3586
S'session_id_cygnuscloud'
p3587
asbag61
(g82
g63
NtRp3588
(dp3589
g66
(dp3590
g93
g94
ssg75
g3579
sg68
(lp3591
S':'
asbag61
(g82
g63
NtRp3592
(dp3593
g66
(dp3594
sg75
g3579
sg68
(lp3595
g61
(g62
g63
NtRp3596
(dp3597
g66
(dp3598
g74
I4
ssg75
g3592
sg68
(lp3599
g664
ag61
(g70
g63
NtRp3600
(dp3601
g66
(dp3602
g74
I3
ssg75
Nsg68
(lp3603
g61
(g77
g63
NtRp3604
(dp3605
g66
(dp3606
sg75
g3600
sg68
(lp3607
g61
(g82
g63
NtRp3608
(dp3609
g66
(dp3610
g86
g87
ssg75
g3604
sg68
(lp3611
g297
asbag61
(g82
g63
NtRp3612
(dp3613
g66
(dp3614
g93
g94
ssg75
g3604
sg68
(lp3615
S':'
asbag61
(g82
g63
NtRp3616
(dp3617
g66
(dp3618
sg75
g3604
sg68
(lp3619
g61
(g62
g63
NtRp3620
(dp3621
g66
(dp3622
g74
I3
ssg75
g3616
sg68
(lp3623
S''
asbasbasbag61
(g77
g63
NtRp3624
(dp3625
g66
(dp3626
sg75
g3600
sg68
(lp3627
g61
(g82
g63
NtRp3628
(dp3629
g66
(dp3630
g86
g87
ssg75
g3624
sg68
(lp3631
g318
asbag61
(g82
g63
NtRp3632
(dp3633
g66
(dp3634
g93
g94
ssg75
g3624
sg68
(lp3635
S':'
asbag61
(g82
g63
NtRp3636
(dp3637
g66
(dp3638
sg75
g3624
sg68
(lp3639
g61
(g62
g63
NtRp3640
(dp3641
g66
(dp3642
g74
I3
ssg75
g3636
sg68
(lp3643
S''
asbasbasbag61
(g77
g63
NtRp3644
(dp3645
g66
(dp3646
sg75
g3600
sg68
(lp3647
g61
(g82
g63
NtRp3648
(dp3649
g66
(dp3650
g86
g87
ssg75
g3644
sg68
(lp3651
g339
asbag61
(g82
g63
NtRp3652
(dp3653
g66
(dp3654
g93
g94
ssg75
g3644
sg68
(lp3655
S':'
asbag61
(g82
g63
NtRp3656
(dp3657
g66
(dp3658
sg75
g3644
sg68
(lp3659
g61
(g62
g63
NtRp3660
(dp3661
g66
(dp3662
g74
I3
ssg75
g3656
sg68
(lp3663
S''
asbasbasbag61
(g77
g63
NtRp3664
(dp3665
g66
(dp3666
sg75
g3600
sg68
(lp3667
g61
(g82
g63
NtRp3668
(dp3669
g66
(dp3670
g86
g87
ssg75
g3664
sg68
(lp3671
g360
asbag61
(g82
g63
NtRp3672
(dp3673
g66
(dp3674
g93
g94
ssg75
g3664
sg68
(lp3675
S':'
asbag61
(g82
g63
NtRp3676
(dp3677
g66
(dp3678
sg75
g3664
sg68
(lp3679
g61
(g62
g63
NtRp3680
(dp3681
g66
(dp3682
g74
I3
ssg75
g3676
sg68
(lp3683
S''
asbasbasbag61
(g77
g63
NtRp3684
(dp3685
g66
(dp3686
sg75
g3600
sg68
(lp3687
g61
(g82
g63
NtRp3688
(dp3689
g66
(dp3690
g86
g87
ssg75
g3684
sg68
(lp3691
g381
asbag61
(g82
g63
NtRp3692
(dp3693
g66
(dp3694
g93
g94
ssg75
g3684
sg68
(lp3695
S':'
asbag61
(g82
g63
NtRp3696
(dp3697
g66
(dp3698
sg75
g3684
sg68
(lp3699
g61
(g62
g63
NtRp3700
(dp3701
g66
(dp3702
g74
I3
ssg75
g3696
sg68
(lp3703
S''
asbasbasbag61
(g77
g63
NtRp3704
(dp3705
g66
(dp3706
sg75
g3600
sg68
(lp3707
g61
(g82
g63
NtRp3708
(dp3709
g66
(dp3710
g86
g87
ssg75
g3704
sg68
(lp3711
g402
asbag61
(g82
g63
NtRp3712
(dp3713
g66
(dp3714
g93
g94
ssg75
g3704
sg68
(lp3715
S':'
asbag61
(g82
g63
NtRp3716
(dp3717
g66
(dp3718
sg75
g3704
sg68
(lp3719
g61
(g62
g63
NtRp3720
(dp3721
g66
(dp3722
g74
I3
ssg75
g3716
sg68
(lp3723
S'/'
asbasbasbag61
(g77
g63
NtRp3724
(dp3725
g66
(dp3726
sg75
g3600
sg68
(lp3727
g61
(g82
g63
NtRp3728
(dp3729
g66
(dp3730
g86
g87
ssg75
g3724
sg68
(lp3731
g423
asbag61
(g82
g63
NtRp3732
(dp3733
g66
(dp3734
g93
g94
ssg75
g3724
sg68
(lp3735
S':'
asbag61
(g82
g63
NtRp3736
(dp3737
g66
(dp3738
sg75
g3724
sg68
(lp3739
g61
(g62
g63
NtRp3740
(dp3741
g66
(dp3742
g74
I3
ssg75
g3736
sg68
(lp3743
S''
asbasbasbag61
(g77
g63
NtRp3744
(dp3745
g66
(dp3746
sg75
g3600
sg68
(lp3747
g61
(g82
g63
NtRp3748
(dp3749
g66
(dp3750
g86
g87
ssg75
g3744
sg68
(lp3751
g444
asbag61
(g82
g63
NtRp3752
(dp3753
g66
(dp3754
g93
g94
ssg75
g3744
sg68
(lp3755
S':'
asbag61
(g82
g63
NtRp3756
(dp3757
g66
(dp3758
sg75
g3744
sg68
(lp3759
g61
(g62
g63
NtRp3760
(dp3761
g66
(dp3762
g74
I3
ssg75
g3756
sg68
(lp3763
S''
asbasbasbasbasbasbasbasbasbasbasbag61
(g77
g63
NtRp3764
(dp3765
g66
(dp3766
sg75
g3530
sg68
(lp3767
g61
(g82
g63
NtRp3768
(dp3769
g66
(dp3770
g86
g87
ssg75
g3764
sg68
(lp3771
S'delimiters'
p3772
asbag61
(g82
g63
NtRp3773
(dp3774
g66
(dp3775
g93
g94
ssg75
g3764
sg68
(lp3776
S':'
asbag61
(g82
g63
NtRp3777
(dp3778
g66
(dp3779
sg75
g3764
sg68
(lp3780
g61
(g62
g63
NtRp3781
(dp3782
g66
(dp3783
g74
I5
ssg75
g3777
sg68
(lp3784
g61
(g70
g63
NtRp3785
(dp3786
g66
(dp3787
g74
I4
ssg75
Nsg68
(lp3788
g61
(g77
g63
NtRp3789
(dp3790
g66
(dp3791
sg75
g3785
sg68
(lp3792
g61
(g82
g63
NtRp3793
(dp3794
g66
(dp3795
sg75
g3789
sg68
(lp3796
g61
(g62
g63
NtRp3797
(dp3798
g66
(dp3799
g74
I4
ssg75
g3793
sg68
(lp3800
S'{{'
p3801
asbasbasbag61
(g77
g63
NtRp3802
(dp3803
g66
(dp3804
sg75
g3785
sg68
(lp3805
g61
(g82
g63
NtRp3806
(dp3807
g66
(dp3808
sg75
g3802
sg68
(lp3809
g61
(g62
g63
NtRp3810
(dp3811
g66
(dp3812
g74
I4
ssg75
g3806
sg68
(lp3813
S'}}'
p3814
asbasbasbasbasbasbasbag61
(g77
g63
NtRp3815
(dp3816
g66
(dp3817
sg75
g3530
sg68
(lp3818
g61
(g82
g63
NtRp3819
(dp3820
g66
(dp3821
g86
g87
ssg75
g3815
sg68
(lp3822
S'files'
p3823
asbag61
(g82
g63
NtRp3824
(dp3825
g66
(dp3826
g93
g94
ssg75
g3815
sg68
(lp3827
S':'
asbag61
(g82
g63
NtRp3828
(dp3829
g66
(dp3830
sg75
g3815
sg68
(lp3831
g61
(g62
g63
NtRp3832
(dp3833
g66
(dp3834
g74
I5
ssg75
g3828
sg68
(lp3835
g61
(g70
g63
NtRp3836
(dp3837
g66
(dp3838
g74
I4
ssg75
Nsg68
(lp3839
sbasbasbasbag61
(g77
g63
NtRp3840
(dp3841
g66
(dp3842
sg75
g3530
sg68
(lp3843
g61
(g82
g63
NtRp3844
(dp3845
g66
(dp3846
g86
g87
ssg75
g3840
sg68
(lp3847
S'flash'
p3848
asbag61
(g82
g63
NtRp3849
(dp3850
g66
(dp3851
g93
g94
ssg75
g3840
sg68
(lp3852
S':'
asbag61
(g82
g63
NtRp3853
(dp3854
g66
(dp3855
sg75
g3840
sg68
(lp3856
g61
(g62
g63
NtRp3857
(dp3858
g66
(dp3859
g74
I5
ssg75
g3853
sg68
(lp3860
S''
asbasbasbag61
(g77
g63
NtRp3861
(dp3862
g66
(dp3863
sg75
g3530
sg68
(lp3864
g61
(g82
g63
NtRp3865
(dp3866
g66
(dp3867
g86
g87
ssg75
g3861
sg68
(lp3868
S'generic_patterns'
p3869
asbag61
(g82
g63
NtRp3870
(dp3871
g66
(dp3872
g93
g94
ssg75
g3861
sg68
(lp3873
S':'
asbag61
(g82
g63
NtRp3874
(dp3875
g66
(dp3876
sg75
g3861
sg68
(lp3877
g61
(g62
g63
NtRp3878
(dp3879
g66
(dp3880
g74
I5
ssg75
g3874
sg68
(lp3881
g61
(g70
g63
NtRp3882
(dp3883
g66
(dp3884
g74
I4
ssg75
Nsg68
(lp3885
sbasbasbasbag61
(g77
g63
NtRp3886
(dp3887
g66
(dp3888
sg75
g3530
sg68
(lp3889
g61
(g82
g63
NtRp3890
(dp3891
g66
(dp3892
g86
g87
ssg75
g3886
sg68
(lp3893
S'headers'
p3894
asbag61
(g82
g63
NtRp3895
(dp3896
g66
(dp3897
g93
g94
ssg75
g3886
sg68
(lp3898
S':'
asbag61
(g82
g63
NtRp3899
(dp3900
g66
(dp3901
sg75
g3886
sg68
(lp3902
g61
(g62
g63
NtRp3903
(dp3904
g66
(dp3905
g74
I5
ssg75
g3899
sg68
(lp3906
g61
(g70
g63
NtRp3907
(dp3908
g66
(dp3909
g74
I4
ssg75
Nsg68
(lp3910
g61
(g77
g63
NtRp3911
(dp3912
g66
(dp3913
sg75
g3907
sg68
(lp3914
g61
(g82
g63
NtRp3915
(dp3916
g66
(dp3917
g86
g87
ssg75
g3911
sg68
(lp3918
S'X-Powered-By'
p3919
asbag61
(g82
g63
NtRp3920
(dp3921
g66
(dp3922
g93
g94
ssg75
g3911
sg68
(lp3923
S':'
asbag61
(g82
g63
NtRp3924
(dp3925
g66
(dp3926
sg75
g3911
sg68
(lp3927
g61
(g62
g63
NtRp3928
(dp3929
g66
(dp3930
g74
I4
ssg75
g3924
sg68
(lp3931
S'web2py'
p3932
asbasbasbasbasbasbasbag61
(g77
g63
NtRp3933
(dp3934
g66
(dp3935
sg75
g3530
sg68
(lp3936
g61
(g82
g63
NtRp3937
(dp3938
g66
(dp3939
g86
g87
ssg75
g3933
sg68
(lp3940
S'menu'
p3941
asbag61
(g82
g63
NtRp3942
(dp3943
g66
(dp3944
g93
g94
ssg75
g3933
sg68
(lp3945
S':'
asbag61
(g82
g63
NtRp3946
(dp3947
g66
(dp3948
sg75
g3933
sg68
(lp3949
g61
(g62
g63
NtRp3950
(dp3951
g66
(dp3952
g74
I5
ssg75
g3946
sg68
(lp3953
g61
(g70
g63
NtRp3954
(dp3955
g66
(dp3956
g74
I4
ssg75
Nsg68
(lp3957
sbasbasbasbag61
(g77
g63
NtRp3958
(dp3959
g66
(dp3960
sg75
g3530
sg68
(lp3961
g61
(g82
g63
NtRp3962
(dp3963
g66
(dp3964
g86
g87
ssg75
g3958
sg68
(lp3965
S'meta'
p3966
asbag61
(g82
g63
NtRp3967
(dp3968
g66
(dp3969
g93
g94
ssg75
g3958
sg68
(lp3970
S':'
asbag61
(g82
g63
NtRp3971
(dp3972
g66
(dp3973
sg75
g3958
sg68
(lp3974
g61
(g62
g63
NtRp3975
(dp3976
g66
(dp3977
g74
I5
ssg75
g3971
sg68
(lp3978
g61
(g70
g63
NtRp3979
(dp3980
g66
(dp3981
g74
I4
ssg75
Nsg68
(lp3982
sbasbasbasbag61
(g77
g63
NtRp3983
(dp3984
g66
(dp3985
sg75
g3530
sg68
(lp3986
g61
(g82
g63
NtRp3987
(dp3988
g66
(dp3989
g86
g87
ssg75
g3983
sg68
(lp3990
S'models_to_run'
p3991
asbag61
(g82
g63
NtRp3992
(dp3993
g66
(dp3994
g93
g94
ssg75
g3983
sg68
(lp3995
S':'
asbag61
(g82
g63
NtRp3996
(dp3997
g66
(dp3998
sg75
g3983
sg68
(lp3999
g61
(g62
g63
NtRp4000
(dp4001
g66
(dp4002
g74
I5
ssg75
g3996
sg68
(lp4003
g61
(g70
g63
NtRp4004
(dp4005
g66
(dp4006
g74
I4
ssg75
Nsg68
(lp4007
g61
(g77
g63
NtRp4008
(dp4009
g66
(dp4010
sg75
g4004
sg68
(lp4011
g61
(g82
g63
NtRp4012
(dp4013
g66
(dp4014
sg75
g4008
sg68
(lp4015
g61
(g62
g63
NtRp4016
(dp4017
g66
(dp4018
g74
I4
ssg75
g4012
sg68
(lp4019
S'^\\w+\\.py$'
p4020
asbasbasbag61
(g77
g63
NtRp4021
(dp4022
g66
(dp4023
sg75
g4004
sg68
(lp4024
g61
(g82
g63
NtRp4025
(dp4026
g66
(dp4027
sg75
g4021
sg68
(lp4028
g61
(g62
g63
NtRp4029
(dp4030
g66
(dp4031
g74
I4
ssg75
g4025
sg68
(lp4032
S'^main/\\w+\\.py$'
p4033
asbasbasbag61
(g77
g63
NtRp4034
(dp4035
g66
(dp4036
sg75
g4004
sg68
(lp4037
g61
(g82
g63
NtRp4038
(dp4039
g66
(dp4040
sg75
g4034
sg68
(lp4041
g61
(g62
g63
NtRp4042
(dp4043
g66
(dp4044
g74
I4
ssg75
g4038
sg68
(lp4045
S'^main/login/\\w+\\.py$'
p4046
asbasbasbasbasbasbasbag61
(g77
g63
NtRp4047
(dp4048
g66
(dp4049
sg75
g3530
sg68
(lp4050
g61
(g82
g63
NtRp4051
(dp4052
g66
(dp4053
g86
g87
ssg75
g4047
sg68
(lp4054
S'postprocessing'
p4055
asbag61
(g82
g63
NtRp4056
(dp4057
g66
(dp4058
g93
g94
ssg75
g4047
sg68
(lp4059
S':'
asbag61
(g82
g63
NtRp4060
(dp4061
g66
(dp4062
sg75
g4047
sg68
(lp4063
g61
(g62
g63
NtRp4064
(dp4065
g66
(dp4066
g74
I5
ssg75
g4060
sg68
(lp4067
g61
(g70
g63
NtRp4068
(dp4069
g66
(dp4070
g74
I4
ssg75
Nsg68
(lp4071
sbasbasbasbag61
(g77
g63
NtRp4072
(dp4073
g66
(dp4074
sg75
g3530
sg68
(lp4075
g61
(g82
g63
NtRp4076
(dp4077
g66
(dp4078
g86
g87
ssg75
g4072
sg68
(lp4079
S'session_cookie_expires'
p4080
asbag61
(g82
g63
NtRp4081
(dp4082
g66
(dp4083
g93
g94
ssg75
g4072
sg68
(lp4084
S':'
asbag61
(g82
g63
NtRp4085
(dp4086
g66
(dp4087
sg75
g4072
sg68
(lp4088
g61
(g62
g63
NtRp4089
(dp4090
g66
(dp4091
g74
I5
ssg75
g4085
sg68
(lp4092
S'None'
p4093
asbasbasbag61
(g77
g63
NtRp4094
(dp4095
g66
(dp4096
sg75
g3530
sg68
(lp4097
g61
(g82
g63
NtRp4098
(dp4099
g66
(dp4100
g86
g87
ssg75
g4094
sg68
(lp4101
S'session_data_name'
p4102
asbag61
(g82
g63
NtRp4103
(dp4104
g66
(dp4105
g93
g94
ssg75
g4094
sg68
(lp4106
S':'
asbag61
(g82
g63
NtRp4107
(dp4108
g66
(dp4109
sg75
g4094
sg68
(lp4110
g61
(g62
g63
NtRp4111
(dp4112
g66
(dp4113
g74
I5
ssg75
g4107
sg68
(lp4114
S'session_data_cygnuscloud'
p4115
asbasbasbag61
(g77
g63
NtRp4116
(dp4117
g66
(dp4118
sg75
g3530
sg68
(lp4119
g61
(g82
g63
NtRp4120
(dp4121
g66
(dp4122
g86
g87
ssg75
g4116
sg68
(lp4123
S'session_file'
p4124
asbag61
(g82
g63
NtRp4125
(dp4126
g66
(dp4127
g93
g94
ssg75
g4116
sg68
(lp4128
S':'
asbag61
(g82
g63
NtRp4129
(dp4130
g66
(dp4131
sg75
g4116
sg68
(lp4132
g61
(g62
g63
NtRp4133
(dp4134
g66
(dp4135
g74
I5
ssg75
g4129
sg68
(lp4136
S"<open file '/home/adrian/web2py/applications/CygnusCloud/sessions/127.0.0.1-c587975d-3dc0-4e19-8fd9-70fb7b0fbde9', mode 'rb+' at 0x7fd0404055d0>"
p4137
asbasbasbag61
(g77
g63
NtRp4138
(dp4139
g66
(dp4140
sg75
g3530
sg68
(lp4141
g61
(g82
g63
NtRp4142
(dp4143
g66
(dp4144
g86
g87
ssg75
g4138
sg68
(lp4145
S'session_filename'
p4146
asbag61
(g82
g63
NtRp4147
(dp4148
g66
(dp4149
g93
g94
ssg75
g4138
sg68
(lp4150
S':'
asbag61
(g82
g63
NtRp4151
(dp4152
g66
(dp4153
sg75
g4138
sg68
(lp4154
g61
(g62
g63
NtRp4155
(dp4156
g66
(dp4157
g74
I5
ssg75
g4151
sg68
(lp4158
S'/home/adrian/web2py/applications/CygnusCloud/sessions/127.0.0.1-c587975d-3dc0-4e19-8fd9-70fb7b0fbde9'
p4159
asbasbasbag61
(g77
g63
NtRp4160
(dp4161
g66
(dp4162
sg75
g3530
sg68
(lp4163
g61
(g82
g63
NtRp4164
(dp4165
g66
(dp4166
g86
g87
ssg75
g4160
sg68
(lp4167
S'session_id'
p4168
asbag61
(g82
g63
NtRp4169
(dp4170
g66
(dp4171
g93
g94
ssg75
g4160
sg68
(lp4172
S':'
asbag61
(g82
g63
NtRp4173
(dp4174
g66
(dp4175
sg75
g4160
sg68
(lp4176
g61
(g62
g63
NtRp4177
(dp4178
g66
(dp4179
g74
I5
ssg75
g4173
sg68
(lp4180
g664
asbasbasbag61
(g77
g63
NtRp4181
(dp4182
g66
(dp4183
sg75
g3530
sg68
(lp4184
g61
(g82
g63
NtRp4185
(dp4186
g66
(dp4187
g86
g87
ssg75
g4181
sg68
(lp4188
S'session_id_name'
p4189
asbag61
(g82
g63
NtRp4190
(dp4191
g66
(dp4192
g93
g94
ssg75
g4181
sg68
(lp4193
S':'
asbag61
(g82
g63
NtRp4194
(dp4195
g66
(dp4196
sg75
g4181
sg68
(lp4197
g61
(g62
g63
NtRp4198
(dp4199
g66
(dp4200
g74
I5
ssg75
g4194
sg68
(lp4201
g3587
asbasbasbag61
(g77
g63
NtRp4202
(dp4203
g66
(dp4204
sg75
g3530
sg68
(lp4205
g61
(g82
g63
NtRp4206
(dp4207
g66
(dp4208
g86
g87
ssg75
g4202
sg68
(lp4209
S'session_locked'
p4210
asbag61
(g82
g63
NtRp4211
(dp4212
g66
(dp4213
g93
g94
ssg75
g4202
sg68
(lp4214
S':'
asbag61
(g82
g63
NtRp4215
(dp4216
g66
(dp4217
sg75
g4202
sg68
(lp4218
g61
(g62
g63
NtRp4219
(dp4220
g66
(dp4221
g74
I5
ssg75
g4215
sg68
(lp4222
g1958
asbasbasbag61
(g77
g63
NtRp4223
(dp4224
g66
(dp4225
sg75
g3530
sg68
(lp4226
g61
(g82
g63
NtRp4227
(dp4228
g66
(dp4229
g86
g87
ssg75
g4223
sg68
(lp4230
S'session_new'
p4231
asbag61
(g82
g63
NtRp4232
(dp4233
g66
(dp4234
g93
g94
ssg75
g4223
sg68
(lp4235
S':'
asbag61
(g82
g63
NtRp4236
(dp4237
g66
(dp4238
sg75
g4223
sg68
(lp4239
g61
(g62
g63
NtRp4240
(dp4241
g66
(dp4242
g74
I5
ssg75
g4236
sg68
(lp4243
g104
asbasbasbag61
(g77
g63
NtRp4244
(dp4245
g66
(dp4246
sg75
g3530
sg68
(lp4247
g61
(g82
g63
NtRp4248
(dp4249
g66
(dp4250
g86
g87
ssg75
g4244
sg68
(lp4251
S'session_storage_type'
p4252
asbag61
(g82
g63
NtRp4253
(dp4254
g66
(dp4255
g93
g94
ssg75
g4244
sg68
(lp4256
S':'
asbag61
(g82
g63
NtRp4257
(dp4258
g66
(dp4259
sg75
g4244
sg68
(lp4260
g61
(g62
g63
NtRp4261
(dp4262
g66
(dp4263
g74
I5
ssg75
g4257
sg68
(lp4264
g3389
asbasbasbag61
(g77
g63
NtRp4265
(dp4266
g66
(dp4267
sg75
g3530
sg68
(lp4268
g61
(g82
g63
NtRp4269
(dp4270
g66
(dp4271
g86
g87
ssg75
g4265
sg68
(lp4272
S'status'
p4273
asbag61
(g82
g63
NtRp4274
(dp4275
g66
(dp4276
g93
g94
ssg75
g4265
sg68
(lp4277
S':'
asbag61
(g82
g63
NtRp4278
(dp4279
g66
(dp4280
sg75
g4265
sg68
(lp4281
g61
(g62
g63
NtRp4282
(dp4283
g66
(dp4284
g74
I5
ssg75
g4278
sg68
(lp4285
S'200'
p4286
asbasbasbag61
(g77
g63
NtRp4287
(dp4288
g66
(dp4289
sg75
g3530
sg68
(lp4290
g61
(g82
g63
NtRp4291
(dp4292
g66
(dp4293
g86
g87
ssg75
g4287
sg68
(lp4294
S'view'
p4295
asbag61
(g82
g63
NtRp4296
(dp4297
g66
(dp4298
g93
g94
ssg75
g4287
sg68
(lp4299
S':'
asbag61
(g82
g63
NtRp4300
(dp4301
g66
(dp4302
sg75
g4287
sg68
(lp4303
g61
(g62
g63
NtRp4304
(dp4305
g66
(dp4306
g74
I5
ssg75
g4300
sg68
(lp4307
S'main/login.html'
p4308
asbasbasbasbasbsS'locals'
p4309
(dp4310
S'endpoint'
p4311
S'<twisted.internet.endpoints.SSL4ClientEndpoint object>'
p4312
sS'thread'
p4313
S'<_IncomingDataThread(Incoming data processing thread, initial daemon)>'
p4314
sS'self'
p4315
S'<applications.CygnusCloud.modules.network.networkManager.NetworkManager instance>'
p4316
sS'factory'
p4317
S'<applications.CygnusCloud.modules.network.twiste...n.protocols._CygnusCloudProtocolFactory instance>'
p4318
sS'certificatePath'
p4319
S"'applications/CygnusCloud/static/Certificates/server.crt'"
p4320
sS'queue'
p4321
S'<applications.CygnusCloud.modules.ccutils.multit...orityQueue.GenericThreadSafePriorityQueue object>'
p4322
sS'host'
p4323
S"'127.0.0.1'"
p4324
sS'useSSL'
p4325
g1958
sS'timeout'
p4326
S'5'
sS'time'
p4327
S'5.009999999999938'
p4328
sS'port'
p4329
S'15800'
p4330
sS'callbackObject'
p4331
S'<applications.CygnusCloud.modules.clusterServer....Connector._ClusterServerConnectorCallback object>'
p4332
sS'keyPath'
p4333
S"'applications/CygnusCloud/static/Certificates/server.key'"
p4334
sssS'traceback'
p4335
S'Traceback (most recent call last):\n  File "/home/adrian/web2py/gluon/restricted.py", line 212, in restricted\n    exec ccode in environment\n  File "/home/adrian/web2py/applications/CygnusCloud/models/db.py", line 64, in <module>\n    connector = Singleton.getInstance()\n  File "applications/CygnusCloud/modules/serverConnector/singletonServerConnector.py", line 16, in getInstance\n    staticConnector.connectToClusterServer(certificatesPath,False,serverIp ,serverPort, statusInterval)\n  File "applications/CygnusCloud/modules/clusterServer/connector/clusterServerConnector.py", line 169, in connectToClusterServer\n    self.__manager.connectTo(clusterServerIP, clusterServerListenningPort, 5, callback, True)\n  File "applications/CygnusCloud/modules/network/networkManager.py", line 164, in connectTo\n    raise NetworkManagerException("The host " + host + ":" + str(port) +" seems to be unreachable")\nNetworkManagerException: The host 127.0.0.1:15800 seems to be unreachable\n'
p4336
s.