(dp1
S'output'
p2
S"<type 'exceptions.ValueError'> invalid literal for int() with base 10: 'a'"
p3
sS'layer'
p4
S'/home/adrian/web2py/applications/CygnusCloud/controllers/appadmin.py'
p5
sS'code'
p6
S'# -*- coding: utf-8 -*-\n\n# ##########################################################\n# ## make sure administrator is on localhost\n# ###########################################################\n\nimport os\nimport socket\nimport datetime\nimport copy\nimport gluon.contenttype\nimport gluon.fileutils\n\nresponse.subtitle = \'Database Administration (appadmin)\'\n\n# ## critical --- make a copy of the environment\n\nglobal_env = copy.copy(globals())\nglobal_env[\'datetime\'] = datetime\n\nhttp_host = request.env.http_host.split(\':\')[0]\nremote_addr = request.env.remote_addr\ntry:\n    hosts = (http_host, socket.gethostname(),\n             socket.gethostbyname(http_host),\n             \'::1\', \'127.0.0.1\', \'::ffff:127.0.0.1\')\nexcept:\n    hosts = (http_host, )\n\nif request.env.http_x_forwarded_for or request.is_https:\n    session.secure()\nelif (remote_addr not in hosts) and (remote_addr != "127.0.0.1"):\n    raise HTTP(200, T(\'appadmin is disabled because insecure channel\'))\n\nif (request.application == \'admin\' and not session.authorized) or \\\n        (request.application != \'admin\' and not gluon.fileutils.check_credentials(request)):\n    redirect(URL(\'admin\', \'default\', \'index\',\n                 vars=dict(send=URL(args=request.args, vars=request.vars))))\n\nignore_rw = True\nresponse.view = \'appadmin.html\'\nresponse.menu = [[T(\'design\'), False, URL(\'admin\', \'default\', \'design\',\n                 args=[request.application])], [T(\'db\'), False,\n                 URL(\'index\')], [T(\'state\'), False,\n                 URL(\'state\')], [T(\'cache\'), False,\n                 URL(\'ccache\')]]\n\n# ##########################################################\n# ## auxiliary functions\n# ###########################################################\n\n\ndef get_databases(request):\n    dbs = {}\n    for (key, value) in global_env.items():\n        cond = False\n        try:\n            cond = isinstance(value, GQLDB)\n        except:\n            cond = isinstance(value, SQLDB)\n        if cond:\n            dbs[key] = value\n    return dbs\n\n\ndatabases = get_databases(None)\n\n\ndef eval_in_global_env(text):\n    exec (\'_ret=%s\' % text, {}, global_env)\n    return global_env[\'_ret\']\n\n\ndef get_database(request):\n    if request.args and request.args[0] in databases:\n        return eval_in_global_env(request.args[0])\n    else:\n        session.flash = T(\'invalid request\')\n        redirect(URL(\'index\'))\n\n\ndef get_table(request):\n    db = get_database(request)\n    if len(request.args) > 1 and request.args[1] in db.tables:\n        return (db, request.args[1])\n    else:\n        session.flash = T(\'invalid request\')\n        redirect(URL(\'index\'))\n\n\ndef get_query(request):\n    try:\n        return eval_in_global_env(request.vars.query)\n    except Exception:\n        return None\n\n\ndef query_by_table_type(tablename, db, request=request):\n    keyed = hasattr(db[tablename], \'_primarykey\')\n    if keyed:\n        firstkey = db[tablename][db[tablename]._primarykey[0]]\n        cond = \'>0\'\n        if firstkey.type in [\'string\', \'text\']:\n            cond = \'!=""\'\n        qry = \'%s.%s.%s%s\' % (\n            request.args[0], request.args[1], firstkey.name, cond)\n    else:\n        qry = \'%s.%s.id>0\' % tuple(request.args[:2])\n    return qry\n\n\n# ##########################################################\n# ## list all databases and tables\n# ###########################################################\ndef index():\n    return dict(databases=databases)\n\n\n# ##########################################################\n# ## insert a new record\n# ###########################################################\n\n\ndef insert():\n    (db, table) = get_table(request)\n    form = SQLFORM(db[table], ignore_rw=ignore_rw)\n    if form.accepts(request.vars, session):\n        response.flash = T(\'new record inserted\')\n    return dict(form=form, table=db[table])\n\n\n# ##########################################################\n# ## list all records in table and insert new record\n# ###########################################################\n\n\ndef download():\n    import os\n    db = get_database(request)\n    return response.download(request, db)\n\n\ndef csv():\n    import gluon.contenttype\n    response.headers[\'Content-Type\'] = \\\n        gluon.contenttype.contenttype(\'.csv\')\n    db = get_database(request)\n    query = get_query(request)\n    if not query:\n        return None\n    response.headers[\'Content-disposition\'] = \'attachment; filename=%s_%s.csv\'\\\n        % tuple(request.vars.query.split(\'.\')[:2])\n    return str(db(query, ignore_common_filters=True).select())\n\n\ndef import_csv(table, file):\n    table.import_from_csv_file(file)\n\n\ndef select():\n    import re\n    db = get_database(request)\n    dbname = request.args[0]\n    regex = re.compile(\'(?P<table>\\w+)\\.(?P<field>\\w+)=(?P<value>\\d+)\')\n    if len(request.args) > 1 and hasattr(db[request.args[1]], \'_primarykey\'):\n        regex = re.compile(\'(?P<table>\\w+)\\.(?P<field>\\w+)=(?P<value>.+)\')\n    if request.vars.query:\n        match = regex.match(request.vars.query)\n        if match:\n            request.vars.query = \'%s.%s.%s==%s\' % (request.args[0],\n                                                   match.group(\'table\'), match.group(\'field\'),\n                                                   match.group(\'value\'))\n    else:\n        request.vars.query = session.last_query\n    query = get_query(request)\n    if request.vars.start:\n        start = int(request.vars.start)\n    else:\n        start = 0\n    nrows = 0\n    stop = start + 100\n    table = None\n    rows = []\n    orderby = request.vars.orderby\n    if orderby:\n        orderby = dbname + \'.\' + orderby\n        if orderby == session.last_orderby:\n            if orderby[0] == \'~\':\n                orderby = orderby[1:]\n            else:\n                orderby = \'~\' + orderby\n    session.last_orderby = orderby\n    session.last_query = request.vars.query\n    form = FORM(TABLE(TR(T(\'Query:\'), \'\', INPUT(_style=\'width:400px\',\n                _name=\'query\', _value=request.vars.query or \'\',\n                requires=IS_NOT_EMPTY(\n                    error_message=T("Cannot be empty")))), TR(T(\'Update:\'),\n                INPUT(_name=\'update_check\', _type=\'checkbox\',\n                value=False), INPUT(_style=\'width:400px\',\n                _name=\'update_fields\', _value=request.vars.update_fields\n                                    or \'\')), TR(T(\'Delete:\'), INPUT(_name=\'delete_check\',\n                _class=\'delete\', _type=\'checkbox\', value=False), \'\'),\n                TR(\'\', \'\', INPUT(_type=\'submit\', _value=T(\'submit\')))),\n                _action=URL(r=request, args=request.args))\n\n    tb = None\n    if form.accepts(request.vars, formname=None):\n        regex = re.compile(request.args[0] + \'\\.(?P<table>\\w+)\\..+\')\n        match = regex.match(form.vars.query.strip())\n        if match:\n            table = match.group(\'table\')\n        try:\n            nrows = db(query).count()\n            if form.vars.update_check and form.vars.update_fields:\n                db(query).update(**eval_in_global_env(\'dict(%s)\'\n                                                      % form.vars.update_fields))\n                response.flash = T(\'%s %%{row} updated\', nrows)\n            elif form.vars.delete_check:\n                db(query).delete()\n                response.flash = T(\'%s %%{row} deleted\', nrows)\n            nrows = db(query).count()\n            if orderby:\n                rows = db(query, ignore_common_filters=True).select(limitby=(\n                    start, stop), orderby=eval_in_global_env(orderby))\n            else:\n                rows = db(query, ignore_common_filters=True).select(\n                    limitby=(start, stop))\n        except Exception, e:\n            import traceback\n            tb = traceback.format_exc()\n            (rows, nrows) = ([], 0)\n            response.flash = DIV(T(\'Invalid Query\'), PRE(str(e)))\n    # begin handle upload csv\n    csv_table = table or request.vars.table\n    if csv_table:\n        formcsv = FORM(str(T(\'or import from csv file\')) + " ",\n                       INPUT(_type=\'file\', _name=\'csvfile\'),\n                       INPUT(_type=\'hidden\', _value=csv_table, _name=\'table\'),\n                       INPUT(_type=\'submit\', _value=T(\'import\')))\n    else:\n        formcsv = None\n    if formcsv and formcsv.process().accepted:\n        try:\n            import_csv(db[request.vars.table],\n                       request.vars.csvfile.file)\n            response.flash = T(\'data uploaded\')\n        except Exception, e:\n            response.flash = DIV(T(\'unable to parse csv file\'), PRE(str(e)))\n    # end handle upload csv\n\n    return dict(\n        form=form,\n        table=table,\n        start=start,\n        stop=stop,\n        nrows=nrows,\n        rows=rows,\n        query=request.vars.query,\n        formcsv=formcsv,\n        tb=tb,\n    )\n\n\n# ##########################################################\n# ## edit delete one record\n# ###########################################################\n\n\ndef update():\n    (db, table) = get_table(request)\n    keyed = hasattr(db[table], \'_primarykey\')\n    record = None\n    if keyed:\n        key = [f for f in request.vars if f in db[table]._primarykey]\n        if key:\n            record = db(db[table][key[0]] == request.vars[key[\n                        0]], ignore_common_filters=True).select().first()\n    else:\n        record = db(db[table].id == request.args(\n            2), ignore_common_filters=True).select().first()\n\n    if not record:\n        qry = query_by_table_type(table, db)\n        session.flash = T(\'record does not exist\')\n        redirect(URL(\'select\', args=request.args[:1],\n                     vars=dict(query=qry)))\n\n    if keyed:\n        for k in db[table]._primarykey:\n            db[table][k].writable = False\n\n    form = SQLFORM(\n        db[table], record, deletable=True, delete_label=T(\'Check to delete\'),\n        ignore_rw=ignore_rw and not keyed,\n        linkto=URL(\'select\',\n                   args=request.args[:1]), upload=URL(r=request,\n                                                      f=\'download\', args=request.args[:1]))\n\n    if form.accepts(request.vars, session):\n        session.flash = T(\'done!\')\n        qry = query_by_table_type(table, db)\n        redirect(URL(\'select\', args=request.args[:1],\n                 vars=dict(query=qry)))\n    return dict(form=form, table=db[table])\n\n\n# ##########################################################\n# ## get global variables\n# ###########################################################\n\n\ndef state():\n    return dict()\n\n\ndef ccache():\n    form = FORM(\n        P(TAG.BUTTON(\n            T("Clear CACHE?"), _type="submit", _name="yes", _value="yes")),\n        P(TAG.BUTTON(\n            T("Clear RAM"), _type="submit", _name="ram", _value="ram")),\n        P(TAG.BUTTON(\n            T("Clear DISK"), _type="submit", _name="disk", _value="disk")),\n    )\n\n    if form.accepts(request.vars, session):\n        clear_ram = False\n        clear_disk = False\n        session.flash = ""\n        if request.vars.yes:\n            clear_ram = clear_disk = True\n        if request.vars.ram:\n            clear_ram = True\n        if request.vars.disk:\n            clear_disk = True\n\n        if clear_ram:\n            cache.ram.clear()\n            session.flash += T("Ram Cleared")\n        if clear_disk:\n            cache.disk.clear()\n            session.flash += T("Disk Cleared")\n\n        redirect(URL(r=request))\n\n    try:\n        from guppy import hpy\n        hp = hpy()\n    except ImportError:\n        hp = False\n\n    import shelve\n    import os\n    import copy\n    import time\n    import math\n    from gluon import portalocker\n\n    ram = {\n        \'entries\': 0,\n        \'bytes\': 0,\n        \'objects\': 0,\n        \'hits\': 0,\n        \'misses\': 0,\n        \'ratio\': 0,\n        \'oldest\': time.time(),\n        \'keys\': []\n    }\n    disk = copy.copy(ram)\n    total = copy.copy(ram)\n    disk[\'keys\'] = []\n    total[\'keys\'] = []\n\n    def GetInHMS(seconds):\n        hours = math.floor(seconds / 3600)\n        seconds -= hours * 3600\n        minutes = math.floor(seconds / 60)\n        seconds -= minutes * 60\n        seconds = math.floor(seconds)\n\n        return (hours, minutes, seconds)\n\n    for key, value in cache.ram.storage.items():\n        if isinstance(value, dict):\n            ram[\'hits\'] = value[\'hit_total\'] - value[\'misses\']\n            ram[\'misses\'] = value[\'misses\']\n            try:\n                ram[\'ratio\'] = ram[\'hits\'] * 100 / value[\'hit_total\']\n            except (KeyError, ZeroDivisionError):\n                ram[\'ratio\'] = 0\n        else:\n            if hp:\n                ram[\'bytes\'] += hp.iso(value[1]).size\n                ram[\'objects\'] += hp.iso(value[1]).count\n            ram[\'entries\'] += 1\n            if value[0] < ram[\'oldest\']:\n                ram[\'oldest\'] = value[0]\n            ram[\'keys\'].append((key, GetInHMS(time.time() - value[0])))\n    folder = os.path.join(request.folder,\'cache\')\n    if not os.path.exists(folder):\n        os.mkdir(folder)\n    locker = open(os.path.join(folder, \'cache.lock\'), \'a\')\n    portalocker.lock(locker, portalocker.LOCK_EX)\n    disk_storage = shelve.open(\n        os.path.join(folder, \'cache.shelve\'))\n    try:\n        for key, value in disk_storage.items():\n            if isinstance(value, dict):\n                disk[\'hits\'] = value[\'hit_total\'] - value[\'misses\']\n                disk[\'misses\'] = value[\'misses\']\n                try:\n                    disk[\'ratio\'] = disk[\'hits\'] * 100 / value[\'hit_total\']\n                except (KeyError, ZeroDivisionError):\n                    disk[\'ratio\'] = 0\n            else:\n                if hp:\n                    disk[\'bytes\'] += hp.iso(value[1]).size\n                    disk[\'objects\'] += hp.iso(value[1]).count\n                disk[\'entries\'] += 1\n                if value[0] < disk[\'oldest\']:\n                    disk[\'oldest\'] = value[0]\n                disk[\'keys\'].append((key, GetInHMS(time.time() - value[0])))\n\n    finally:\n        portalocker.unlock(locker)\n        locker.close()\n        disk_storage.close()\n\n    total[\'entries\'] = ram[\'entries\'] + disk[\'entries\']\n    total[\'bytes\'] = ram[\'bytes\'] + disk[\'bytes\']\n    total[\'objects\'] = ram[\'objects\'] + disk[\'objects\']\n    total[\'hits\'] = ram[\'hits\'] + disk[\'hits\']\n    total[\'misses\'] = ram[\'misses\'] + disk[\'misses\']\n    total[\'keys\'] = ram[\'keys\'] + disk[\'keys\']\n    try:\n        total[\'ratio\'] = total[\'hits\'] * 100 / (total[\'hits\'] +\n                                                total[\'misses\'])\n    except (KeyError, ZeroDivisionError):\n        total[\'ratio\'] = 0\n\n    if disk[\'oldest\'] < ram[\'oldest\']:\n        total[\'oldest\'] = disk[\'oldest\']\n    else:\n        total[\'oldest\'] = ram[\'oldest\']\n\n    ram[\'oldest\'] = GetInHMS(time.time() - ram[\'oldest\'])\n    disk[\'oldest\'] = GetInHMS(time.time() - disk[\'oldest\'])\n    total[\'oldest\'] = GetInHMS(time.time() - total[\'oldest\'])\n\n    def key_table(keys):\n        return TABLE(\n            TR(TD(B(T(\'Key\'))), TD(B(T(\'Time in Cache (h:m:s)\')))),\n            *[TR(TD(k[0]), TD(\'%02d:%02d:%02d\' % k[1])) for k in keys],\n            **dict(_class=\'cache-keys\',\n                   _style="border-collapse: separate; border-spacing: .5em;"))\n\n    ram[\'keys\'] = key_table(ram[\'keys\'])\n    disk[\'keys\'] = key_table(disk[\'keys\'])\n    total[\'keys\'] = key_table(total[\'keys\'])\n\n    return dict(form=form, total=total,\n                ram=ram, disk=disk, object_stats=hp != False)\n\nresponse._vars=response._caller(insert)\n'
p7
sS'snapshot'
p8
(dp9
S'exception'
p10
(dp11
S'__hash__'
p12
S"<method-wrapper '__hash__' of exceptions.ValueError object>"
p13
sS'__setattr__'
p14
S"<method-wrapper '__setattr__' of exceptions.ValueError object>"
p15
sS'__reduce_ex__'
p16
S'<built-in method __reduce_ex__ of exceptions.ValueError object>'
p17
sS'__getslice__'
p18
S"<method-wrapper '__getslice__' of exceptions.ValueError object>"
p19
sS'__getitem__'
p20
S"<method-wrapper '__getitem__' of exceptions.ValueError object>"
p21
sS'__setstate__'
p22
S'<built-in method __setstate__ of exceptions.ValueError object>'
p23
sS'args'
p24
S'("invalid literal for int() with base 10: \'a\'",)'
p25
sS'__reduce__'
p26
S'<built-in method __reduce__ of exceptions.ValueError object>'
p27
sS'__str__'
p28
S"<method-wrapper '__str__' of exceptions.ValueError object>"
p29
sS'__format__'
p30
S'<built-in method __format__ of exceptions.ValueError object>'
p31
sS'__getattribute__'
p32
S"<method-wrapper '__getattribute__' of exceptions.ValueError object>"
p33
sS'__class__'
p34
S"<type 'exceptions.ValueError'>"
p35
sS'__unicode__'
p36
S'<built-in method __unicode__ of exceptions.ValueError object>'
p37
sS'__delattr__'
p38
S"<method-wrapper '__delattr__' of exceptions.ValueError object>"
p39
sS'__subclasshook__'
p40
S'<built-in method __subclasshook__ of type object>'
p41
sS'__repr__'
p42
S"<method-wrapper '__repr__' of exceptions.ValueError object>"
p43
sS'__dict__'
p44
S'{}'
p45
sS'__sizeof__'
p46
S'<built-in method __sizeof__ of exceptions.ValueError object>'
p47
sS'__doc__'
p48
S"'Inappropriate argument value (of correct type).'"
p49
sS'__init__'
p50
S"<method-wrapper '__init__' of exceptions.ValueError object>"
p51
sS'__new__'
p52
S'<built-in method __new__ of type object>'
p53
ssS'evalue'
p54
S"invalid literal for int() with base 10: 'a'"
p55
sS'request'
p56
ccopy_reg
_reconstructor
p57
(cgluon.html
BEAUTIFY
p58
c__builtin__
object
p59
NtRp60
(dp61
S'attributes'
p62
(dp63
sS'components'
p64
(lp65
g57
(cgluon.html
TABLE
p66
g59
NtRp67
(dp68
g62
(dp69
S'level'
p70
I5
ssS'parent'
p71
Nsg64
(lp72
g57
(cgluon.html
TR
p73
g59
NtRp74
(dp75
g62
(dp76
sg71
g67
sg64
(lp77
g57
(cgluon.html
TD
p78
g59
NtRp79
(dp80
g62
(dp81
S'_style'
p82
S'font-weight:bold;vertical-align:top'
p83
ssg71
g74
sg64
(lp84
S'ajax'
p85
asbag57
(g78
g59
NtRp86
(dp87
g62
(dp88
S'_valign'
p89
S'top'
p90
ssg71
g74
sg64
(lp91
S':'
asbag57
(g78
g59
NtRp92
(dp93
g62
(dp94
sg71
g74
sg64
(lp95
g57
(g58
g59
NtRp96
(dp97
g62
(dp98
g70
I5
ssg71
g92
sg64
(lp99
S'False'
p100
asbasbasbag57
(g73
g59
NtRp101
(dp102
g62
(dp103
sg71
g67
sg64
(lp104
g57
(g78
g59
NtRp105
(dp106
g62
(dp107
g82
g83
ssg71
g101
sg64
(lp108
S'application'
p109
asbag57
(g78
g59
NtRp110
(dp111
g62
(dp112
g89
g90
ssg71
g101
sg64
(lp113
S':'
asbag57
(g78
g59
NtRp114
(dp115
g62
(dp116
sg71
g101
sg64
(lp117
g57
(g58
g59
NtRp118
(dp119
g62
(dp120
g70
I5
ssg71
g114
sg64
(lp121
S'CygnusCloud'
p122
asbasbasbag57
(g73
g59
NtRp123
(dp124
g62
(dp125
sg71
g67
sg64
(lp126
g57
(g78
g59
NtRp127
(dp128
g62
(dp129
g82
g83
ssg71
g123
sg64
(lp130
g24
asbag57
(g78
g59
NtRp131
(dp132
g62
(dp133
g89
g90
ssg71
g123
sg64
(lp134
S':'
asbag57
(g78
g59
NtRp135
(dp136
g62
(dp137
sg71
g123
sg64
(lp138
g57
(g58
g59
NtRp139
(dp140
g62
(dp141
g70
I5
ssg71
g135
sg64
(lp142
g57
(g66
g59
NtRp143
(dp144
g62
(dp145
g70
I4
ssg71
Nsg64
(lp146
g57
(g73
g59
NtRp147
(dp148
g62
(dp149
sg71
g143
sg64
(lp150
g57
(g78
g59
NtRp151
(dp152
g62
(dp153
sg71
g147
sg64
(lp154
g57
(g58
g59
NtRp155
(dp156
g62
(dp157
g70
I4
ssg71
g151
sg64
(lp158
S'userDB'
p159
asbasbasbag57
(g73
g59
NtRp160
(dp161
g62
(dp162
sg71
g143
sg64
(lp163
g57
(g78
g59
NtRp164
(dp165
g62
(dp166
sg71
g160
sg64
(lp167
g57
(g58
g59
NtRp168
(dp169
g62
(dp170
g70
I4
ssg71
g164
sg64
(lp171
S'UserGroup'
p172
asbasbasbasbasbasbasbag57
(g73
g59
NtRp173
(dp174
g62
(dp175
sg71
g67
sg64
(lp176
g57
(g78
g59
NtRp177
(dp178
g62
(dp179
g82
g83
ssg71
g173
sg64
(lp180
S'body'
p181
asbag57
(g78
g59
NtRp182
(dp183
g62
(dp184
g89
g90
ssg71
g173
sg64
(lp185
S':'
asbag57
(g78
g59
NtRp186
(dp187
g62
(dp188
sg71
g173
sg64
(lp189
g57
(g58
g59
NtRp190
(dp191
g62
(dp192
g70
I5
ssg71
g186
sg64
(lp193
S"<open file '<fdopen>', mode 'w+b' at 0x7f5f483c56f0>"
p194
asbasbasbag57
(g73
g59
NtRp195
(dp196
g62
(dp197
sg71
g67
sg64
(lp198
g57
(g78
g59
NtRp199
(dp200
g62
(dp201
g82
g83
ssg71
g195
sg64
(lp202
S'cid'
p203
asbag57
(g78
g59
NtRp204
(dp205
g62
(dp206
g89
g90
ssg71
g195
sg64
(lp207
S':'
asbag57
(g78
g59
NtRp208
(dp209
g62
(dp210
sg71
g195
sg64
(lp211
g57
(g58
g59
NtRp212
(dp213
g62
(dp214
g70
I5
ssg71
g208
sg64
(lp215
S'None'
p216
asbasbasbag57
(g73
g59
NtRp217
(dp218
g62
(dp219
sg71
g67
sg64
(lp220
g57
(g78
g59
NtRp221
(dp222
g62
(dp223
g82
g83
ssg71
g217
sg64
(lp224
S'client'
p225
asbag57
(g78
g59
NtRp226
(dp227
g62
(dp228
g89
g90
ssg71
g217
sg64
(lp229
S':'
asbag57
(g78
g59
NtRp230
(dp231
g62
(dp232
sg71
g217
sg64
(lp233
g57
(g58
g59
NtRp234
(dp235
g62
(dp236
g70
I5
ssg71
g230
sg64
(lp237
S'127.0.0.1'
p238
asbasbasbag57
(g73
g59
NtRp239
(dp240
g62
(dp241
sg71
g67
sg64
(lp242
g57
(g78
g59
NtRp243
(dp244
g62
(dp245
g82
g83
ssg71
g239
sg64
(lp246
S'controller'
p247
asbag57
(g78
g59
NtRp248
(dp249
g62
(dp250
g89
g90
ssg71
g239
sg64
(lp251
S':'
asbag57
(g78
g59
NtRp252
(dp253
g62
(dp254
sg71
g239
sg64
(lp255
g57
(g58
g59
NtRp256
(dp257
g62
(dp258
g70
I5
ssg71
g252
sg64
(lp259
S'appadmin'
p260
asbasbasbag57
(g73
g59
NtRp261
(dp262
g62
(dp263
sg71
g67
sg64
(lp264
g57
(g78
g59
NtRp265
(dp266
g62
(dp267
g82
g83
ssg71
g261
sg64
(lp268
S'cookies'
p269
asbag57
(g78
g59
NtRp270
(dp271
g62
(dp272
g89
g90
ssg71
g261
sg64
(lp273
S':'
asbag57
(g78
g59
NtRp274
(dp275
g62
(dp276
sg71
g261
sg64
(lp277
g57
(g58
g59
NtRp278
(dp279
g62
(dp280
g70
I5
ssg71
g274
sg64
(lp281
g57
(g66
g59
NtRp282
(dp283
g62
(dp284
g70
I4
ssg71
Nsg64
(lp285
g57
(g73
g59
NtRp286
(dp287
g62
(dp288
sg71
g282
sg64
(lp289
g57
(g78
g59
NtRp290
(dp291
g62
(dp292
g82
g83
ssg71
g286
sg64
(lp293
S'kaej_unique_user'
p294
asbag57
(g78
g59
NtRp295
(dp296
g62
(dp297
g89
g90
ssg71
g286
sg64
(lp298
S':'
asbag57
(g78
g59
NtRp299
(dp300
g62
(dp301
sg71
g286
sg64
(lp302
g57
(g58
g59
NtRp303
(dp304
g62
(dp305
g70
I4
ssg71
g299
sg64
(lp306
S'1'
ag57
(g66
g59
NtRp307
(dp308
g62
(dp309
g70
I3
ssg71
Nsg64
(lp310
g57
(g73
g59
NtRp311
(dp312
g62
(dp313
sg71
g307
sg64
(lp314
g57
(g78
g59
NtRp315
(dp316
g62
(dp317
g82
g83
ssg71
g311
sg64
(lp318
S'comment'
p319
asbag57
(g78
g59
NtRp320
(dp321
g62
(dp322
g89
g90
ssg71
g311
sg64
(lp323
S':'
asbag57
(g78
g59
NtRp324
(dp325
g62
(dp326
sg71
g311
sg64
(lp327
g57
(g58
g59
NtRp328
(dp329
g62
(dp330
g70
I3
ssg71
g324
sg64
(lp331
S''
asbasbasbag57
(g73
g59
NtRp332
(dp333
g62
(dp334
sg71
g307
sg64
(lp335
g57
(g78
g59
NtRp336
(dp337
g62
(dp338
g82
g83
ssg71
g332
sg64
(lp339
S'domain'
p340
asbag57
(g78
g59
NtRp341
(dp342
g62
(dp343
g89
g90
ssg71
g332
sg64
(lp344
S':'
asbag57
(g78
g59
NtRp345
(dp346
g62
(dp347
sg71
g332
sg64
(lp348
g57
(g58
g59
NtRp349
(dp350
g62
(dp351
g70
I3
ssg71
g345
sg64
(lp352
S''
asbasbasbag57
(g73
g59
NtRp353
(dp354
g62
(dp355
sg71
g307
sg64
(lp356
g57
(g78
g59
NtRp357
(dp358
g62
(dp359
g82
g83
ssg71
g353
sg64
(lp360
S'expires'
p361
asbag57
(g78
g59
NtRp362
(dp363
g62
(dp364
g89
g90
ssg71
g353
sg64
(lp365
S':'
asbag57
(g78
g59
NtRp366
(dp367
g62
(dp368
sg71
g353
sg64
(lp369
g57
(g58
g59
NtRp370
(dp371
g62
(dp372
g70
I3
ssg71
g366
sg64
(lp373
S''
asbasbasbag57
(g73
g59
NtRp374
(dp375
g62
(dp376
sg71
g307
sg64
(lp377
g57
(g78
g59
NtRp378
(dp379
g62
(dp380
g82
g83
ssg71
g374
sg64
(lp381
S'httponly'
p382
asbag57
(g78
g59
NtRp383
(dp384
g62
(dp385
g89
g90
ssg71
g374
sg64
(lp386
S':'
asbag57
(g78
g59
NtRp387
(dp388
g62
(dp389
sg71
g374
sg64
(lp390
g57
(g58
g59
NtRp391
(dp392
g62
(dp393
g70
I3
ssg71
g387
sg64
(lp394
S''
asbasbasbag57
(g73
g59
NtRp395
(dp396
g62
(dp397
sg71
g307
sg64
(lp398
g57
(g78
g59
NtRp399
(dp400
g62
(dp401
g82
g83
ssg71
g395
sg64
(lp402
S'max-age'
p403
asbag57
(g78
g59
NtRp404
(dp405
g62
(dp406
g89
g90
ssg71
g395
sg64
(lp407
S':'
asbag57
(g78
g59
NtRp408
(dp409
g62
(dp410
sg71
g395
sg64
(lp411
g57
(g58
g59
NtRp412
(dp413
g62
(dp414
g70
I3
ssg71
g408
sg64
(lp415
S''
asbasbasbag57
(g73
g59
NtRp416
(dp417
g62
(dp418
sg71
g307
sg64
(lp419
g57
(g78
g59
NtRp420
(dp421
g62
(dp422
g82
g83
ssg71
g416
sg64
(lp423
S'path'
p424
asbag57
(g78
g59
NtRp425
(dp426
g62
(dp427
g89
g90
ssg71
g416
sg64
(lp428
S':'
asbag57
(g78
g59
NtRp429
(dp430
g62
(dp431
sg71
g416
sg64
(lp432
g57
(g58
g59
NtRp433
(dp434
g62
(dp435
g70
I3
ssg71
g429
sg64
(lp436
S''
asbasbasbag57
(g73
g59
NtRp437
(dp438
g62
(dp439
sg71
g307
sg64
(lp440
g57
(g78
g59
NtRp441
(dp442
g62
(dp443
g82
g83
ssg71
g437
sg64
(lp444
S'secure'
p445
asbag57
(g78
g59
NtRp446
(dp447
g62
(dp448
g89
g90
ssg71
g437
sg64
(lp449
S':'
asbag57
(g78
g59
NtRp450
(dp451
g62
(dp452
sg71
g437
sg64
(lp453
g57
(g58
g59
NtRp454
(dp455
g62
(dp456
g70
I3
ssg71
g450
sg64
(lp457
S''
asbasbasbag57
(g73
g59
NtRp458
(dp459
g62
(dp460
sg71
g307
sg64
(lp461
g57
(g78
g59
NtRp462
(dp463
g62
(dp464
g82
g83
ssg71
g458
sg64
(lp465
S'version'
p466
asbag57
(g78
g59
NtRp467
(dp468
g62
(dp469
g89
g90
ssg71
g458
sg64
(lp470
S':'
asbag57
(g78
g59
NtRp471
(dp472
g62
(dp473
sg71
g458
sg64
(lp474
g57
(g58
g59
NtRp475
(dp476
g62
(dp477
g70
I3
ssg71
g471
sg64
(lp478
S''
asbasbasbasbasbasbasbag57
(g73
g59
NtRp479
(dp480
g62
(dp481
sg71
g282
sg64
(lp482
g57
(g78
g59
NtRp483
(dp484
g62
(dp485
g82
g83
ssg71
g479
sg64
(lp486
S'session_id_admin'
p487
asbag57
(g78
g59
NtRp488
(dp489
g62
(dp490
g89
g90
ssg71
g479
sg64
(lp491
S':'
asbag57
(g78
g59
NtRp492
(dp493
g62
(dp494
sg71
g479
sg64
(lp495
g57
(g58
g59
NtRp496
(dp497
g62
(dp498
g70
I4
ssg71
g492
sg64
(lp499
S'127.0.0.1-1e4e694e-d5f8-4d88-a93e-f8017e171c5b'
p500
ag57
(g66
g59
NtRp501
(dp502
g62
(dp503
g70
I3
ssg71
Nsg64
(lp504
g57
(g73
g59
NtRp505
(dp506
g62
(dp507
sg71
g501
sg64
(lp508
g57
(g78
g59
NtRp509
(dp510
g62
(dp511
g82
g83
ssg71
g505
sg64
(lp512
g319
asbag57
(g78
g59
NtRp513
(dp514
g62
(dp515
g89
g90
ssg71
g505
sg64
(lp516
S':'
asbag57
(g78
g59
NtRp517
(dp518
g62
(dp519
sg71
g505
sg64
(lp520
g57
(g58
g59
NtRp521
(dp522
g62
(dp523
g70
I3
ssg71
g517
sg64
(lp524
S''
asbasbasbag57
(g73
g59
NtRp525
(dp526
g62
(dp527
sg71
g501
sg64
(lp528
g57
(g78
g59
NtRp529
(dp530
g62
(dp531
g82
g83
ssg71
g525
sg64
(lp532
g340
asbag57
(g78
g59
NtRp533
(dp534
g62
(dp535
g89
g90
ssg71
g525
sg64
(lp536
S':'
asbag57
(g78
g59
NtRp537
(dp538
g62
(dp539
sg71
g525
sg64
(lp540
g57
(g58
g59
NtRp541
(dp542
g62
(dp543
g70
I3
ssg71
g537
sg64
(lp544
S''
asbasbasbag57
(g73
g59
NtRp545
(dp546
g62
(dp547
sg71
g501
sg64
(lp548
g57
(g78
g59
NtRp549
(dp550
g62
(dp551
g82
g83
ssg71
g545
sg64
(lp552
g361
asbag57
(g78
g59
NtRp553
(dp554
g62
(dp555
g89
g90
ssg71
g545
sg64
(lp556
S':'
asbag57
(g78
g59
NtRp557
(dp558
g62
(dp559
sg71
g545
sg64
(lp560
g57
(g58
g59
NtRp561
(dp562
g62
(dp563
g70
I3
ssg71
g557
sg64
(lp564
S''
asbasbasbag57
(g73
g59
NtRp565
(dp566
g62
(dp567
sg71
g501
sg64
(lp568
g57
(g78
g59
NtRp569
(dp570
g62
(dp571
g82
g83
ssg71
g565
sg64
(lp572
g382
asbag57
(g78
g59
NtRp573
(dp574
g62
(dp575
g89
g90
ssg71
g565
sg64
(lp576
S':'
asbag57
(g78
g59
NtRp577
(dp578
g62
(dp579
sg71
g565
sg64
(lp580
g57
(g58
g59
NtRp581
(dp582
g62
(dp583
g70
I3
ssg71
g577
sg64
(lp584
S''
asbasbasbag57
(g73
g59
NtRp585
(dp586
g62
(dp587
sg71
g501
sg64
(lp588
g57
(g78
g59
NtRp589
(dp590
g62
(dp591
g82
g83
ssg71
g585
sg64
(lp592
g403
asbag57
(g78
g59
NtRp593
(dp594
g62
(dp595
g89
g90
ssg71
g585
sg64
(lp596
S':'
asbag57
(g78
g59
NtRp597
(dp598
g62
(dp599
sg71
g585
sg64
(lp600
g57
(g58
g59
NtRp601
(dp602
g62
(dp603
g70
I3
ssg71
g597
sg64
(lp604
S''
asbasbasbag57
(g73
g59
NtRp605
(dp606
g62
(dp607
sg71
g501
sg64
(lp608
g57
(g78
g59
NtRp609
(dp610
g62
(dp611
g82
g83
ssg71
g605
sg64
(lp612
g424
asbag57
(g78
g59
NtRp613
(dp614
g62
(dp615
g89
g90
ssg71
g605
sg64
(lp616
S':'
asbag57
(g78
g59
NtRp617
(dp618
g62
(dp619
sg71
g605
sg64
(lp620
g57
(g58
g59
NtRp621
(dp622
g62
(dp623
g70
I3
ssg71
g617
sg64
(lp624
S''
asbasbasbag57
(g73
g59
NtRp625
(dp626
g62
(dp627
sg71
g501
sg64
(lp628
g57
(g78
g59
NtRp629
(dp630
g62
(dp631
g82
g83
ssg71
g625
sg64
(lp632
g445
asbag57
(g78
g59
NtRp633
(dp634
g62
(dp635
g89
g90
ssg71
g625
sg64
(lp636
S':'
asbag57
(g78
g59
NtRp637
(dp638
g62
(dp639
sg71
g625
sg64
(lp640
g57
(g58
g59
NtRp641
(dp642
g62
(dp643
g70
I3
ssg71
g637
sg64
(lp644
S''
asbasbasbag57
(g73
g59
NtRp645
(dp646
g62
(dp647
sg71
g501
sg64
(lp648
g57
(g78
g59
NtRp649
(dp650
g62
(dp651
g82
g83
ssg71
g645
sg64
(lp652
g466
asbag57
(g78
g59
NtRp653
(dp654
g62
(dp655
g89
g90
ssg71
g645
sg64
(lp656
S':'
asbag57
(g78
g59
NtRp657
(dp658
g62
(dp659
sg71
g645
sg64
(lp660
g57
(g58
g59
NtRp661
(dp662
g62
(dp663
g70
I3
ssg71
g657
sg64
(lp664
S''
asbasbasbasbasbasbasbag57
(g73
g59
NtRp665
(dp666
g62
(dp667
sg71
g282
sg64
(lp668
g57
(g78
g59
NtRp669
(dp670
g62
(dp671
g82
g83
ssg71
g665
sg64
(lp672
S'session_id_cygnuscloud'
p673
asbag57
(g78
g59
NtRp674
(dp675
g62
(dp676
g89
g90
ssg71
g665
sg64
(lp677
S':'
asbag57
(g78
g59
NtRp678
(dp679
g62
(dp680
sg71
g665
sg64
(lp681
g57
(g58
g59
NtRp682
(dp683
g62
(dp684
g70
I4
ssg71
g678
sg64
(lp685
S'127.0.0.1-94b597fa-52b2-4481-ad0f-59b1fd37bc50'
p686
ag57
(g66
g59
NtRp687
(dp688
g62
(dp689
g70
I3
ssg71
Nsg64
(lp690
g57
(g73
g59
NtRp691
(dp692
g62
(dp693
sg71
g687
sg64
(lp694
g57
(g78
g59
NtRp695
(dp696
g62
(dp697
g82
g83
ssg71
g691
sg64
(lp698
g319
asbag57
(g78
g59
NtRp699
(dp700
g62
(dp701
g89
g90
ssg71
g691
sg64
(lp702
S':'
asbag57
(g78
g59
NtRp703
(dp704
g62
(dp705
sg71
g691
sg64
(lp706
g57
(g58
g59
NtRp707
(dp708
g62
(dp709
g70
I3
ssg71
g703
sg64
(lp710
S''
asbasbasbag57
(g73
g59
NtRp711
(dp712
g62
(dp713
sg71
g687
sg64
(lp714
g57
(g78
g59
NtRp715
(dp716
g62
(dp717
g82
g83
ssg71
g711
sg64
(lp718
g340
asbag57
(g78
g59
NtRp719
(dp720
g62
(dp721
g89
g90
ssg71
g711
sg64
(lp722
S':'
asbag57
(g78
g59
NtRp723
(dp724
g62
(dp725
sg71
g711
sg64
(lp726
g57
(g58
g59
NtRp727
(dp728
g62
(dp729
g70
I3
ssg71
g723
sg64
(lp730
S''
asbasbasbag57
(g73
g59
NtRp731
(dp732
g62
(dp733
sg71
g687
sg64
(lp734
g57
(g78
g59
NtRp735
(dp736
g62
(dp737
g82
g83
ssg71
g731
sg64
(lp738
g361
asbag57
(g78
g59
NtRp739
(dp740
g62
(dp741
g89
g90
ssg71
g731
sg64
(lp742
S':'
asbag57
(g78
g59
NtRp743
(dp744
g62
(dp745
sg71
g731
sg64
(lp746
g57
(g58
g59
NtRp747
(dp748
g62
(dp749
g70
I3
ssg71
g743
sg64
(lp750
S''
asbasbasbag57
(g73
g59
NtRp751
(dp752
g62
(dp753
sg71
g687
sg64
(lp754
g57
(g78
g59
NtRp755
(dp756
g62
(dp757
g82
g83
ssg71
g751
sg64
(lp758
g382
asbag57
(g78
g59
NtRp759
(dp760
g62
(dp761
g89
g90
ssg71
g751
sg64
(lp762
S':'
asbag57
(g78
g59
NtRp763
(dp764
g62
(dp765
sg71
g751
sg64
(lp766
g57
(g58
g59
NtRp767
(dp768
g62
(dp769
g70
I3
ssg71
g763
sg64
(lp770
S''
asbasbasbag57
(g73
g59
NtRp771
(dp772
g62
(dp773
sg71
g687
sg64
(lp774
g57
(g78
g59
NtRp775
(dp776
g62
(dp777
g82
g83
ssg71
g771
sg64
(lp778
g403
asbag57
(g78
g59
NtRp779
(dp780
g62
(dp781
g89
g90
ssg71
g771
sg64
(lp782
S':'
asbag57
(g78
g59
NtRp783
(dp784
g62
(dp785
sg71
g771
sg64
(lp786
g57
(g58
g59
NtRp787
(dp788
g62
(dp789
g70
I3
ssg71
g783
sg64
(lp790
S''
asbasbasbag57
(g73
g59
NtRp791
(dp792
g62
(dp793
sg71
g687
sg64
(lp794
g57
(g78
g59
NtRp795
(dp796
g62
(dp797
g82
g83
ssg71
g791
sg64
(lp798
g424
asbag57
(g78
g59
NtRp799
(dp800
g62
(dp801
g89
g90
ssg71
g791
sg64
(lp802
S':'
asbag57
(g78
g59
NtRp803
(dp804
g62
(dp805
sg71
g791
sg64
(lp806
g57
(g58
g59
NtRp807
(dp808
g62
(dp809
g70
I3
ssg71
g803
sg64
(lp810
S''
asbasbasbag57
(g73
g59
NtRp811
(dp812
g62
(dp813
sg71
g687
sg64
(lp814
g57
(g78
g59
NtRp815
(dp816
g62
(dp817
g82
g83
ssg71
g811
sg64
(lp818
g445
asbag57
(g78
g59
NtRp819
(dp820
g62
(dp821
g89
g90
ssg71
g811
sg64
(lp822
S':'
asbag57
(g78
g59
NtRp823
(dp824
g62
(dp825
sg71
g811
sg64
(lp826
g57
(g58
g59
NtRp827
(dp828
g62
(dp829
g70
I3
ssg71
g823
sg64
(lp830
S''
asbasbasbag57
(g73
g59
NtRp831
(dp832
g62
(dp833
sg71
g687
sg64
(lp834
g57
(g78
g59
NtRp835
(dp836
g62
(dp837
g82
g83
ssg71
g831
sg64
(lp838
g466
asbag57
(g78
g59
NtRp839
(dp840
g62
(dp841
g89
g90
ssg71
g831
sg64
(lp842
S':'
asbag57
(g78
g59
NtRp843
(dp844
g62
(dp845
sg71
g831
sg64
(lp846
g57
(g58
g59
NtRp847
(dp848
g62
(dp849
g70
I3
ssg71
g843
sg64
(lp850
S''
asbasbasbasbasbasbasbag57
(g73
g59
NtRp851
(dp852
g62
(dp853
sg71
g282
sg64
(lp854
g57
(g78
g59
NtRp855
(dp856
g62
(dp857
g82
g83
ssg71
g851
sg64
(lp858
S'session_id_welcome'
p859
asbag57
(g78
g59
NtRp860
(dp861
g62
(dp862
g89
g90
ssg71
g851
sg64
(lp863
S':'
asbag57
(g78
g59
NtRp864
(dp865
g62
(dp866
sg71
g851
sg64
(lp867
g57
(g58
g59
NtRp868
(dp869
g62
(dp870
g70
I4
ssg71
g864
sg64
(lp871
S'127.0.0.1-dc424825-7eb3-4a25-8c10-933ddf67e6c2'
p872
ag57
(g66
g59
NtRp873
(dp874
g62
(dp875
g70
I3
ssg71
Nsg64
(lp876
g57
(g73
g59
NtRp877
(dp878
g62
(dp879
sg71
g873
sg64
(lp880
g57
(g78
g59
NtRp881
(dp882
g62
(dp883
g82
g83
ssg71
g877
sg64
(lp884
g319
asbag57
(g78
g59
NtRp885
(dp886
g62
(dp887
g89
g90
ssg71
g877
sg64
(lp888
S':'
asbag57
(g78
g59
NtRp889
(dp890
g62
(dp891
sg71
g877
sg64
(lp892
g57
(g58
g59
NtRp893
(dp894
g62
(dp895
g70
I3
ssg71
g889
sg64
(lp896
S''
asbasbasbag57
(g73
g59
NtRp897
(dp898
g62
(dp899
sg71
g873
sg64
(lp900
g57
(g78
g59
NtRp901
(dp902
g62
(dp903
g82
g83
ssg71
g897
sg64
(lp904
g340
asbag57
(g78
g59
NtRp905
(dp906
g62
(dp907
g89
g90
ssg71
g897
sg64
(lp908
S':'
asbag57
(g78
g59
NtRp909
(dp910
g62
(dp911
sg71
g897
sg64
(lp912
g57
(g58
g59
NtRp913
(dp914
g62
(dp915
g70
I3
ssg71
g909
sg64
(lp916
S''
asbasbasbag57
(g73
g59
NtRp917
(dp918
g62
(dp919
sg71
g873
sg64
(lp920
g57
(g78
g59
NtRp921
(dp922
g62
(dp923
g82
g83
ssg71
g917
sg64
(lp924
g361
asbag57
(g78
g59
NtRp925
(dp926
g62
(dp927
g89
g90
ssg71
g917
sg64
(lp928
S':'
asbag57
(g78
g59
NtRp929
(dp930
g62
(dp931
sg71
g917
sg64
(lp932
g57
(g58
g59
NtRp933
(dp934
g62
(dp935
g70
I3
ssg71
g929
sg64
(lp936
S''
asbasbasbag57
(g73
g59
NtRp937
(dp938
g62
(dp939
sg71
g873
sg64
(lp940
g57
(g78
g59
NtRp941
(dp942
g62
(dp943
g82
g83
ssg71
g937
sg64
(lp944
g382
asbag57
(g78
g59
NtRp945
(dp946
g62
(dp947
g89
g90
ssg71
g937
sg64
(lp948
S':'
asbag57
(g78
g59
NtRp949
(dp950
g62
(dp951
sg71
g937
sg64
(lp952
g57
(g58
g59
NtRp953
(dp954
g62
(dp955
g70
I3
ssg71
g949
sg64
(lp956
S''
asbasbasbag57
(g73
g59
NtRp957
(dp958
g62
(dp959
sg71
g873
sg64
(lp960
g57
(g78
g59
NtRp961
(dp962
g62
(dp963
g82
g83
ssg71
g957
sg64
(lp964
g403
asbag57
(g78
g59
NtRp965
(dp966
g62
(dp967
g89
g90
ssg71
g957
sg64
(lp968
S':'
asbag57
(g78
g59
NtRp969
(dp970
g62
(dp971
sg71
g957
sg64
(lp972
g57
(g58
g59
NtRp973
(dp974
g62
(dp975
g70
I3
ssg71
g969
sg64
(lp976
S''
asbasbasbag57
(g73
g59
NtRp977
(dp978
g62
(dp979
sg71
g873
sg64
(lp980
g57
(g78
g59
NtRp981
(dp982
g62
(dp983
g82
g83
ssg71
g977
sg64
(lp984
g424
asbag57
(g78
g59
NtRp985
(dp986
g62
(dp987
g89
g90
ssg71
g977
sg64
(lp988
S':'
asbag57
(g78
g59
NtRp989
(dp990
g62
(dp991
sg71
g977
sg64
(lp992
g57
(g58
g59
NtRp993
(dp994
g62
(dp995
g70
I3
ssg71
g989
sg64
(lp996
S''
asbasbasbag57
(g73
g59
NtRp997
(dp998
g62
(dp999
sg71
g873
sg64
(lp1000
g57
(g78
g59
NtRp1001
(dp1002
g62
(dp1003
g82
g83
ssg71
g997
sg64
(lp1004
g445
asbag57
(g78
g59
NtRp1005
(dp1006
g62
(dp1007
g89
g90
ssg71
g997
sg64
(lp1008
S':'
asbag57
(g78
g59
NtRp1009
(dp1010
g62
(dp1011
sg71
g997
sg64
(lp1012
g57
(g58
g59
NtRp1013
(dp1014
g62
(dp1015
g70
I3
ssg71
g1009
sg64
(lp1016
S''
asbasbasbag57
(g73
g59
NtRp1017
(dp1018
g62
(dp1019
sg71
g873
sg64
(lp1020
g57
(g78
g59
NtRp1021
(dp1022
g62
(dp1023
g82
g83
ssg71
g1017
sg64
(lp1024
g466
asbag57
(g78
g59
NtRp1025
(dp1026
g62
(dp1027
g89
g90
ssg71
g1017
sg64
(lp1028
S':'
asbag57
(g78
g59
NtRp1029
(dp1030
g62
(dp1031
sg71
g1017
sg64
(lp1032
g57
(g58
g59
NtRp1033
(dp1034
g62
(dp1035
g70
I3
ssg71
g1029
sg64
(lp1036
S''
asbasbasbasbasbasbasbasbasbasbasbag57
(g73
g59
NtRp1037
(dp1038
g62
(dp1039
sg71
g67
sg64
(lp1040
g57
(g78
g59
NtRp1041
(dp1042
g62
(dp1043
g82
g83
ssg71
g1037
sg64
(lp1044
S'env'
p1045
asbag57
(g78
g59
NtRp1046
(dp1047
g62
(dp1048
g89
g90
ssg71
g1037
sg64
(lp1049
S':'
asbag57
(g78
g59
NtRp1050
(dp1051
g62
(dp1052
sg71
g1037
sg64
(lp1053
g57
(g58
g59
NtRp1054
(dp1055
g62
(dp1056
g70
I5
ssg71
g1050
sg64
(lp1057
g57
(g66
g59
NtRp1058
(dp1059
g62
(dp1060
g70
I4
ssg71
Nsg64
(lp1061
g57
(g73
g59
NtRp1062
(dp1063
g62
(dp1064
sg71
g1058
sg64
(lp1065
g57
(g78
g59
NtRp1066
(dp1067
g62
(dp1068
g82
g83
ssg71
g1062
sg64
(lp1069
S'app_folders'
p1070
asbag57
(g78
g59
NtRp1071
(dp1072
g62
(dp1073
g89
g90
ssg71
g1062
sg64
(lp1074
S':'
asbag57
(g78
g59
NtRp1075
(dp1076
g62
(dp1077
sg71
g1062
sg64
(lp1078
g57
(g58
g59
NtRp1079
(dp1080
g62
(dp1081
g70
I4
ssg71
g1075
sg64
(lp1082
S"set(['/home/adrian/web2py/applications/admin/', '/home/adrian/web2py/applications/CygnusCloud/'])"
p1083
asbasbasbag57
(g73
g59
NtRp1084
(dp1085
g62
(dp1086
sg71
g1058
sg64
(lp1087
g57
(g78
g59
NtRp1088
(dp1089
g62
(dp1090
g82
g83
ssg71
g1084
sg64
(lp1091
S'applications_parent'
p1092
asbag57
(g78
g59
NtRp1093
(dp1094
g62
(dp1095
g89
g90
ssg71
g1084
sg64
(lp1096
S':'
asbag57
(g78
g59
NtRp1097
(dp1098
g62
(dp1099
sg71
g1084
sg64
(lp1100
g57
(g58
g59
NtRp1101
(dp1102
g62
(dp1103
g70
I4
ssg71
g1097
sg64
(lp1104
S'/home/adrian/web2py'
p1105
asbasbasbag57
(g73
g59
NtRp1106
(dp1107
g62
(dp1108
sg71
g1058
sg64
(lp1109
g57
(g78
g59
NtRp1110
(dp1111
g62
(dp1112
g82
g83
ssg71
g1106
sg64
(lp1113
S'cmd_args'
p1114
asbag57
(g78
g59
NtRp1115
(dp1116
g62
(dp1117
g89
g90
ssg71
g1106
sg64
(lp1118
S':'
asbag57
(g78
g59
NtRp1119
(dp1120
g62
(dp1121
sg71
g1106
sg64
(lp1122
g57
(g58
g59
NtRp1123
(dp1124
g62
(dp1125
g70
I4
ssg71
g1119
sg64
(lp1126
g57
(g66
g59
NtRp1127
(dp1128
g62
(dp1129
g70
I3
ssg71
Nsg64
(lp1130
sbasbasbasbag57
(g73
g59
NtRp1131
(dp1132
g62
(dp1133
sg71
g1058
sg64
(lp1134
g57
(g78
g59
NtRp1135
(dp1136
g62
(dp1137
g82
g83
ssg71
g1131
sg64
(lp1138
S'cmd_options'
p1139
asbag57
(g78
g59
NtRp1140
(dp1141
g62
(dp1142
g89
g90
ssg71
g1131
sg64
(lp1143
S':'
asbag57
(g78
g59
NtRp1144
(dp1145
g62
(dp1146
sg71
g1131
sg64
(lp1147
g57
(g58
g59
NtRp1148
(dp1149
g62
(dp1150
g70
I4
ssg71
g1144
sg64
(lp1151
S"<Values at 0x221dbd8: {'verbose': False, 'ip': '127.0.0.1', 'with_scheduler': False, 'ips': [], 'shutdown_timeout': 5, 'taskbar': False, 'port': 8000, 'maxthreads': None, 'softcron': False, 'server_name': 'adri-EasyNote', 'bpython': False, 'nogui': False, 'pid_filename': 'httpserver.pid', 'extcron': False, 'runcron': False, 'run_system_tests': False, 'test': None, 'folder': '/home/adrian/web2py', 'config': '', 'minthreads': None, 'winservice': '', 'shell': None, 'run': '', 'log_filename': 'httpserver.log', 'debuglevel': 30, 'args': [''], 'socket_timeout': 5, 'ssl_ca_certificate': None, 'scheduler': None, 'profiler_filename': None, 'ssl_private_key': '', 'scheduler_groups': None, 'password': 'cygnuscloud2012', 'request_queue_size': 5, 'ssl_certificate': '', 'cronjob': False, 'numthreads': None, 'quiet': False, 'interfaces': None, 'import_models': False, 'timeout': 10, 'plain': False, 'nobanner': False}>"
p1152
asbasbasbag57
(g73
g59
NtRp1153
(dp1154
g62
(dp1155
sg71
g1058
sg64
(lp1156
g57
(g78
g59
NtRp1157
(dp1158
g62
(dp1159
g82
g83
ssg71
g1153
sg64
(lp1160
S'content_length'
p1161
asbag57
(g78
g59
NtRp1162
(dp1163
g62
(dp1164
g89
g90
ssg71
g1153
sg64
(lp1165
S':'
asbag57
(g78
g59
NtRp1166
(dp1167
g62
(dp1168
sg71
g1153
sg64
(lp1169
g57
(g58
g59
NtRp1170
(dp1171
g62
(dp1172
g70
I4
ssg71
g1166
sg64
(lp1173
S'575'
p1174
asbasbasbag57
(g73
g59
NtRp1175
(dp1176
g62
(dp1177
sg71
g1058
sg64
(lp1178
g57
(g78
g59
NtRp1179
(dp1180
g62
(dp1181
g82
g83
ssg71
g1175
sg64
(lp1182
S'content_type'
p1183
asbag57
(g78
g59
NtRp1184
(dp1185
g62
(dp1186
g89
g90
ssg71
g1175
sg64
(lp1187
S':'
asbag57
(g78
g59
NtRp1188
(dp1189
g62
(dp1190
sg71
g1175
sg64
(lp1191
g57
(g58
g59
NtRp1192
(dp1193
g62
(dp1194
g70
I4
ssg71
g1188
sg64
(lp1195
S'multipart/form-data; boundary=----WebKitFormBoundaryI1sUZziVY4JipL3y'
p1196
asbasbasbag57
(g73
g59
NtRp1197
(dp1198
g62
(dp1199
sg71
g1058
sg64
(lp1200
g57
(g78
g59
NtRp1201
(dp1202
g62
(dp1203
g82
g83
ssg71
g1197
sg64
(lp1204
S'db_sessions'
p1205
asbag57
(g78
g59
NtRp1206
(dp1207
g62
(dp1208
g89
g90
ssg71
g1197
sg64
(lp1209
S':'
asbag57
(g78
g59
NtRp1210
(dp1211
g62
(dp1212
sg71
g1197
sg64
(lp1213
g57
(g58
g59
NtRp1214
(dp1215
g62
(dp1216
g70
I4
ssg71
g1210
sg64
(lp1217
S'set([])'
p1218
asbasbasbag57
(g73
g59
NtRp1219
(dp1220
g62
(dp1221
sg71
g1058
sg64
(lp1222
g57
(g78
g59
NtRp1223
(dp1224
g62
(dp1225
g82
g83
ssg71
g1219
sg64
(lp1226
S'debugging'
p1227
asbag57
(g78
g59
NtRp1228
(dp1229
g62
(dp1230
g89
g90
ssg71
g1219
sg64
(lp1231
S':'
asbag57
(g78
g59
NtRp1232
(dp1233
g62
(dp1234
sg71
g1219
sg64
(lp1235
g57
(g58
g59
NtRp1236
(dp1237
g62
(dp1238
g70
I4
ssg71
g1232
sg64
(lp1239
g100
asbasbasbag57
(g73
g59
NtRp1240
(dp1241
g62
(dp1242
sg71
g1058
sg64
(lp1243
g57
(g78
g59
NtRp1244
(dp1245
g62
(dp1246
g82
g83
ssg71
g1240
sg64
(lp1247
S'gluon_parent'
p1248
asbag57
(g78
g59
NtRp1249
(dp1250
g62
(dp1251
g89
g90
ssg71
g1240
sg64
(lp1252
S':'
asbag57
(g78
g59
NtRp1253
(dp1254
g62
(dp1255
sg71
g1240
sg64
(lp1256
g57
(g58
g59
NtRp1257
(dp1258
g62
(dp1259
g70
I4
ssg71
g1253
sg64
(lp1260
S'/home/adrian/web2py'
p1261
asbasbasbag57
(g73
g59
NtRp1262
(dp1263
g62
(dp1264
sg71
g1058
sg64
(lp1265
g57
(g78
g59
NtRp1266
(dp1267
g62
(dp1268
g82
g83
ssg71
g1262
sg64
(lp1269
S'http_accept'
p1270
asbag57
(g78
g59
NtRp1271
(dp1272
g62
(dp1273
g89
g90
ssg71
g1262
sg64
(lp1274
S':'
asbag57
(g78
g59
NtRp1275
(dp1276
g62
(dp1277
sg71
g1262
sg64
(lp1278
g57
(g58
g59
NtRp1279
(dp1280
g62
(dp1281
g70
I4
ssg71
g1275
sg64
(lp1282
S'text/html,application/xhtml+xml,application/xml;q=0.9,*/*;q=0.8'
p1283
asbasbasbag57
(g73
g59
NtRp1284
(dp1285
g62
(dp1286
sg71
g1058
sg64
(lp1287
g57
(g78
g59
NtRp1288
(dp1289
g62
(dp1290
g82
g83
ssg71
g1284
sg64
(lp1291
S'http_accept_charset'
p1292
asbag57
(g78
g59
NtRp1293
(dp1294
g62
(dp1295
g89
g90
ssg71
g1284
sg64
(lp1296
S':'
asbag57
(g78
g59
NtRp1297
(dp1298
g62
(dp1299
sg71
g1284
sg64
(lp1300
g57
(g58
g59
NtRp1301
(dp1302
g62
(dp1303
g70
I4
ssg71
g1297
sg64
(lp1304
S'ISO-8859-1,utf-8;q=0.7,*;q=0.3'
p1305
asbasbasbag57
(g73
g59
NtRp1306
(dp1307
g62
(dp1308
sg71
g1058
sg64
(lp1309
g57
(g78
g59
NtRp1310
(dp1311
g62
(dp1312
g82
g83
ssg71
g1306
sg64
(lp1313
S'http_accept_encoding'
p1314
asbag57
(g78
g59
NtRp1315
(dp1316
g62
(dp1317
g89
g90
ssg71
g1306
sg64
(lp1318
S':'
asbag57
(g78
g59
NtRp1319
(dp1320
g62
(dp1321
sg71
g1306
sg64
(lp1322
g57
(g58
g59
NtRp1323
(dp1324
g62
(dp1325
g70
I4
ssg71
g1319
sg64
(lp1326
S'gzip,deflate,sdch'
p1327
asbasbasbag57
(g73
g59
NtRp1328
(dp1329
g62
(dp1330
sg71
g1058
sg64
(lp1331
g57
(g78
g59
NtRp1332
(dp1333
g62
(dp1334
g82
g83
ssg71
g1328
sg64
(lp1335
S'http_accept_language'
p1336
asbag57
(g78
g59
NtRp1337
(dp1338
g62
(dp1339
g89
g90
ssg71
g1328
sg64
(lp1340
S':'
asbag57
(g78
g59
NtRp1341
(dp1342
g62
(dp1343
sg71
g1328
sg64
(lp1344
g57
(g58
g59
NtRp1345
(dp1346
g62
(dp1347
g70
I4
ssg71
g1341
sg64
(lp1348
S'es-ES,es;q=0.8'
p1349
asbasbasbag57
(g73
g59
NtRp1350
(dp1351
g62
(dp1352
sg71
g1058
sg64
(lp1353
g57
(g78
g59
NtRp1354
(dp1355
g62
(dp1356
g82
g83
ssg71
g1350
sg64
(lp1357
S'http_cache_control'
p1358
asbag57
(g78
g59
NtRp1359
(dp1360
g62
(dp1361
g89
g90
ssg71
g1350
sg64
(lp1362
S':'
asbag57
(g78
g59
NtRp1363
(dp1364
g62
(dp1365
sg71
g1350
sg64
(lp1366
g57
(g58
g59
NtRp1367
(dp1368
g62
(dp1369
g70
I4
ssg71
g1363
sg64
(lp1370
S'max-age=0'
p1371
asbasbasbag57
(g73
g59
NtRp1372
(dp1373
g62
(dp1374
sg71
g1058
sg64
(lp1375
g57
(g78
g59
NtRp1376
(dp1377
g62
(dp1378
g82
g83
ssg71
g1372
sg64
(lp1379
S'http_connection'
p1380
asbag57
(g78
g59
NtRp1381
(dp1382
g62
(dp1383
g89
g90
ssg71
g1372
sg64
(lp1384
S':'
asbag57
(g78
g59
NtRp1385
(dp1386
g62
(dp1387
sg71
g1372
sg64
(lp1388
g57
(g58
g59
NtRp1389
(dp1390
g62
(dp1391
g70
I4
ssg71
g1385
sg64
(lp1392
S'keep-alive'
p1393
asbasbasbag57
(g73
g59
NtRp1394
(dp1395
g62
(dp1396
sg71
g1058
sg64
(lp1397
g57
(g78
g59
NtRp1398
(dp1399
g62
(dp1400
g82
g83
ssg71
g1394
sg64
(lp1401
S'http_content_length'
p1402
asbag57
(g78
g59
NtRp1403
(dp1404
g62
(dp1405
g89
g90
ssg71
g1394
sg64
(lp1406
S':'
asbag57
(g78
g59
NtRp1407
(dp1408
g62
(dp1409
sg71
g1394
sg64
(lp1410
g57
(g58
g59
NtRp1411
(dp1412
g62
(dp1413
g70
I4
ssg71
g1407
sg64
(lp1414
g1174
asbasbasbag57
(g73
g59
NtRp1415
(dp1416
g62
(dp1417
sg71
g1058
sg64
(lp1418
g57
(g78
g59
NtRp1419
(dp1420
g62
(dp1421
g82
g83
ssg71
g1415
sg64
(lp1422
S'http_content_type'
p1423
asbag57
(g78
g59
NtRp1424
(dp1425
g62
(dp1426
g89
g90
ssg71
g1415
sg64
(lp1427
S':'
asbag57
(g78
g59
NtRp1428
(dp1429
g62
(dp1430
sg71
g1415
sg64
(lp1431
g57
(g58
g59
NtRp1432
(dp1433
g62
(dp1434
g70
I4
ssg71
g1428
sg64
(lp1435
g1196
asbasbasbag57
(g73
g59
NtRp1436
(dp1437
g62
(dp1438
sg71
g1058
sg64
(lp1439
g57
(g78
g59
NtRp1440
(dp1441
g62
(dp1442
g82
g83
ssg71
g1436
sg64
(lp1443
S'http_cookie'
p1444
asbag57
(g78
g59
NtRp1445
(dp1446
g62
(dp1447
g89
g90
ssg71
g1436
sg64
(lp1448
S':'
asbag57
(g78
g59
NtRp1449
(dp1450
g62
(dp1451
sg71
g1436
sg64
(lp1452
g57
(g58
g59
NtRp1453
(dp1454
g62
(dp1455
g70
I4
ssg71
g1449
sg64
(lp1456
S'kaej_unique_user=1; session_id_welcome=127.0.0.1-dc424825-7eb3-4a25-8c10-933ddf67e6c2; session_id_admin=127.0.0.1-1e4e694e-d5f8-4d88-a93e-f8017e171c5b; session_id_cygnuscloud=127.0.0.1-94b597fa-52b2-4481-ad0f-59b1fd37bc50'
p1457
asbasbasbag57
(g73
g59
NtRp1458
(dp1459
g62
(dp1460
sg71
g1058
sg64
(lp1461
g57
(g78
g59
NtRp1462
(dp1463
g62
(dp1464
g82
g83
ssg71
g1458
sg64
(lp1465
S'http_host'
p1466
asbag57
(g78
g59
NtRp1467
(dp1468
g62
(dp1469
g89
g90
ssg71
g1458
sg64
(lp1470
S':'
asbag57
(g78
g59
NtRp1471
(dp1472
g62
(dp1473
sg71
g1458
sg64
(lp1474
g57
(g58
g59
NtRp1475
(dp1476
g62
(dp1477
g70
I4
ssg71
g1471
sg64
(lp1478
S'127.0.0.1:8000'
p1479
asbasbasbag57
(g73
g59
NtRp1480
(dp1481
g62
(dp1482
sg71
g1058
sg64
(lp1483
g57
(g78
g59
NtRp1484
(dp1485
g62
(dp1486
g82
g83
ssg71
g1480
sg64
(lp1487
S'http_origin'
p1488
asbag57
(g78
g59
NtRp1489
(dp1490
g62
(dp1491
g89
g90
ssg71
g1480
sg64
(lp1492
S':'
asbag57
(g78
g59
NtRp1493
(dp1494
g62
(dp1495
sg71
g1480
sg64
(lp1496
g57
(g58
g59
NtRp1497
(dp1498
g62
(dp1499
g70
I4
ssg71
g1493
sg64
(lp1500
S'http://127.0.0.1:8000'
p1501
asbasbasbag57
(g73
g59
NtRp1502
(dp1503
g62
(dp1504
sg71
g1058
sg64
(lp1505
g57
(g78
g59
NtRp1506
(dp1507
g62
(dp1508
g82
g83
ssg71
g1502
sg64
(lp1509
S'http_referer'
p1510
asbag57
(g78
g59
NtRp1511
(dp1512
g62
(dp1513
g89
g90
ssg71
g1502
sg64
(lp1514
S':'
asbag57
(g78
g59
NtRp1515
(dp1516
g62
(dp1517
sg71
g1502
sg64
(lp1518
g57
(g58
g59
NtRp1519
(dp1520
g62
(dp1521
g70
I4
ssg71
g1515
sg64
(lp1522
S'http://127.0.0.1:8000/CygnusCloud/appadmin/insert/userDB/UserGroup'
p1523
asbasbasbag57
(g73
g59
NtRp1524
(dp1525
g62
(dp1526
sg71
g1058
sg64
(lp1527
g57
(g78
g59
NtRp1528
(dp1529
g62
(dp1530
g82
g83
ssg71
g1524
sg64
(lp1531
S'http_user_agent'
p1532
asbag57
(g78
g59
NtRp1533
(dp1534
g62
(dp1535
g89
g90
ssg71
g1524
sg64
(lp1536
S':'
asbag57
(g78
g59
NtRp1537
(dp1538
g62
(dp1539
sg71
g1524
sg64
(lp1540
g57
(g58
g59
NtRp1541
(dp1542
g62
(dp1543
g70
I4
ssg71
g1537
sg64
(lp1544
S'Mozilla/5.0 (X11; Linux x86_64) AppleWebKit/537.11 (KHTML, like Gecko) Chrome/23.0.1271.64 Safari/537.11'
p1545
asbasbasbag57
(g73
g59
NtRp1546
(dp1547
g62
(dp1548
sg71
g1058
sg64
(lp1549
g57
(g78
g59
NtRp1550
(dp1551
g62
(dp1552
g82
g83
ssg71
g1546
sg64
(lp1553
S'is_jython'
p1554
asbag57
(g78
g59
NtRp1555
(dp1556
g62
(dp1557
g89
g90
ssg71
g1546
sg64
(lp1558
S':'
asbag57
(g78
g59
NtRp1559
(dp1560
g62
(dp1561
sg71
g1546
sg64
(lp1562
g57
(g58
g59
NtRp1563
(dp1564
g62
(dp1565
g70
I4
ssg71
g1559
sg64
(lp1566
g100
asbasbasbag57
(g73
g59
NtRp1567
(dp1568
g62
(dp1569
sg71
g1058
sg64
(lp1570
g57
(g78
g59
NtRp1571
(dp1572
g62
(dp1573
g82
g83
ssg71
g1567
sg64
(lp1574
S'is_pypy'
p1575
asbag57
(g78
g59
NtRp1576
(dp1577
g62
(dp1578
g89
g90
ssg71
g1567
sg64
(lp1579
S':'
asbag57
(g78
g59
NtRp1580
(dp1581
g62
(dp1582
sg71
g1567
sg64
(lp1583
g57
(g58
g59
NtRp1584
(dp1585
g62
(dp1586
g70
I4
ssg71
g1580
sg64
(lp1587
g100
asbasbasbag57
(g73
g59
NtRp1588
(dp1589
g62
(dp1590
sg71
g1058
sg64
(lp1591
g57
(g78
g59
NtRp1592
(dp1593
g62
(dp1594
g82
g83
ssg71
g1588
sg64
(lp1595
S'local_hosts'
p1596
asbag57
(g78
g59
NtRp1597
(dp1598
g62
(dp1599
g89
g90
ssg71
g1588
sg64
(lp1600
S':'
asbag57
(g78
g59
NtRp1601
(dp1602
g62
(dp1603
sg71
g1588
sg64
(lp1604
g57
(g58
g59
NtRp1605
(dp1606
g62
(dp1607
g70
I4
ssg71
g1601
sg64
(lp1608
g57
(g66
g59
NtRp1609
(dp1610
g62
(dp1611
g70
I3
ssg71
Nsg64
(lp1612
g57
(g73
g59
NtRp1613
(dp1614
g62
(dp1615
sg71
g1609
sg64
(lp1616
g57
(g78
g59
NtRp1617
(dp1618
g62
(dp1619
sg71
g1613
sg64
(lp1620
g57
(g58
g59
NtRp1621
(dp1622
g62
(dp1623
g70
I3
ssg71
g1617
sg64
(lp1624
S'adri-EasyNote'
p1625
asbasbasbag57
(g73
g59
NtRp1626
(dp1627
g62
(dp1628
sg71
g1609
sg64
(lp1629
g57
(g78
g59
NtRp1630
(dp1631
g62
(dp1632
sg71
g1626
sg64
(lp1633
g57
(g58
g59
NtRp1634
(dp1635
g62
(dp1636
g70
I3
ssg71
g1630
sg64
(lp1637
S'::1'
p1638
asbasbasbag57
(g73
g59
NtRp1639
(dp1640
g62
(dp1641
sg71
g1609
sg64
(lp1642
g57
(g78
g59
NtRp1643
(dp1644
g62
(dp1645
sg71
g1639
sg64
(lp1646
g57
(g58
g59
NtRp1647
(dp1648
g62
(dp1649
g70
I3
ssg71
g1643
sg64
(lp1650
S'127.0.1.1'
p1651
asbasbasbag57
(g73
g59
NtRp1652
(dp1653
g62
(dp1654
sg71
g1609
sg64
(lp1655
g57
(g78
g59
NtRp1656
(dp1657
g62
(dp1658
sg71
g1652
sg64
(lp1659
g57
(g58
g59
NtRp1660
(dp1661
g62
(dp1662
g70
I3
ssg71
g1656
sg64
(lp1663
S'::ffff:127.0.0.1'
p1664
asbasbasbag57
(g73
g59
NtRp1665
(dp1666
g62
(dp1667
sg71
g1609
sg64
(lp1668
g57
(g78
g59
NtRp1669
(dp1670
g62
(dp1671
sg71
g1665
sg64
(lp1672
g57
(g58
g59
NtRp1673
(dp1674
g62
(dp1675
g70
I3
ssg71
g1669
sg64
(lp1676
S'127.0.0.1'
p1677
asbasbasbasbasbasbasbag57
(g73
g59
NtRp1678
(dp1679
g62
(dp1680
sg71
g1058
sg64
(lp1681
g57
(g78
g59
NtRp1682
(dp1683
g62
(dp1684
g82
g83
ssg71
g1678
sg64
(lp1685
S'path_info'
p1686
asbag57
(g78
g59
NtRp1687
(dp1688
g62
(dp1689
g89
g90
ssg71
g1678
sg64
(lp1690
S':'
asbag57
(g78
g59
NtRp1691
(dp1692
g62
(dp1693
sg71
g1678
sg64
(lp1694
g57
(g58
g59
NtRp1695
(dp1696
g62
(dp1697
g70
I4
ssg71
g1691
sg64
(lp1698
S'/CygnusCloud/appadmin/insert/userDB/UserGroup'
p1699
asbasbasbag57
(g73
g59
NtRp1700
(dp1701
g62
(dp1702
sg71
g1058
sg64
(lp1703
g57
(g78
g59
NtRp1704
(dp1705
g62
(dp1706
g82
g83
ssg71
g1700
sg64
(lp1707
S'query_string'
p1708
asbag57
(g78
g59
NtRp1709
(dp1710
g62
(dp1711
g89
g90
ssg71
g1700
sg64
(lp1712
S':'
asbag57
(g78
g59
NtRp1713
(dp1714
g62
(dp1715
sg71
g1700
sg64
(lp1716
g57
(g58
g59
NtRp1717
(dp1718
g62
(dp1719
g70
I4
ssg71
g1713
sg64
(lp1720
S''
asbasbasbag57
(g73
g59
NtRp1721
(dp1722
g62
(dp1723
sg71
g1058
sg64
(lp1724
g57
(g78
g59
NtRp1725
(dp1726
g62
(dp1727
g82
g83
ssg71
g1721
sg64
(lp1728
S'remote_addr'
p1729
asbag57
(g78
g59
NtRp1730
(dp1731
g62
(dp1732
g89
g90
ssg71
g1721
sg64
(lp1733
S':'
asbag57
(g78
g59
NtRp1734
(dp1735
g62
(dp1736
sg71
g1721
sg64
(lp1737
g57
(g58
g59
NtRp1738
(dp1739
g62
(dp1740
g70
I4
ssg71
g1734
sg64
(lp1741
g238
asbasbasbag57
(g73
g59
NtRp1742
(dp1743
g62
(dp1744
sg71
g1058
sg64
(lp1745
g57
(g78
g59
NtRp1746
(dp1747
g62
(dp1748
g82
g83
ssg71
g1742
sg64
(lp1749
S'remote_port'
p1750
asbag57
(g78
g59
NtRp1751
(dp1752
g62
(dp1753
g89
g90
ssg71
g1742
sg64
(lp1754
S':'
asbag57
(g78
g59
NtRp1755
(dp1756
g62
(dp1757
sg71
g1742
sg64
(lp1758
g57
(g58
g59
NtRp1759
(dp1760
g62
(dp1761
g70
I4
ssg71
g1755
sg64
(lp1762
S'50897'
p1763
asbasbasbag57
(g73
g59
NtRp1764
(dp1765
g62
(dp1766
sg71
g1058
sg64
(lp1767
g57
(g78
g59
NtRp1768
(dp1769
g62
(dp1770
g82
g83
ssg71
g1764
sg64
(lp1771
S'request_method'
p1772
asbag57
(g78
g59
NtRp1773
(dp1774
g62
(dp1775
g89
g90
ssg71
g1764
sg64
(lp1776
S':'
asbag57
(g78
g59
NtRp1777
(dp1778
g62
(dp1779
sg71
g1764
sg64
(lp1780
g57
(g58
g59
NtRp1781
(dp1782
g62
(dp1783
g70
I4
ssg71
g1777
sg64
(lp1784
S'POST'
p1785
asbasbasbag57
(g73
g59
NtRp1786
(dp1787
g62
(dp1788
sg71
g1058
sg64
(lp1789
g57
(g78
g59
NtRp1790
(dp1791
g62
(dp1792
g82
g83
ssg71
g1786
sg64
(lp1793
S'request_uri'
p1794
asbag57
(g78
g59
NtRp1795
(dp1796
g62
(dp1797
g89
g90
ssg71
g1786
sg64
(lp1798
S':'
asbag57
(g78
g59
NtRp1799
(dp1800
g62
(dp1801
sg71
g1786
sg64
(lp1802
g57
(g58
g59
NtRp1803
(dp1804
g62
(dp1805
g70
I4
ssg71
g1799
sg64
(lp1806
g1699
asbasbasbag57
(g73
g59
NtRp1807
(dp1808
g62
(dp1809
sg71
g1058
sg64
(lp1810
g57
(g78
g59
NtRp1811
(dp1812
g62
(dp1813
g82
g83
ssg71
g1807
sg64
(lp1814
S'script_name'
p1815
asbag57
(g78
g59
NtRp1816
(dp1817
g62
(dp1818
g89
g90
ssg71
g1807
sg64
(lp1819
S':'
asbag57
(g78
g59
NtRp1820
(dp1821
g62
(dp1822
sg71
g1807
sg64
(lp1823
g57
(g58
g59
NtRp1824
(dp1825
g62
(dp1826
g70
I4
ssg71
g1820
sg64
(lp1827
S''
asbasbasbag57
(g73
g59
NtRp1828
(dp1829
g62
(dp1830
sg71
g1058
sg64
(lp1831
g57
(g78
g59
NtRp1832
(dp1833
g62
(dp1834
g82
g83
ssg71
g1828
sg64
(lp1835
S'server_name'
p1836
asbag57
(g78
g59
NtRp1837
(dp1838
g62
(dp1839
g89
g90
ssg71
g1828
sg64
(lp1840
S':'
asbag57
(g78
g59
NtRp1841
(dp1842
g62
(dp1843
sg71
g1828
sg64
(lp1844
g57
(g58
g59
NtRp1845
(dp1846
g62
(dp1847
g70
I4
ssg71
g1841
sg64
(lp1848
S'adri-EasyNote'
p1849
asbasbasbag57
(g73
g59
NtRp1850
(dp1851
g62
(dp1852
sg71
g1058
sg64
(lp1853
g57
(g78
g59
NtRp1854
(dp1855
g62
(dp1856
g82
g83
ssg71
g1850
sg64
(lp1857
S'server_port'
p1858
asbag57
(g78
g59
NtRp1859
(dp1860
g62
(dp1861
g89
g90
ssg71
g1850
sg64
(lp1862
S':'
asbag57
(g78
g59
NtRp1863
(dp1864
g62
(dp1865
sg71
g1850
sg64
(lp1866
g57
(g58
g59
NtRp1867
(dp1868
g62
(dp1869
g70
I4
ssg71
g1863
sg64
(lp1870
S'8000'
p1871
asbasbasbag57
(g73
g59
NtRp1872
(dp1873
g62
(dp1874
sg71
g1058
sg64
(lp1875
g57
(g78
g59
NtRp1876
(dp1877
g62
(dp1878
g82
g83
ssg71
g1872
sg64
(lp1879
S'server_protocol'
p1880
asbag57
(g78
g59
NtRp1881
(dp1882
g62
(dp1883
g89
g90
ssg71
g1872
sg64
(lp1884
S':'
asbag57
(g78
g59
NtRp1885
(dp1886
g62
(dp1887
sg71
g1872
sg64
(lp1888
g57
(g58
g59
NtRp1889
(dp1890
g62
(dp1891
g70
I4
ssg71
g1885
sg64
(lp1892
S'HTTP/1.1'
p1893
asbasbasbag57
(g73
g59
NtRp1894
(dp1895
g62
(dp1896
sg71
g1058
sg64
(lp1897
g57
(g78
g59
NtRp1898
(dp1899
g62
(dp1900
g82
g83
ssg71
g1894
sg64
(lp1901
S'server_software'
p1902
asbag57
(g78
g59
NtRp1903
(dp1904
g62
(dp1905
g89
g90
ssg71
g1894
sg64
(lp1906
S':'
asbag57
(g78
g59
NtRp1907
(dp1908
g62
(dp1909
sg71
g1894
sg64
(lp1910
g57
(g58
g59
NtRp1911
(dp1912
g62
(dp1913
g70
I4
ssg71
g1907
sg64
(lp1914
S'Rocket 1.2.6'
p1915
asbasbasbag57
(g73
g59
NtRp1916
(dp1917
g62
(dp1918
sg71
g1058
sg64
(lp1919
g57
(g78
g59
NtRp1920
(dp1921
g62
(dp1922
g82
g83
ssg71
g1916
sg64
(lp1923
S'web2py_path'
p1924
asbag57
(g78
g59
NtRp1925
(dp1926
g62
(dp1927
g89
g90
ssg71
g1916
sg64
(lp1928
S':'
asbag57
(g78
g59
NtRp1929
(dp1930
g62
(dp1931
sg71
g1916
sg64
(lp1932
g57
(g58
g59
NtRp1933
(dp1934
g62
(dp1935
g70
I4
ssg71
g1929
sg64
(lp1936
g1105
asbasbasbag57
(g73
g59
NtRp1937
(dp1938
g62
(dp1939
sg71
g1058
sg64
(lp1940
g57
(g78
g59
NtRp1941
(dp1942
g62
(dp1943
g82
g83
ssg71
g1937
sg64
(lp1944
S'web2py_version'
p1945
asbag57
(g78
g59
NtRp1946
(dp1947
g62
(dp1948
g89
g90
ssg71
g1937
sg64
(lp1949
S':'
asbag57
(g78
g59
NtRp1950
(dp1951
g62
(dp1952
sg71
g1937
sg64
(lp1953
g57
(g58
g59
NtRp1954
(dp1955
g62
(dp1956
g70
I4
ssg71
g1950
sg64
(lp1957
g57
(g66
g59
NtRp1958
(dp1959
g62
(dp1960
g70
I3
ssg71
Nsg64
(lp1961
g57
(g73
g59
NtRp1962
(dp1963
g62
(dp1964
sg71
g1958
sg64
(lp1965
g57
(g78
g59
NtRp1966
(dp1967
g62
(dp1968
sg71
g1962
sg64
(lp1969
g57
(g58
g59
NtRp1970
(dp1971
g62
(dp1972
g70
I3
ssg71
g1966
sg64
(lp1973
S'2'
asbasbasbag57
(g73
g59
NtRp1974
(dp1975
g62
(dp1976
sg71
g1958
sg64
(lp1977
g57
(g78
g59
NtRp1978
(dp1979
g62
(dp1980
sg71
g1974
sg64
(lp1981
g57
(g58
g59
NtRp1982
(dp1983
g62
(dp1984
g70
I3
ssg71
g1978
sg64
(lp1985
S'3'
asbasbasbag57
(g73
g59
NtRp1986
(dp1987
g62
(dp1988
sg71
g1958
sg64
(lp1989
g57
(g78
g59
NtRp1990
(dp1991
g62
(dp1992
sg71
g1986
sg64
(lp1993
g57
(g58
g59
NtRp1994
(dp1995
g62
(dp1996
g70
I3
ssg71
g1990
sg64
(lp1997
S'2'
asbasbasbag57
(g73
g59
NtRp1998
(dp1999
g62
(dp2000
sg71
g1958
sg64
(lp2001
g57
(g78
g59
NtRp2002
(dp2003
g62
(dp2004
sg71
g1998
sg64
(lp2005
g57
(g58
g59
NtRp2006
(dp2007
g62
(dp2008
g70
I3
ssg71
g2002
sg64
(lp2009
S'datetime.datetime(2012, 12, 17, 15, 3, 30)'
p2010
asbasbasbag57
(g73
g59
NtRp2011
(dp2012
g62
(dp2013
sg71
g1958
sg64
(lp2014
g57
(g78
g59
NtRp2015
(dp2016
g62
(dp2017
sg71
g2011
sg64
(lp2018
g57
(g58
g59
NtRp2019
(dp2020
g62
(dp2021
g70
I3
ssg71
g2015
sg64
(lp2022
S'stable'
p2023
asbasbasbasbasbasbasbag57
(g73
g59
NtRp2024
(dp2025
g62
(dp2026
sg71
g1058
sg64
(lp2027
g57
(g78
g59
NtRp2028
(dp2029
g62
(dp2030
g82
g83
ssg71
g2024
sg64
(lp2031
S'wsgi_errors'
p2032
asbag57
(g78
g59
NtRp2033
(dp2034
g62
(dp2035
g89
g90
ssg71
g2024
sg64
(lp2036
S':'
asbag57
(g78
g59
NtRp2037
(dp2038
g62
(dp2039
sg71
g2024
sg64
(lp2040
g57
(g58
g59
NtRp2041
(dp2042
g62
(dp2043
g70
I4
ssg71
g2037
sg64
(lp2044
S"<open file '<stderr>', mode 'w' at 0x7f5f77b12270>"
p2045
asbasbasbag57
(g73
g59
NtRp2046
(dp2047
g62
(dp2048
sg71
g1058
sg64
(lp2049
g57
(g78
g59
NtRp2050
(dp2051
g62
(dp2052
g82
g83
ssg71
g2046
sg64
(lp2053
S'wsgi_file_wrapper'
p2054
asbag57
(g78
g59
NtRp2055
(dp2056
g62
(dp2057
g89
g90
ssg71
g2046
sg64
(lp2058
S':'
asbag57
(g78
g59
NtRp2059
(dp2060
g62
(dp2061
sg71
g2046
sg64
(lp2062
g57
(g58
g59
NtRp2063
(dp2064
g62
(dp2065
g70
I4
ssg71
g2059
sg64
(lp2066
S'<class wsgiref.util.FileWrapper at 0x2151db8>'
p2067
asbasbasbag57
(g73
g59
NtRp2068
(dp2069
g62
(dp2070
sg71
g1058
sg64
(lp2071
g57
(g78
g59
NtRp2072
(dp2073
g62
(dp2074
g82
g83
ssg71
g2068
sg64
(lp2075
S'wsgi_input'
p2076
asbag57
(g78
g59
NtRp2077
(dp2078
g62
(dp2079
g89
g90
ssg71
g2068
sg64
(lp2080
S':'
asbag57
(g78
g59
NtRp2081
(dp2082
g62
(dp2083
sg71
g2068
sg64
(lp2084
g57
(g58
g59
NtRp2085
(dp2086
g62
(dp2087
g70
I4
ssg71
g2081
sg64
(lp2088
S'<socket._fileobject object at 0x7f5f503a6bd0>'
p2089
asbasbasbag57
(g73
g59
NtRp2090
(dp2091
g62
(dp2092
sg71
g1058
sg64
(lp2093
g57
(g78
g59
NtRp2094
(dp2095
g62
(dp2096
g82
g83
ssg71
g2090
sg64
(lp2097
S'wsgi_multiprocess'
p2098
asbag57
(g78
g59
NtRp2099
(dp2100
g62
(dp2101
g89
g90
ssg71
g2090
sg64
(lp2102
S':'
asbag57
(g78
g59
NtRp2103
(dp2104
g62
(dp2105
sg71
g2090
sg64
(lp2106
g57
(g58
g59
NtRp2107
(dp2108
g62
(dp2109
g70
I4
ssg71
g2103
sg64
(lp2110
g100
asbasbasbag57
(g73
g59
NtRp2111
(dp2112
g62
(dp2113
sg71
g1058
sg64
(lp2114
g57
(g78
g59
NtRp2115
(dp2116
g62
(dp2117
g82
g83
ssg71
g2111
sg64
(lp2118
S'wsgi_multithread'
p2119
asbag57
(g78
g59
NtRp2120
(dp2121
g62
(dp2122
g89
g90
ssg71
g2111
sg64
(lp2123
S':'
asbag57
(g78
g59
NtRp2124
(dp2125
g62
(dp2126
sg71
g2111
sg64
(lp2127
g57
(g58
g59
NtRp2128
(dp2129
g62
(dp2130
g70
I4
ssg71
g2124
sg64
(lp2131
S'True'
p2132
asbasbasbag57
(g73
g59
NtRp2133
(dp2134
g62
(dp2135
sg71
g1058
sg64
(lp2136
g57
(g78
g59
NtRp2137
(dp2138
g62
(dp2139
g82
g83
ssg71
g2133
sg64
(lp2140
S'wsgi_run_once'
p2141
asbag57
(g78
g59
NtRp2142
(dp2143
g62
(dp2144
g89
g90
ssg71
g2133
sg64
(lp2145
S':'
asbag57
(g78
g59
NtRp2146
(dp2147
g62
(dp2148
sg71
g2133
sg64
(lp2149
g57
(g58
g59
NtRp2150
(dp2151
g62
(dp2152
g70
I4
ssg71
g2146
sg64
(lp2153
g100
asbasbasbag57
(g73
g59
NtRp2154
(dp2155
g62
(dp2156
sg71
g1058
sg64
(lp2157
g57
(g78
g59
NtRp2158
(dp2159
g62
(dp2160
g82
g83
ssg71
g2154
sg64
(lp2161
S'wsgi_url_scheme'
p2162
asbag57
(g78
g59
NtRp2163
(dp2164
g62
(dp2165
g89
g90
ssg71
g2154
sg64
(lp2166
S':'
asbag57
(g78
g59
NtRp2167
(dp2168
g62
(dp2169
sg71
g2154
sg64
(lp2170
g57
(g58
g59
NtRp2171
(dp2172
g62
(dp2173
g70
I4
ssg71
g2167
sg64
(lp2174
S'http'
p2175
asbasbasbag57
(g73
g59
NtRp2176
(dp2177
g62
(dp2178
sg71
g1058
sg64
(lp2179
g57
(g78
g59
NtRp2180
(dp2181
g62
(dp2182
g82
g83
ssg71
g2176
sg64
(lp2183
S'wsgi_version'
p2184
asbag57
(g78
g59
NtRp2185
(dp2186
g62
(dp2187
g89
g90
ssg71
g2176
sg64
(lp2188
S':'
asbag57
(g78
g59
NtRp2189
(dp2190
g62
(dp2191
sg71
g2176
sg64
(lp2192
g57
(g58
g59
NtRp2193
(dp2194
g62
(dp2195
g70
I4
ssg71
g2189
sg64
(lp2196
g57
(g66
g59
NtRp2197
(dp2198
g62
(dp2199
g70
I3
ssg71
Nsg64
(lp2200
g57
(g73
g59
NtRp2201
(dp2202
g62
(dp2203
sg71
g2197
sg64
(lp2204
g57
(g78
g59
NtRp2205
(dp2206
g62
(dp2207
sg71
g2201
sg64
(lp2208
g57
(g58
g59
NtRp2209
(dp2210
g62
(dp2211
g70
I3
ssg71
g2205
sg64
(lp2212
S'1'
asbasbasbag57
(g73
g59
NtRp2213
(dp2214
g62
(dp2215
sg71
g2197
sg64
(lp2216
g57
(g78
g59
NtRp2217
(dp2218
g62
(dp2219
sg71
g2213
sg64
(lp2220
g57
(g58
g59
NtRp2221
(dp2222
g62
(dp2223
g70
I3
ssg71
g2217
sg64
(lp2224
S'0'
asbasbasbasbasbasbasbasbasbasbasbag57
(g73
g59
NtRp2225
(dp2226
g62
(dp2227
sg71
g67
sg64
(lp2228
g57
(g78
g59
NtRp2229
(dp2230
g62
(dp2231
g82
g83
ssg71
g2225
sg64
(lp2232
S'extension'
p2233
asbag57
(g78
g59
NtRp2234
(dp2235
g62
(dp2236
g89
g90
ssg71
g2225
sg64
(lp2237
S':'
asbag57
(g78
g59
NtRp2238
(dp2239
g62
(dp2240
sg71
g2225
sg64
(lp2241
g57
(g58
g59
NtRp2242
(dp2243
g62
(dp2244
g70
I5
ssg71
g2238
sg64
(lp2245
S'html'
p2246
asbasbasbag57
(g73
g59
NtRp2247
(dp2248
g62
(dp2249
sg71
g67
sg64
(lp2250
g57
(g78
g59
NtRp2251
(dp2252
g62
(dp2253
g82
g83
ssg71
g2247
sg64
(lp2254
S'folder'
p2255
asbag57
(g78
g59
NtRp2256
(dp2257
g62
(dp2258
g89
g90
ssg71
g2247
sg64
(lp2259
S':'
asbag57
(g78
g59
NtRp2260
(dp2261
g62
(dp2262
sg71
g2247
sg64
(lp2263
g57
(g58
g59
NtRp2264
(dp2265
g62
(dp2266
g70
I5
ssg71
g2260
sg64
(lp2267
S'/home/adrian/web2py/applications/CygnusCloud/'
p2268
asbasbasbag57
(g73
g59
NtRp2269
(dp2270
g62
(dp2271
sg71
g67
sg64
(lp2272
g57
(g78
g59
NtRp2273
(dp2274
g62
(dp2275
g82
g83
ssg71
g2269
sg64
(lp2276
S'function'
p2277
asbag57
(g78
g59
NtRp2278
(dp2279
g62
(dp2280
g89
g90
ssg71
g2269
sg64
(lp2281
S':'
asbag57
(g78
g59
NtRp2282
(dp2283
g62
(dp2284
sg71
g2269
sg64
(lp2285
g57
(g58
g59
NtRp2286
(dp2287
g62
(dp2288
g70
I5
ssg71
g2282
sg64
(lp2289
S'insert'
p2290
asbasbasbag57
(g73
g59
NtRp2291
(dp2292
g62
(dp2293
sg71
g67
sg64
(lp2294
g57
(g78
g59
NtRp2295
(dp2296
g62
(dp2297
g82
g83
ssg71
g2291
sg64
(lp2298
S'get_vars'
p2299
asbag57
(g78
g59
NtRp2300
(dp2301
g62
(dp2302
g89
g90
ssg71
g2291
sg64
(lp2303
S':'
asbag57
(g78
g59
NtRp2304
(dp2305
g62
(dp2306
sg71
g2291
sg64
(lp2307
g57
(g58
g59
NtRp2308
(dp2309
g62
(dp2310
g70
I5
ssg71
g2304
sg64
(lp2311
g57
(g66
g59
NtRp2312
(dp2313
g62
(dp2314
g70
I4
ssg71
Nsg64
(lp2315
sbasbasbasbag57
(g73
g59
NtRp2316
(dp2317
g62
(dp2318
sg71
g67
sg64
(lp2319
g57
(g78
g59
NtRp2320
(dp2321
g62
(dp2322
g82
g83
ssg71
g2316
sg64
(lp2323
S'global_settings'
p2324
asbag57
(g78
g59
NtRp2325
(dp2326
g62
(dp2327
g89
g90
ssg71
g2316
sg64
(lp2328
S':'
asbag57
(g78
g59
NtRp2329
(dp2330
g62
(dp2331
sg71
g2316
sg64
(lp2332
g57
(g58
g59
NtRp2333
(dp2334
g62
(dp2335
g70
I5
ssg71
g2329
sg64
(lp2336
g57
(g66
g59
NtRp2337
(dp2338
g62
(dp2339
g70
I4
ssg71
Nsg64
(lp2340
g57
(g73
g59
NtRp2341
(dp2342
g62
(dp2343
sg71
g2337
sg64
(lp2344
g57
(g78
g59
NtRp2345
(dp2346
g62
(dp2347
g82
g83
ssg71
g2341
sg64
(lp2348
g1070
asbag57
(g78
g59
NtRp2349
(dp2350
g62
(dp2351
g89
g90
ssg71
g2341
sg64
(lp2352
S':'
asbag57
(g78
g59
NtRp2353
(dp2354
g62
(dp2355
sg71
g2341
sg64
(lp2356
g57
(g58
g59
NtRp2357
(dp2358
g62
(dp2359
g70
I4
ssg71
g2353
sg64
(lp2360
S"set(['/home/adrian/web2py/applications/admin/', '/home/adrian/web2py/applications/CygnusCloud/'])"
p2361
asbasbasbag57
(g73
g59
NtRp2362
(dp2363
g62
(dp2364
sg71
g2337
sg64
(lp2365
g57
(g78
g59
NtRp2366
(dp2367
g62
(dp2368
g82
g83
ssg71
g2362
sg64
(lp2369
g1092
asbag57
(g78
g59
NtRp2370
(dp2371
g62
(dp2372
g89
g90
ssg71
g2362
sg64
(lp2373
S':'
asbag57
(g78
g59
NtRp2374
(dp2375
g62
(dp2376
sg71
g2362
sg64
(lp2377
g57
(g58
g59
NtRp2378
(dp2379
g62
(dp2380
g70
I4
ssg71
g2374
sg64
(lp2381
g1105
asbasbasbag57
(g73
g59
NtRp2382
(dp2383
g62
(dp2384
sg71
g2337
sg64
(lp2385
g57
(g78
g59
NtRp2386
(dp2387
g62
(dp2388
g82
g83
ssg71
g2382
sg64
(lp2389
g1114
asbag57
(g78
g59
NtRp2390
(dp2391
g62
(dp2392
g89
g90
ssg71
g2382
sg64
(lp2393
S':'
asbag57
(g78
g59
NtRp2394
(dp2395
g62
(dp2396
sg71
g2382
sg64
(lp2397
g57
(g58
g59
NtRp2398
(dp2399
g62
(dp2400
g70
I4
ssg71
g2394
sg64
(lp2401
g57
(g66
g59
NtRp2402
(dp2403
g62
(dp2404
g70
I3
ssg71
Nsg64
(lp2405
sbasbasbasbag57
(g73
g59
NtRp2406
(dp2407
g62
(dp2408
sg71
g2337
sg64
(lp2409
g57
(g78
g59
NtRp2410
(dp2411
g62
(dp2412
g82
g83
ssg71
g2406
sg64
(lp2413
g1139
asbag57
(g78
g59
NtRp2414
(dp2415
g62
(dp2416
g89
g90
ssg71
g2406
sg64
(lp2417
S':'
asbag57
(g78
g59
NtRp2418
(dp2419
g62
(dp2420
sg71
g2406
sg64
(lp2421
g57
(g58
g59
NtRp2422
(dp2423
g62
(dp2424
g70
I4
ssg71
g2418
sg64
(lp2425
S"<Values at 0x221dbd8: {'verbose': False, 'ip': '127.0.0.1', 'with_scheduler': False, 'ips': [], 'shutdown_timeout': 5, 'taskbar': False, 'port': 8000, 'maxthreads': None, 'softcron': False, 'server_name': 'adri-EasyNote', 'bpython': False, 'nogui': False, 'pid_filename': 'httpserver.pid', 'extcron': False, 'runcron': False, 'run_system_tests': False, 'test': None, 'folder': '/home/adrian/web2py', 'config': '', 'minthreads': None, 'winservice': '', 'shell': None, 'run': '', 'log_filename': 'httpserver.log', 'debuglevel': 30, 'args': [''], 'socket_timeout': 5, 'ssl_ca_certificate': None, 'scheduler': None, 'profiler_filename': None, 'ssl_private_key': '', 'scheduler_groups': None, 'password': 'cygnuscloud2012', 'request_queue_size': 5, 'ssl_certificate': '', 'cronjob': False, 'numthreads': None, 'quiet': False, 'interfaces': None, 'import_models': False, 'timeout': 10, 'plain': False, 'nobanner': False}>"
p2426
asbasbasbag57
(g73
g59
NtRp2427
(dp2428
g62
(dp2429
sg71
g2337
sg64
(lp2430
g57
(g78
g59
NtRp2431
(dp2432
g62
(dp2433
g82
g83
ssg71
g2427
sg64
(lp2434
g1205
asbag57
(g78
g59
NtRp2435
(dp2436
g62
(dp2437
g89
g90
ssg71
g2427
sg64
(lp2438
S':'
asbag57
(g78
g59
NtRp2439
(dp2440
g62
(dp2441
sg71
g2427
sg64
(lp2442
g57
(g58
g59
NtRp2443
(dp2444
g62
(dp2445
g70
I4
ssg71
g2439
sg64
(lp2446
S'set([])'
p2447
asbasbasbag57
(g73
g59
NtRp2448
(dp2449
g62
(dp2450
sg71
g2337
sg64
(lp2451
g57
(g78
g59
NtRp2452
(dp2453
g62
(dp2454
g82
g83
ssg71
g2448
sg64
(lp2455
g1227
asbag57
(g78
g59
NtRp2456
(dp2457
g62
(dp2458
g89
g90
ssg71
g2448
sg64
(lp2459
S':'
asbag57
(g78
g59
NtRp2460
(dp2461
g62
(dp2462
sg71
g2448
sg64
(lp2463
g57
(g58
g59
NtRp2464
(dp2465
g62
(dp2466
g70
I4
ssg71
g2460
sg64
(lp2467
g100
asbasbasbag57
(g73
g59
NtRp2468
(dp2469
g62
(dp2470
sg71
g2337
sg64
(lp2471
g57
(g78
g59
NtRp2472
(dp2473
g62
(dp2474
g82
g83
ssg71
g2468
sg64
(lp2475
g1248
asbag57
(g78
g59
NtRp2476
(dp2477
g62
(dp2478
g89
g90
ssg71
g2468
sg64
(lp2479
S':'
asbag57
(g78
g59
NtRp2480
(dp2481
g62
(dp2482
sg71
g2468
sg64
(lp2483
g57
(g58
g59
NtRp2484
(dp2485
g62
(dp2486
g70
I4
ssg71
g2480
sg64
(lp2487
g1261
asbasbasbag57
(g73
g59
NtRp2488
(dp2489
g62
(dp2490
sg71
g2337
sg64
(lp2491
g57
(g78
g59
NtRp2492
(dp2493
g62
(dp2494
g82
g83
ssg71
g2488
sg64
(lp2495
g1554
asbag57
(g78
g59
NtRp2496
(dp2497
g62
(dp2498
g89
g90
ssg71
g2488
sg64
(lp2499
S':'
asbag57
(g78
g59
NtRp2500
(dp2501
g62
(dp2502
sg71
g2488
sg64
(lp2503
g57
(g58
g59
NtRp2504
(dp2505
g62
(dp2506
g70
I4
ssg71
g2500
sg64
(lp2507
g100
asbasbasbag57
(g73
g59
NtRp2508
(dp2509
g62
(dp2510
sg71
g2337
sg64
(lp2511
g57
(g78
g59
NtRp2512
(dp2513
g62
(dp2514
g82
g83
ssg71
g2508
sg64
(lp2515
g1575
asbag57
(g78
g59
NtRp2516
(dp2517
g62
(dp2518
g89
g90
ssg71
g2508
sg64
(lp2519
S':'
asbag57
(g78
g59
NtRp2520
(dp2521
g62
(dp2522
sg71
g2508
sg64
(lp2523
g57
(g58
g59
NtRp2524
(dp2525
g62
(dp2526
g70
I4
ssg71
g2520
sg64
(lp2527
g100
asbasbasbag57
(g73
g59
NtRp2528
(dp2529
g62
(dp2530
sg71
g2337
sg64
(lp2531
g57
(g78
g59
NtRp2532
(dp2533
g62
(dp2534
g82
g83
ssg71
g2528
sg64
(lp2535
g1596
asbag57
(g78
g59
NtRp2536
(dp2537
g62
(dp2538
g89
g90
ssg71
g2528
sg64
(lp2539
S':'
asbag57
(g78
g59
NtRp2540
(dp2541
g62
(dp2542
sg71
g2528
sg64
(lp2543
g57
(g58
g59
NtRp2544
(dp2545
g62
(dp2546
g70
I4
ssg71
g2540
sg64
(lp2547
g57
(g66
g59
NtRp2548
(dp2549
g62
(dp2550
g70
I3
ssg71
Nsg64
(lp2551
g57
(g73
g59
NtRp2552
(dp2553
g62
(dp2554
sg71
g2548
sg64
(lp2555
g57
(g78
g59
NtRp2556
(dp2557
g62
(dp2558
sg71
g2552
sg64
(lp2559
g57
(g58
g59
NtRp2560
(dp2561
g62
(dp2562
g70
I3
ssg71
g2556
sg64
(lp2563
g1625
asbasbasbag57
(g73
g59
NtRp2564
(dp2565
g62
(dp2566
sg71
g2548
sg64
(lp2567
g57
(g78
g59
NtRp2568
(dp2569
g62
(dp2570
sg71
g2564
sg64
(lp2571
g57
(g58
g59
NtRp2572
(dp2573
g62
(dp2574
g70
I3
ssg71
g2568
sg64
(lp2575
g1638
asbasbasbag57
(g73
g59
NtRp2576
(dp2577
g62
(dp2578
sg71
g2548
sg64
(lp2579
g57
(g78
g59
NtRp2580
(dp2581
g62
(dp2582
sg71
g2576
sg64
(lp2583
g57
(g58
g59
NtRp2584
(dp2585
g62
(dp2586
g70
I3
ssg71
g2580
sg64
(lp2587
g1651
asbasbasbag57
(g73
g59
NtRp2588
(dp2589
g62
(dp2590
sg71
g2548
sg64
(lp2591
g57
(g78
g59
NtRp2592
(dp2593
g62
(dp2594
sg71
g2588
sg64
(lp2595
g57
(g58
g59
NtRp2596
(dp2597
g62
(dp2598
g70
I3
ssg71
g2592
sg64
(lp2599
g1664
asbasbasbag57
(g73
g59
NtRp2600
(dp2601
g62
(dp2602
sg71
g2548
sg64
(lp2603
g57
(g78
g59
NtRp2604
(dp2605
g62
(dp2606
sg71
g2600
sg64
(lp2607
g57
(g58
g59
NtRp2608
(dp2609
g62
(dp2610
g70
I3
ssg71
g2604
sg64
(lp2611
g1677
asbasbasbasbasbasbasbag57
(g73
g59
NtRp2612
(dp2613
g62
(dp2614
sg71
g2337
sg64
(lp2615
g57
(g78
g59
NtRp2616
(dp2617
g62
(dp2618
g82
g83
ssg71
g2612
sg64
(lp2619
g1945
asbag57
(g78
g59
NtRp2620
(dp2621
g62
(dp2622
g89
g90
ssg71
g2612
sg64
(lp2623
S':'
asbag57
(g78
g59
NtRp2624
(dp2625
g62
(dp2626
sg71
g2612
sg64
(lp2627
g57
(g58
g59
NtRp2628
(dp2629
g62
(dp2630
g70
I4
ssg71
g2624
sg64
(lp2631
g57
(g66
g59
NtRp2632
(dp2633
g62
(dp2634
g70
I3
ssg71
Nsg64
(lp2635
g57
(g73
g59
NtRp2636
(dp2637
g62
(dp2638
sg71
g2632
sg64
(lp2639
g57
(g78
g59
NtRp2640
(dp2641
g62
(dp2642
sg71
g2636
sg64
(lp2643
g57
(g58
g59
NtRp2644
(dp2645
g62
(dp2646
g70
I3
ssg71
g2640
sg64
(lp2647
S'2'
asbasbasbag57
(g73
g59
NtRp2648
(dp2649
g62
(dp2650
sg71
g2632
sg64
(lp2651
g57
(g78
g59
NtRp2652
(dp2653
g62
(dp2654
sg71
g2648
sg64
(lp2655
g57
(g58
g59
NtRp2656
(dp2657
g62
(dp2658
g70
I3
ssg71
g2652
sg64
(lp2659
S'3'
asbasbasbag57
(g73
g59
NtRp2660
(dp2661
g62
(dp2662
sg71
g2632
sg64
(lp2663
g57
(g78
g59
NtRp2664
(dp2665
g62
(dp2666
sg71
g2660
sg64
(lp2667
g57
(g58
g59
NtRp2668
(dp2669
g62
(dp2670
g70
I3
ssg71
g2664
sg64
(lp2671
S'2'
asbasbasbag57
(g73
g59
NtRp2672
(dp2673
g62
(dp2674
sg71
g2632
sg64
(lp2675
g57
(g78
g59
NtRp2676
(dp2677
g62
(dp2678
sg71
g2672
sg64
(lp2679
g57
(g58
g59
NtRp2680
(dp2681
g62
(dp2682
g70
I3
ssg71
g2676
sg64
(lp2683
S'datetime.datetime(2012, 12, 17, 15, 3, 30)'
p2684
asbasbasbag57
(g73
g59
NtRp2685
(dp2686
g62
(dp2687
sg71
g2632
sg64
(lp2688
g57
(g78
g59
NtRp2689
(dp2690
g62
(dp2691
sg71
g2685
sg64
(lp2692
g57
(g58
g59
NtRp2693
(dp2694
g62
(dp2695
g70
I3
ssg71
g2689
sg64
(lp2696
g2023
asbasbasbasbasbasbasbasbasbasbasbag57
(g73
g59
NtRp2697
(dp2698
g62
(dp2699
sg71
g67
sg64
(lp2700
g57
(g78
g59
NtRp2701
(dp2702
g62
(dp2703
g82
g83
ssg71
g2697
sg64
(lp2704
S'is_https'
p2705
asbag57
(g78
g59
NtRp2706
(dp2707
g62
(dp2708
g89
g90
ssg71
g2697
sg64
(lp2709
S':'
asbag57
(g78
g59
NtRp2710
(dp2711
g62
(dp2712
sg71
g2697
sg64
(lp2713
g57
(g58
g59
NtRp2714
(dp2715
g62
(dp2716
g70
I5
ssg71
g2710
sg64
(lp2717
g100
asbasbasbag57
(g73
g59
NtRp2718
(dp2719
g62
(dp2720
sg71
g67
sg64
(lp2721
g57
(g78
g59
NtRp2722
(dp2723
g62
(dp2724
g82
g83
ssg71
g2718
sg64
(lp2725
S'is_local'
p2726
asbag57
(g78
g59
NtRp2727
(dp2728
g62
(dp2729
g89
g90
ssg71
g2718
sg64
(lp2730
S':'
asbag57
(g78
g59
NtRp2731
(dp2732
g62
(dp2733
sg71
g2718
sg64
(lp2734
g57
(g58
g59
NtRp2735
(dp2736
g62
(dp2737
g70
I5
ssg71
g2731
sg64
(lp2738
g2132
asbasbasbag57
(g73
g59
NtRp2739
(dp2740
g62
(dp2741
sg71
g67
sg64
(lp2742
g57
(g78
g59
NtRp2743
(dp2744
g62
(dp2745
g82
g83
ssg71
g2739
sg64
(lp2746
S'is_restful'
p2747
asbag57
(g78
g59
NtRp2748
(dp2749
g62
(dp2750
g89
g90
ssg71
g2739
sg64
(lp2751
S':'
asbag57
(g78
g59
NtRp2752
(dp2753
g62
(dp2754
sg71
g2739
sg64
(lp2755
g57
(g58
g59
NtRp2756
(dp2757
g62
(dp2758
g70
I5
ssg71
g2752
sg64
(lp2759
g100
asbasbasbag57
(g73
g59
NtRp2760
(dp2761
g62
(dp2762
sg71
g67
sg64
(lp2763
g57
(g78
g59
NtRp2764
(dp2765
g62
(dp2766
g82
g83
ssg71
g2760
sg64
(lp2767
S'now'
p2768
asbag57
(g78
g59
NtRp2769
(dp2770
g62
(dp2771
g89
g90
ssg71
g2760
sg64
(lp2772
S':'
asbag57
(g78
g59
NtRp2773
(dp2774
g62
(dp2775
sg71
g2760
sg64
(lp2776
g57
(g58
g59
NtRp2777
(dp2778
g62
(dp2779
g70
I5
ssg71
g2773
sg64
(lp2780
S'datetime.datetime(2013, 2, 11, 19, 26, 4, 224130)'
p2781
asbasbasbag57
(g73
g59
NtRp2782
(dp2783
g62
(dp2784
sg71
g67
sg64
(lp2785
g57
(g78
g59
NtRp2786
(dp2787
g62
(dp2788
g82
g83
ssg71
g2782
sg64
(lp2789
S'post_vars'
p2790
asbag57
(g78
g59
NtRp2791
(dp2792
g62
(dp2793
g89
g90
ssg71
g2782
sg64
(lp2794
S':'
asbag57
(g78
g59
NtRp2795
(dp2796
g62
(dp2797
sg71
g2782
sg64
(lp2798
g57
(g58
g59
NtRp2799
(dp2800
g62
(dp2801
g70
I5
ssg71
g2795
sg64
(lp2802
g57
(g66
g59
NtRp2803
(dp2804
g62
(dp2805
g70
I4
ssg71
Nsg64
(lp2806
g57
(g73
g59
NtRp2807
(dp2808
g62
(dp2809
sg71
g2803
sg64
(lp2810
g57
(g78
g59
NtRp2811
(dp2812
g62
(dp2813
g82
g83
ssg71
g2807
sg64
(lp2814
S'cod'
p2815
asbag57
(g78
g59
NtRp2816
(dp2817
g62
(dp2818
g89
g90
ssg71
g2807
sg64
(lp2819
S':'
asbag57
(g78
g59
NtRp2820
(dp2821
g62
(dp2822
sg71
g2807
sg64
(lp2823
g57
(g58
g59
NtRp2824
(dp2825
g62
(dp2826
g70
I4
ssg71
g2820
sg64
(lp2827
S'106148'
p2828
asbasbasbag57
(g73
g59
NtRp2829
(dp2830
g62
(dp2831
sg71
g2803
sg64
(lp2832
g57
(g78
g59
NtRp2833
(dp2834
g62
(dp2835
g82
g83
ssg71
g2829
sg64
(lp2836
S'curseGroup'
p2837
asbag57
(g78
g59
NtRp2838
(dp2839
g62
(dp2840
g89
g90
ssg71
g2829
sg64
(lp2841
S':'
asbag57
(g78
g59
NtRp2842
(dp2843
g62
(dp2844
sg71
g2829
sg64
(lp2845
g57
(g58
g59
NtRp2846
(dp2847
g62
(dp2848
g70
I4
ssg71
g2842
sg64
(lp2849
S'a'
asbasbasbag57
(g73
g59
NtRp2850
(dp2851
g62
(dp2852
sg71
g2803
sg64
(lp2853
g57
(g78
g59
NtRp2854
(dp2855
g62
(dp2856
g82
g83
ssg71
g2850
sg64
(lp2857
S'userId'
p2858
asbag57
(g78
g59
NtRp2859
(dp2860
g62
(dp2861
g89
g90
ssg71
g2850
sg64
(lp2862
S':'
asbag57
(g78
g59
NtRp2863
(dp2864
g62
(dp2865
sg71
g2850
sg64
(lp2866
g57
(g58
g59
NtRp2867
(dp2868
g62
(dp2869
g70
I4
ssg71
g2863
sg64
(lp2870
S'1'
asbasbasbasbasbasbasbag57
(g73
g59
NtRp2871
(dp2872
g62
(dp2873
sg71
g67
sg64
(lp2874
g57
(g78
g59
NtRp2875
(dp2876
g62
(dp2877
g82
g83
ssg71
g2871
sg64
(lp2878
S'raw_args'
p2879
asbag57
(g78
g59
NtRp2880
(dp2881
g62
(dp2882
g89
g90
ssg71
g2871
sg64
(lp2883
S':'
asbag57
(g78
g59
NtRp2884
(dp2885
g62
(dp2886
sg71
g2871
sg64
(lp2887
g57
(g58
g59
NtRp2888
(dp2889
g62
(dp2890
g70
I5
ssg71
g2884
sg64
(lp2891
S'userDB/UserGroup'
p2892
asbasbasbag57
(g73
g59
NtRp2893
(dp2894
g62
(dp2895
sg71
g67
sg64
(lp2896
g57
(g78
g59
NtRp2897
(dp2898
g62
(dp2899
g82
g83
ssg71
g2893
sg64
(lp2900
S'raw_extension'
p2901
asbag57
(g78
g59
NtRp2902
(dp2903
g62
(dp2904
g89
g90
ssg71
g2893
sg64
(lp2905
S':'
asbag57
(g78
g59
NtRp2906
(dp2907
g62
(dp2908
sg71
g2893
sg64
(lp2909
g57
(g58
g59
NtRp2910
(dp2911
g62
(dp2912
g70
I5
ssg71
g2906
sg64
(lp2913
S'None'
p2914
asbasbasbag57
(g73
g59
NtRp2915
(dp2916
g62
(dp2917
sg71
g67
sg64
(lp2918
g57
(g78
g59
NtRp2919
(dp2920
g62
(dp2921
g82
g83
ssg71
g2915
sg64
(lp2922
S'url'
p2923
asbag57
(g78
g59
NtRp2924
(dp2925
g62
(dp2926
g89
g90
ssg71
g2915
sg64
(lp2927
S':'
asbag57
(g78
g59
NtRp2928
(dp2929
g62
(dp2930
sg71
g2915
sg64
(lp2931
g57
(g58
g59
NtRp2932
(dp2933
g62
(dp2934
g70
I5
ssg71
g2928
sg64
(lp2935
g1699
asbasbasbag57
(g73
g59
NtRp2936
(dp2937
g62
(dp2938
sg71
g67
sg64
(lp2939
g57
(g78
g59
NtRp2940
(dp2941
g62
(dp2942
g82
g83
ssg71
g2936
sg64
(lp2943
S'utcnow'
p2944
asbag57
(g78
g59
NtRp2945
(dp2946
g62
(dp2947
g89
g90
ssg71
g2936
sg64
(lp2948
S':'
asbag57
(g78
g59
NtRp2949
(dp2950
g62
(dp2951
sg71
g2936
sg64
(lp2952
g57
(g58
g59
NtRp2953
(dp2954
g62
(dp2955
g70
I5
ssg71
g2949
sg64
(lp2956
S'datetime.datetime(2013, 2, 11, 18, 26, 4, 224214)'
p2957
asbasbasbag57
(g73
g59
NtRp2958
(dp2959
g62
(dp2960
sg71
g67
sg64
(lp2961
g57
(g78
g59
NtRp2962
(dp2963
g62
(dp2964
g82
g83
ssg71
g2958
sg64
(lp2965
S'uuid'
p2966
asbag57
(g78
g59
NtRp2967
(dp2968
g62
(dp2969
g89
g90
ssg71
g2958
sg64
(lp2970
S':'
asbag57
(g78
g59
NtRp2971
(dp2972
g62
(dp2973
sg71
g2958
sg64
(lp2974
g57
(g58
g59
NtRp2975
(dp2976
g62
(dp2977
g70
I5
ssg71
g2971
sg64
(lp2978
S'CygnusCloud/127.0.0.1.2013-02-11.19-26-04.90d1dada-4b90-4820-813b-d7ceccedf13c'
p2979
asbasbasbag57
(g73
g59
NtRp2980
(dp2981
g62
(dp2982
sg71
g67
sg64
(lp2983
g57
(g78
g59
NtRp2984
(dp2985
g62
(dp2986
g82
g83
ssg71
g2980
sg64
(lp2987
S'vars'
p2988
asbag57
(g78
g59
NtRp2989
(dp2990
g62
(dp2991
g89
g90
ssg71
g2980
sg64
(lp2992
S':'
asbag57
(g78
g59
NtRp2993
(dp2994
g62
(dp2995
sg71
g2980
sg64
(lp2996
g57
(g58
g59
NtRp2997
(dp2998
g62
(dp2999
g70
I5
ssg71
g2993
sg64
(lp3000
g57
(g66
g59
NtRp3001
(dp3002
g62
(dp3003
g70
I4
ssg71
Nsg64
(lp3004
g57
(g73
g59
NtRp3005
(dp3006
g62
(dp3007
sg71
g3001
sg64
(lp3008
g57
(g78
g59
NtRp3009
(dp3010
g62
(dp3011
g82
g83
ssg71
g3005
sg64
(lp3012
g2815
asbag57
(g78
g59
NtRp3013
(dp3014
g62
(dp3015
g89
g90
ssg71
g3005
sg64
(lp3016
S':'
asbag57
(g78
g59
NtRp3017
(dp3018
g62
(dp3019
sg71
g3005
sg64
(lp3020
g57
(g58
g59
NtRp3021
(dp3022
g62
(dp3023
g70
I4
ssg71
g3017
sg64
(lp3024
g2828
asbasbasbag57
(g73
g59
NtRp3025
(dp3026
g62
(dp3027
sg71
g3001
sg64
(lp3028
g57
(g78
g59
NtRp3029
(dp3030
g62
(dp3031
g82
g83
ssg71
g3025
sg64
(lp3032
g2837
asbag57
(g78
g59
NtRp3033
(dp3034
g62
(dp3035
g89
g90
ssg71
g3025
sg64
(lp3036
S':'
asbag57
(g78
g59
NtRp3037
(dp3038
g62
(dp3039
sg71
g3025
sg64
(lp3040
g57
(g58
g59
NtRp3041
(dp3042
g62
(dp3043
g70
I4
ssg71
g3037
sg64
(lp3044
S'a'
asbasbasbag57
(g73
g59
NtRp3045
(dp3046
g62
(dp3047
sg71
g3001
sg64
(lp3048
g57
(g78
g59
NtRp3049
(dp3050
g62
(dp3051
g82
g83
ssg71
g3045
sg64
(lp3052
g2858
asbag57
(g78
g59
NtRp3053
(dp3054
g62
(dp3055
g89
g90
ssg71
g3045
sg64
(lp3056
S':'
asbag57
(g78
g59
NtRp3057
(dp3058
g62
(dp3059
sg71
g3045
sg64
(lp3060
g57
(g58
g59
NtRp3061
(dp3062
g62
(dp3063
g70
I4
ssg71
g3057
sg64
(lp3064
S'1'
asbasbasbasbasbasbasbag57
(g73
g59
NtRp3065
(dp3066
g62
(dp3067
sg71
g67
sg64
(lp3068
g57
(g78
g59
NtRp3069
(dp3070
g62
(dp3071
g82
g83
ssg71
g3065
sg64
(lp3072
S'wsgi'
p3073
asbag57
(g78
g59
NtRp3074
(dp3075
g62
(dp3076
g89
g90
ssg71
g3065
sg64
(lp3077
S':'
asbag57
(g78
g59
NtRp3078
(dp3079
g62
(dp3080
sg71
g3065
sg64
(lp3081
g57
(g58
g59
NtRp3082
(dp3083
g62
(dp3084
g70
I5
ssg71
g3078
sg64
(lp3085
g57
(g66
g59
NtRp3086
(dp3087
g62
(dp3088
g70
I4
ssg71
Nsg64
(lp3089
g57
(g73
g59
NtRp3090
(dp3091
g62
(dp3092
sg71
g3086
sg64
(lp3093
g57
(g78
g59
NtRp3094
(dp3095
g62
(dp3096
g82
g83
ssg71
g3090
sg64
(lp3097
S'environ'
p3098
asbag57
(g78
g59
NtRp3099
(dp3100
g62
(dp3101
g89
g90
ssg71
g3090
sg64
(lp3102
S':'
asbag57
(g78
g59
NtRp3103
(dp3104
g62
(dp3105
sg71
g3090
sg64
(lp3106
g57
(g58
g59
NtRp3107
(dp3108
g62
(dp3109
g70
I4
ssg71
g3103
sg64
(lp3110
g57
(g66
g59
NtRp3111
(dp3112
g62
(dp3113
g70
I3
ssg71
Nsg64
(lp3114
g57
(g73
g59
NtRp3115
(dp3116
g62
(dp3117
sg71
g3111
sg64
(lp3118
g57
(g78
g59
NtRp3119
(dp3120
g62
(dp3121
g82
g83
ssg71
g3115
sg64
(lp3122
S'CONTENT_LENGTH'
p3123
asbag57
(g78
g59
NtRp3124
(dp3125
g62
(dp3126
g89
g90
ssg71
g3115
sg64
(lp3127
S':'
asbag57
(g78
g59
NtRp3128
(dp3129
g62
(dp3130
sg71
g3115
sg64
(lp3131
g57
(g58
g59
NtRp3132
(dp3133
g62
(dp3134
g70
I3
ssg71
g3128
sg64
(lp3135
g1174
asbasbasbag57
(g73
g59
NtRp3136
(dp3137
g62
(dp3138
sg71
g3111
sg64
(lp3139
g57
(g78
g59
NtRp3140
(dp3141
g62
(dp3142
g82
g83
ssg71
g3136
sg64
(lp3143
S'CONTENT_TYPE'
p3144
asbag57
(g78
g59
NtRp3145
(dp3146
g62
(dp3147
g89
g90
ssg71
g3136
sg64
(lp3148
S':'
asbag57
(g78
g59
NtRp3149
(dp3150
g62
(dp3151
sg71
g3136
sg64
(lp3152
g57
(g58
g59
NtRp3153
(dp3154
g62
(dp3155
g70
I3
ssg71
g3149
sg64
(lp3156
g1196
asbasbasbag57
(g73
g59
NtRp3157
(dp3158
g62
(dp3159
sg71
g3111
sg64
(lp3160
g57
(g78
g59
NtRp3161
(dp3162
g62
(dp3163
g82
g83
ssg71
g3157
sg64
(lp3164
S'HTTP_ACCEPT'
p3165
asbag57
(g78
g59
NtRp3166
(dp3167
g62
(dp3168
g89
g90
ssg71
g3157
sg64
(lp3169
S':'
asbag57
(g78
g59
NtRp3170
(dp3171
g62
(dp3172
sg71
g3157
sg64
(lp3173
g57
(g58
g59
NtRp3174
(dp3175
g62
(dp3176
g70
I3
ssg71
g3170
sg64
(lp3177
g1283
asbasbasbag57
(g73
g59
NtRp3178
(dp3179
g62
(dp3180
sg71
g3111
sg64
(lp3181
g57
(g78
g59
NtRp3182
(dp3183
g62
(dp3184
g82
g83
ssg71
g3178
sg64
(lp3185
S'HTTP_ACCEPT_CHARSET'
p3186
asbag57
(g78
g59
NtRp3187
(dp3188
g62
(dp3189
g89
g90
ssg71
g3178
sg64
(lp3190
S':'
asbag57
(g78
g59
NtRp3191
(dp3192
g62
(dp3193
sg71
g3178
sg64
(lp3194
g57
(g58
g59
NtRp3195
(dp3196
g62
(dp3197
g70
I3
ssg71
g3191
sg64
(lp3198
g1305
asbasbasbag57
(g73
g59
NtRp3199
(dp3200
g62
(dp3201
sg71
g3111
sg64
(lp3202
g57
(g78
g59
NtRp3203
(dp3204
g62
(dp3205
g82
g83
ssg71
g3199
sg64
(lp3206
S'HTTP_ACCEPT_ENCODING'
p3207
asbag57
(g78
g59
NtRp3208
(dp3209
g62
(dp3210
g89
g90
ssg71
g3199
sg64
(lp3211
S':'
asbag57
(g78
g59
NtRp3212
(dp3213
g62
(dp3214
sg71
g3199
sg64
(lp3215
g57
(g58
g59
NtRp3216
(dp3217
g62
(dp3218
g70
I3
ssg71
g3212
sg64
(lp3219
g1327
asbasbasbag57
(g73
g59
NtRp3220
(dp3221
g62
(dp3222
sg71
g3111
sg64
(lp3223
g57
(g78
g59
NtRp3224
(dp3225
g62
(dp3226
g82
g83
ssg71
g3220
sg64
(lp3227
S'HTTP_ACCEPT_LANGUAGE'
p3228
asbag57
(g78
g59
NtRp3229
(dp3230
g62
(dp3231
g89
g90
ssg71
g3220
sg64
(lp3232
S':'
asbag57
(g78
g59
NtRp3233
(dp3234
g62
(dp3235
sg71
g3220
sg64
(lp3236
g57
(g58
g59
NtRp3237
(dp3238
g62
(dp3239
g70
I3
ssg71
g3233
sg64
(lp3240
g1349
asbasbasbag57
(g73
g59
NtRp3241
(dp3242
g62
(dp3243
sg71
g3111
sg64
(lp3244
g57
(g78
g59
NtRp3245
(dp3246
g62
(dp3247
g82
g83
ssg71
g3241
sg64
(lp3248
S'HTTP_CACHE_CONTROL'
p3249
asbag57
(g78
g59
NtRp3250
(dp3251
g62
(dp3252
g89
g90
ssg71
g3241
sg64
(lp3253
S':'
asbag57
(g78
g59
NtRp3254
(dp3255
g62
(dp3256
sg71
g3241
sg64
(lp3257
g57
(g58
g59
NtRp3258
(dp3259
g62
(dp3260
g70
I3
ssg71
g3254
sg64
(lp3261
g1371
asbasbasbag57
(g73
g59
NtRp3262
(dp3263
g62
(dp3264
sg71
g3111
sg64
(lp3265
g57
(g78
g59
NtRp3266
(dp3267
g62
(dp3268
g82
g83
ssg71
g3262
sg64
(lp3269
S'HTTP_CONNECTION'
p3270
asbag57
(g78
g59
NtRp3271
(dp3272
g62
(dp3273
g89
g90
ssg71
g3262
sg64
(lp3274
S':'
asbag57
(g78
g59
NtRp3275
(dp3276
g62
(dp3277
sg71
g3262
sg64
(lp3278
g57
(g58
g59
NtRp3279
(dp3280
g62
(dp3281
g70
I3
ssg71
g3275
sg64
(lp3282
g1393
asbasbasbag57
(g73
g59
NtRp3283
(dp3284
g62
(dp3285
sg71
g3111
sg64
(lp3286
g57
(g78
g59
NtRp3287
(dp3288
g62
(dp3289
g82
g83
ssg71
g3283
sg64
(lp3290
S'HTTP_CONTENT_LENGTH'
p3291
asbag57
(g78
g59
NtRp3292
(dp3293
g62
(dp3294
g89
g90
ssg71
g3283
sg64
(lp3295
S':'
asbag57
(g78
g59
NtRp3296
(dp3297
g62
(dp3298
sg71
g3283
sg64
(lp3299
g57
(g58
g59
NtRp3300
(dp3301
g62
(dp3302
g70
I3
ssg71
g3296
sg64
(lp3303
g1174
asbasbasbag57
(g73
g59
NtRp3304
(dp3305
g62
(dp3306
sg71
g3111
sg64
(lp3307
g57
(g78
g59
NtRp3308
(dp3309
g62
(dp3310
g82
g83
ssg71
g3304
sg64
(lp3311
S'HTTP_CONTENT_TYPE'
p3312
asbag57
(g78
g59
NtRp3313
(dp3314
g62
(dp3315
g89
g90
ssg71
g3304
sg64
(lp3316
S':'
asbag57
(g78
g59
NtRp3317
(dp3318
g62
(dp3319
sg71
g3304
sg64
(lp3320
g57
(g58
g59
NtRp3321
(dp3322
g62
(dp3323
g70
I3
ssg71
g3317
sg64
(lp3324
g1196
asbasbasbag57
(g73
g59
NtRp3325
(dp3326
g62
(dp3327
sg71
g3111
sg64
(lp3328
g57
(g78
g59
NtRp3329
(dp3330
g62
(dp3331
g82
g83
ssg71
g3325
sg64
(lp3332
S'HTTP_COOKIE'
p3333
asbag57
(g78
g59
NtRp3334
(dp3335
g62
(dp3336
g89
g90
ssg71
g3325
sg64
(lp3337
S':'
asbag57
(g78
g59
NtRp3338
(dp3339
g62
(dp3340
sg71
g3325
sg64
(lp3341
g57
(g58
g59
NtRp3342
(dp3343
g62
(dp3344
g70
I3
ssg71
g3338
sg64
(lp3345
g1457
asbasbasbag57
(g73
g59
NtRp3346
(dp3347
g62
(dp3348
sg71
g3111
sg64
(lp3349
g57
(g78
g59
NtRp3350
(dp3351
g62
(dp3352
g82
g83
ssg71
g3346
sg64
(lp3353
S'HTTP_HOST'
p3354
asbag57
(g78
g59
NtRp3355
(dp3356
g62
(dp3357
g89
g90
ssg71
g3346
sg64
(lp3358
S':'
asbag57
(g78
g59
NtRp3359
(dp3360
g62
(dp3361
sg71
g3346
sg64
(lp3362
g57
(g58
g59
NtRp3363
(dp3364
g62
(dp3365
g70
I3
ssg71
g3359
sg64
(lp3366
g1479
asbasbasbag57
(g73
g59
NtRp3367
(dp3368
g62
(dp3369
sg71
g3111
sg64
(lp3370
g57
(g78
g59
NtRp3371
(dp3372
g62
(dp3373
g82
g83
ssg71
g3367
sg64
(lp3374
S'HTTP_ORIGIN'
p3375
asbag57
(g78
g59
NtRp3376
(dp3377
g62
(dp3378
g89
g90
ssg71
g3367
sg64
(lp3379
S':'
asbag57
(g78
g59
NtRp3380
(dp3381
g62
(dp3382
sg71
g3367
sg64
(lp3383
g57
(g58
g59
NtRp3384
(dp3385
g62
(dp3386
g70
I3
ssg71
g3380
sg64
(lp3387
g1501
asbasbasbag57
(g73
g59
NtRp3388
(dp3389
g62
(dp3390
sg71
g3111
sg64
(lp3391
g57
(g78
g59
NtRp3392
(dp3393
g62
(dp3394
g82
g83
ssg71
g3388
sg64
(lp3395
S'HTTP_REFERER'
p3396
asbag57
(g78
g59
NtRp3397
(dp3398
g62
(dp3399
g89
g90
ssg71
g3388
sg64
(lp3400
S':'
asbag57
(g78
g59
NtRp3401
(dp3402
g62
(dp3403
sg71
g3388
sg64
(lp3404
g57
(g58
g59
NtRp3405
(dp3406
g62
(dp3407
g70
I3
ssg71
g3401
sg64
(lp3408
g1523
asbasbasbag57
(g73
g59
NtRp3409
(dp3410
g62
(dp3411
sg71
g3111
sg64
(lp3412
g57
(g78
g59
NtRp3413
(dp3414
g62
(dp3415
g82
g83
ssg71
g3409
sg64
(lp3416
S'HTTP_USER_AGENT'
p3417
asbag57
(g78
g59
NtRp3418
(dp3419
g62
(dp3420
g89
g90
ssg71
g3409
sg64
(lp3421
S':'
asbag57
(g78
g59
NtRp3422
(dp3423
g62
(dp3424
sg71
g3409
sg64
(lp3425
g57
(g58
g59
NtRp3426
(dp3427
g62
(dp3428
g70
I3
ssg71
g3422
sg64
(lp3429
g1545
asbasbasbag57
(g73
g59
NtRp3430
(dp3431
g62
(dp3432
sg71
g3111
sg64
(lp3433
g57
(g78
g59
NtRp3434
(dp3435
g62
(dp3436
g82
g83
ssg71
g3430
sg64
(lp3437
S'PATH_INFO'
p3438
asbag57
(g78
g59
NtRp3439
(dp3440
g62
(dp3441
g89
g90
ssg71
g3430
sg64
(lp3442
S':'
asbag57
(g78
g59
NtRp3443
(dp3444
g62
(dp3445
sg71
g3430
sg64
(lp3446
g57
(g58
g59
NtRp3447
(dp3448
g62
(dp3449
g70
I3
ssg71
g3443
sg64
(lp3450
g1699
asbasbasbag57
(g73
g59
NtRp3451
(dp3452
g62
(dp3453
sg71
g3111
sg64
(lp3454
g57
(g78
g59
NtRp3455
(dp3456
g62
(dp3457
g82
g83
ssg71
g3451
sg64
(lp3458
S'QUERY_STRING'
p3459
asbag57
(g78
g59
NtRp3460
(dp3461
g62
(dp3462
g89
g90
ssg71
g3451
sg64
(lp3463
S':'
asbag57
(g78
g59
NtRp3464
(dp3465
g62
(dp3466
sg71
g3451
sg64
(lp3467
g57
(g58
g59
NtRp3468
(dp3469
g62
(dp3470
g70
I3
ssg71
g3464
sg64
(lp3471
S''
asbasbasbag57
(g73
g59
NtRp3472
(dp3473
g62
(dp3474
sg71
g3111
sg64
(lp3475
g57
(g78
g59
NtRp3476
(dp3477
g62
(dp3478
g82
g83
ssg71
g3472
sg64
(lp3479
S'REMOTE_ADDR'
p3480
asbag57
(g78
g59
NtRp3481
(dp3482
g62
(dp3483
g89
g90
ssg71
g3472
sg64
(lp3484
S':'
asbag57
(g78
g59
NtRp3485
(dp3486
g62
(dp3487
sg71
g3472
sg64
(lp3488
g57
(g58
g59
NtRp3489
(dp3490
g62
(dp3491
g70
I3
ssg71
g3485
sg64
(lp3492
g238
asbasbasbag57
(g73
g59
NtRp3493
(dp3494
g62
(dp3495
sg71
g3111
sg64
(lp3496
g57
(g78
g59
NtRp3497
(dp3498
g62
(dp3499
g82
g83
ssg71
g3493
sg64
(lp3500
S'REMOTE_PORT'
p3501
asbag57
(g78
g59
NtRp3502
(dp3503
g62
(dp3504
g89
g90
ssg71
g3493
sg64
(lp3505
S':'
asbag57
(g78
g59
NtRp3506
(dp3507
g62
(dp3508
sg71
g3493
sg64
(lp3509
g57
(g58
g59
NtRp3510
(dp3511
g62
(dp3512
g70
I3
ssg71
g3506
sg64
(lp3513
g1763
asbasbasbag57
(g73
g59
NtRp3514
(dp3515
g62
(dp3516
sg71
g3111
sg64
(lp3517
g57
(g78
g59
NtRp3518
(dp3519
g62
(dp3520
g82
g83
ssg71
g3514
sg64
(lp3521
S'REQUEST_METHOD'
p3522
asbag57
(g78
g59
NtRp3523
(dp3524
g62
(dp3525
g89
g90
ssg71
g3514
sg64
(lp3526
S':'
asbag57
(g78
g59
NtRp3527
(dp3528
g62
(dp3529
sg71
g3514
sg64
(lp3530
g57
(g58
g59
NtRp3531
(dp3532
g62
(dp3533
g70
I3
ssg71
g3527
sg64
(lp3534
g1785
asbasbasbag57
(g73
g59
NtRp3535
(dp3536
g62
(dp3537
sg71
g3111
sg64
(lp3538
g57
(g78
g59
NtRp3539
(dp3540
g62
(dp3541
g82
g83
ssg71
g3535
sg64
(lp3542
S'REQUEST_URI'
p3543
asbag57
(g78
g59
NtRp3544
(dp3545
g62
(dp3546
g89
g90
ssg71
g3535
sg64
(lp3547
S':'
asbag57
(g78
g59
NtRp3548
(dp3549
g62
(dp3550
sg71
g3535
sg64
(lp3551
g57
(g58
g59
NtRp3552
(dp3553
g62
(dp3554
g70
I3
ssg71
g3548
sg64
(lp3555
g1699
asbasbasbag57
(g73
g59
NtRp3556
(dp3557
g62
(dp3558
sg71
g3111
sg64
(lp3559
g57
(g78
g59
NtRp3560
(dp3561
g62
(dp3562
g82
g83
ssg71
g3556
sg64
(lp3563
S'SCRIPT_NAME'
p3564
asbag57
(g78
g59
NtRp3565
(dp3566
g62
(dp3567
g89
g90
ssg71
g3556
sg64
(lp3568
S':'
asbag57
(g78
g59
NtRp3569
(dp3570
g62
(dp3571
sg71
g3556
sg64
(lp3572
g57
(g58
g59
NtRp3573
(dp3574
g62
(dp3575
g70
I3
ssg71
g3569
sg64
(lp3576
S''
asbasbasbag57
(g73
g59
NtRp3577
(dp3578
g62
(dp3579
sg71
g3111
sg64
(lp3580
g57
(g78
g59
NtRp3581
(dp3582
g62
(dp3583
g82
g83
ssg71
g3577
sg64
(lp3584
S'SERVER_NAME'
p3585
asbag57
(g78
g59
NtRp3586
(dp3587
g62
(dp3588
g89
g90
ssg71
g3577
sg64
(lp3589
S':'
asbag57
(g78
g59
NtRp3590
(dp3591
g62
(dp3592
sg71
g3577
sg64
(lp3593
g57
(g58
g59
NtRp3594
(dp3595
g62
(dp3596
g70
I3
ssg71
g3590
sg64
(lp3597
g1849
asbasbasbag57
(g73
g59
NtRp3598
(dp3599
g62
(dp3600
sg71
g3111
sg64
(lp3601
g57
(g78
g59
NtRp3602
(dp3603
g62
(dp3604
g82
g83
ssg71
g3598
sg64
(lp3605
S'SERVER_PORT'
p3606
asbag57
(g78
g59
NtRp3607
(dp3608
g62
(dp3609
g89
g90
ssg71
g3598
sg64
(lp3610
S':'
asbag57
(g78
g59
NtRp3611
(dp3612
g62
(dp3613
sg71
g3598
sg64
(lp3614
g57
(g58
g59
NtRp3615
(dp3616
g62
(dp3617
g70
I3
ssg71
g3611
sg64
(lp3618
g1871
asbasbasbag57
(g73
g59
NtRp3619
(dp3620
g62
(dp3621
sg71
g3111
sg64
(lp3622
g57
(g78
g59
NtRp3623
(dp3624
g62
(dp3625
g82
g83
ssg71
g3619
sg64
(lp3626
S'SERVER_PROTOCOL'
p3627
asbag57
(g78
g59
NtRp3628
(dp3629
g62
(dp3630
g89
g90
ssg71
g3619
sg64
(lp3631
S':'
asbag57
(g78
g59
NtRp3632
(dp3633
g62
(dp3634
sg71
g3619
sg64
(lp3635
g57
(g58
g59
NtRp3636
(dp3637
g62
(dp3638
g70
I3
ssg71
g3632
sg64
(lp3639
g1893
asbasbasbag57
(g73
g59
NtRp3640
(dp3641
g62
(dp3642
sg71
g3111
sg64
(lp3643
g57
(g78
g59
NtRp3644
(dp3645
g62
(dp3646
g82
g83
ssg71
g3640
sg64
(lp3647
S'SERVER_SOFTWARE'
p3648
asbag57
(g78
g59
NtRp3649
(dp3650
g62
(dp3651
g89
g90
ssg71
g3640
sg64
(lp3652
S':'
asbag57
(g78
g59
NtRp3653
(dp3654
g62
(dp3655
sg71
g3640
sg64
(lp3656
g57
(g58
g59
NtRp3657
(dp3658
g62
(dp3659
g70
I3
ssg71
g3653
sg64
(lp3660
g1915
asbasbasbag57
(g73
g59
NtRp3661
(dp3662
g62
(dp3663
sg71
g3111
sg64
(lp3664
g57
(g78
g59
NtRp3665
(dp3666
g62
(dp3667
g82
g83
ssg71
g3661
sg64
(lp3668
S'wsgi.errors'
p3669
asbag57
(g78
g59
NtRp3670
(dp3671
g62
(dp3672
g89
g90
ssg71
g3661
sg64
(lp3673
S':'
asbag57
(g78
g59
NtRp3674
(dp3675
g62
(dp3676
sg71
g3661
sg64
(lp3677
g57
(g58
g59
NtRp3678
(dp3679
g62
(dp3680
g70
I3
ssg71
g3674
sg64
(lp3681
S"<open file '<stderr>', mode 'w' at 0x7f5f77b12270>"
p3682
asbasbasbag57
(g73
g59
NtRp3683
(dp3684
g62
(dp3685
sg71
g3111
sg64
(lp3686
g57
(g78
g59
NtRp3687
(dp3688
g62
(dp3689
g82
g83
ssg71
g3683
sg64
(lp3690
S'wsgi.file_wrapper'
p3691
asbag57
(g78
g59
NtRp3692
(dp3693
g62
(dp3694
g89
g90
ssg71
g3683
sg64
(lp3695
S':'
asbag57
(g78
g59
NtRp3696
(dp3697
g62
(dp3698
sg71
g3683
sg64
(lp3699
g57
(g58
g59
NtRp3700
(dp3701
g62
(dp3702
g70
I3
ssg71
g3696
sg64
(lp3703
S'<class wsgiref.util.FileWrapper at 0x2151db8>'
p3704
asbasbasbag57
(g73
g59
NtRp3705
(dp3706
g62
(dp3707
sg71
g3111
sg64
(lp3708
g57
(g78
g59
NtRp3709
(dp3710
g62
(dp3711
g82
g83
ssg71
g3705
sg64
(lp3712
S'wsgi.input'
p3713
asbag57
(g78
g59
NtRp3714
(dp3715
g62
(dp3716
g89
g90
ssg71
g3705
sg64
(lp3717
S':'
asbag57
(g78
g59
NtRp3718
(dp3719
g62
(dp3720
sg71
g3705
sg64
(lp3721
g57
(g58
g59
NtRp3722
(dp3723
g62
(dp3724
g70
I3
ssg71
g3718
sg64
(lp3725
S"<open file '<fdopen>', mode 'w+b' at 0x7f5f483c56f0>"
p3726
asbasbasbag57
(g73
g59
NtRp3727
(dp3728
g62
(dp3729
sg71
g3111
sg64
(lp3730
g57
(g78
g59
NtRp3731
(dp3732
g62
(dp3733
g82
g83
ssg71
g3727
sg64
(lp3734
S'wsgi.multiprocess'
p3735
asbag57
(g78
g59
NtRp3736
(dp3737
g62
(dp3738
g89
g90
ssg71
g3727
sg64
(lp3739
S':'
asbag57
(g78
g59
NtRp3740
(dp3741
g62
(dp3742
sg71
g3727
sg64
(lp3743
g57
(g58
g59
NtRp3744
(dp3745
g62
(dp3746
g70
I3
ssg71
g3740
sg64
(lp3747
g100
asbasbasbag57
(g73
g59
NtRp3748
(dp3749
g62
(dp3750
sg71
g3111
sg64
(lp3751
g57
(g78
g59
NtRp3752
(dp3753
g62
(dp3754
g82
g83
ssg71
g3748
sg64
(lp3755
S'wsgi.multithread'
p3756
asbag57
(g78
g59
NtRp3757
(dp3758
g62
(dp3759
g89
g90
ssg71
g3748
sg64
(lp3760
S':'
asbag57
(g78
g59
NtRp3761
(dp3762
g62
(dp3763
sg71
g3748
sg64
(lp3764
g57
(g58
g59
NtRp3765
(dp3766
g62
(dp3767
g70
I3
ssg71
g3761
sg64
(lp3768
g2132
asbasbasbag57
(g73
g59
NtRp3769
(dp3770
g62
(dp3771
sg71
g3111
sg64
(lp3772
g57
(g78
g59
NtRp3773
(dp3774
g62
(dp3775
g82
g83
ssg71
g3769
sg64
(lp3776
S'wsgi.run_once'
p3777
asbag57
(g78
g59
NtRp3778
(dp3779
g62
(dp3780
g89
g90
ssg71
g3769
sg64
(lp3781
S':'
asbag57
(g78
g59
NtRp3782
(dp3783
g62
(dp3784
sg71
g3769
sg64
(lp3785
g57
(g58
g59
NtRp3786
(dp3787
g62
(dp3788
g70
I3
ssg71
g3782
sg64
(lp3789
g100
asbasbasbag57
(g73
g59
NtRp3790
(dp3791
g62
(dp3792
sg71
g3111
sg64
(lp3793
g57
(g78
g59
NtRp3794
(dp3795
g62
(dp3796
g82
g83
ssg71
g3790
sg64
(lp3797
S'wsgi.url_scheme'
p3798
asbag57
(g78
g59
NtRp3799
(dp3800
g62
(dp3801
g89
g90
ssg71
g3790
sg64
(lp3802
S':'
asbag57
(g78
g59
NtRp3803
(dp3804
g62
(dp3805
sg71
g3790
sg64
(lp3806
g57
(g58
g59
NtRp3807
(dp3808
g62
(dp3809
g70
I3
ssg71
g3803
sg64
(lp3810
g2175
asbasbasbag57
(g73
g59
NtRp3811
(dp3812
g62
(dp3813
sg71
g3111
sg64
(lp3814
g57
(g78
g59
NtRp3815
(dp3816
g62
(dp3817
g82
g83
ssg71
g3811
sg64
(lp3818
S'wsgi.version'
p3819
asbag57
(g78
g59
NtRp3820
(dp3821
g62
(dp3822
g89
g90
ssg71
g3811
sg64
(lp3823
S':'
asbag57
(g78
g59
NtRp3824
(dp3825
g62
(dp3826
sg71
g3811
sg64
(lp3827
g57
(g58
g59
NtRp3828
(dp3829
g62
(dp3830
g70
I3
ssg71
g3824
sg64
(lp3831
S'1'
asbasbasbasbasbasbasbasbasbasbasbasbasbsS'frames'
p3832
(lp3833
(dp3834
S'file'
p3835
S'/home/adrian/web2py/gluon/restricted.py'
p3836
sS'dump'
p3837
(dp3838
S'environment'
p3839
S"{'A': <class 'gluon.html.A'>, 'Auth': <class 'gluon.tools.Auth'>, 'B': <class 'gluon.html.B'>, 'BEAUTIFY': <class 'gluon.html.BEAUTIFY'>, 'BODY': <class 'gluon.html.BODY'>, 'BR': <class 'gluon.html.BR'>, 'BUTTON': <class 'gluon.html.BUTTON'>, 'CAT': <class 'gluon.html.CAT'>, 'CENTER': <class 'gluon.html.CENTER'>, 'CLEANUP': <class 'gluon.validators.CLEANUP'>, ...}"
p3840
sS'ccode'
p3841
S'<code object <module> at 0x7f5f685b3eb0, file "/...ons/CygnusCloud/controllers/appadmin.py", line 7>'
p3842
ssS'lnum'
p3843
I212
sS'lines'
p3844
(dp3845
I207
S'    try:'
p3846
sI208
S'        if isinstance(code, types.CodeType):'
p3847
sI209
S'            ccode = code'
p3848
sI210
S'        else:'
p3849
sI211
S'            ccode = compile2(code, layer)'
p3850
sI212
S'        exec ccode in environment'
p3851
sI213
S'    except HTTP:'
p3852
sI214
S'        raise'
p3853
sI215
S'    except RestrictedError:'
p3854
sI216
S'        # do not encapsulate (obfuscate) the original RestrictedError'
p3855
ssS'call'
p3856
S"(code='# -*- coding: utf-8 -*-\\n\\n# #####################... False)\\n\\nresponse._vars=response._caller(insert)\\n', environment={'A': <class 'gluon.html.A'>, 'Auth': <class 'gluon.tools.Auth'>, 'B': <class 'gluon.html.B'>, 'BEAUTIFY': <class 'gluon.html.BEAUTIFY'>, 'BODY': <class 'gluon.html.BODY'>, 'BR': <class 'gluon.html.BR'>, 'BUTTON': <class 'gluon.html.BUTTON'>, 'CAT': <class 'gluon.html.CAT'>, 'CENTER': <class 'gluon.html.CENTER'>, 'CLEANUP': <class 'gluon.validators.CLEANUP'>, ...}, layer='/home/adrian/web2py/applications/CygnusCloud/controllers/appadmin.py')"
p3857
sS'func'
p3858
S'restricted'
p3859
sa(dp3860
g3835
S'/home/adrian/web2py/applications/CygnusCloud/controllers/appadmin.py'
p3861
sg3837
(dp3862
sg3843
I464
sg3844
(dp3863
I453
S"            *[TR(TD(k[0]), TD('%02d:%02d:%02d' % k[1])) for k in keys],"
p3864
sI454
S"            **dict(_class='cache-keys',"
p3865
sI455
S'                   _style="border-collapse: separate; border-spacing: .5em;"))'
p3866
sI456
S''
sI457
S"    ram['keys'] = key_table(ram['keys'])"
p3867
sI458
S"    disk['keys'] = key_table(disk['keys'])"
p3868
sI459
S"    total['keys'] = key_table(total['keys'])"
p3869
sI460
S''
sI461
S'    return dict(form=form, total=total,'
p3870
sI462
S'                ram=ram, disk=disk, object_stats=hp != False)'
p3871
ssg3856
S'()'
p3872
sg3858
S'<module>'
p3873
sa(dp3874
g3835
S'/home/adrian/web2py/gluon/globals.py'
p3875
sg3837
(dp3876
S'self'
p3877
S'undefined'
p3878
sS'f'
S'<function insert>'
p3879
ssg3843
I193
sg3844
(dp3880
I192
S'        self._vars = None'
p3881
sI193
S'        self._caller = lambda f: f()'
p3882
sI194
S'        self._view_environment = None'
p3883
sI195
S'        self._custom_commit = None'
p3884
sI196
S'        self._custom_rollback = None'
p3885
sI197
S''
sI188
S'        self.menu = []             # used by the default view layout'
p3886
sI189
S'        self.files = []            # used by web2py_ajax.html'
p3887
sI190
S'        self.generic_patterns = []  # patterns to allow generic views'
p3888
sI191
S"        self.delimiters = ('{{', '}}')"
p3889
ssg3856
S'(f=<function insert>)'
p3890
sg3858
S'<lambda>'
p3891
sa(dp3892
g3835
S'/home/adrian/web2py/applications/CygnusCloud/controllers/appadmin.py'
p3893
sg3837
(dp3894
S'global request'
p3895
S"<Storage {'function': 'insert', 'body': <open fi...ormname': 'UserGroup/create', 'cod': '106148'}>}>"
p3896
sS'request.vars'
p3897
S"<Storage {'userId': '1', '_formkey': 'ef9771f9-4..._formname': 'UserGroup/create', 'cod': '106148'}>"
p3898
sS'global session'
p3899
S"<Storage {'last_query': 'userDB.UserGroup.cod>0'...login]': '814e1578-4f00-4232-8b31-5016799dd0fa'}>"
p3900
sS'form'
p3901
S'<gluon.sqlhtml.SQLFORM object>'
p3902
sS'form.accepts'
p3903
S'<bound method SQLFORM.accepts of <gluon.sqlhtml.SQLFORM object>>'
p3904
ssg3843
I127
sg3844
(dp3905
I128
S"        response.flash = T('new record inserted')"
p3906
sI129
S'    return dict(form=form, table=db[table])'
p3907
sI130
S''
sI131
S''
sI122
S''
sI123
S''
sI124
S'def insert():'
p3908
sI125
S'    (db, table) = get_table(request)'
p3909
sI126
S'    form = SQLFORM(db[table], ignore_rw=ignore_rw)'
p3910
sI127
S'    if form.accepts(request.vars, session):'
p3911
ssg3856
S'()'
p3912
sg3858
S'insert'
p3913
sa(dp3914
g3835
S'/home/adrian/web2py/gluon/sqlhtml.py'
p3915
sg3837
(dp3916
S'self.table.insert'
p3917
S'<bound method Table.insert of <Table UserGroup (userId,cod,curseGroup)>>'
p3918
sS'pk'
p3919
g3878
sS'self'
p3920
S'<gluon.sqlhtml.SQLFORM object>'
p3921
sS'self.table'
p3922
S'<Table UserGroup (userId,cod,curseGroup)>'
p3923
sS'fields'
p3924
S"{'cod': 106148, 'curseGroup': 'a', 'userId': 1}"
p3925
ssg3843
I1474
sg3844
(dp3926
I1472
S'                        self.table._db(qry).update(**fields)'
p3927
sI1473
S'                else:'
p3928
sI1474
S'                    pk = self.table.insert(**fields)'
p3929
sI1475
S'                    if pk:'
p3930
sI1476
S'                        self.vars.update(pk)'
p3931
sI1477
S'                    else:'
p3932
sI1478
S'                        ret = False'
p3933
sI1469
S'                    if fields:'
p3934
sI1470
S'                        qry = reduce(lambda x, y: x & y,'
p3935
sI1471
S'                                     [self.table[k] == self.record[k] for k in self.table._primarykey])'
p3936
ssg3856
S"(self=<gluon.sqlhtml.SQLFORM object>, request_vars=<Storage {'userId': '1', '_formkey': 'ef9771f9-4..._formname': 'UserGroup/create', 'cod': '106148'}>, session=<Storage {'last_query': 'userDB.UserGroup.cod>0'...login]': '814e1578-4f00-4232-8b31-5016799dd0fa'}>, formname='UserGroup/create', keepvalues=False, onvalidation=None, dbio=True, hideerror=False, detect_record_change=False, **kwargs={})"
p3937
sg3858
S'accepts'
p3938
sa(dp3939
g3835
S'/home/adrian/web2py/gluon/dal.py'
p3940
sg3837
(dp3941
S'self._listify'
p3942
S'<bound method Table._listify of <Table UserGroup (userId,cod,curseGroup)>>'
p3943
sS'fields'
p3944
S"{'cod': 106148, 'curseGroup': 'a', 'userId': 1}"
p3945
sS'self'
p3946
S'<Table UserGroup (userId,cod,curseGroup)>'
p3947
sS'ret'
p3948
g3878
sS'self._db._adapter'
p3949
S'<gluon.dal.MySQLAdapter object>'
p3950
sS'self._db._adapter.insert'
p3951
S'<bound method MySQLAdapter.insert of <gluon.dal.MySQLAdapter object>>'
p3952
sS'self._db'
p3953
S'<DAL uri="mysql://******:cygnuscloud2012@localhost/CygnusCloudUserDB">'
p3954
ssg3843
I7918
sg3844
(dp3955
I7913
S'        return self._db._adapter._insert(self,self._listify(fields))'
p3956
sI7914
S''
sI7915
S'    def insert(self, **fields):'
p3957
sI7916
S'        self._attempt_upload(fields)'
p3958
sI7917
S'        if any(f(fields) for f in self._before_insert): return 0'
p3959
sI7918
S'        ret =  self._db._adapter.insert(self,self._listify(fields))'
p3960
sI7919
S'        if ret and self._after_insert:'
p3961
sI7920
S'            fields = Row(fields)'
p3962
sI7921
S'            [f(fields,ret) for f in self._after_insert]'
p3963
sI7922
S'        return ret'
p3964
ssg3856
S"(self=<Table UserGroup (userId,cod,curseGroup)>, **fields={'cod': 106148, 'curseGroup': 'a', 'userId': 1})"
p3965
sg3858
g3913
sa(dp3966
g3835
S'/home/adrian/web2py/gluon/dal.py'
p3967
sg3837
(dp3968
S'self._insert'
p3969
S'<bound method MySQLAdapter._insert of <gluon.dal.MySQLAdapter object>>'
p3970
sS'query'
p3971
g3878
sS'self'
p3972
S'<gluon.dal.MySQLAdapter object>'
p3973
sS'fields'
p3974
S"[(<gluon.dal.Field object>, 1), (<gluon.dal.Field object>, 106148), (<gluon.dal.Field object>, 'a')]"
p3975
sS'table'
p3976
S'<Table UserGroup (userId,cod,curseGroup)>'
p3977
ssg3843
I1169
sg3844
(dp3978
I1164
S"        keys = ','.join(f.name for f,v in fields)"
p3979
sI1165
S"        values = ','.join(self.expand(v,f.type) for f,v in fields)"
p3980
sI1166
S"        return 'INSERT INTO %s(%s) VALUES (%s);' % (table, keys, values)"
p3981
sI1167
S''
sI1168
S'    def insert(self, table, fields):'
p3982
sI1169
S'        query = self._insert(table,fields)'
p3983
sI1170
S'        try:'
p3984
sI1171
S'            self.execute(query)'
p3985
sI1172
S'        except Exception:'
p3986
sI1173
S'            e = sys.exc_info()[1]'
p3987
ssg3856
S"(self=<gluon.dal.MySQLAdapter object>, table=<Table UserGroup (userId,cod,curseGroup)>, fields=[(<gluon.dal.Field object>, 1), (<gluon.dal.Field object>, 106148), (<gluon.dal.Field object>, 'a')])"
p3988
sg3858
g3913
sa(dp3989
g3835
S'/home/adrian/web2py/gluon/dal.py'
p3990
sg3837
(dp3991
S'f'
g3878
sS'fields'
p3992
S"[(<gluon.dal.Field object>, 1), (<gluon.dal.Field object>, 106148), (<gluon.dal.Field object>, 'a')]"
p3993
sS'self'
p3994
S'<gluon.dal.MySQLAdapter object>'
p3995
sS'values'
p3996
g3878
sS'v'
g3878
sS'self.expand'
p3997
S'<bound method MySQLAdapter.expand of <gluon.dal.MySQLAdapter object>>'
p3998
ssg3843
I1165
sg3844
(dp3999
I1160
S'            self.file_delete(table._dbt)'
p4000
sI1161
S"            logfile.write('success!\\n')"
p4001
sI1162
S''
sI1163
S'    def _insert(self, table, fields):'
p4002
sI1164
S"        keys = ','.join(f.name for f,v in fields)"
p4003
sI1165
S"        values = ','.join(self.expand(v,f.type) for f,v in fields)"
p4004
sI1166
S"        return 'INSERT INTO %s(%s) VALUES (%s);' % (table, keys, values)"
p4005
sI1167
S''
sI1168
S'    def insert(self, table, fields):'
p4006
sI1169
S'        query = self._insert(table,fields)'
p4007
ssg3856
S"(self=<gluon.dal.MySQLAdapter object>, table=<Table UserGroup (userId,cod,curseGroup)>, fields=[(<gluon.dal.Field object>, 1), (<gluon.dal.Field object>, 106148), (<gluon.dal.Field object>, 'a')])"
p4008
sg3858
S'_insert'
p4009
sa(dp4010
g3835
S'/home/adrian/web2py/gluon/dal.py'
p4011
sg3837
(dp4012
S'f'
S'<gluon.dal.Field object>'
p4013
sS'fields'
p4014
g3878
sS'self'
p4015
S'<gluon.dal.MySQLAdapter object>'
p4016
sS'f.type'
p4017
S"'reference ClassGroup'"
p4018
sS'values'
p4019
g3878
sS'v'
S"'a'"
p4020
sS'self.expand'
p4021
S'<bound method MySQLAdapter.expand of <gluon.dal.MySQLAdapter object>>'
p4022
ssg3843
I1165
sg3844
(dp4023
I1160
S'            self.file_delete(table._dbt)'
p4024
sI1161
S"            logfile.write('success!\\n')"
p4025
sI1162
S''
sI1163
S'    def _insert(self, table, fields):'
p4026
sI1164
S"        keys = ','.join(f.name for f,v in fields)"
p4027
sI1165
S"        values = ','.join(self.expand(v,f.type) for f,v in fields)"
p4028
sI1166
S"        return 'INSERT INTO %s(%s) VALUES (%s);' % (table, keys, values)"
p4029
sI1167
S''
sI1168
S'    def insert(self, table, fields):'
p4030
sI1169
S'        query = self._insert(table,fields)'
p4031
ssg3856
S"((f=<gluon.dal.Field object>, v='a'))"
p4032
sg3858
S'<genexpr>'
p4033
sa(dp4034
g3835
S'/home/adrian/web2py/gluon/dal.py'
p4035
sg3837
(dp4036
S'builtinstr'
p4037
S"<type 'str'>"
p4038
sS'field_type'
p4039
S"'reference ClassGroup'"
p4040
sS'self'
p4041
S'<gluon.dal.MySQLAdapter object>'
p4042
sS'expression'
p4043
S"'a'"
p4044
sS'self.represent'
p4045
S'<bound method MySQLAdapter.represent of <gluon.dal.MySQLAdapter object>>'
p4046
ssg3843
I1321
sg3844
(dp4047
I1316
S'                    op=op[:-1]'
p4048
sI1317
S"                return '(%s)' % op"
p4049
sI1318
S'            else:'
p4050
sI1319
S'                return op()'
p4051
sI1320
S'        elif field_type:'
p4052
sI1321
S'            return str(self.represent(expression,field_type))'
p4053
sI1322
S'        elif isinstance(expression,(list,tuple)):'
p4054
sI1323
S"            return ','.join(self.represent(item,field_type) \\"
p4055
sI1324
S'                                for item in expression)'
p4056
sI1325
S'        elif isinstance(expression, bool):'
p4057
ssg3856
S"(self=<gluon.dal.MySQLAdapter object>, expression='a', field_type='reference ClassGroup')"
p4058
sg3858
S'expand'
p4059
sa(dp4060
g3835
S'/home/adrian/web2py/gluon/dal.py'
p4061
sg3837
(dp4062
S'builtinstr'
p4063
S"<type 'str'>"
p4064
sS'builtinint'
p4065
S"<type 'int'>"
p4066
sS'obj'
p4067
S"'a'"
p4068
ssg3843
I1754
sg3844
(dp4069
I1749
S"        elif field_is_type('reference'): # reference"
p4070
sI1750
S"            if fieldtype.find('.')>0:"
p4071
sI1751
S'                return repr(obj)'
p4072
sI1752
S'            elif isinstance(obj, (Row, Reference)):'
p4073
sI1753
S"                return str(obj['id'])"
p4074
sI1754
S'            return str(int(obj))'
p4075
sI1755
S"        elif fieldtype == 'double':"
p4076
sI1756
S'            return repr(float(obj))'
p4077
sI1757
S'        if isinstance(obj, unicode):'
p4078
sI1758
S'            obj = obj.encode(self.db_codec)'
p4079
ssg3856
S"(self=<gluon.dal.MySQLAdapter object>, obj='a', fieldtype='reference ClassGroup')"
p4080
sg3858
S'represent'
p4081
sasS'pyver'
p4082
S'Python 2.7.3: /usr/bin/python'
p4083
sS'session'
p4084
g57
(g58
g59
NtRp4085
(dp4086
g62
(dp4087
sg64
(lp4088
g57
(g66
g59
NtRp4089
(dp4090
g62
(dp4091
g70
I5
ssg71
Nsg64
(lp4092
g57
(g73
g59
NtRp4093
(dp4094
g62
(dp4095
sg71
g4089
sg64
(lp4096
g57
(g78
g59
NtRp4097
(dp4098
g62
(dp4099
g82
g83
ssg71
g4093
sg64
(lp4100
S'auth'
p4101
asbag57
(g78
g59
NtRp4102
(dp4103
g62
(dp4104
g89
g90
ssg71
g4093
sg64
(lp4105
S':'
asbag57
(g78
g59
NtRp4106
(dp4107
g62
(dp4108
sg71
g4093
sg64
(lp4109
g57
(g58
g59
NtRp4110
(dp4111
g62
(dp4112
g70
I5
ssg71
g4106
sg64
(lp4113
g57
(g66
g59
NtRp4114
(dp4115
g62
(dp4116
g70
I4
ssg71
Nsg64
(lp4117
g57
(g73
g59
NtRp4118
(dp4119
g62
(dp4120
sg71
g4114
sg64
(lp4121
g57
(g78
g59
NtRp4122
(dp4123
g62
(dp4124
g82
g83
ssg71
g4118
sg64
(lp4125
S'expiration'
p4126
asbag57
(g78
g59
NtRp4127
(dp4128
g62
(dp4129
g89
g90
ssg71
g4118
sg64
(lp4130
S':'
asbag57
(g78
g59
NtRp4131
(dp4132
g62
(dp4133
sg71
g4118
sg64
(lp4134
g57
(g58
g59
NtRp4135
(dp4136
g62
(dp4137
g70
I4
ssg71
g4131
sg64
(lp4138
S'3600'
p4139
asbasbasbag57
(g73
g59
NtRp4140
(dp4141
g62
(dp4142
sg71
g4114
sg64
(lp4143
g57
(g78
g59
NtRp4144
(dp4145
g62
(dp4146
g82
g83
ssg71
g4140
sg64
(lp4147
S'hmac_key'
p4148
asbag57
(g78
g59
NtRp4149
(dp4150
g62
(dp4151
g89
g90
ssg71
g4140
sg64
(lp4152
S':'
asbag57
(g78
g59
NtRp4153
(dp4154
g62
(dp4155
sg71
g4140
sg64
(lp4156
g57
(g58
g59
NtRp4157
(dp4158
g62
(dp4159
g70
I4
ssg71
g4153
sg64
(lp4160
S'b888b7d5-444a-4dee-a85e-097c5627adb4'
p4161
asbasbasbag57
(g73
g59
NtRp4162
(dp4163
g62
(dp4164
sg71
g4114
sg64
(lp4165
g57
(g78
g59
NtRp4166
(dp4167
g62
(dp4168
g82
g83
ssg71
g4162
sg64
(lp4169
S'last_visit'
p4170
asbag57
(g78
g59
NtRp4171
(dp4172
g62
(dp4173
g89
g90
ssg71
g4162
sg64
(lp4174
S':'
asbag57
(g78
g59
NtRp4175
(dp4176
g62
(dp4177
sg71
g4162
sg64
(lp4178
g57
(g58
g59
NtRp4179
(dp4180
g62
(dp4181
g70
I4
ssg71
g4175
sg64
(lp4182
S'datetime.datetime(2013, 2, 11, 19, 22, 4, 542719)'
p4183
asbasbasbag57
(g73
g59
NtRp4184
(dp4185
g62
(dp4186
sg71
g4114
sg64
(lp4187
g57
(g78
g59
NtRp4188
(dp4189
g62
(dp4190
g82
g83
ssg71
g4184
sg64
(lp4191
S'remember'
p4192
asbag57
(g78
g59
NtRp4193
(dp4194
g62
(dp4195
g89
g90
ssg71
g4184
sg64
(lp4196
S':'
asbag57
(g78
g59
NtRp4197
(dp4198
g62
(dp4199
sg71
g4184
sg64
(lp4200
g57
(g58
g59
NtRp4201
(dp4202
g62
(dp4203
g70
I4
ssg71
g4197
sg64
(lp4204
g100
asbasbasbag57
(g73
g59
NtRp4205
(dp4206
g62
(dp4207
sg71
g4114
sg64
(lp4208
g57
(g78
g59
NtRp4209
(dp4210
g62
(dp4211
g82
g83
ssg71
g4205
sg64
(lp4212
S'user'
p4213
asbag57
(g78
g59
NtRp4214
(dp4215
g62
(dp4216
g89
g90
ssg71
g4205
sg64
(lp4217
S':'
asbag57
(g78
g59
NtRp4218
(dp4219
g62
(dp4220
sg71
g4205
sg64
(lp4221
g57
(g58
g59
NtRp4222
(dp4223
g62
(dp4224
g70
I4
ssg71
g4218
sg64
(lp4225
g57
(g66
g59
NtRp4226
(dp4227
g62
(dp4228
g70
I3
ssg71
Nsg64
(lp4229
g57
(g73
g59
NtRp4230
(dp4231
g62
(dp4232
sg71
g4226
sg64
(lp4233
g57
(g78
g59
NtRp4234
(dp4235
g62
(dp4236
g82
g83
ssg71
g4230
sg64
(lp4237
S'email'
p4238
asbag57
(g78
g59
NtRp4239
(dp4240
g62
(dp4241
g89
g90
ssg71
g4230
sg64
(lp4242
S':'
asbag57
(g78
g59
NtRp4243
(dp4244
g62
(dp4245
sg71
g4230
sg64
(lp4246
g57
(g58
g59
NtRp4247
(dp4248
g62
(dp4249
g70
I3
ssg71
g4243
sg64
(lp4250
S'Admin1@ucm.es'
p4251
asbasbasbag57
(g73
g59
NtRp4252
(dp4253
g62
(dp4254
sg71
g4226
sg64
(lp4255
g57
(g78
g59
NtRp4256
(dp4257
g62
(dp4258
g82
g83
ssg71
g4252
sg64
(lp4259
S'first_name'
p4260
asbag57
(g78
g59
NtRp4261
(dp4262
g62
(dp4263
g89
g90
ssg71
g4252
sg64
(lp4264
S':'
asbag57
(g78
g59
NtRp4265
(dp4266
g62
(dp4267
sg71
g4252
sg64
(lp4268
g57
(g58
g59
NtRp4269
(dp4270
g62
(dp4271
g70
I3
ssg71
g4265
sg64
(lp4272
S'Bertoldo'
p4273
asbasbasbag57
(g73
g59
NtRp4274
(dp4275
g62
(dp4276
sg71
g4226
sg64
(lp4277
g57
(g78
g59
NtRp4278
(dp4279
g62
(dp4280
g82
g83
ssg71
g4274
sg64
(lp4281
S'id'
p4282
asbag57
(g78
g59
NtRp4283
(dp4284
g62
(dp4285
g89
g90
ssg71
g4274
sg64
(lp4286
S':'
asbag57
(g78
g59
NtRp4287
(dp4288
g62
(dp4289
sg71
g4274
sg64
(lp4290
g57
(g58
g59
NtRp4291
(dp4292
g62
(dp4293
g70
I3
ssg71
g4287
sg64
(lp4294
S'1'
asbasbasbag57
(g73
g59
NtRp4295
(dp4296
g62
(dp4297
sg71
g4226
sg64
(lp4298
g57
(g78
g59
NtRp4299
(dp4300
g62
(dp4301
g82
g83
ssg71
g4295
sg64
(lp4302
S'last_name'
p4303
asbag57
(g78
g59
NtRp4304
(dp4305
g62
(dp4306
g89
g90
ssg71
g4295
sg64
(lp4307
S':'
asbag57
(g78
g59
NtRp4308
(dp4309
g62
(dp4310
sg71
g4295
sg64
(lp4311
g57
(g58
g59
NtRp4312
(dp4313
g62
(dp4314
g70
I3
ssg71
g4308
sg64
(lp4315
S'Pedralbes'
p4316
asbasbasbag57
(g73
g59
NtRp4317
(dp4318
g62
(dp4319
sg71
g4226
sg64
(lp4320
g57
(g78
g59
NtRp4321
(dp4322
g62
(dp4323
g82
g83
ssg71
g4317
sg64
(lp4324
S'registration_id'
p4325
asbag57
(g78
g59
NtRp4326
(dp4327
g62
(dp4328
g89
g90
ssg71
g4317
sg64
(lp4329
S':'
asbag57
(g78
g59
NtRp4330
(dp4331
g62
(dp4332
sg71
g4317
sg64
(lp4333
g57
(g58
g59
NtRp4334
(dp4335
g62
(dp4336
g70
I3
ssg71
g4330
sg64
(lp4337
S''
asbasbasbag57
(g73
g59
NtRp4338
(dp4339
g62
(dp4340
sg71
g4226
sg64
(lp4341
g57
(g78
g59
NtRp4342
(dp4343
g62
(dp4344
g82
g83
ssg71
g4338
sg64
(lp4345
S'registration_key'
p4346
asbag57
(g78
g59
NtRp4347
(dp4348
g62
(dp4349
g89
g90
ssg71
g4338
sg64
(lp4350
S':'
asbag57
(g78
g59
NtRp4351
(dp4352
g62
(dp4353
sg71
g4338
sg64
(lp4354
g57
(g58
g59
NtRp4355
(dp4356
g62
(dp4357
g70
I3
ssg71
g4351
sg64
(lp4358
S''
asbasbasbag57
(g73
g59
NtRp4359
(dp4360
g62
(dp4361
sg71
g4226
sg64
(lp4362
g57
(g78
g59
NtRp4363
(dp4364
g62
(dp4365
g82
g83
ssg71
g4359
sg64
(lp4366
S'reset_password_key'
p4367
asbag57
(g78
g59
NtRp4368
(dp4369
g62
(dp4370
g89
g90
ssg71
g4359
sg64
(lp4371
S':'
asbag57
(g78
g59
NtRp4372
(dp4373
g62
(dp4374
sg71
g4359
sg64
(lp4375
g57
(g58
g59
NtRp4376
(dp4377
g62
(dp4378
g70
I3
ssg71
g4372
sg64
(lp4379
S''
asbasbasbasbasbasbasbag57
(g73
g59
NtRp4380
(dp4381
g62
(dp4382
sg71
g4114
sg64
(lp4383
g57
(g78
g59
NtRp4384
(dp4385
g62
(dp4386
g82
g83
ssg71
g4380
sg64
(lp4387
S'user_groups'
p4388
asbag57
(g78
g59
NtRp4389
(dp4390
g62
(dp4391
g89
g90
ssg71
g4380
sg64
(lp4392
S':'
asbag57
(g78
g59
NtRp4393
(dp4394
g62
(dp4395
sg71
g4380
sg64
(lp4396
g57
(g58
g59
NtRp4397
(dp4398
g62
(dp4399
g70
I4
ssg71
g4393
sg64
(lp4400
g57
(g66
g59
NtRp4401
(dp4402
g62
(dp4403
g70
I3
ssg71
Nsg64
(lp4404
g57
(g73
g59
NtRp4405
(dp4406
g62
(dp4407
sg71
g4401
sg64
(lp4408
g57
(g78
g59
NtRp4409
(dp4410
g62
(dp4411
g82
g83
ssg71
g4405
sg64
(lp4412
S'2'
asbag57
(g78
g59
NtRp4413
(dp4414
g62
(dp4415
g89
g90
ssg71
g4405
sg64
(lp4416
S':'
asbag57
(g78
g59
NtRp4417
(dp4418
g62
(dp4419
sg71
g4405
sg64
(lp4420
g57
(g58
g59
NtRp4421
(dp4422
g62
(dp4423
g70
I3
ssg71
g4417
sg64
(lp4424
S'Administrator'
p4425
asbasbasbasbasbasbasbasbasbasbasbag57
(g73
g59
NtRp4426
(dp4427
g62
(dp4428
sg71
g4089
sg64
(lp4429
g57
(g78
g59
NtRp4430
(dp4431
g62
(dp4432
g82
g83
ssg71
g4426
sg64
(lp4433
S'flash'
p4434
asbag57
(g78
g59
NtRp4435
(dp4436
g62
(dp4437
g89
g90
ssg71
g4426
sg64
(lp4438
S':'
asbag57
(g78
g59
NtRp4439
(dp4440
g62
(dp4441
sg71
g4426
sg64
(lp4442
g57
(g58
g59
NtRp4443
(dp4444
g62
(dp4445
g70
I5
ssg71
g4439
sg64
(lp4446
S'None'
p4447
asbasbasbag57
(g73
g59
NtRp4448
(dp4449
g62
(dp4450
sg71
g4089
sg64
(lp4451
g57
(g78
g59
NtRp4452
(dp4453
g62
(dp4454
g82
g83
ssg71
g4448
sg64
(lp4455
S'last_orderby'
p4456
asbag57
(g78
g59
NtRp4457
(dp4458
g62
(dp4459
g89
g90
ssg71
g4448
sg64
(lp4460
S':'
asbag57
(g78
g59
NtRp4461
(dp4462
g62
(dp4463
sg71
g4448
sg64
(lp4464
g57
(g58
g59
NtRp4465
(dp4466
g62
(dp4467
g70
I5
ssg71
g4461
sg64
(lp4468
S'None'
p4469
asbasbasbag57
(g73
g59
NtRp4470
(dp4471
g62
(dp4472
sg71
g4089
sg64
(lp4473
g57
(g78
g59
NtRp4474
(dp4475
g62
(dp4476
g82
g83
ssg71
g4470
sg64
(lp4477
S'last_query'
p4478
asbag57
(g78
g59
NtRp4479
(dp4480
g62
(dp4481
g89
g90
ssg71
g4470
sg64
(lp4482
S':'
asbag57
(g78
g59
NtRp4483
(dp4484
g62
(dp4485
sg71
g4470
sg64
(lp4486
g57
(g58
g59
NtRp4487
(dp4488
g62
(dp4489
g70
I5
ssg71
g4483
sg64
(lp4490
S'userDB.UserGroup.cod>0'
p4491
asbasbasbasbasbsS'etype'
p4492
S"<type 'exceptions.ValueError'>"
p4493
sS'date'
p4494
S'Mon Feb 11 19:26:04 2013'
p4495
sS'response'
p4496
g57
(g58
g59
NtRp4497
(dp4498
g62
(dp4499
sg64
(lp4500
g57
(g66
g59
NtRp4501
(dp4502
g62
(dp4503
g70
I5
ssg71
Nsg64
(lp4504
g57
(g73
g59
NtRp4505
(dp4506
g62
(dp4507
sg71
g4501
sg64
(lp4508
g57
(g78
g59
NtRp4509
(dp4510
g62
(dp4511
g82
g83
ssg71
g4505
sg64
(lp4512
g181
asbag57
(g78
g59
NtRp4513
(dp4514
g62
(dp4515
g89
g90
ssg71
g4505
sg64
(lp4516
S':'
asbag57
(g78
g59
NtRp4517
(dp4518
g62
(dp4519
sg71
g4505
sg64
(lp4520
g57
(g58
g59
NtRp4521
(dp4522
g62
(dp4523
g70
I5
ssg71
g4517
sg64
(lp4524
S'<cStringIO.StringO object at 0x7f5f5029fd50>'
p4525
asbasbasbag57
(g73
g59
NtRp4526
(dp4527
g62
(dp4528
sg71
g4501
sg64
(lp4529
g57
(g78
g59
NtRp4530
(dp4531
g62
(dp4532
g82
g83
ssg71
g4526
sg64
(lp4533
g269
asbag57
(g78
g59
NtRp4534
(dp4535
g62
(dp4536
g89
g90
ssg71
g4526
sg64
(lp4537
S':'
asbag57
(g78
g59
NtRp4538
(dp4539
g62
(dp4540
sg71
g4526
sg64
(lp4541
g57
(g58
g59
NtRp4542
(dp4543
g62
(dp4544
g70
I5
ssg71
g4538
sg64
(lp4545
g57
(g66
g59
NtRp4546
(dp4547
g62
(dp4548
g70
I4
ssg71
Nsg64
(lp4549
g57
(g73
g59
NtRp4550
(dp4551
g62
(dp4552
sg71
g4546
sg64
(lp4553
g57
(g78
g59
NtRp4554
(dp4555
g62
(dp4556
g82
g83
ssg71
g4550
sg64
(lp4557
S'session_id_cygnuscloud'
p4558
asbag57
(g78
g59
NtRp4559
(dp4560
g62
(dp4561
g89
g90
ssg71
g4550
sg64
(lp4562
S':'
asbag57
(g78
g59
NtRp4563
(dp4564
g62
(dp4565
sg71
g4550
sg64
(lp4566
g57
(g58
g59
NtRp4567
(dp4568
g62
(dp4569
g70
I4
ssg71
g4563
sg64
(lp4570
g686
ag57
(g66
g59
NtRp4571
(dp4572
g62
(dp4573
g70
I3
ssg71
Nsg64
(lp4574
g57
(g73
g59
NtRp4575
(dp4576
g62
(dp4577
sg71
g4571
sg64
(lp4578
g57
(g78
g59
NtRp4579
(dp4580
g62
(dp4581
g82
g83
ssg71
g4575
sg64
(lp4582
g319
asbag57
(g78
g59
NtRp4583
(dp4584
g62
(dp4585
g89
g90
ssg71
g4575
sg64
(lp4586
S':'
asbag57
(g78
g59
NtRp4587
(dp4588
g62
(dp4589
sg71
g4575
sg64
(lp4590
g57
(g58
g59
NtRp4591
(dp4592
g62
(dp4593
g70
I3
ssg71
g4587
sg64
(lp4594
S''
asbasbasbag57
(g73
g59
NtRp4595
(dp4596
g62
(dp4597
sg71
g4571
sg64
(lp4598
g57
(g78
g59
NtRp4599
(dp4600
g62
(dp4601
g82
g83
ssg71
g4595
sg64
(lp4602
g340
asbag57
(g78
g59
NtRp4603
(dp4604
g62
(dp4605
g89
g90
ssg71
g4595
sg64
(lp4606
S':'
asbag57
(g78
g59
NtRp4607
(dp4608
g62
(dp4609
sg71
g4595
sg64
(lp4610
g57
(g58
g59
NtRp4611
(dp4612
g62
(dp4613
g70
I3
ssg71
g4607
sg64
(lp4614
S''
asbasbasbag57
(g73
g59
NtRp4615
(dp4616
g62
(dp4617
sg71
g4571
sg64
(lp4618
g57
(g78
g59
NtRp4619
(dp4620
g62
(dp4621
g82
g83
ssg71
g4615
sg64
(lp4622
g361
asbag57
(g78
g59
NtRp4623
(dp4624
g62
(dp4625
g89
g90
ssg71
g4615
sg64
(lp4626
S':'
asbag57
(g78
g59
NtRp4627
(dp4628
g62
(dp4629
sg71
g4615
sg64
(lp4630
g57
(g58
g59
NtRp4631
(dp4632
g62
(dp4633
g70
I3
ssg71
g4627
sg64
(lp4634
S''
asbasbasbag57
(g73
g59
NtRp4635
(dp4636
g62
(dp4637
sg71
g4571
sg64
(lp4638
g57
(g78
g59
NtRp4639
(dp4640
g62
(dp4641
g82
g83
ssg71
g4635
sg64
(lp4642
g382
asbag57
(g78
g59
NtRp4643
(dp4644
g62
(dp4645
g89
g90
ssg71
g4635
sg64
(lp4646
S':'
asbag57
(g78
g59
NtRp4647
(dp4648
g62
(dp4649
sg71
g4635
sg64
(lp4650
g57
(g58
g59
NtRp4651
(dp4652
g62
(dp4653
g70
I3
ssg71
g4647
sg64
(lp4654
S''
asbasbasbag57
(g73
g59
NtRp4655
(dp4656
g62
(dp4657
sg71
g4571
sg64
(lp4658
g57
(g78
g59
NtRp4659
(dp4660
g62
(dp4661
g82
g83
ssg71
g4655
sg64
(lp4662
g403
asbag57
(g78
g59
NtRp4663
(dp4664
g62
(dp4665
g89
g90
ssg71
g4655
sg64
(lp4666
S':'
asbag57
(g78
g59
NtRp4667
(dp4668
g62
(dp4669
sg71
g4655
sg64
(lp4670
g57
(g58
g59
NtRp4671
(dp4672
g62
(dp4673
g70
I3
ssg71
g4667
sg64
(lp4674
S''
asbasbasbag57
(g73
g59
NtRp4675
(dp4676
g62
(dp4677
sg71
g4571
sg64
(lp4678
g57
(g78
g59
NtRp4679
(dp4680
g62
(dp4681
g82
g83
ssg71
g4675
sg64
(lp4682
g424
asbag57
(g78
g59
NtRp4683
(dp4684
g62
(dp4685
g89
g90
ssg71
g4675
sg64
(lp4686
S':'
asbag57
(g78
g59
NtRp4687
(dp4688
g62
(dp4689
sg71
g4675
sg64
(lp4690
g57
(g58
g59
NtRp4691
(dp4692
g62
(dp4693
g70
I3
ssg71
g4687
sg64
(lp4694
S'/'
asbasbasbag57
(g73
g59
NtRp4695
(dp4696
g62
(dp4697
sg71
g4571
sg64
(lp4698
g57
(g78
g59
NtRp4699
(dp4700
g62
(dp4701
g82
g83
ssg71
g4695
sg64
(lp4702
g445
asbag57
(g78
g59
NtRp4703
(dp4704
g62
(dp4705
g89
g90
ssg71
g4695
sg64
(lp4706
S':'
asbag57
(g78
g59
NtRp4707
(dp4708
g62
(dp4709
sg71
g4695
sg64
(lp4710
g57
(g58
g59
NtRp4711
(dp4712
g62
(dp4713
g70
I3
ssg71
g4707
sg64
(lp4714
S''
asbasbasbag57
(g73
g59
NtRp4715
(dp4716
g62
(dp4717
sg71
g4571
sg64
(lp4718
g57
(g78
g59
NtRp4719
(dp4720
g62
(dp4721
g82
g83
ssg71
g4715
sg64
(lp4722
g466
asbag57
(g78
g59
NtRp4723
(dp4724
g62
(dp4725
g89
g90
ssg71
g4715
sg64
(lp4726
S':'
asbag57
(g78
g59
NtRp4727
(dp4728
g62
(dp4729
sg71
g4715
sg64
(lp4730
g57
(g58
g59
NtRp4731
(dp4732
g62
(dp4733
g70
I3
ssg71
g4727
sg64
(lp4734
S''
asbasbasbasbasbasbasbasbasbasbasbag57
(g73
g59
NtRp4735
(dp4736
g62
(dp4737
sg71
g4501
sg64
(lp4738
g57
(g78
g59
NtRp4739
(dp4740
g62
(dp4741
g82
g83
ssg71
g4735
sg64
(lp4742
S'delimiters'
p4743
asbag57
(g78
g59
NtRp4744
(dp4745
g62
(dp4746
g89
g90
ssg71
g4735
sg64
(lp4747
S':'
asbag57
(g78
g59
NtRp4748
(dp4749
g62
(dp4750
sg71
g4735
sg64
(lp4751
g57
(g58
g59
NtRp4752
(dp4753
g62
(dp4754
g70
I5
ssg71
g4748
sg64
(lp4755
g57
(g66
g59
NtRp4756
(dp4757
g62
(dp4758
g70
I4
ssg71
Nsg64
(lp4759
g57
(g73
g59
NtRp4760
(dp4761
g62
(dp4762
sg71
g4756
sg64
(lp4763
g57
(g78
g59
NtRp4764
(dp4765
g62
(dp4766
sg71
g4760
sg64
(lp4767
g57
(g58
g59
NtRp4768
(dp4769
g62
(dp4770
g70
I4
ssg71
g4764
sg64
(lp4771
S'{{'
p4772
asbasbasbag57
(g73
g59
NtRp4773
(dp4774
g62
(dp4775
sg71
g4756
sg64
(lp4776
g57
(g78
g59
NtRp4777
(dp4778
g62
(dp4779
sg71
g4773
sg64
(lp4780
g57
(g58
g59
NtRp4781
(dp4782
g62
(dp4783
g70
I4
ssg71
g4777
sg64
(lp4784
S'}}'
p4785
asbasbasbasbasbasbasbag57
(g73
g59
NtRp4786
(dp4787
g62
(dp4788
sg71
g4501
sg64
(lp4789
g57
(g78
g59
NtRp4790
(dp4791
g62
(dp4792
g82
g83
ssg71
g4786
sg64
(lp4793
S'files'
p4794
asbag57
(g78
g59
NtRp4795
(dp4796
g62
(dp4797
g89
g90
ssg71
g4786
sg64
(lp4798
S':'
asbag57
(g78
g59
NtRp4799
(dp4800
g62
(dp4801
sg71
g4786
sg64
(lp4802
g57
(g58
g59
NtRp4803
(dp4804
g62
(dp4805
g70
I5
ssg71
g4799
sg64
(lp4806
g57
(g66
g59
NtRp4807
(dp4808
g62
(dp4809
g70
I4
ssg71
Nsg64
(lp4810
sbasbasbasbag57
(g73
g59
NtRp4811
(dp4812
g62
(dp4813
sg71
g4501
sg64
(lp4814
g57
(g78
g59
NtRp4815
(dp4816
g62
(dp4817
g82
g83
ssg71
g4811
sg64
(lp4818
S'flash'
p4819
asbag57
(g78
g59
NtRp4820
(dp4821
g62
(dp4822
g89
g90
ssg71
g4811
sg64
(lp4823
S':'
asbag57
(g78
g59
NtRp4824
(dp4825
g62
(dp4826
sg71
g4811
sg64
(lp4827
g57
(g58
g59
NtRp4828
(dp4829
g62
(dp4830
g70
I5
ssg71
g4824
sg64
(lp4831
S''
asbasbasbag57
(g73
g59
NtRp4832
(dp4833
g62
(dp4834
sg71
g4501
sg64
(lp4835
g57
(g78
g59
NtRp4836
(dp4837
g62
(dp4838
g82
g83
ssg71
g4832
sg64
(lp4839
S'generic_patterns'
p4840
asbag57
(g78
g59
NtRp4841
(dp4842
g62
(dp4843
g89
g90
ssg71
g4832
sg64
(lp4844
S':'
asbag57
(g78
g59
NtRp4845
(dp4846
g62
(dp4847
sg71
g4832
sg64
(lp4848
g57
(g58
g59
NtRp4849
(dp4850
g62
(dp4851
g70
I5
ssg71
g4845
sg64
(lp4852
g57
(g66
g59
NtRp4853
(dp4854
g62
(dp4855
g70
I4
ssg71
Nsg64
(lp4856
sbasbasbasbag57
(g73
g59
NtRp4857
(dp4858
g62
(dp4859
sg71
g4501
sg64
(lp4860
g57
(g78
g59
NtRp4861
(dp4862
g62
(dp4863
g82
g83
ssg71
g4857
sg64
(lp4864
S'google_analytics_id'
p4865
asbag57
(g78
g59
NtRp4866
(dp4867
g62
(dp4868
g89
g90
ssg71
g4857
sg64
(lp4869
S':'
asbag57
(g78
g59
NtRp4870
(dp4871
g62
(dp4872
sg71
g4857
sg64
(lp4873
g57
(g58
g59
NtRp4874
(dp4875
g62
(dp4876
g70
I5
ssg71
g4870
sg64
(lp4877
S'None'
p4878
asbasbasbag57
(g73
g59
NtRp4879
(dp4880
g62
(dp4881
sg71
g4501
sg64
(lp4882
g57
(g78
g59
NtRp4883
(dp4884
g62
(dp4885
g82
g83
ssg71
g4879
sg64
(lp4886
S'headers'
p4887
asbag57
(g78
g59
NtRp4888
(dp4889
g62
(dp4890
g89
g90
ssg71
g4879
sg64
(lp4891
S':'
asbag57
(g78
g59
NtRp4892
(dp4893
g62
(dp4894
sg71
g4879
sg64
(lp4895
g57
(g58
g59
NtRp4896
(dp4897
g62
(dp4898
g70
I5
ssg71
g4892
sg64
(lp4899
g57
(g66
g59
NtRp4900
(dp4901
g62
(dp4902
g70
I4
ssg71
Nsg64
(lp4903
g57
(g73
g59
NtRp4904
(dp4905
g62
(dp4906
sg71
g4900
sg64
(lp4907
g57
(g78
g59
NtRp4908
(dp4909
g62
(dp4910
g82
g83
ssg71
g4904
sg64
(lp4911
S'X-Powered-By'
p4912
asbag57
(g78
g59
NtRp4913
(dp4914
g62
(dp4915
g89
g90
ssg71
g4904
sg64
(lp4916
S':'
asbag57
(g78
g59
NtRp4917
(dp4918
g62
(dp4919
sg71
g4904
sg64
(lp4920
g57
(g58
g59
NtRp4921
(dp4922
g62
(dp4923
g70
I4
ssg71
g4917
sg64
(lp4924
S'web2py'
p4925
asbasbasbasbasbasbasbag57
(g73
g59
NtRp4926
(dp4927
g62
(dp4928
sg71
g4501
sg64
(lp4929
g57
(g78
g59
NtRp4930
(dp4931
g62
(dp4932
g82
g83
ssg71
g4926
sg64
(lp4933
S'logo'
p4934
asbag57
(g78
g59
NtRp4935
(dp4936
g62
(dp4937
g89
g90
ssg71
g4926
sg64
(lp4938
S':'
asbag57
(g78
g59
NtRp4939
(dp4940
g62
(dp4941
sg71
g4926
sg64
(lp4942
g57
(g58
g59
NtRp4943
(dp4944
g62
(dp4945
g70
I5
ssg71
g4939
sg64
(lp4946
g57
(cgluon.html
A
p4947
g59
NtRp4948
(dp4949
g62
(dp4950
S'_class'
p4951
S'brand'
p4952
sS'_href'
p4953
S'/CygnusCloud/main/about'
p4954
ssg71
Nsg64
(lp4955
g57
(cgluon.html
IMG
p4956
g59
NtRp4957
(dp4958
g62
(dp4959
S'_alt'
p4960
S'My Logo'
p4961
sS'src'
p4962
S'/CygnusCloud/static/logo.png'
p4963
ssg71
g4948
sg64
(lp4964
sbacgluon.html
XML_unpickle
p4965
(S's\r\x00\x00\x00&trade;&nbsp;'
tRp4966
asbasbasbasbag57
(g73
g59
NtRp4967
(dp4968
g62
(dp4969
sg71
g4501
sg64
(lp4970
g57
(g78
g59
NtRp4971
(dp4972
g62
(dp4973
g82
g83
ssg71
g4967
sg64
(lp4974
S'menu'
p4975
asbag57
(g78
g59
NtRp4976
(dp4977
g62
(dp4978
g89
g90
ssg71
g4967
sg64
(lp4979
S':'
asbag57
(g78
g59
NtRp4980
(dp4981
g62
(dp4982
sg71
g4967
sg64
(lp4983
g57
(g58
g59
NtRp4984
(dp4985
g62
(dp4986
g70
I5
ssg71
g4980
sg64
(lp4987
g57
(g66
g59
NtRp4988
(dp4989
g62
(dp4990
g70
I4
ssg71
Nsg64
(lp4991
g57
(g73
g59
NtRp4992
(dp4993
g62
(dp4994
sg71
g4988
sg64
(lp4995
g57
(g78
g59
NtRp4996
(dp4997
g62
(dp4998
sg71
g4992
sg64
(lp4999
g57
(g58
g59
NtRp5000
(dp5001
g62
(dp5002
g70
I4
ssg71
g4996
sg64
(lp5003
g57
(g66
g59
NtRp5004
(dp5005
g62
(dp5006
g70
I3
ssg71
Nsg64
(lp5007
g57
(g73
g59
NtRp5008
(dp5009
g62
(dp5010
sg71
g5004
sg64
(lp5011
g57
(g78
g59
NtRp5012
(dp5013
g62
(dp5014
sg71
g5008
sg64
(lp5015
g57
(g58
g59
NtRp5016
(dp5017
g62
(dp5018
g70
I3
ssg71
g5012
sg64
(lp5019
cgluon.languages
lazyT_unpickle
p5020
(S's\t\x00\x00\x00modificar'
tRp5021
asbasbasbag57
(g73
g59
NtRp5022
(dp5023
g62
(dp5024
sg71
g5004
sg64
(lp5025
g57
(g78
g59
NtRp5026
(dp5027
g62
(dp5028
sg71
g5022
sg64
(lp5029
g57
(g58
g59
NtRp5030
(dp5031
g62
(dp5032
g70
I3
ssg71
g5026
sg64
(lp5033
g100
asbasbasbag57
(g73
g59
NtRp5034
(dp5035
g62
(dp5036
sg71
g5004
sg64
(lp5037
g57
(g78
g59
NtRp5038
(dp5039
g62
(dp5040
sg71
g5034
sg64
(lp5041
g57
(g58
g59
NtRp5042
(dp5043
g62
(dp5044
g70
I3
ssg71
g5038
sg64
(lp5045
S'/admin/default/design/CygnusCloud'
p5046
asbasbasbasbasbasbasbag57
(g73
g59
NtRp5047
(dp5048
g62
(dp5049
sg71
g4988
sg64
(lp5050
g57
(g78
g59
NtRp5051
(dp5052
g62
(dp5053
sg71
g5047
sg64
(lp5054
g57
(g58
g59
NtRp5055
(dp5056
g62
(dp5057
g70
I4
ssg71
g5051
sg64
(lp5058
g57
(g66
g59
NtRp5059
(dp5060
g62
(dp5061
g70
I3
ssg71
Nsg64
(lp5062
g57
(g73
g59
NtRp5063
(dp5064
g62
(dp5065
sg71
g5059
sg64
(lp5066
g57
(g78
g59
NtRp5067
(dp5068
g62
(dp5069
sg71
g5063
sg64
(lp5070
g57
(g58
g59
NtRp5071
(dp5072
g62
(dp5073
g70
I3
ssg71
g5067
sg64
(lp5074
g5020
(S's\x02\x00\x00\x00bd'
tRp5075
asbasbasbag57
(g73
g59
NtRp5076
(dp5077
g62
(dp5078
sg71
g5059
sg64
(lp5079
g57
(g78
g59
NtRp5080
(dp5081
g62
(dp5082
sg71
g5076
sg64
(lp5083
g57
(g58
g59
NtRp5084
(dp5085
g62
(dp5086
g70
I3
ssg71
g5080
sg64
(lp5087
g100
asbasbasbag57
(g73
g59
NtRp5088
(dp5089
g62
(dp5090
sg71
g5059
sg64
(lp5091
g57
(g78
g59
NtRp5092
(dp5093
g62
(dp5094
sg71
g5088
sg64
(lp5095
g57
(g58
g59
NtRp5096
(dp5097
g62
(dp5098
g70
I3
ssg71
g5092
sg64
(lp5099
S'/CygnusCloud/appadmin/index'
p5100
asbasbasbasbasbasbasbag57
(g73
g59
NtRp5101
(dp5102
g62
(dp5103
sg71
g4988
sg64
(lp5104
g57
(g78
g59
NtRp5105
(dp5106
g62
(dp5107
sg71
g5101
sg64
(lp5108
g57
(g58
g59
NtRp5109
(dp5110
g62
(dp5111
g70
I4
ssg71
g5105
sg64
(lp5112
g57
(g66
g59
NtRp5113
(dp5114
g62
(dp5115
g70
I3
ssg71
Nsg64
(lp5116
g57
(g73
g59
NtRp5117
(dp5118
g62
(dp5119
sg71
g5113
sg64
(lp5120
g57
(g78
g59
NtRp5121
(dp5122
g62
(dp5123
sg71
g5117
sg64
(lp5124
g57
(g58
g59
NtRp5125
(dp5126
g62
(dp5127
g70
I3
ssg71
g5121
sg64
(lp5128
g5020
(S's\x06\x00\x00\x00estado'
tRp5129
asbasbasbag57
(g73
g59
NtRp5130
(dp5131
g62
(dp5132
sg71
g5113
sg64
(lp5133
g57
(g78
g59
NtRp5134
(dp5135
g62
(dp5136
sg71
g5130
sg64
(lp5137
g57
(g58
g59
NtRp5138
(dp5139
g62
(dp5140
g70
I3
ssg71
g5134
sg64
(lp5141
g100
asbasbasbag57
(g73
g59
NtRp5142
(dp5143
g62
(dp5144
sg71
g5113
sg64
(lp5145
g57
(g78
g59
NtRp5146
(dp5147
g62
(dp5148
sg71
g5142
sg64
(lp5149
g57
(g58
g59
NtRp5150
(dp5151
g62
(dp5152
g70
I3
ssg71
g5146
sg64
(lp5153
S'/CygnusCloud/appadmin/state'
p5154
asbasbasbasbasbasbasbag57
(g73
g59
NtRp5155
(dp5156
g62
(dp5157
sg71
g4988
sg64
(lp5158
g57
(g78
g59
NtRp5159
(dp5160
g62
(dp5161
sg71
g5155
sg64
(lp5162
g57
(g58
g59
NtRp5163
(dp5164
g62
(dp5165
g70
I4
ssg71
g5159
sg64
(lp5166
g57
(g66
g59
NtRp5167
(dp5168
g62
(dp5169
g70
I3
ssg71
Nsg64
(lp5170
g57
(g73
g59
NtRp5171
(dp5172
g62
(dp5173
sg71
g5167
sg64
(lp5174
g57
(g78
g59
NtRp5175
(dp5176
g62
(dp5177
sg71
g5171
sg64
(lp5178
g57
(g58
g59
NtRp5179
(dp5180
g62
(dp5181
g70
I3
ssg71
g5175
sg64
(lp5182
g5020
(S's\x05\x00\x00\x00cache'
tRp5183
asbasbasbag57
(g73
g59
NtRp5184
(dp5185
g62
(dp5186
sg71
g5167
sg64
(lp5187
g57
(g78
g59
NtRp5188
(dp5189
g62
(dp5190
sg71
g5184
sg64
(lp5191
g57
(g58
g59
NtRp5192
(dp5193
g62
(dp5194
g70
I3
ssg71
g5188
sg64
(lp5195
g100
asbasbasbag57
(g73
g59
NtRp5196
(dp5197
g62
(dp5198
sg71
g5167
sg64
(lp5199
g57
(g78
g59
NtRp5200
(dp5201
g62
(dp5202
sg71
g5196
sg64
(lp5203
g57
(g58
g59
NtRp5204
(dp5205
g62
(dp5206
g70
I3
ssg71
g5200
sg64
(lp5207
S'/CygnusCloud/appadmin/ccache'
p5208
asbasbasbasbasbasbasbasbasbasbasbag57
(g73
g59
NtRp5209
(dp5210
g62
(dp5211
sg71
g4501
sg64
(lp5212
g57
(g78
g59
NtRp5213
(dp5214
g62
(dp5215
g82
g83
ssg71
g5209
sg64
(lp5216
S'meta'
p5217
asbag57
(g78
g59
NtRp5218
(dp5219
g62
(dp5220
g89
g90
ssg71
g5209
sg64
(lp5221
S':'
asbag57
(g78
g59
NtRp5222
(dp5223
g62
(dp5224
sg71
g5209
sg64
(lp5225
g57
(g58
g59
NtRp5226
(dp5227
g62
(dp5228
g70
I5
ssg71
g5222
sg64
(lp5229
g57
(g66
g59
NtRp5230
(dp5231
g62
(dp5232
g70
I4
ssg71
Nsg64
(lp5233
g57
(g73
g59
NtRp5234
(dp5235
g62
(dp5236
sg71
g5230
sg64
(lp5237
g57
(g78
g59
NtRp5238
(dp5239
g62
(dp5240
g82
g83
ssg71
g5234
sg64
(lp5241
S'author'
p5242
asbag57
(g78
g59
NtRp5243
(dp5244
g62
(dp5245
g89
g90
ssg71
g5234
sg64
(lp5246
S':'
asbag57
(g78
g59
NtRp5247
(dp5248
g62
(dp5249
sg71
g5234
sg64
(lp5250
g57
(g58
g59
NtRp5251
(dp5252
g62
(dp5253
g70
I4
ssg71
g5247
sg64
(lp5254
S'Your Name <you@example.com>'
p5255
asbasbasbag57
(g73
g59
NtRp5256
(dp5257
g62
(dp5258
sg71
g5230
sg64
(lp5259
g57
(g78
g59
NtRp5260
(dp5261
g62
(dp5262
g82
g83
ssg71
g5256
sg64
(lp5263
S'description'
p5264
asbag57
(g78
g59
NtRp5265
(dp5266
g62
(dp5267
g89
g90
ssg71
g5256
sg64
(lp5268
S':'
asbag57
(g78
g59
NtRp5269
(dp5270
g62
(dp5271
sg71
g5256
sg64
(lp5272
g57
(g58
g59
NtRp5273
(dp5274
g62
(dp5275
g70
I4
ssg71
g5269
sg64
(lp5276
S'a cool new app'
p5277
asbasbasbag57
(g73
g59
NtRp5278
(dp5279
g62
(dp5280
sg71
g5230
sg64
(lp5281
g57
(g78
g59
NtRp5282
(dp5283
g62
(dp5284
g82
g83
ssg71
g5278
sg64
(lp5285
S'generator'
p5286
asbag57
(g78
g59
NtRp5287
(dp5288
g62
(dp5289
g89
g90
ssg71
g5278
sg64
(lp5290
S':'
asbag57
(g78
g59
NtRp5291
(dp5292
g62
(dp5293
sg71
g5278
sg64
(lp5294
g57
(g58
g59
NtRp5295
(dp5296
g62
(dp5297
g70
I4
ssg71
g5291
sg64
(lp5298
S'Web2py Web Framework'
p5299
asbasbasbag57
(g73
g59
NtRp5300
(dp5301
g62
(dp5302
sg71
g5230
sg64
(lp5303
g57
(g78
g59
NtRp5304
(dp5305
g62
(dp5306
g82
g83
ssg71
g5300
sg64
(lp5307
S'keywords'
p5308
asbag57
(g78
g59
NtRp5309
(dp5310
g62
(dp5311
g89
g90
ssg71
g5300
sg64
(lp5312
S':'
asbag57
(g78
g59
NtRp5313
(dp5314
g62
(dp5315
sg71
g5300
sg64
(lp5316
g57
(g58
g59
NtRp5317
(dp5318
g62
(dp5319
g70
I4
ssg71
g5313
sg64
(lp5320
S'web2py, python, framework'
p5321
asbasbasbasbasbasbasbag57
(g73
g59
NtRp5322
(dp5323
g62
(dp5324
sg71
g4501
sg64
(lp5325
g57
(g78
g59
NtRp5326
(dp5327
g62
(dp5328
g82
g83
ssg71
g5322
sg64
(lp5329
S'models_to_run'
p5330
asbag57
(g78
g59
NtRp5331
(dp5332
g62
(dp5333
g89
g90
ssg71
g5322
sg64
(lp5334
S':'
asbag57
(g78
g59
NtRp5335
(dp5336
g62
(dp5337
sg71
g5322
sg64
(lp5338
g57
(g58
g59
NtRp5339
(dp5340
g62
(dp5341
g70
I5
ssg71
g5335
sg64
(lp5342
g57
(g66
g59
NtRp5343
(dp5344
g62
(dp5345
g70
I4
ssg71
Nsg64
(lp5346
g57
(g73
g59
NtRp5347
(dp5348
g62
(dp5349
sg71
g5343
sg64
(lp5350
g57
(g78
g59
NtRp5351
(dp5352
g62
(dp5353
sg71
g5347
sg64
(lp5354
g57
(g58
g59
NtRp5355
(dp5356
g62
(dp5357
g70
I4
ssg71
g5351
sg64
(lp5358
S'^\\w+\\.py$'
p5359
asbasbasbag57
(g73
g59
NtRp5360
(dp5361
g62
(dp5362
sg71
g5343
sg64
(lp5363
g57
(g78
g59
NtRp5364
(dp5365
g62
(dp5366
sg71
g5360
sg64
(lp5367
g57
(g58
g59
NtRp5368
(dp5369
g62
(dp5370
g70
I4
ssg71
g5364
sg64
(lp5371
S'^appadmin/\\w+\\.py$'
p5372
asbasbasbag57
(g73
g59
NtRp5373
(dp5374
g62
(dp5375
sg71
g5343
sg64
(lp5376
g57
(g78
g59
NtRp5377
(dp5378
g62
(dp5379
sg71
g5373
sg64
(lp5380
g57
(g58
g59
NtRp5381
(dp5382
g62
(dp5383
g70
I4
ssg71
g5377
sg64
(lp5384
S'^appadmin/insert/\\w+\\.py$'
p5385
asbasbasbasbasbasbasbag57
(g73
g59
NtRp5386
(dp5387
g62
(dp5388
sg71
g4501
sg64
(lp5389
g57
(g78
g59
NtRp5390
(dp5391
g62
(dp5392
g82
g83
ssg71
g5386
sg64
(lp5393
S'postprocessing'
p5394
asbag57
(g78
g59
NtRp5395
(dp5396
g62
(dp5397
g89
g90
ssg71
g5386
sg64
(lp5398
S':'
asbag57
(g78
g59
NtRp5399
(dp5400
g62
(dp5401
sg71
g5386
sg64
(lp5402
g57
(g58
g59
NtRp5403
(dp5404
g62
(dp5405
g70
I5
ssg71
g5399
sg64
(lp5406
g57
(g66
g59
NtRp5407
(dp5408
g62
(dp5409
g70
I4
ssg71
Nsg64
(lp5410
sbasbasbasbag57
(g73
g59
NtRp5411
(dp5412
g62
(dp5413
sg71
g4501
sg64
(lp5414
g57
(g78
g59
NtRp5415
(dp5416
g62
(dp5417
g82
g83
ssg71
g5411
sg64
(lp5418
S'session_cookie_expires'
p5419
asbag57
(g78
g59
NtRp5420
(dp5421
g62
(dp5422
g89
g90
ssg71
g5411
sg64
(lp5423
S':'
asbag57
(g78
g59
NtRp5424
(dp5425
g62
(dp5426
sg71
g5411
sg64
(lp5427
g57
(g58
g59
NtRp5428
(dp5429
g62
(dp5430
g70
I5
ssg71
g5424
sg64
(lp5431
S'None'
p5432
asbasbasbag57
(g73
g59
NtRp5433
(dp5434
g62
(dp5435
sg71
g4501
sg64
(lp5436
g57
(g78
g59
NtRp5437
(dp5438
g62
(dp5439
g82
g83
ssg71
g5433
sg64
(lp5440
S'session_data_name'
p5441
asbag57
(g78
g59
NtRp5442
(dp5443
g62
(dp5444
g89
g90
ssg71
g5433
sg64
(lp5445
S':'
asbag57
(g78
g59
NtRp5446
(dp5447
g62
(dp5448
sg71
g5433
sg64
(lp5449
g57
(g58
g59
NtRp5450
(dp5451
g62
(dp5452
g70
I5
ssg71
g5446
sg64
(lp5453
S'session_data_cygnuscloud'
p5454
asbasbasbag57
(g73
g59
NtRp5455
(dp5456
g62
(dp5457
sg71
g4501
sg64
(lp5458
g57
(g78
g59
NtRp5459
(dp5460
g62
(dp5461
g82
g83
ssg71
g5455
sg64
(lp5462
S'session_file'
p5463
asbag57
(g78
g59
NtRp5464
(dp5465
g62
(dp5466
g89
g90
ssg71
g5455
sg64
(lp5467
S':'
asbag57
(g78
g59
NtRp5468
(dp5469
g62
(dp5470
sg71
g5455
sg64
(lp5471
g57
(g58
g59
NtRp5472
(dp5473
g62
(dp5474
g70
I5
ssg71
g5468
sg64
(lp5475
S"<open file '/home/adrian/web2py/applications/CygnusCloud/sessions/127.0.0.1-94b597fa-52b2-4481-ad0f-59b1fd37bc50', mode 'rb+' at 0x7f5f4038a390>"
p5476
asbasbasbag57
(g73
g59
NtRp5477
(dp5478
g62
(dp5479
sg71
g4501
sg64
(lp5480
g57
(g78
g59
NtRp5481
(dp5482
g62
(dp5483
g82
g83
ssg71
g5477
sg64
(lp5484
S'session_filename'
p5485
asbag57
(g78
g59
NtRp5486
(dp5487
g62
(dp5488
g89
g90
ssg71
g5477
sg64
(lp5489
S':'
asbag57
(g78
g59
NtRp5490
(dp5491
g62
(dp5492
sg71
g5477
sg64
(lp5493
g57
(g58
g59
NtRp5494
(dp5495
g62
(dp5496
g70
I5
ssg71
g5490
sg64
(lp5497
S'/home/adrian/web2py/applications/CygnusCloud/sessions/127.0.0.1-94b597fa-52b2-4481-ad0f-59b1fd37bc50'
p5498
asbasbasbag57
(g73
g59
NtRp5499
(dp5500
g62
(dp5501
sg71
g4501
sg64
(lp5502
g57
(g78
g59
NtRp5503
(dp5504
g62
(dp5505
g82
g83
ssg71
g5499
sg64
(lp5506
S'session_id'
p5507
asbag57
(g78
g59
NtRp5508
(dp5509
g62
(dp5510
g89
g90
ssg71
g5499
sg64
(lp5511
S':'
asbag57
(g78
g59
NtRp5512
(dp5513
g62
(dp5514
sg71
g5499
sg64
(lp5515
g57
(g58
g59
NtRp5516
(dp5517
g62
(dp5518
g70
I5
ssg71
g5512
sg64
(lp5519
g686
asbasbasbag57
(g73
g59
NtRp5520
(dp5521
g62
(dp5522
sg71
g4501
sg64
(lp5523
g57
(g78
g59
NtRp5524
(dp5525
g62
(dp5526
g82
g83
ssg71
g5520
sg64
(lp5527
S'session_id_name'
p5528
asbag57
(g78
g59
NtRp5529
(dp5530
g62
(dp5531
g89
g90
ssg71
g5520
sg64
(lp5532
S':'
asbag57
(g78
g59
NtRp5533
(dp5534
g62
(dp5535
sg71
g5520
sg64
(lp5536
g57
(g58
g59
NtRp5537
(dp5538
g62
(dp5539
g70
I5
ssg71
g5533
sg64
(lp5540
g4558
asbasbasbag57
(g73
g59
NtRp5541
(dp5542
g62
(dp5543
sg71
g4501
sg64
(lp5544
g57
(g78
g59
NtRp5545
(dp5546
g62
(dp5547
g82
g83
ssg71
g5541
sg64
(lp5548
S'session_locked'
p5549
asbag57
(g78
g59
NtRp5550
(dp5551
g62
(dp5552
g89
g90
ssg71
g5541
sg64
(lp5553
S':'
asbag57
(g78
g59
NtRp5554
(dp5555
g62
(dp5556
sg71
g5541
sg64
(lp5557
g57
(g58
g59
NtRp5558
(dp5559
g62
(dp5560
g70
I5
ssg71
g5554
sg64
(lp5561
g2132
asbasbasbag57
(g73
g59
NtRp5562
(dp5563
g62
(dp5564
sg71
g4501
sg64
(lp5565
g57
(g78
g59
NtRp5566
(dp5567
g62
(dp5568
g82
g83
ssg71
g5562
sg64
(lp5569
S'session_new'
p5570
asbag57
(g78
g59
NtRp5571
(dp5572
g62
(dp5573
g89
g90
ssg71
g5562
sg64
(lp5574
S':'
asbag57
(g78
g59
NtRp5575
(dp5576
g62
(dp5577
sg71
g5562
sg64
(lp5578
g57
(g58
g59
NtRp5579
(dp5580
g62
(dp5581
g70
I5
ssg71
g5575
sg64
(lp5582
g100
asbasbasbag57
(g73
g59
NtRp5583
(dp5584
g62
(dp5585
sg71
g4501
sg64
(lp5586
g57
(g78
g59
NtRp5587
(dp5588
g62
(dp5589
g82
g83
ssg71
g5583
sg64
(lp5590
S'session_storage_type'
p5591
asbag57
(g78
g59
NtRp5592
(dp5593
g62
(dp5594
g89
g90
ssg71
g5583
sg64
(lp5595
S':'
asbag57
(g78
g59
NtRp5596
(dp5597
g62
(dp5598
sg71
g5583
sg64
(lp5599
g57
(g58
g59
NtRp5600
(dp5601
g62
(dp5602
g70
I5
ssg71
g5596
sg64
(lp5603
g3835
asbasbasbag57
(g73
g59
NtRp5604
(dp5605
g62
(dp5606
sg71
g4501
sg64
(lp5607
g57
(g78
g59
NtRp5608
(dp5609
g62
(dp5610
g82
g83
ssg71
g5604
sg64
(lp5611
S'status'
p5612
asbag57
(g78
g59
NtRp5613
(dp5614
g62
(dp5615
g89
g90
ssg71
g5604
sg64
(lp5616
S':'
asbag57
(g78
g59
NtRp5617
(dp5618
g62
(dp5619
sg71
g5604
sg64
(lp5620
g57
(g58
g59
NtRp5621
(dp5622
g62
(dp5623
g70
I5
ssg71
g5617
sg64
(lp5624
S'200'
p5625
asbasbasbag57
(g73
g59
NtRp5626
(dp5627
g62
(dp5628
sg71
g4501
sg64
(lp5629
g57
(g78
g59
NtRp5630
(dp5631
g62
(dp5632
g82
g83
ssg71
g5626
sg64
(lp5633
S'subtitle'
p5634
asbag57
(g78
g59
NtRp5635
(dp5636
g62
(dp5637
g89
g90
ssg71
g5626
sg64
(lp5638
S':'
asbag57
(g78
g59
NtRp5639
(dp5640
g62
(dp5641
sg71
g5626
sg64
(lp5642
g57
(g58
g59
NtRp5643
(dp5644
g62
(dp5645
g70
I5
ssg71
g5639
sg64
(lp5646
S'Database Administration (appadmin)'
p5647
asbasbasbag57
(g73
g59
NtRp5648
(dp5649
g62
(dp5650
sg71
g4501
sg64
(lp5651
g57
(g78
g59
NtRp5652
(dp5653
g62
(dp5654
g82
g83
ssg71
g5648
sg64
(lp5655
S'title'
p5656
asbag57
(g78
g59
NtRp5657
(dp5658
g62
(dp5659
g89
g90
ssg71
g5648
sg64
(lp5660
S':'
asbag57
(g78
g59
NtRp5661
(dp5662
g62
(dp5663
sg71
g5648
sg64
(lp5664
g57
(g58
g59
NtRp5665
(dp5666
g62
(dp5667
g70
I5
ssg71
g5661
sg64
(lp5668
S'Cygnuscloud'
p5669
asbasbasbag57
(g73
g59
NtRp5670
(dp5671
g62
(dp5672
sg71
g4501
sg64
(lp5673
g57
(g78
g59
NtRp5674
(dp5675
g62
(dp5676
g82
g83
ssg71
g5670
sg64
(lp5677
S'view'
p5678
asbag57
(g78
g59
NtRp5679
(dp5680
g62
(dp5681
g89
g90
ssg71
g5670
sg64
(lp5682
S':'
asbag57
(g78
g59
NtRp5683
(dp5684
g62
(dp5685
sg71
g5670
sg64
(lp5686
g57
(g58
g59
NtRp5687
(dp5688
g62
(dp5689
g70
I5
ssg71
g5683
sg64
(lp5690
S'appadmin.html'
p5691
asbasbasbasbasbsS'locals'
p5692
(dp5693
S'obj'
p5694
S"'a'"
p5695
sS'self'
p5696
S'<gluon.dal.MySQLAdapter object>'
p5697
sS'field_is_type'
p5698
S'<built-in method startswith of str object>'
p5699
sS'r'
S'None'
p5700
sS'fieldtype'
p5701
S"'reference ClassGroup'"
p5702
sssS'traceback'
p5703
S'Traceback (most recent call last):\n  File "/home/adrian/web2py/gluon/restricted.py", line 212, in restricted\n    exec ccode in environment\n  File "/home/adrian/web2py/applications/CygnusCloud/controllers/appadmin.py", line 464, in <module>\n  File "/home/adrian/web2py/gluon/globals.py", line 193, in <lambda>\n    self._caller = lambda f: f()\n  File "/home/adrian/web2py/applications/CygnusCloud/controllers/appadmin.py", line 127, in insert\n    if form.accepts(request.vars, session):\n  File "/home/adrian/web2py/gluon/sqlhtml.py", line 1474, in accepts\n    pk = self.table.insert(**fields)\n  File "/home/adrian/web2py/gluon/dal.py", line 7918, in insert\n    ret =  self._db._adapter.insert(self,self._listify(fields))\n  File "/home/adrian/web2py/gluon/dal.py", line 1169, in insert\n    query = self._insert(table,fields)\n  File "/home/adrian/web2py/gluon/dal.py", line 1165, in _insert\n    values = \',\'.join(self.expand(v,f.type) for f,v in fields)\n  File "/home/adrian/web2py/gluon/dal.py", line 1165, in <genexpr>\n    values = \',\'.join(self.expand(v,f.type) for f,v in fields)\n  File "/home/adrian/web2py/gluon/dal.py", line 1321, in expand\n    return str(self.represent(expression,field_type))\n  File "/home/adrian/web2py/gluon/dal.py", line 1754, in represent\n    return str(int(obj))\nValueError: invalid literal for int() with base 10: \'a\'\n'
p5704
s.