(dp1
S'output'
p2
S"<type 'exceptions.TypeError'> unsupported operand type(s) for &: 'Set' and 'Query'"
p3
sS'layer'
p4
S'/home/adrian/web2py/applications/CygnusCloud/controllers/administrator.py'
p5
sS'code'
p6
S'# coding: utf8\n\n\n@auth.requires_membership(\'Administrator\')\ndef runVM():\n    createAdressBar()\n    return dict()\n    \n@auth.requires_membership(\'Administrator\')\ndef servers():\n    createAdressBar()\n    if(request.args(0) == \'add_remove_servers\'):\n        form = FORM(T(\'Servidores\'),SELECT(\'server1\',\'server 2\'))\n        return dict(form = form)\n\n      \n@auth.requires_membership(\'Administrator\')\ndef users():  \n    createAdressBar()\n    if(request.args(0) == \'add\'):\n        #Creamos el primer formulario\n        form = FORM(HR(),H2(T(\'A\xc3\xb1adir un nuevo usuario\')),DIV( T(\'Nombre: \'),BR(),INPUT(_name = \'name\')),\n                DIV( T(\'Contrase\xc3\xb1a: \'),BR(),INPUT(_name =\'password\')),\n                DIV(T(\'Grupo: \'),BR(),SELECT(_name = \'group\',*[OPTION(row.role,_value = T(str(row.role))) \n                for row in userDB().select(userDB.auth_group.role)])),HR(),CENTER(INPUT(_type=\'submit\',_name = \'add\' ,_value=T(\'A\xc3\xb1adir Usuario\'))))                \n        \n        if form.accepts(request.vars,keepvalues=True) and form.vars.add:\n            if(form.vars.name != None) and (form.vars.name != "") and (form.vars.password != None) and (form.vars.password != ""):\n                #Si el email no esta repetido\n                if(userDB(userDB.auth_user.email == form.vars.name).count() == 0):\n                    #A\xc3\xb1adimos el nuevo usuario a la base de datos\n                    userId = userDB.auth_user.insert(email = form.vars.name,password = userDB.auth_user.password.validate(form.vars.password)[0])\n                    groupId = userDB(userDB.auth_group.role == form.vars.group).select(userDB.auth_group.id)[0]\n                    userDB.auth_membership.insert(group_id = groupId, user_id = userId)\n                    \n            #redireccinamos \n            redirect(URL(c=\'administrator\',f=\'users\',args = [\'add\'],vars = dict(usersFind=request.vars.usersFind) ))\n        #Devolvemos el formulario             \n        return dict(form = form)\n        \n    elif(request.args(0) == \'associate_subjects\'):\n        #creamos el primer formulario\n        form1 = createUserSearchForm(request.args(0))\n        #Creamos el segundo formulario\n        listUsers = request.vars.usersFind or []\n        #Comprobamos si se ha tomado como una lista\n        if(isinstance(listUsers,str)):\n            listUsers = []\n            listUsers.append(request.vars.usersFind)\n        #Creamos el segundo formulario    \n        form2 = FORM(H2(T(\'A\xc3\xb1adir asignatura\')),DIV(T(\'Usuario\'),BR(),SELECT(_name = \'usersSelect\', *listUsers)),\n              DIV( T(\'C\xc3\xb3digo: \'),BR(),INPUT(_name = \'code\')),DIV( T(\'Grupo de clase: \'),BR(),\n              INPUT(_name =\'classGroup\')),INPUT(_type = \'submit\',_name = \'add\',_value = T(\'A\xc3\xb1adir\')),\n              INPUT(_type="submit",_name = \'remove\',_value=T("Eliminar")))\n        #Acci\xc3\xb3n seg\xc3\xban el bot\xc3\xb3n pulsado\n        if form2.accepts(request.vars,keepvalues=True) and form2.vars.add:\n           if(len(form2.vars.code) >= 4) and (len(form2.vars.classGroup) == 1): \n               #Si no existia ya la relaci\xc3\xb3n la a\xc3\xb1adimos\n               if(userDB((userDB.UserGroup.userId == form2.vars.usersSelect) & (userDB.UserGroup.cod == form2.vars.code) & \\\n               (userDB.UserGroup.curseGroup == form2.vars.classGroup)).count() == 0) and \\\n               (userDB((userDB.ClassGroup.cod == form2.vars.code) & (userDB.ClassGroup.curseGroup == form2.vars.classGroup)).count() == 1):\n                   userDB.UserGroup.insert(userId = form2.vars.usersSelect,cod = form2.vars.code,curseGroup = form2.vars.classGroup)\n                   response.flash = T(\'Usuario asociado.\')\n               else:\n                    response.flash = T(\'El usuario ya se encuentra asociado al grupo de asignatura o el grupo de asignatura no existe.\')\n        elif form2.accepts(request.vars,keepvalues=True) and form2.vars.remove:\n            if((userDB(userDB.UserGroup.userId == form2.vars.usersSelect) & (userDB.UserGroup.cod == form2.vars.code) & \\\n            (userDB.UserGroup.curseGroup == form2.vars.classGroup)).count() == 1):\n                (userDB(userDB.UserGroup.userId == form2.vars.usersSelect) & (userDB.UserGroup.cod == form2.vars.code) & \\\n                (userDB.UserGroup.curseGroup == form2.vars.classGroup)).delete()\n                response.flash = T(\'Relaci\xc3\xb3n eliminada.\')\n            else:\n                response.flash = T(\'Esta relaci\xc3\xb3n no existe.\')\n\n  \n        #Devolvemos el formulario             \n        return dict(form1 = form1,form2 = form2)\n        \n    elif(request.args(0) == \'remove\'):\n        #Creamos el formulario de busqueda\n        form1 = createUserSearchForm(request.args(0))\n        #Creamos el segundo formulario\n        listUsers = request.vars.usersFind or []\n        #Comprobamos si se ha tomado como una lista\n        if(isinstance(listUsers,str)):\n            listUsers = []\n            listUsers.append(request.vars.usersFind)\n        table = createUserTable(listUsers)\n        #Creamos el formulario\n        form2 = FORM(table,CENTER(INPUT(_type = \'submit\',_name = \'remove\',  _value = T(\'Eliminar seleccionado\'))))\n        \n        if form2.accepts(request.vars,keepvalues=True) and form2.vars.remove:\n            if(form2.vars.selection != ""):\n                #Extraemos el id del usuario\n                userId = userDB(userDB.auth_user.email == listUsers[int(form2.vars.selection)]).select()[0].id\n                #Borramos su referencia en la tabla relacional\n                userDB(userDB.auth_membership.user_id == userId).delete()\n                #Borramos el usuario\n                userDB(userDB.auth_user.id == userId).delete()        \n                #redireccinamos \n                listUsers.remove(listUsers[int(form2.vars.selection)])\n                redirect(URL(c=\'administrator\',f=\'users\',args = [\'remove\'],vars = dict(usersFind=listUsers) ))\n        \n        #Devolvemos los dos formularios\n        return dict(form1 = form1,form2 = form2)\n\n        \n@auth.requires_membership(\'Administrator\')\ndef subjects():\n    createAdressBar()\n    if(request.args(0) == \'add\'):              \n        #Creamos el primer formulario\n        form = FORM(HR(),H2(T(\'A\xc3\xb1adir un nueva asignatura\')),DIV( T(\'C\xc3\xb3digo: \'),BR(),INPUT(_name = \'cod\',_size = \'30px\')),\n                DIV( T(\'Nombre: \'),BR(),INPUT(_name =\'name\')),\n                DIV( T(\'A\xc3\xb1o: \'),BR(),INPUT(_name =\'year\')),\n                DIV( T(\'Curso: \'),BR(),INPUT(_name =\'curse\')),\n                DIV( T(\'Grupo de clase: \'),BR(),INPUT(_name =\'group\')),\n                HR(),CENTER(INPUT(_type=\'submit\',_name = \'add\' ,_value=T(\'A\xc3\xb1adir\'))))                \n        \n        if form.accepts(request.vars) and form.vars.add:\n            if(len(form.vars.cod) >= 4) and (len(form.vars.name) != 0) and (len(form.vars.year) == 4) and (len(form.vars.curse) == 1) and \\\n                (len(form.vars.group) == 1):\n                #Si los valores correspondientes son enteros\n                try:\n                    #Si no existe ya ese grupo\n                    if(userDB((userDB.ClassGroup.cod == form.vars.cod) & (userDB.ClassGroup.curseGroup == form.vars.group)).count() == 0):\n                        #Si no existe la asignatura, la creamos\n                        if(userDB(userDB.Subjects.code == form.vars.cod).count() == 0):\n                            userDB.Subjects.insert(code = int(form.vars.cod),name = form.vars.name)\n                        userDB.ClassGroup.insert(yearGroup = int(form.vars.year),cod = int(form.vars.cod),curse = int(form.vars.curse),\\\n                            curseGroup = form.vars.group)\n                except ValueError:\n                          response.flash = T(\'Formato de n\xc3\xbameros erroneo\')\n            #redireccinamos \n            redirect(URL(c=\'administrator\',f=\'subjects\',args = [\'add\'],vars = dict(usersFind=request.vars.usersFind) ))\n        #Devolvemos el formulario             \n        return dict(form = form)  \n         \n    if(request.args(0) == \'remove\'): \n        #Creamos el formulario de busqueda\n        form1 = createSubjectsSearchForm(request.args(0))\n        #Creamos el segundo formulario\n        listSubjectsAux = request.vars.subjectsFind or []\n        #Comprobamos si se ha tomado como una lista\n        \n        if(isinstance(listSubjectsAux,str)):\n            listSubjects = [eval(request.vars.subjectsFind)]\n        else:\n            listSubjects = []\n            for l in listSubjectsAux:\n                    print l\n                    listSubjects.append(eval(l))\n            #listSubjects.append(request.vars.subjectsFind)\n        print listSubjects\n        table = createSubjectTable(listSubjects)\n        #Creamos el formulario\n        form2 = FORM(table,CENTER(INPUT(_type = \'submit\',_name = \'remove\',  _value = T(\'Eliminar seleccionado\'))))\n        \n        if form2.accepts(request.vars,keepvalues=True) and form2.vars.remove:\n            if(form2.vars.selection != ""):\n                #Borramos su referencia en la tabla relacional\n                userDB((userDB.UserGroup.cod == listSubjects[int(form2.vars.selection)][0]) & \\\n                (userDB.UserGroup.curseGroup == listSubjects[int(form2.vars.selection)][1])).delete()\n                #Borramos el grupo\n                userDB((userDB.ClassGroup.cod == listSubjects[int(form2.vars.selection)][0]) & \\\n                (userDB.ClassGroup.curseGroup == listSubjects[int(form2.vars.selection)][1])).delete()        \n                #redireccinamos \n                listSubjects.remove(listSubjects[int(form2.vars.selection)])\n                redirect(URL(c=\'administrator\',f=\'subjects\',args = [\'remove\'],vars = {\'subjectsFind\':listSubjects} ))\n        \n        #Devolvemos los dos formularios\n        return dict(form1 = form1,form2 = form2)\n    #P\xc3\xa1gina de asociaci\xc3\xb3n de asignaturas con m\xc3\xa1quinas virtuales       \n   # if(request.args(0) == \'addVM\'): \n          \n    \ndef createAdressBar():\n \n    response.menu=[[SPAN(T(\'Arrancar m\xc3\xa1quina\'), _class=\'highlighted\'), False,URL(\'runVM\'),[]],\n                    [SPAN(T(\'Administrar servidores\'), _class=\'highlighted\'), False, URL(f = \'servers\',args = [\'add_remove_servers\']),[\n                        (T(\'A\xc3\xb1adir/Eliminar\'),False,URL(f = \'servers\',args = [\'add_remove_servers\']))]],\n                    [SPAN(T(\'Administrar usuarios\'), _class=\'highlighted\'), False, URL(f = \'initUsers\',args = [\'remove\']),[\n                        (T(\'Eliminar\'),False,URL(f = \'users\',args = [\'remove\'])),\n                        (T(\'A\xc3\xb1adir\'),False,URL(f = \'users\',args = [\'add\'])),\n                        (T(\'Asociar asignaturas\'),False,URL(f = \'users\',args = [\'associate_subjects\']))]],\n                    [SPAN(T(\'Administrar asignaturas\'), _class=\'highlighted\'), False, URL(f = \'subjects\',args = [\'add\']),[\n                       (T(\'A\xc3\xb1adir\'),False,URL(f = \'subjects\',args = [\'add\'])),\n                       (T(\'Eliminar\'),False,URL(f = \'subjects\',args = [\'remove\'])),\n                       (T(\'Administrar m\xc3\xa1quinas\'),False,URL(f = \'subjects\',args = [\'addVM\']))]]]\n                       \ndef createUserSearchForm(state):        \n    listTypes = []\n    listTypes.append(OPTION(\'all\',_value = T(\'All\')))\n    for row in userDB().select(userDB.auth_group.role):\n        listTypes.append(OPTION(row.role,_value = T(str(row.role)))) \n        \n    form1 = FORM(HR(),H2(T(\'Buscar un usuario\')),DIV( T(\'Nombre: \'),BR(),INPUT(_name = \'name\')),\n           DIV(T(\'Grupo: \'),BR(),SELECT(_name = \'group\', *listTypes)),\n           INPUT(_type=\'submit\',_name = \'search\',_value=T(\'Buscar\'),_onclick=[]),HR())    \n    \n    if form1.accepts(request.vars,keepvalues=True) and form1.vars.search:\n        query = ""\n        if(form1.vars.group != \'All\'):\n            query =  (userDB.auth_group.role  ==  form1.vars.group) & (userDB.auth_group.id == userDB.auth_membership.group_id) \n            query &= userDB.auth_membership.user_id  ==  userDB.auth_user.id\n                \n        rows = userDB(query).select(userDB.auth_user.email)\n\n        #Extraemos la lista de usuarios \n        listUsersAux = [] \n        for row in rows :                  \n            if(form1.vars.name != "") and (form1.vars.name != None):\n                    if (form1.vars.name in row.email):                    \n                        listUsersAux.append(row.email)\n            else:\n                    listUsersAux.append(row.email)\n        #redireccinamos con los resultados\n        redirect(URL(c=\'administrator\',f=\'users\',args = [state],vars = dict(usersFind=listUsersAux) ))\n     \n    return form1\n    \ndef createSubjectsSearchForm(state):        \n\n        \n    form1 = FORM(HR(),H2(T(\'Buscar una asignatura\')),DIV( T(\'Codigo: \'),BR(),INPUT(_name = \'cod\')),\n           DIV(T(\'Nombre: \'),BR(),INPUT(_name = \'name\')),\n           DIV(T(\'A\xc3\xb1o: \'),BR(),INPUT(_name = \'year\')),\n           DIV(T(\'Curso: \'),BR(),INPUT(_name = \'curse\')),\n           DIV(T(\'Grupo de clase: \'),BR(),INPUT(_name = \'group\')),\n           INPUT(_type=\'submit\',_name = \'search\',_value=T(\'Buscar\'),_onclick=[]),HR())    \n    \n    if form1.accepts(request.vars,keepvalues=True) and form1.vars.search:\n        query = ""\n        tag = False\n        if(len(form1.vars.year) != 0):\n            query =  userDB.ClassGroup.yearGroup  ==  form1.vars.year\n            tag = True\n        if(len(form1.vars.curse) != 0):\n            if(tag): \n                query &=  userDB.ClassGroup.curse  ==  form1.vars.curse  \n            else:\n                query =  userDB.ClassGroup.curse  ==  form1.vars.curse\n                tag = True      \n        if(len(form1.vars.group) != 0):\n            if(tag): \n                query &=  userDB.ClassGroup.curseGroup  ==  form1.vars.group  \n            else:\n                query =  userDB.ClassGroup.curseGroup  ==  form1.vars.group\n                tag = True   \n                \n        rows = userDB(query).select(userDB.ClassGroup.cod,userDB.ClassGroup.curseGroup)\n\n        #Extraemos la lista de usuarios \n        listSubjectsAux = [] \n        for row in rows :\n            add = True                  \n            if(form1.vars.name != ""):\n                    add = form1.vars.name in userDB(row.cod == userDB.Subjects.code).select()[0].name \n            if(form1.vars.cod != "") and (add):\n                    add = form1.vars.cod in row.cod                    \n            if(add):\n                    listSubjectsAux.append([row.cod,row.curseGroup])\n        #redireccinamos con los resultados\n        redirect(URL(c=\'administrator\',f=\'subjects\',args = [state],vars = dict(subjectsFind=listSubjectsAux) ))\n     \n    return form1\n\n\ndef createUserTable(listUsers):\n    table = TABLE(_class=\'data\', _name=\'table\')\n    table.append(TR(TH(\'S.\'),TH(T(\'Nombre\')), TH(T(\'Contrase\xc3\xb1a\')), TH(T(\'Grupo\'))))\n    i = 0\n    for l in listUsers:\n        table.append(TR(\\\n        TD(INPUT(_type=\'radio\',_name = \'selection\',_value = i)),\\\n        TD(LABEL(l)),\\\n        TD(LABEL(userDB(userDB.auth_user.email==l).select(userDB.auth_user.password)[0].password)),\\\n        TD(LABEL(userDB((userDB.auth_user.email==l) & (userDB.auth_membership.user_id == userDB.auth_user.id) \\\n         & (userDB.auth_membership.group_id == userDB.auth_group.id)).select(userDB.auth_group.role)[0].role))))\n        i = i + 1\n    pass\n    return table\n    \ndef createSubjectTable(listSubjects):\n    table = TABLE(_class=\'data\', _name=\'table\')\n    table.append(TR(TH(\'S.\'),TH(T(\'Cod-Asignatura\'),TH(T(\'Grupo\')))))\n    i = 0\n    for l in listSubjects:\n        table.append(TR(\\\n        TD(INPUT(_type=\'radio\',_name = \'selection\',_value = i)),\\\n        TD(LABEL(str(l[0]) + \'-\' + userDB(l[0] == userDB.Subjects.code).select()[0].name),_width = \'50%\'),\n        TD(LABEL(l[1]))))\n        i = i + 1\n    pass\n    return table\n\nresponse._vars=response._caller(users)\n'
p7
sS'snapshot'
p8
(dp9
S'exception'
p10
(dp11
S'__hash__'
p12
S"<method-wrapper '__hash__' of exceptions.TypeError object>"
p13
sS'__setattr__'
p14
S"<method-wrapper '__setattr__' of exceptions.TypeError object>"
p15
sS'__reduce_ex__'
p16
S'<built-in method __reduce_ex__ of exceptions.TypeError object>'
p17
sS'__getslice__'
p18
S"<method-wrapper '__getslice__' of exceptions.TypeError object>"
p19
sS'__getitem__'
p20
S"<method-wrapper '__getitem__' of exceptions.TypeError object>"
p21
sS'__setstate__'
p22
S'<built-in method __setstate__ of exceptions.TypeError object>'
p23
sS'args'
p24
S'("unsupported operand type(s) for &: \'Set\' and \'Query\'",)'
p25
sS'__reduce__'
p26
S'<built-in method __reduce__ of exceptions.TypeError object>'
p27
sS'__str__'
p28
S"<method-wrapper '__str__' of exceptions.TypeError object>"
p29
sS'__format__'
p30
S'<built-in method __format__ of exceptions.TypeError object>'
p31
sS'__getattribute__'
p32
S"<method-wrapper '__getattribute__' of exceptions.TypeError object>"
p33
sS'__class__'
p34
S"<type 'exceptions.TypeError'>"
p35
sS'__unicode__'
p36
S'<built-in method __unicode__ of exceptions.TypeError object>'
p37
sS'__delattr__'
p38
S"<method-wrapper '__delattr__' of exceptions.TypeError object>"
p39
sS'__subclasshook__'
p40
S'<built-in method __subclasshook__ of type object>'
p41
sS'__repr__'
p42
S"<method-wrapper '__repr__' of exceptions.TypeError object>"
p43
sS'__dict__'
p44
S'{}'
p45
sS'__sizeof__'
p46
S'<built-in method __sizeof__ of exceptions.TypeError object>'
p47
sS'__doc__'
p48
S"'Inappropriate argument type.'"
p49
sS'__init__'
p50
S"<method-wrapper '__init__' of exceptions.TypeError object>"
p51
sS'__new__'
p52
S'<built-in method __new__ of type object>'
p53
ssS'evalue'
p54
S"unsupported operand type(s) for &: 'Set' and 'Query'"
p55
sS'request'
p56
ccopy_reg
_reconstructor
p57
(cgluon.html
BEAUTIFY
p58
c__builtin__
object
p59
NtRp60
(dp61
S'attributes'
p62
(dp63
sS'components'
p64
(lp65
g57
(cgluon.html
TABLE
p66
g59
NtRp67
(dp68
g62
(dp69
S'level'
p70
I5
ssS'parent'
p71
Nsg64
(lp72
g57
(cgluon.html
TR
p73
g59
NtRp74
(dp75
g62
(dp76
sg71
g67
sg64
(lp77
g57
(cgluon.html
TD
p78
g59
NtRp79
(dp80
g62
(dp81
S'_style'
p82
S'font-weight:bold;vertical-align:top'
p83
ssg71
g74
sg64
(lp84
S'ajax'
p85
asbag57
(g78
g59
NtRp86
(dp87
g62
(dp88
S'_valign'
p89
S'top'
p90
ssg71
g74
sg64
(lp91
S':'
asbag57
(g78
g59
NtRp92
(dp93
g62
(dp94
sg71
g74
sg64
(lp95
g57
(g58
g59
NtRp96
(dp97
g62
(dp98
g70
I5
ssg71
g92
sg64
(lp99
S'False'
p100
asbasbasbag57
(g73
g59
NtRp101
(dp102
g62
(dp103
sg71
g67
sg64
(lp104
g57
(g78
g59
NtRp105
(dp106
g62
(dp107
g82
g83
ssg71
g101
sg64
(lp108
S'application'
p109
asbag57
(g78
g59
NtRp110
(dp111
g62
(dp112
g89
g90
ssg71
g101
sg64
(lp113
S':'
asbag57
(g78
g59
NtRp114
(dp115
g62
(dp116
sg71
g101
sg64
(lp117
g57
(g58
g59
NtRp118
(dp119
g62
(dp120
g70
I5
ssg71
g114
sg64
(lp121
S'CygnusCloud'
p122
asbasbasbag57
(g73
g59
NtRp123
(dp124
g62
(dp125
sg71
g67
sg64
(lp126
g57
(g78
g59
NtRp127
(dp128
g62
(dp129
g82
g83
ssg71
g123
sg64
(lp130
g24
asbag57
(g78
g59
NtRp131
(dp132
g62
(dp133
g89
g90
ssg71
g123
sg64
(lp134
S':'
asbag57
(g78
g59
NtRp135
(dp136
g62
(dp137
sg71
g123
sg64
(lp138
g57
(g58
g59
NtRp139
(dp140
g62
(dp141
g70
I5
ssg71
g135
sg64
(lp142
g57
(g66
g59
NtRp143
(dp144
g62
(dp145
g70
I4
ssg71
Nsg64
(lp146
g57
(g73
g59
NtRp147
(dp148
g62
(dp149
sg71
g143
sg64
(lp150
g57
(g78
g59
NtRp151
(dp152
g62
(dp153
sg71
g147
sg64
(lp154
g57
(g58
g59
NtRp155
(dp156
g62
(dp157
g70
I4
ssg71
g151
sg64
(lp158
S'associate_subjects'
p159
asbasbasbasbasbasbasbag57
(g73
g59
NtRp160
(dp161
g62
(dp162
sg71
g67
sg64
(lp163
g57
(g78
g59
NtRp164
(dp165
g62
(dp166
g82
g83
ssg71
g160
sg64
(lp167
S'body'
p168
asbag57
(g78
g59
NtRp169
(dp170
g62
(dp171
g89
g90
ssg71
g160
sg64
(lp172
S':'
asbag57
(g78
g59
NtRp173
(dp174
g62
(dp175
sg71
g160
sg64
(lp176
g57
(g58
g59
NtRp177
(dp178
g62
(dp179
g70
I5
ssg71
g173
sg64
(lp180
S"<open file '<fdopen>', mode 'w+b' at 0x7f5f64102c90>"
p181
asbasbasbag57
(g73
g59
NtRp182
(dp183
g62
(dp184
sg71
g67
sg64
(lp185
g57
(g78
g59
NtRp186
(dp187
g62
(dp188
g82
g83
ssg71
g182
sg64
(lp189
S'cid'
p190
asbag57
(g78
g59
NtRp191
(dp192
g62
(dp193
g89
g90
ssg71
g182
sg64
(lp194
S':'
asbag57
(g78
g59
NtRp195
(dp196
g62
(dp197
sg71
g182
sg64
(lp198
g57
(g58
g59
NtRp199
(dp200
g62
(dp201
g70
I5
ssg71
g195
sg64
(lp202
S'None'
p203
asbasbasbag57
(g73
g59
NtRp204
(dp205
g62
(dp206
sg71
g67
sg64
(lp207
g57
(g78
g59
NtRp208
(dp209
g62
(dp210
g82
g83
ssg71
g204
sg64
(lp211
S'client'
p212
asbag57
(g78
g59
NtRp213
(dp214
g62
(dp215
g89
g90
ssg71
g204
sg64
(lp216
S':'
asbag57
(g78
g59
NtRp217
(dp218
g62
(dp219
sg71
g204
sg64
(lp220
g57
(g58
g59
NtRp221
(dp222
g62
(dp223
g70
I5
ssg71
g217
sg64
(lp224
S'127.0.0.1'
p225
asbasbasbag57
(g73
g59
NtRp226
(dp227
g62
(dp228
sg71
g67
sg64
(lp229
g57
(g78
g59
NtRp230
(dp231
g62
(dp232
g82
g83
ssg71
g226
sg64
(lp233
S'controller'
p234
asbag57
(g78
g59
NtRp235
(dp236
g62
(dp237
g89
g90
ssg71
g226
sg64
(lp238
S':'
asbag57
(g78
g59
NtRp239
(dp240
g62
(dp241
sg71
g226
sg64
(lp242
g57
(g58
g59
NtRp243
(dp244
g62
(dp245
g70
I5
ssg71
g239
sg64
(lp246
S'administrator'
p247
asbasbasbag57
(g73
g59
NtRp248
(dp249
g62
(dp250
sg71
g67
sg64
(lp251
g57
(g78
g59
NtRp252
(dp253
g62
(dp254
g82
g83
ssg71
g248
sg64
(lp255
S'cookies'
p256
asbag57
(g78
g59
NtRp257
(dp258
g62
(dp259
g89
g90
ssg71
g248
sg64
(lp260
S':'
asbag57
(g78
g59
NtRp261
(dp262
g62
(dp263
sg71
g248
sg64
(lp264
g57
(g58
g59
NtRp265
(dp266
g62
(dp267
g70
I5
ssg71
g261
sg64
(lp268
g57
(g66
g59
NtRp269
(dp270
g62
(dp271
g70
I4
ssg71
Nsg64
(lp272
g57
(g73
g59
NtRp273
(dp274
g62
(dp275
sg71
g269
sg64
(lp276
g57
(g78
g59
NtRp277
(dp278
g62
(dp279
g82
g83
ssg71
g273
sg64
(lp280
S'kaej_unique_user'
p281
asbag57
(g78
g59
NtRp282
(dp283
g62
(dp284
g89
g90
ssg71
g273
sg64
(lp285
S':'
asbag57
(g78
g59
NtRp286
(dp287
g62
(dp288
sg71
g273
sg64
(lp289
g57
(g58
g59
NtRp290
(dp291
g62
(dp292
g70
I4
ssg71
g286
sg64
(lp293
S'1'
ag57
(g66
g59
NtRp294
(dp295
g62
(dp296
g70
I3
ssg71
Nsg64
(lp297
g57
(g73
g59
NtRp298
(dp299
g62
(dp300
sg71
g294
sg64
(lp301
g57
(g78
g59
NtRp302
(dp303
g62
(dp304
g82
g83
ssg71
g298
sg64
(lp305
S'comment'
p306
asbag57
(g78
g59
NtRp307
(dp308
g62
(dp309
g89
g90
ssg71
g298
sg64
(lp310
S':'
asbag57
(g78
g59
NtRp311
(dp312
g62
(dp313
sg71
g298
sg64
(lp314
g57
(g58
g59
NtRp315
(dp316
g62
(dp317
g70
I3
ssg71
g311
sg64
(lp318
S''
asbasbasbag57
(g73
g59
NtRp319
(dp320
g62
(dp321
sg71
g294
sg64
(lp322
g57
(g78
g59
NtRp323
(dp324
g62
(dp325
g82
g83
ssg71
g319
sg64
(lp326
S'domain'
p327
asbag57
(g78
g59
NtRp328
(dp329
g62
(dp330
g89
g90
ssg71
g319
sg64
(lp331
S':'
asbag57
(g78
g59
NtRp332
(dp333
g62
(dp334
sg71
g319
sg64
(lp335
g57
(g58
g59
NtRp336
(dp337
g62
(dp338
g70
I3
ssg71
g332
sg64
(lp339
S''
asbasbasbag57
(g73
g59
NtRp340
(dp341
g62
(dp342
sg71
g294
sg64
(lp343
g57
(g78
g59
NtRp344
(dp345
g62
(dp346
g82
g83
ssg71
g340
sg64
(lp347
S'expires'
p348
asbag57
(g78
g59
NtRp349
(dp350
g62
(dp351
g89
g90
ssg71
g340
sg64
(lp352
S':'
asbag57
(g78
g59
NtRp353
(dp354
g62
(dp355
sg71
g340
sg64
(lp356
g57
(g58
g59
NtRp357
(dp358
g62
(dp359
g70
I3
ssg71
g353
sg64
(lp360
S''
asbasbasbag57
(g73
g59
NtRp361
(dp362
g62
(dp363
sg71
g294
sg64
(lp364
g57
(g78
g59
NtRp365
(dp366
g62
(dp367
g82
g83
ssg71
g361
sg64
(lp368
S'httponly'
p369
asbag57
(g78
g59
NtRp370
(dp371
g62
(dp372
g89
g90
ssg71
g361
sg64
(lp373
S':'
asbag57
(g78
g59
NtRp374
(dp375
g62
(dp376
sg71
g361
sg64
(lp377
g57
(g58
g59
NtRp378
(dp379
g62
(dp380
g70
I3
ssg71
g374
sg64
(lp381
S''
asbasbasbag57
(g73
g59
NtRp382
(dp383
g62
(dp384
sg71
g294
sg64
(lp385
g57
(g78
g59
NtRp386
(dp387
g62
(dp388
g82
g83
ssg71
g382
sg64
(lp389
S'max-age'
p390
asbag57
(g78
g59
NtRp391
(dp392
g62
(dp393
g89
g90
ssg71
g382
sg64
(lp394
S':'
asbag57
(g78
g59
NtRp395
(dp396
g62
(dp397
sg71
g382
sg64
(lp398
g57
(g58
g59
NtRp399
(dp400
g62
(dp401
g70
I3
ssg71
g395
sg64
(lp402
S''
asbasbasbag57
(g73
g59
NtRp403
(dp404
g62
(dp405
sg71
g294
sg64
(lp406
g57
(g78
g59
NtRp407
(dp408
g62
(dp409
g82
g83
ssg71
g403
sg64
(lp410
S'path'
p411
asbag57
(g78
g59
NtRp412
(dp413
g62
(dp414
g89
g90
ssg71
g403
sg64
(lp415
S':'
asbag57
(g78
g59
NtRp416
(dp417
g62
(dp418
sg71
g403
sg64
(lp419
g57
(g58
g59
NtRp420
(dp421
g62
(dp422
g70
I3
ssg71
g416
sg64
(lp423
S''
asbasbasbag57
(g73
g59
NtRp424
(dp425
g62
(dp426
sg71
g294
sg64
(lp427
g57
(g78
g59
NtRp428
(dp429
g62
(dp430
g82
g83
ssg71
g424
sg64
(lp431
S'secure'
p432
asbag57
(g78
g59
NtRp433
(dp434
g62
(dp435
g89
g90
ssg71
g424
sg64
(lp436
S':'
asbag57
(g78
g59
NtRp437
(dp438
g62
(dp439
sg71
g424
sg64
(lp440
g57
(g58
g59
NtRp441
(dp442
g62
(dp443
g70
I3
ssg71
g437
sg64
(lp444
S''
asbasbasbag57
(g73
g59
NtRp445
(dp446
g62
(dp447
sg71
g294
sg64
(lp448
g57
(g78
g59
NtRp449
(dp450
g62
(dp451
g82
g83
ssg71
g445
sg64
(lp452
S'version'
p453
asbag57
(g78
g59
NtRp454
(dp455
g62
(dp456
g89
g90
ssg71
g445
sg64
(lp457
S':'
asbag57
(g78
g59
NtRp458
(dp459
g62
(dp460
sg71
g445
sg64
(lp461
g57
(g58
g59
NtRp462
(dp463
g62
(dp464
g70
I3
ssg71
g458
sg64
(lp465
S''
asbasbasbasbasbasbasbag57
(g73
g59
NtRp466
(dp467
g62
(dp468
sg71
g269
sg64
(lp469
g57
(g78
g59
NtRp470
(dp471
g62
(dp472
g82
g83
ssg71
g466
sg64
(lp473
S'session_id_admin'
p474
asbag57
(g78
g59
NtRp475
(dp476
g62
(dp477
g89
g90
ssg71
g466
sg64
(lp478
S':'
asbag57
(g78
g59
NtRp479
(dp480
g62
(dp481
sg71
g466
sg64
(lp482
g57
(g58
g59
NtRp483
(dp484
g62
(dp485
g70
I4
ssg71
g479
sg64
(lp486
S'127.0.0.1-1e4e694e-d5f8-4d88-a93e-f8017e171c5b'
p487
ag57
(g66
g59
NtRp488
(dp489
g62
(dp490
g70
I3
ssg71
Nsg64
(lp491
g57
(g73
g59
NtRp492
(dp493
g62
(dp494
sg71
g488
sg64
(lp495
g57
(g78
g59
NtRp496
(dp497
g62
(dp498
g82
g83
ssg71
g492
sg64
(lp499
g306
asbag57
(g78
g59
NtRp500
(dp501
g62
(dp502
g89
g90
ssg71
g492
sg64
(lp503
S':'
asbag57
(g78
g59
NtRp504
(dp505
g62
(dp506
sg71
g492
sg64
(lp507
g57
(g58
g59
NtRp508
(dp509
g62
(dp510
g70
I3
ssg71
g504
sg64
(lp511
S''
asbasbasbag57
(g73
g59
NtRp512
(dp513
g62
(dp514
sg71
g488
sg64
(lp515
g57
(g78
g59
NtRp516
(dp517
g62
(dp518
g82
g83
ssg71
g512
sg64
(lp519
g327
asbag57
(g78
g59
NtRp520
(dp521
g62
(dp522
g89
g90
ssg71
g512
sg64
(lp523
S':'
asbag57
(g78
g59
NtRp524
(dp525
g62
(dp526
sg71
g512
sg64
(lp527
g57
(g58
g59
NtRp528
(dp529
g62
(dp530
g70
I3
ssg71
g524
sg64
(lp531
S''
asbasbasbag57
(g73
g59
NtRp532
(dp533
g62
(dp534
sg71
g488
sg64
(lp535
g57
(g78
g59
NtRp536
(dp537
g62
(dp538
g82
g83
ssg71
g532
sg64
(lp539
g348
asbag57
(g78
g59
NtRp540
(dp541
g62
(dp542
g89
g90
ssg71
g532
sg64
(lp543
S':'
asbag57
(g78
g59
NtRp544
(dp545
g62
(dp546
sg71
g532
sg64
(lp547
g57
(g58
g59
NtRp548
(dp549
g62
(dp550
g70
I3
ssg71
g544
sg64
(lp551
S''
asbasbasbag57
(g73
g59
NtRp552
(dp553
g62
(dp554
sg71
g488
sg64
(lp555
g57
(g78
g59
NtRp556
(dp557
g62
(dp558
g82
g83
ssg71
g552
sg64
(lp559
g369
asbag57
(g78
g59
NtRp560
(dp561
g62
(dp562
g89
g90
ssg71
g552
sg64
(lp563
S':'
asbag57
(g78
g59
NtRp564
(dp565
g62
(dp566
sg71
g552
sg64
(lp567
g57
(g58
g59
NtRp568
(dp569
g62
(dp570
g70
I3
ssg71
g564
sg64
(lp571
S''
asbasbasbag57
(g73
g59
NtRp572
(dp573
g62
(dp574
sg71
g488
sg64
(lp575
g57
(g78
g59
NtRp576
(dp577
g62
(dp578
g82
g83
ssg71
g572
sg64
(lp579
g390
asbag57
(g78
g59
NtRp580
(dp581
g62
(dp582
g89
g90
ssg71
g572
sg64
(lp583
S':'
asbag57
(g78
g59
NtRp584
(dp585
g62
(dp586
sg71
g572
sg64
(lp587
g57
(g58
g59
NtRp588
(dp589
g62
(dp590
g70
I3
ssg71
g584
sg64
(lp591
S''
asbasbasbag57
(g73
g59
NtRp592
(dp593
g62
(dp594
sg71
g488
sg64
(lp595
g57
(g78
g59
NtRp596
(dp597
g62
(dp598
g82
g83
ssg71
g592
sg64
(lp599
g411
asbag57
(g78
g59
NtRp600
(dp601
g62
(dp602
g89
g90
ssg71
g592
sg64
(lp603
S':'
asbag57
(g78
g59
NtRp604
(dp605
g62
(dp606
sg71
g592
sg64
(lp607
g57
(g58
g59
NtRp608
(dp609
g62
(dp610
g70
I3
ssg71
g604
sg64
(lp611
S''
asbasbasbag57
(g73
g59
NtRp612
(dp613
g62
(dp614
sg71
g488
sg64
(lp615
g57
(g78
g59
NtRp616
(dp617
g62
(dp618
g82
g83
ssg71
g612
sg64
(lp619
g432
asbag57
(g78
g59
NtRp620
(dp621
g62
(dp622
g89
g90
ssg71
g612
sg64
(lp623
S':'
asbag57
(g78
g59
NtRp624
(dp625
g62
(dp626
sg71
g612
sg64
(lp627
g57
(g58
g59
NtRp628
(dp629
g62
(dp630
g70
I3
ssg71
g624
sg64
(lp631
S''
asbasbasbag57
(g73
g59
NtRp632
(dp633
g62
(dp634
sg71
g488
sg64
(lp635
g57
(g78
g59
NtRp636
(dp637
g62
(dp638
g82
g83
ssg71
g632
sg64
(lp639
g453
asbag57
(g78
g59
NtRp640
(dp641
g62
(dp642
g89
g90
ssg71
g632
sg64
(lp643
S':'
asbag57
(g78
g59
NtRp644
(dp645
g62
(dp646
sg71
g632
sg64
(lp647
g57
(g58
g59
NtRp648
(dp649
g62
(dp650
g70
I3
ssg71
g644
sg64
(lp651
S''
asbasbasbasbasbasbasbag57
(g73
g59
NtRp652
(dp653
g62
(dp654
sg71
g269
sg64
(lp655
g57
(g78
g59
NtRp656
(dp657
g62
(dp658
g82
g83
ssg71
g652
sg64
(lp659
S'session_id_cygnuscloud'
p660
asbag57
(g78
g59
NtRp661
(dp662
g62
(dp663
g89
g90
ssg71
g652
sg64
(lp664
S':'
asbag57
(g78
g59
NtRp665
(dp666
g62
(dp667
sg71
g652
sg64
(lp668
g57
(g58
g59
NtRp669
(dp670
g62
(dp671
g70
I4
ssg71
g665
sg64
(lp672
S'127.0.0.1-94b597fa-52b2-4481-ad0f-59b1fd37bc50'
p673
ag57
(g66
g59
NtRp674
(dp675
g62
(dp676
g70
I3
ssg71
Nsg64
(lp677
g57
(g73
g59
NtRp678
(dp679
g62
(dp680
sg71
g674
sg64
(lp681
g57
(g78
g59
NtRp682
(dp683
g62
(dp684
g82
g83
ssg71
g678
sg64
(lp685
g306
asbag57
(g78
g59
NtRp686
(dp687
g62
(dp688
g89
g90
ssg71
g678
sg64
(lp689
S':'
asbag57
(g78
g59
NtRp690
(dp691
g62
(dp692
sg71
g678
sg64
(lp693
g57
(g58
g59
NtRp694
(dp695
g62
(dp696
g70
I3
ssg71
g690
sg64
(lp697
S''
asbasbasbag57
(g73
g59
NtRp698
(dp699
g62
(dp700
sg71
g674
sg64
(lp701
g57
(g78
g59
NtRp702
(dp703
g62
(dp704
g82
g83
ssg71
g698
sg64
(lp705
g327
asbag57
(g78
g59
NtRp706
(dp707
g62
(dp708
g89
g90
ssg71
g698
sg64
(lp709
S':'
asbag57
(g78
g59
NtRp710
(dp711
g62
(dp712
sg71
g698
sg64
(lp713
g57
(g58
g59
NtRp714
(dp715
g62
(dp716
g70
I3
ssg71
g710
sg64
(lp717
S''
asbasbasbag57
(g73
g59
NtRp718
(dp719
g62
(dp720
sg71
g674
sg64
(lp721
g57
(g78
g59
NtRp722
(dp723
g62
(dp724
g82
g83
ssg71
g718
sg64
(lp725
g348
asbag57
(g78
g59
NtRp726
(dp727
g62
(dp728
g89
g90
ssg71
g718
sg64
(lp729
S':'
asbag57
(g78
g59
NtRp730
(dp731
g62
(dp732
sg71
g718
sg64
(lp733
g57
(g58
g59
NtRp734
(dp735
g62
(dp736
g70
I3
ssg71
g730
sg64
(lp737
S''
asbasbasbag57
(g73
g59
NtRp738
(dp739
g62
(dp740
sg71
g674
sg64
(lp741
g57
(g78
g59
NtRp742
(dp743
g62
(dp744
g82
g83
ssg71
g738
sg64
(lp745
g369
asbag57
(g78
g59
NtRp746
(dp747
g62
(dp748
g89
g90
ssg71
g738
sg64
(lp749
S':'
asbag57
(g78
g59
NtRp750
(dp751
g62
(dp752
sg71
g738
sg64
(lp753
g57
(g58
g59
NtRp754
(dp755
g62
(dp756
g70
I3
ssg71
g750
sg64
(lp757
S''
asbasbasbag57
(g73
g59
NtRp758
(dp759
g62
(dp760
sg71
g674
sg64
(lp761
g57
(g78
g59
NtRp762
(dp763
g62
(dp764
g82
g83
ssg71
g758
sg64
(lp765
g390
asbag57
(g78
g59
NtRp766
(dp767
g62
(dp768
g89
g90
ssg71
g758
sg64
(lp769
S':'
asbag57
(g78
g59
NtRp770
(dp771
g62
(dp772
sg71
g758
sg64
(lp773
g57
(g58
g59
NtRp774
(dp775
g62
(dp776
g70
I3
ssg71
g770
sg64
(lp777
S''
asbasbasbag57
(g73
g59
NtRp778
(dp779
g62
(dp780
sg71
g674
sg64
(lp781
g57
(g78
g59
NtRp782
(dp783
g62
(dp784
g82
g83
ssg71
g778
sg64
(lp785
g411
asbag57
(g78
g59
NtRp786
(dp787
g62
(dp788
g89
g90
ssg71
g778
sg64
(lp789
S':'
asbag57
(g78
g59
NtRp790
(dp791
g62
(dp792
sg71
g778
sg64
(lp793
g57
(g58
g59
NtRp794
(dp795
g62
(dp796
g70
I3
ssg71
g790
sg64
(lp797
S''
asbasbasbag57
(g73
g59
NtRp798
(dp799
g62
(dp800
sg71
g674
sg64
(lp801
g57
(g78
g59
NtRp802
(dp803
g62
(dp804
g82
g83
ssg71
g798
sg64
(lp805
g432
asbag57
(g78
g59
NtRp806
(dp807
g62
(dp808
g89
g90
ssg71
g798
sg64
(lp809
S':'
asbag57
(g78
g59
NtRp810
(dp811
g62
(dp812
sg71
g798
sg64
(lp813
g57
(g58
g59
NtRp814
(dp815
g62
(dp816
g70
I3
ssg71
g810
sg64
(lp817
S''
asbasbasbag57
(g73
g59
NtRp818
(dp819
g62
(dp820
sg71
g674
sg64
(lp821
g57
(g78
g59
NtRp822
(dp823
g62
(dp824
g82
g83
ssg71
g818
sg64
(lp825
g453
asbag57
(g78
g59
NtRp826
(dp827
g62
(dp828
g89
g90
ssg71
g818
sg64
(lp829
S':'
asbag57
(g78
g59
NtRp830
(dp831
g62
(dp832
sg71
g818
sg64
(lp833
g57
(g58
g59
NtRp834
(dp835
g62
(dp836
g70
I3
ssg71
g830
sg64
(lp837
S''
asbasbasbasbasbasbasbag57
(g73
g59
NtRp838
(dp839
g62
(dp840
sg71
g269
sg64
(lp841
g57
(g78
g59
NtRp842
(dp843
g62
(dp844
g82
g83
ssg71
g838
sg64
(lp845
S'session_id_welcome'
p846
asbag57
(g78
g59
NtRp847
(dp848
g62
(dp849
g89
g90
ssg71
g838
sg64
(lp850
S':'
asbag57
(g78
g59
NtRp851
(dp852
g62
(dp853
sg71
g838
sg64
(lp854
g57
(g58
g59
NtRp855
(dp856
g62
(dp857
g70
I4
ssg71
g851
sg64
(lp858
S'127.0.0.1-dc424825-7eb3-4a25-8c10-933ddf67e6c2'
p859
ag57
(g66
g59
NtRp860
(dp861
g62
(dp862
g70
I3
ssg71
Nsg64
(lp863
g57
(g73
g59
NtRp864
(dp865
g62
(dp866
sg71
g860
sg64
(lp867
g57
(g78
g59
NtRp868
(dp869
g62
(dp870
g82
g83
ssg71
g864
sg64
(lp871
g306
asbag57
(g78
g59
NtRp872
(dp873
g62
(dp874
g89
g90
ssg71
g864
sg64
(lp875
S':'
asbag57
(g78
g59
NtRp876
(dp877
g62
(dp878
sg71
g864
sg64
(lp879
g57
(g58
g59
NtRp880
(dp881
g62
(dp882
g70
I3
ssg71
g876
sg64
(lp883
S''
asbasbasbag57
(g73
g59
NtRp884
(dp885
g62
(dp886
sg71
g860
sg64
(lp887
g57
(g78
g59
NtRp888
(dp889
g62
(dp890
g82
g83
ssg71
g884
sg64
(lp891
g327
asbag57
(g78
g59
NtRp892
(dp893
g62
(dp894
g89
g90
ssg71
g884
sg64
(lp895
S':'
asbag57
(g78
g59
NtRp896
(dp897
g62
(dp898
sg71
g884
sg64
(lp899
g57
(g58
g59
NtRp900
(dp901
g62
(dp902
g70
I3
ssg71
g896
sg64
(lp903
S''
asbasbasbag57
(g73
g59
NtRp904
(dp905
g62
(dp906
sg71
g860
sg64
(lp907
g57
(g78
g59
NtRp908
(dp909
g62
(dp910
g82
g83
ssg71
g904
sg64
(lp911
g348
asbag57
(g78
g59
NtRp912
(dp913
g62
(dp914
g89
g90
ssg71
g904
sg64
(lp915
S':'
asbag57
(g78
g59
NtRp916
(dp917
g62
(dp918
sg71
g904
sg64
(lp919
g57
(g58
g59
NtRp920
(dp921
g62
(dp922
g70
I3
ssg71
g916
sg64
(lp923
S''
asbasbasbag57
(g73
g59
NtRp924
(dp925
g62
(dp926
sg71
g860
sg64
(lp927
g57
(g78
g59
NtRp928
(dp929
g62
(dp930
g82
g83
ssg71
g924
sg64
(lp931
g369
asbag57
(g78
g59
NtRp932
(dp933
g62
(dp934
g89
g90
ssg71
g924
sg64
(lp935
S':'
asbag57
(g78
g59
NtRp936
(dp937
g62
(dp938
sg71
g924
sg64
(lp939
g57
(g58
g59
NtRp940
(dp941
g62
(dp942
g70
I3
ssg71
g936
sg64
(lp943
S''
asbasbasbag57
(g73
g59
NtRp944
(dp945
g62
(dp946
sg71
g860
sg64
(lp947
g57
(g78
g59
NtRp948
(dp949
g62
(dp950
g82
g83
ssg71
g944
sg64
(lp951
g390
asbag57
(g78
g59
NtRp952
(dp953
g62
(dp954
g89
g90
ssg71
g944
sg64
(lp955
S':'
asbag57
(g78
g59
NtRp956
(dp957
g62
(dp958
sg71
g944
sg64
(lp959
g57
(g58
g59
NtRp960
(dp961
g62
(dp962
g70
I3
ssg71
g956
sg64
(lp963
S''
asbasbasbag57
(g73
g59
NtRp964
(dp965
g62
(dp966
sg71
g860
sg64
(lp967
g57
(g78
g59
NtRp968
(dp969
g62
(dp970
g82
g83
ssg71
g964
sg64
(lp971
g411
asbag57
(g78
g59
NtRp972
(dp973
g62
(dp974
g89
g90
ssg71
g964
sg64
(lp975
S':'
asbag57
(g78
g59
NtRp976
(dp977
g62
(dp978
sg71
g964
sg64
(lp979
g57
(g58
g59
NtRp980
(dp981
g62
(dp982
g70
I3
ssg71
g976
sg64
(lp983
S''
asbasbasbag57
(g73
g59
NtRp984
(dp985
g62
(dp986
sg71
g860
sg64
(lp987
g57
(g78
g59
NtRp988
(dp989
g62
(dp990
g82
g83
ssg71
g984
sg64
(lp991
g432
asbag57
(g78
g59
NtRp992
(dp993
g62
(dp994
g89
g90
ssg71
g984
sg64
(lp995
S':'
asbag57
(g78
g59
NtRp996
(dp997
g62
(dp998
sg71
g984
sg64
(lp999
g57
(g58
g59
NtRp1000
(dp1001
g62
(dp1002
g70
I3
ssg71
g996
sg64
(lp1003
S''
asbasbasbag57
(g73
g59
NtRp1004
(dp1005
g62
(dp1006
sg71
g860
sg64
(lp1007
g57
(g78
g59
NtRp1008
(dp1009
g62
(dp1010
g82
g83
ssg71
g1004
sg64
(lp1011
g453
asbag57
(g78
g59
NtRp1012
(dp1013
g62
(dp1014
g89
g90
ssg71
g1004
sg64
(lp1015
S':'
asbag57
(g78
g59
NtRp1016
(dp1017
g62
(dp1018
sg71
g1004
sg64
(lp1019
g57
(g58
g59
NtRp1020
(dp1021
g62
(dp1022
g70
I3
ssg71
g1016
sg64
(lp1023
S''
asbasbasbasbasbasbasbasbasbasbasbag57
(g73
g59
NtRp1024
(dp1025
g62
(dp1026
sg71
g67
sg64
(lp1027
g57
(g78
g59
NtRp1028
(dp1029
g62
(dp1030
g82
g83
ssg71
g1024
sg64
(lp1031
S'env'
p1032
asbag57
(g78
g59
NtRp1033
(dp1034
g62
(dp1035
g89
g90
ssg71
g1024
sg64
(lp1036
S':'
asbag57
(g78
g59
NtRp1037
(dp1038
g62
(dp1039
sg71
g1024
sg64
(lp1040
g57
(g58
g59
NtRp1041
(dp1042
g62
(dp1043
g70
I5
ssg71
g1037
sg64
(lp1044
g57
(g66
g59
NtRp1045
(dp1046
g62
(dp1047
g70
I4
ssg71
Nsg64
(lp1048
g57
(g73
g59
NtRp1049
(dp1050
g62
(dp1051
sg71
g1045
sg64
(lp1052
g57
(g78
g59
NtRp1053
(dp1054
g62
(dp1055
g82
g83
ssg71
g1049
sg64
(lp1056
S'app_folders'
p1057
asbag57
(g78
g59
NtRp1058
(dp1059
g62
(dp1060
g89
g90
ssg71
g1049
sg64
(lp1061
S':'
asbag57
(g78
g59
NtRp1062
(dp1063
g62
(dp1064
sg71
g1049
sg64
(lp1065
g57
(g58
g59
NtRp1066
(dp1067
g62
(dp1068
g70
I4
ssg71
g1062
sg64
(lp1069
S"set(['/home/adrian/web2py/applications/admin/', '/home/adrian/web2py/applications/CygnusCloud/'])"
p1070
asbasbasbag57
(g73
g59
NtRp1071
(dp1072
g62
(dp1073
sg71
g1045
sg64
(lp1074
g57
(g78
g59
NtRp1075
(dp1076
g62
(dp1077
g82
g83
ssg71
g1071
sg64
(lp1078
S'applications_parent'
p1079
asbag57
(g78
g59
NtRp1080
(dp1081
g62
(dp1082
g89
g90
ssg71
g1071
sg64
(lp1083
S':'
asbag57
(g78
g59
NtRp1084
(dp1085
g62
(dp1086
sg71
g1071
sg64
(lp1087
g57
(g58
g59
NtRp1088
(dp1089
g62
(dp1090
g70
I4
ssg71
g1084
sg64
(lp1091
S'/home/adrian/web2py'
p1092
asbasbasbag57
(g73
g59
NtRp1093
(dp1094
g62
(dp1095
sg71
g1045
sg64
(lp1096
g57
(g78
g59
NtRp1097
(dp1098
g62
(dp1099
g82
g83
ssg71
g1093
sg64
(lp1100
S'cmd_args'
p1101
asbag57
(g78
g59
NtRp1102
(dp1103
g62
(dp1104
g89
g90
ssg71
g1093
sg64
(lp1105
S':'
asbag57
(g78
g59
NtRp1106
(dp1107
g62
(dp1108
sg71
g1093
sg64
(lp1109
g57
(g58
g59
NtRp1110
(dp1111
g62
(dp1112
g70
I4
ssg71
g1106
sg64
(lp1113
g57
(g66
g59
NtRp1114
(dp1115
g62
(dp1116
g70
I3
ssg71
Nsg64
(lp1117
sbasbasbasbag57
(g73
g59
NtRp1118
(dp1119
g62
(dp1120
sg71
g1045
sg64
(lp1121
g57
(g78
g59
NtRp1122
(dp1123
g62
(dp1124
g82
g83
ssg71
g1118
sg64
(lp1125
S'cmd_options'
p1126
asbag57
(g78
g59
NtRp1127
(dp1128
g62
(dp1129
g89
g90
ssg71
g1118
sg64
(lp1130
S':'
asbag57
(g78
g59
NtRp1131
(dp1132
g62
(dp1133
sg71
g1118
sg64
(lp1134
g57
(g58
g59
NtRp1135
(dp1136
g62
(dp1137
g70
I4
ssg71
g1131
sg64
(lp1138
S"<Values at 0x221dbd8: {'verbose': False, 'ip': '127.0.0.1', 'with_scheduler': False, 'ips': [], 'shutdown_timeout': 5, 'taskbar': False, 'port': 8000, 'maxthreads': None, 'softcron': False, 'server_name': 'adri-EasyNote', 'bpython': False, 'nogui': False, 'pid_filename': 'httpserver.pid', 'extcron': False, 'runcron': False, 'run_system_tests': False, 'test': None, 'folder': '/home/adrian/web2py', 'config': '', 'minthreads': None, 'winservice': '', 'shell': None, 'run': '', 'log_filename': 'httpserver.log', 'debuglevel': 30, 'args': [''], 'socket_timeout': 5, 'ssl_ca_certificate': None, 'scheduler': None, 'profiler_filename': None, 'ssl_private_key': '', 'scheduler_groups': None, 'password': 'cygnuscloud2012', 'request_queue_size': 5, 'ssl_certificate': '', 'cronjob': False, 'numthreads': None, 'quiet': False, 'interfaces': None, 'import_models': False, 'timeout': 10, 'plain': False, 'nobanner': False}>"
p1139
asbasbasbag57
(g73
g59
NtRp1140
(dp1141
g62
(dp1142
sg71
g1045
sg64
(lp1143
g57
(g78
g59
NtRp1144
(dp1145
g62
(dp1146
g82
g83
ssg71
g1140
sg64
(lp1147
S'content_length'
p1148
asbag57
(g78
g59
NtRp1149
(dp1150
g62
(dp1151
g89
g90
ssg71
g1140
sg64
(lp1152
S':'
asbag57
(g78
g59
NtRp1153
(dp1154
g62
(dp1155
sg71
g1140
sg64
(lp1156
g57
(g58
g59
NtRp1157
(dp1158
g62
(dp1159
g70
I4
ssg71
g1153
sg64
(lp1160
S'556'
p1161
asbasbasbag57
(g73
g59
NtRp1162
(dp1163
g62
(dp1164
sg71
g1045
sg64
(lp1165
g57
(g78
g59
NtRp1166
(dp1167
g62
(dp1168
g82
g83
ssg71
g1162
sg64
(lp1169
S'content_type'
p1170
asbag57
(g78
g59
NtRp1171
(dp1172
g62
(dp1173
g89
g90
ssg71
g1162
sg64
(lp1174
S':'
asbag57
(g78
g59
NtRp1175
(dp1176
g62
(dp1177
sg71
g1162
sg64
(lp1178
g57
(g58
g59
NtRp1179
(dp1180
g62
(dp1181
g70
I4
ssg71
g1175
sg64
(lp1182
S'multipart/form-data; boundary=----WebKitFormBoundarysLrT53YBuRmI9Pwk'
p1183
asbasbasbag57
(g73
g59
NtRp1184
(dp1185
g62
(dp1186
sg71
g1045
sg64
(lp1187
g57
(g78
g59
NtRp1188
(dp1189
g62
(dp1190
g82
g83
ssg71
g1184
sg64
(lp1191
S'db_sessions'
p1192
asbag57
(g78
g59
NtRp1193
(dp1194
g62
(dp1195
g89
g90
ssg71
g1184
sg64
(lp1196
S':'
asbag57
(g78
g59
NtRp1197
(dp1198
g62
(dp1199
sg71
g1184
sg64
(lp1200
g57
(g58
g59
NtRp1201
(dp1202
g62
(dp1203
g70
I4
ssg71
g1197
sg64
(lp1204
S'set([])'
p1205
asbasbasbag57
(g73
g59
NtRp1206
(dp1207
g62
(dp1208
sg71
g1045
sg64
(lp1209
g57
(g78
g59
NtRp1210
(dp1211
g62
(dp1212
g82
g83
ssg71
g1206
sg64
(lp1213
S'debugging'
p1214
asbag57
(g78
g59
NtRp1215
(dp1216
g62
(dp1217
g89
g90
ssg71
g1206
sg64
(lp1218
S':'
asbag57
(g78
g59
NtRp1219
(dp1220
g62
(dp1221
sg71
g1206
sg64
(lp1222
g57
(g58
g59
NtRp1223
(dp1224
g62
(dp1225
g70
I4
ssg71
g1219
sg64
(lp1226
g100
asbasbasbag57
(g73
g59
NtRp1227
(dp1228
g62
(dp1229
sg71
g1045
sg64
(lp1230
g57
(g78
g59
NtRp1231
(dp1232
g62
(dp1233
g82
g83
ssg71
g1227
sg64
(lp1234
S'gluon_parent'
p1235
asbag57
(g78
g59
NtRp1236
(dp1237
g62
(dp1238
g89
g90
ssg71
g1227
sg64
(lp1239
S':'
asbag57
(g78
g59
NtRp1240
(dp1241
g62
(dp1242
sg71
g1227
sg64
(lp1243
g57
(g58
g59
NtRp1244
(dp1245
g62
(dp1246
g70
I4
ssg71
g1240
sg64
(lp1247
S'/home/adrian/web2py'
p1248
asbasbasbag57
(g73
g59
NtRp1249
(dp1250
g62
(dp1251
sg71
g1045
sg64
(lp1252
g57
(g78
g59
NtRp1253
(dp1254
g62
(dp1255
g82
g83
ssg71
g1249
sg64
(lp1256
S'http_accept'
p1257
asbag57
(g78
g59
NtRp1258
(dp1259
g62
(dp1260
g89
g90
ssg71
g1249
sg64
(lp1261
S':'
asbag57
(g78
g59
NtRp1262
(dp1263
g62
(dp1264
sg71
g1249
sg64
(lp1265
g57
(g58
g59
NtRp1266
(dp1267
g62
(dp1268
g70
I4
ssg71
g1262
sg64
(lp1269
S'text/html,application/xhtml+xml,application/xml;q=0.9,*/*;q=0.8'
p1270
asbasbasbag57
(g73
g59
NtRp1271
(dp1272
g62
(dp1273
sg71
g1045
sg64
(lp1274
g57
(g78
g59
NtRp1275
(dp1276
g62
(dp1277
g82
g83
ssg71
g1271
sg64
(lp1278
S'http_accept_charset'
p1279
asbag57
(g78
g59
NtRp1280
(dp1281
g62
(dp1282
g89
g90
ssg71
g1271
sg64
(lp1283
S':'
asbag57
(g78
g59
NtRp1284
(dp1285
g62
(dp1286
sg71
g1271
sg64
(lp1287
g57
(g58
g59
NtRp1288
(dp1289
g62
(dp1290
g70
I4
ssg71
g1284
sg64
(lp1291
S'ISO-8859-1,utf-8;q=0.7,*;q=0.3'
p1292
asbasbasbag57
(g73
g59
NtRp1293
(dp1294
g62
(dp1295
sg71
g1045
sg64
(lp1296
g57
(g78
g59
NtRp1297
(dp1298
g62
(dp1299
g82
g83
ssg71
g1293
sg64
(lp1300
S'http_accept_encoding'
p1301
asbag57
(g78
g59
NtRp1302
(dp1303
g62
(dp1304
g89
g90
ssg71
g1293
sg64
(lp1305
S':'
asbag57
(g78
g59
NtRp1306
(dp1307
g62
(dp1308
sg71
g1293
sg64
(lp1309
g57
(g58
g59
NtRp1310
(dp1311
g62
(dp1312
g70
I4
ssg71
g1306
sg64
(lp1313
S'gzip,deflate,sdch'
p1314
asbasbasbag57
(g73
g59
NtRp1315
(dp1316
g62
(dp1317
sg71
g1045
sg64
(lp1318
g57
(g78
g59
NtRp1319
(dp1320
g62
(dp1321
g82
g83
ssg71
g1315
sg64
(lp1322
S'http_accept_language'
p1323
asbag57
(g78
g59
NtRp1324
(dp1325
g62
(dp1326
g89
g90
ssg71
g1315
sg64
(lp1327
S':'
asbag57
(g78
g59
NtRp1328
(dp1329
g62
(dp1330
sg71
g1315
sg64
(lp1331
g57
(g58
g59
NtRp1332
(dp1333
g62
(dp1334
g70
I4
ssg71
g1328
sg64
(lp1335
S'es-ES,es;q=0.8'
p1336
asbasbasbag57
(g73
g59
NtRp1337
(dp1338
g62
(dp1339
sg71
g1045
sg64
(lp1340
g57
(g78
g59
NtRp1341
(dp1342
g62
(dp1343
g82
g83
ssg71
g1337
sg64
(lp1344
S'http_cache_control'
p1345
asbag57
(g78
g59
NtRp1346
(dp1347
g62
(dp1348
g89
g90
ssg71
g1337
sg64
(lp1349
S':'
asbag57
(g78
g59
NtRp1350
(dp1351
g62
(dp1352
sg71
g1337
sg64
(lp1353
g57
(g58
g59
NtRp1354
(dp1355
g62
(dp1356
g70
I4
ssg71
g1350
sg64
(lp1357
S'max-age=0'
p1358
asbasbasbag57
(g73
g59
NtRp1359
(dp1360
g62
(dp1361
sg71
g1045
sg64
(lp1362
g57
(g78
g59
NtRp1363
(dp1364
g62
(dp1365
g82
g83
ssg71
g1359
sg64
(lp1366
S'http_connection'
p1367
asbag57
(g78
g59
NtRp1368
(dp1369
g62
(dp1370
g89
g90
ssg71
g1359
sg64
(lp1371
S':'
asbag57
(g78
g59
NtRp1372
(dp1373
g62
(dp1374
sg71
g1359
sg64
(lp1375
g57
(g58
g59
NtRp1376
(dp1377
g62
(dp1378
g70
I4
ssg71
g1372
sg64
(lp1379
S'keep-alive'
p1380
asbasbasbag57
(g73
g59
NtRp1381
(dp1382
g62
(dp1383
sg71
g1045
sg64
(lp1384
g57
(g78
g59
NtRp1385
(dp1386
g62
(dp1387
g82
g83
ssg71
g1381
sg64
(lp1388
S'http_content_length'
p1389
asbag57
(g78
g59
NtRp1390
(dp1391
g62
(dp1392
g89
g90
ssg71
g1381
sg64
(lp1393
S':'
asbag57
(g78
g59
NtRp1394
(dp1395
g62
(dp1396
sg71
g1381
sg64
(lp1397
g57
(g58
g59
NtRp1398
(dp1399
g62
(dp1400
g70
I4
ssg71
g1394
sg64
(lp1401
g1161
asbasbasbag57
(g73
g59
NtRp1402
(dp1403
g62
(dp1404
sg71
g1045
sg64
(lp1405
g57
(g78
g59
NtRp1406
(dp1407
g62
(dp1408
g82
g83
ssg71
g1402
sg64
(lp1409
S'http_content_type'
p1410
asbag57
(g78
g59
NtRp1411
(dp1412
g62
(dp1413
g89
g90
ssg71
g1402
sg64
(lp1414
S':'
asbag57
(g78
g59
NtRp1415
(dp1416
g62
(dp1417
sg71
g1402
sg64
(lp1418
g57
(g58
g59
NtRp1419
(dp1420
g62
(dp1421
g70
I4
ssg71
g1415
sg64
(lp1422
g1183
asbasbasbag57
(g73
g59
NtRp1423
(dp1424
g62
(dp1425
sg71
g1045
sg64
(lp1426
g57
(g78
g59
NtRp1427
(dp1428
g62
(dp1429
g82
g83
ssg71
g1423
sg64
(lp1430
S'http_cookie'
p1431
asbag57
(g78
g59
NtRp1432
(dp1433
g62
(dp1434
g89
g90
ssg71
g1423
sg64
(lp1435
S':'
asbag57
(g78
g59
NtRp1436
(dp1437
g62
(dp1438
sg71
g1423
sg64
(lp1439
g57
(g58
g59
NtRp1440
(dp1441
g62
(dp1442
g70
I4
ssg71
g1436
sg64
(lp1443
S'kaej_unique_user=1; session_id_welcome=127.0.0.1-dc424825-7eb3-4a25-8c10-933ddf67e6c2; session_id_cygnuscloud=127.0.0.1-94b597fa-52b2-4481-ad0f-59b1fd37bc50; session_id_admin=127.0.0.1-1e4e694e-d5f8-4d88-a93e-f8017e171c5b'
p1444
asbasbasbag57
(g73
g59
NtRp1445
(dp1446
g62
(dp1447
sg71
g1045
sg64
(lp1448
g57
(g78
g59
NtRp1449
(dp1450
g62
(dp1451
g82
g83
ssg71
g1445
sg64
(lp1452
S'http_host'
p1453
asbag57
(g78
g59
NtRp1454
(dp1455
g62
(dp1456
g89
g90
ssg71
g1445
sg64
(lp1457
S':'
asbag57
(g78
g59
NtRp1458
(dp1459
g62
(dp1460
sg71
g1445
sg64
(lp1461
g57
(g58
g59
NtRp1462
(dp1463
g62
(dp1464
g70
I4
ssg71
g1458
sg64
(lp1465
S'127.0.0.1:8000'
p1466
asbasbasbag57
(g73
g59
NtRp1467
(dp1468
g62
(dp1469
sg71
g1045
sg64
(lp1470
g57
(g78
g59
NtRp1471
(dp1472
g62
(dp1473
g82
g83
ssg71
g1467
sg64
(lp1474
S'http_origin'
p1475
asbag57
(g78
g59
NtRp1476
(dp1477
g62
(dp1478
g89
g90
ssg71
g1467
sg64
(lp1479
S':'
asbag57
(g78
g59
NtRp1480
(dp1481
g62
(dp1482
sg71
g1467
sg64
(lp1483
g57
(g58
g59
NtRp1484
(dp1485
g62
(dp1486
g70
I4
ssg71
g1480
sg64
(lp1487
S'http://127.0.0.1:8000'
p1488
asbasbasbag57
(g73
g59
NtRp1489
(dp1490
g62
(dp1491
sg71
g1045
sg64
(lp1492
g57
(g78
g59
NtRp1493
(dp1494
g62
(dp1495
g82
g83
ssg71
g1489
sg64
(lp1496
S'http_referer'
p1497
asbag57
(g78
g59
NtRp1498
(dp1499
g62
(dp1500
g89
g90
ssg71
g1489
sg64
(lp1501
S':'
asbag57
(g78
g59
NtRp1502
(dp1503
g62
(dp1504
sg71
g1489
sg64
(lp1505
g57
(g58
g59
NtRp1506
(dp1507
g62
(dp1508
g70
I4
ssg71
g1502
sg64
(lp1509
S'http://127.0.0.1:8000/CygnusCloud/administrator/users/associate_subjects?usersFind=Student1%40ucm.es'
p1510
asbasbasbag57
(g73
g59
NtRp1511
(dp1512
g62
(dp1513
sg71
g1045
sg64
(lp1514
g57
(g78
g59
NtRp1515
(dp1516
g62
(dp1517
g82
g83
ssg71
g1511
sg64
(lp1518
S'http_user_agent'
p1519
asbag57
(g78
g59
NtRp1520
(dp1521
g62
(dp1522
g89
g90
ssg71
g1511
sg64
(lp1523
S':'
asbag57
(g78
g59
NtRp1524
(dp1525
g62
(dp1526
sg71
g1511
sg64
(lp1527
g57
(g58
g59
NtRp1528
(dp1529
g62
(dp1530
g70
I4
ssg71
g1524
sg64
(lp1531
S'Mozilla/5.0 (X11; Linux x86_64) AppleWebKit/537.11 (KHTML, like Gecko) Chrome/23.0.1271.64 Safari/537.11'
p1532
asbasbasbag57
(g73
g59
NtRp1533
(dp1534
g62
(dp1535
sg71
g1045
sg64
(lp1536
g57
(g78
g59
NtRp1537
(dp1538
g62
(dp1539
g82
g83
ssg71
g1533
sg64
(lp1540
S'is_jython'
p1541
asbag57
(g78
g59
NtRp1542
(dp1543
g62
(dp1544
g89
g90
ssg71
g1533
sg64
(lp1545
S':'
asbag57
(g78
g59
NtRp1546
(dp1547
g62
(dp1548
sg71
g1533
sg64
(lp1549
g57
(g58
g59
NtRp1550
(dp1551
g62
(dp1552
g70
I4
ssg71
g1546
sg64
(lp1553
g100
asbasbasbag57
(g73
g59
NtRp1554
(dp1555
g62
(dp1556
sg71
g1045
sg64
(lp1557
g57
(g78
g59
NtRp1558
(dp1559
g62
(dp1560
g82
g83
ssg71
g1554
sg64
(lp1561
S'is_pypy'
p1562
asbag57
(g78
g59
NtRp1563
(dp1564
g62
(dp1565
g89
g90
ssg71
g1554
sg64
(lp1566
S':'
asbag57
(g78
g59
NtRp1567
(dp1568
g62
(dp1569
sg71
g1554
sg64
(lp1570
g57
(g58
g59
NtRp1571
(dp1572
g62
(dp1573
g70
I4
ssg71
g1567
sg64
(lp1574
g100
asbasbasbag57
(g73
g59
NtRp1575
(dp1576
g62
(dp1577
sg71
g1045
sg64
(lp1578
g57
(g78
g59
NtRp1579
(dp1580
g62
(dp1581
g82
g83
ssg71
g1575
sg64
(lp1582
S'local_hosts'
p1583
asbag57
(g78
g59
NtRp1584
(dp1585
g62
(dp1586
g89
g90
ssg71
g1575
sg64
(lp1587
S':'
asbag57
(g78
g59
NtRp1588
(dp1589
g62
(dp1590
sg71
g1575
sg64
(lp1591
g57
(g58
g59
NtRp1592
(dp1593
g62
(dp1594
g70
I4
ssg71
g1588
sg64
(lp1595
g57
(g66
g59
NtRp1596
(dp1597
g62
(dp1598
g70
I3
ssg71
Nsg64
(lp1599
g57
(g73
g59
NtRp1600
(dp1601
g62
(dp1602
sg71
g1596
sg64
(lp1603
g57
(g78
g59
NtRp1604
(dp1605
g62
(dp1606
sg71
g1600
sg64
(lp1607
g57
(g58
g59
NtRp1608
(dp1609
g62
(dp1610
g70
I3
ssg71
g1604
sg64
(lp1611
S'adri-EasyNote'
p1612
asbasbasbag57
(g73
g59
NtRp1613
(dp1614
g62
(dp1615
sg71
g1596
sg64
(lp1616
g57
(g78
g59
NtRp1617
(dp1618
g62
(dp1619
sg71
g1613
sg64
(lp1620
g57
(g58
g59
NtRp1621
(dp1622
g62
(dp1623
g70
I3
ssg71
g1617
sg64
(lp1624
S'::1'
p1625
asbasbasbag57
(g73
g59
NtRp1626
(dp1627
g62
(dp1628
sg71
g1596
sg64
(lp1629
g57
(g78
g59
NtRp1630
(dp1631
g62
(dp1632
sg71
g1626
sg64
(lp1633
g57
(g58
g59
NtRp1634
(dp1635
g62
(dp1636
g70
I3
ssg71
g1630
sg64
(lp1637
S'127.0.1.1'
p1638
asbasbasbag57
(g73
g59
NtRp1639
(dp1640
g62
(dp1641
sg71
g1596
sg64
(lp1642
g57
(g78
g59
NtRp1643
(dp1644
g62
(dp1645
sg71
g1639
sg64
(lp1646
g57
(g58
g59
NtRp1647
(dp1648
g62
(dp1649
g70
I3
ssg71
g1643
sg64
(lp1650
S'::ffff:127.0.0.1'
p1651
asbasbasbag57
(g73
g59
NtRp1652
(dp1653
g62
(dp1654
sg71
g1596
sg64
(lp1655
g57
(g78
g59
NtRp1656
(dp1657
g62
(dp1658
sg71
g1652
sg64
(lp1659
g57
(g58
g59
NtRp1660
(dp1661
g62
(dp1662
g70
I3
ssg71
g1656
sg64
(lp1663
S'127.0.0.1'
p1664
asbasbasbasbasbasbasbag57
(g73
g59
NtRp1665
(dp1666
g62
(dp1667
sg71
g1045
sg64
(lp1668
g57
(g78
g59
NtRp1669
(dp1670
g62
(dp1671
g82
g83
ssg71
g1665
sg64
(lp1672
S'path_info'
p1673
asbag57
(g78
g59
NtRp1674
(dp1675
g62
(dp1676
g89
g90
ssg71
g1665
sg64
(lp1677
S':'
asbag57
(g78
g59
NtRp1678
(dp1679
g62
(dp1680
sg71
g1665
sg64
(lp1681
g57
(g58
g59
NtRp1682
(dp1683
g62
(dp1684
g70
I4
ssg71
g1678
sg64
(lp1685
S'/CygnusCloud/administrator/users/associate_subjects'
p1686
asbasbasbag57
(g73
g59
NtRp1687
(dp1688
g62
(dp1689
sg71
g1045
sg64
(lp1690
g57
(g78
g59
NtRp1691
(dp1692
g62
(dp1693
g82
g83
ssg71
g1687
sg64
(lp1694
S'query_string'
p1695
asbag57
(g78
g59
NtRp1696
(dp1697
g62
(dp1698
g89
g90
ssg71
g1687
sg64
(lp1699
S':'
asbag57
(g78
g59
NtRp1700
(dp1701
g62
(dp1702
sg71
g1687
sg64
(lp1703
g57
(g58
g59
NtRp1704
(dp1705
g62
(dp1706
g70
I4
ssg71
g1700
sg64
(lp1707
S'usersFind=Student1%40ucm.es'
p1708
asbasbasbag57
(g73
g59
NtRp1709
(dp1710
g62
(dp1711
sg71
g1045
sg64
(lp1712
g57
(g78
g59
NtRp1713
(dp1714
g62
(dp1715
g82
g83
ssg71
g1709
sg64
(lp1716
S'remote_addr'
p1717
asbag57
(g78
g59
NtRp1718
(dp1719
g62
(dp1720
g89
g90
ssg71
g1709
sg64
(lp1721
S':'
asbag57
(g78
g59
NtRp1722
(dp1723
g62
(dp1724
sg71
g1709
sg64
(lp1725
g57
(g58
g59
NtRp1726
(dp1727
g62
(dp1728
g70
I4
ssg71
g1722
sg64
(lp1729
g225
asbasbasbag57
(g73
g59
NtRp1730
(dp1731
g62
(dp1732
sg71
g1045
sg64
(lp1733
g57
(g78
g59
NtRp1734
(dp1735
g62
(dp1736
g82
g83
ssg71
g1730
sg64
(lp1737
S'remote_port'
p1738
asbag57
(g78
g59
NtRp1739
(dp1740
g62
(dp1741
g89
g90
ssg71
g1730
sg64
(lp1742
S':'
asbag57
(g78
g59
NtRp1743
(dp1744
g62
(dp1745
sg71
g1730
sg64
(lp1746
g57
(g58
g59
NtRp1747
(dp1748
g62
(dp1749
g70
I4
ssg71
g1743
sg64
(lp1750
S'52196'
p1751
asbasbasbag57
(g73
g59
NtRp1752
(dp1753
g62
(dp1754
sg71
g1045
sg64
(lp1755
g57
(g78
g59
NtRp1756
(dp1757
g62
(dp1758
g82
g83
ssg71
g1752
sg64
(lp1759
S'request_method'
p1760
asbag57
(g78
g59
NtRp1761
(dp1762
g62
(dp1763
g89
g90
ssg71
g1752
sg64
(lp1764
S':'
asbag57
(g78
g59
NtRp1765
(dp1766
g62
(dp1767
sg71
g1752
sg64
(lp1768
g57
(g58
g59
NtRp1769
(dp1770
g62
(dp1771
g70
I4
ssg71
g1765
sg64
(lp1772
S'POST'
p1773
asbasbasbag57
(g73
g59
NtRp1774
(dp1775
g62
(dp1776
sg71
g1045
sg64
(lp1777
g57
(g78
g59
NtRp1778
(dp1779
g62
(dp1780
g82
g83
ssg71
g1774
sg64
(lp1781
S'request_uri'
p1782
asbag57
(g78
g59
NtRp1783
(dp1784
g62
(dp1785
g89
g90
ssg71
g1774
sg64
(lp1786
S':'
asbag57
(g78
g59
NtRp1787
(dp1788
g62
(dp1789
sg71
g1774
sg64
(lp1790
g57
(g58
g59
NtRp1791
(dp1792
g62
(dp1793
g70
I4
ssg71
g1787
sg64
(lp1794
S'/CygnusCloud/administrator/users/associate_subjects?usersFind=Student1%40ucm.es'
p1795
asbasbasbag57
(g73
g59
NtRp1796
(dp1797
g62
(dp1798
sg71
g1045
sg64
(lp1799
g57
(g78
g59
NtRp1800
(dp1801
g62
(dp1802
g82
g83
ssg71
g1796
sg64
(lp1803
S'script_name'
p1804
asbag57
(g78
g59
NtRp1805
(dp1806
g62
(dp1807
g89
g90
ssg71
g1796
sg64
(lp1808
S':'
asbag57
(g78
g59
NtRp1809
(dp1810
g62
(dp1811
sg71
g1796
sg64
(lp1812
g57
(g58
g59
NtRp1813
(dp1814
g62
(dp1815
g70
I4
ssg71
g1809
sg64
(lp1816
S''
asbasbasbag57
(g73
g59
NtRp1817
(dp1818
g62
(dp1819
sg71
g1045
sg64
(lp1820
g57
(g78
g59
NtRp1821
(dp1822
g62
(dp1823
g82
g83
ssg71
g1817
sg64
(lp1824
S'server_name'
p1825
asbag57
(g78
g59
NtRp1826
(dp1827
g62
(dp1828
g89
g90
ssg71
g1817
sg64
(lp1829
S':'
asbag57
(g78
g59
NtRp1830
(dp1831
g62
(dp1832
sg71
g1817
sg64
(lp1833
g57
(g58
g59
NtRp1834
(dp1835
g62
(dp1836
g70
I4
ssg71
g1830
sg64
(lp1837
S'adri-EasyNote'
p1838
asbasbasbag57
(g73
g59
NtRp1839
(dp1840
g62
(dp1841
sg71
g1045
sg64
(lp1842
g57
(g78
g59
NtRp1843
(dp1844
g62
(dp1845
g82
g83
ssg71
g1839
sg64
(lp1846
S'server_port'
p1847
asbag57
(g78
g59
NtRp1848
(dp1849
g62
(dp1850
g89
g90
ssg71
g1839
sg64
(lp1851
S':'
asbag57
(g78
g59
NtRp1852
(dp1853
g62
(dp1854
sg71
g1839
sg64
(lp1855
g57
(g58
g59
NtRp1856
(dp1857
g62
(dp1858
g70
I4
ssg71
g1852
sg64
(lp1859
S'8000'
p1860
asbasbasbag57
(g73
g59
NtRp1861
(dp1862
g62
(dp1863
sg71
g1045
sg64
(lp1864
g57
(g78
g59
NtRp1865
(dp1866
g62
(dp1867
g82
g83
ssg71
g1861
sg64
(lp1868
S'server_protocol'
p1869
asbag57
(g78
g59
NtRp1870
(dp1871
g62
(dp1872
g89
g90
ssg71
g1861
sg64
(lp1873
S':'
asbag57
(g78
g59
NtRp1874
(dp1875
g62
(dp1876
sg71
g1861
sg64
(lp1877
g57
(g58
g59
NtRp1878
(dp1879
g62
(dp1880
g70
I4
ssg71
g1874
sg64
(lp1881
S'HTTP/1.1'
p1882
asbasbasbag57
(g73
g59
NtRp1883
(dp1884
g62
(dp1885
sg71
g1045
sg64
(lp1886
g57
(g78
g59
NtRp1887
(dp1888
g62
(dp1889
g82
g83
ssg71
g1883
sg64
(lp1890
S'server_software'
p1891
asbag57
(g78
g59
NtRp1892
(dp1893
g62
(dp1894
g89
g90
ssg71
g1883
sg64
(lp1895
S':'
asbag57
(g78
g59
NtRp1896
(dp1897
g62
(dp1898
sg71
g1883
sg64
(lp1899
g57
(g58
g59
NtRp1900
(dp1901
g62
(dp1902
g70
I4
ssg71
g1896
sg64
(lp1903
S'Rocket 1.2.6'
p1904
asbasbasbag57
(g73
g59
NtRp1905
(dp1906
g62
(dp1907
sg71
g1045
sg64
(lp1908
g57
(g78
g59
NtRp1909
(dp1910
g62
(dp1911
g82
g83
ssg71
g1905
sg64
(lp1912
S'web2py_path'
p1913
asbag57
(g78
g59
NtRp1914
(dp1915
g62
(dp1916
g89
g90
ssg71
g1905
sg64
(lp1917
S':'
asbag57
(g78
g59
NtRp1918
(dp1919
g62
(dp1920
sg71
g1905
sg64
(lp1921
g57
(g58
g59
NtRp1922
(dp1923
g62
(dp1924
g70
I4
ssg71
g1918
sg64
(lp1925
g1092
asbasbasbag57
(g73
g59
NtRp1926
(dp1927
g62
(dp1928
sg71
g1045
sg64
(lp1929
g57
(g78
g59
NtRp1930
(dp1931
g62
(dp1932
g82
g83
ssg71
g1926
sg64
(lp1933
S'web2py_version'
p1934
asbag57
(g78
g59
NtRp1935
(dp1936
g62
(dp1937
g89
g90
ssg71
g1926
sg64
(lp1938
S':'
asbag57
(g78
g59
NtRp1939
(dp1940
g62
(dp1941
sg71
g1926
sg64
(lp1942
g57
(g58
g59
NtRp1943
(dp1944
g62
(dp1945
g70
I4
ssg71
g1939
sg64
(lp1946
g57
(g66
g59
NtRp1947
(dp1948
g62
(dp1949
g70
I3
ssg71
Nsg64
(lp1950
g57
(g73
g59
NtRp1951
(dp1952
g62
(dp1953
sg71
g1947
sg64
(lp1954
g57
(g78
g59
NtRp1955
(dp1956
g62
(dp1957
sg71
g1951
sg64
(lp1958
g57
(g58
g59
NtRp1959
(dp1960
g62
(dp1961
g70
I3
ssg71
g1955
sg64
(lp1962
S'2'
asbasbasbag57
(g73
g59
NtRp1963
(dp1964
g62
(dp1965
sg71
g1947
sg64
(lp1966
g57
(g78
g59
NtRp1967
(dp1968
g62
(dp1969
sg71
g1963
sg64
(lp1970
g57
(g58
g59
NtRp1971
(dp1972
g62
(dp1973
g70
I3
ssg71
g1967
sg64
(lp1974
S'3'
asbasbasbag57
(g73
g59
NtRp1975
(dp1976
g62
(dp1977
sg71
g1947
sg64
(lp1978
g57
(g78
g59
NtRp1979
(dp1980
g62
(dp1981
sg71
g1975
sg64
(lp1982
g57
(g58
g59
NtRp1983
(dp1984
g62
(dp1985
g70
I3
ssg71
g1979
sg64
(lp1986
S'2'
asbasbasbag57
(g73
g59
NtRp1987
(dp1988
g62
(dp1989
sg71
g1947
sg64
(lp1990
g57
(g78
g59
NtRp1991
(dp1992
g62
(dp1993
sg71
g1987
sg64
(lp1994
g57
(g58
g59
NtRp1995
(dp1996
g62
(dp1997
g70
I3
ssg71
g1991
sg64
(lp1998
S'datetime.datetime(2012, 12, 17, 15, 3, 30)'
p1999
asbasbasbag57
(g73
g59
NtRp2000
(dp2001
g62
(dp2002
sg71
g1947
sg64
(lp2003
g57
(g78
g59
NtRp2004
(dp2005
g62
(dp2006
sg71
g2000
sg64
(lp2007
g57
(g58
g59
NtRp2008
(dp2009
g62
(dp2010
g70
I3
ssg71
g2004
sg64
(lp2011
S'stable'
p2012
asbasbasbasbasbasbasbag57
(g73
g59
NtRp2013
(dp2014
g62
(dp2015
sg71
g1045
sg64
(lp2016
g57
(g78
g59
NtRp2017
(dp2018
g62
(dp2019
g82
g83
ssg71
g2013
sg64
(lp2020
S'wsgi_errors'
p2021
asbag57
(g78
g59
NtRp2022
(dp2023
g62
(dp2024
g89
g90
ssg71
g2013
sg64
(lp2025
S':'
asbag57
(g78
g59
NtRp2026
(dp2027
g62
(dp2028
sg71
g2013
sg64
(lp2029
g57
(g58
g59
NtRp2030
(dp2031
g62
(dp2032
g70
I4
ssg71
g2026
sg64
(lp2033
S"<open file '<stderr>', mode 'w' at 0x7f5f77b12270>"
p2034
asbasbasbag57
(g73
g59
NtRp2035
(dp2036
g62
(dp2037
sg71
g1045
sg64
(lp2038
g57
(g78
g59
NtRp2039
(dp2040
g62
(dp2041
g82
g83
ssg71
g2035
sg64
(lp2042
S'wsgi_file_wrapper'
p2043
asbag57
(g78
g59
NtRp2044
(dp2045
g62
(dp2046
g89
g90
ssg71
g2035
sg64
(lp2047
S':'
asbag57
(g78
g59
NtRp2048
(dp2049
g62
(dp2050
sg71
g2035
sg64
(lp2051
g57
(g58
g59
NtRp2052
(dp2053
g62
(dp2054
g70
I4
ssg71
g2048
sg64
(lp2055
S'<class wsgiref.util.FileWrapper at 0x2151db8>'
p2056
asbasbasbag57
(g73
g59
NtRp2057
(dp2058
g62
(dp2059
sg71
g1045
sg64
(lp2060
g57
(g78
g59
NtRp2061
(dp2062
g62
(dp2063
g82
g83
ssg71
g2057
sg64
(lp2064
S'wsgi_input'
p2065
asbag57
(g78
g59
NtRp2066
(dp2067
g62
(dp2068
g89
g90
ssg71
g2057
sg64
(lp2069
S':'
asbag57
(g78
g59
NtRp2070
(dp2071
g62
(dp2072
sg71
g2057
sg64
(lp2073
g57
(g58
g59
NtRp2074
(dp2075
g62
(dp2076
g70
I4
ssg71
g2070
sg64
(lp2077
S'<socket._fileobject object at 0x7f5f482dd5d0>'
p2078
asbasbasbag57
(g73
g59
NtRp2079
(dp2080
g62
(dp2081
sg71
g1045
sg64
(lp2082
g57
(g78
g59
NtRp2083
(dp2084
g62
(dp2085
g82
g83
ssg71
g2079
sg64
(lp2086
S'wsgi_multiprocess'
p2087
asbag57
(g78
g59
NtRp2088
(dp2089
g62
(dp2090
g89
g90
ssg71
g2079
sg64
(lp2091
S':'
asbag57
(g78
g59
NtRp2092
(dp2093
g62
(dp2094
sg71
g2079
sg64
(lp2095
g57
(g58
g59
NtRp2096
(dp2097
g62
(dp2098
g70
I4
ssg71
g2092
sg64
(lp2099
g100
asbasbasbag57
(g73
g59
NtRp2100
(dp2101
g62
(dp2102
sg71
g1045
sg64
(lp2103
g57
(g78
g59
NtRp2104
(dp2105
g62
(dp2106
g82
g83
ssg71
g2100
sg64
(lp2107
S'wsgi_multithread'
p2108
asbag57
(g78
g59
NtRp2109
(dp2110
g62
(dp2111
g89
g90
ssg71
g2100
sg64
(lp2112
S':'
asbag57
(g78
g59
NtRp2113
(dp2114
g62
(dp2115
sg71
g2100
sg64
(lp2116
g57
(g58
g59
NtRp2117
(dp2118
g62
(dp2119
g70
I4
ssg71
g2113
sg64
(lp2120
S'True'
p2121
asbasbasbag57
(g73
g59
NtRp2122
(dp2123
g62
(dp2124
sg71
g1045
sg64
(lp2125
g57
(g78
g59
NtRp2126
(dp2127
g62
(dp2128
g82
g83
ssg71
g2122
sg64
(lp2129
S'wsgi_run_once'
p2130
asbag57
(g78
g59
NtRp2131
(dp2132
g62
(dp2133
g89
g90
ssg71
g2122
sg64
(lp2134
S':'
asbag57
(g78
g59
NtRp2135
(dp2136
g62
(dp2137
sg71
g2122
sg64
(lp2138
g57
(g58
g59
NtRp2139
(dp2140
g62
(dp2141
g70
I4
ssg71
g2135
sg64
(lp2142
g100
asbasbasbag57
(g73
g59
NtRp2143
(dp2144
g62
(dp2145
sg71
g1045
sg64
(lp2146
g57
(g78
g59
NtRp2147
(dp2148
g62
(dp2149
g82
g83
ssg71
g2143
sg64
(lp2150
S'wsgi_url_scheme'
p2151
asbag57
(g78
g59
NtRp2152
(dp2153
g62
(dp2154
g89
g90
ssg71
g2143
sg64
(lp2155
S':'
asbag57
(g78
g59
NtRp2156
(dp2157
g62
(dp2158
sg71
g2143
sg64
(lp2159
g57
(g58
g59
NtRp2160
(dp2161
g62
(dp2162
g70
I4
ssg71
g2156
sg64
(lp2163
S'http'
p2164
asbasbasbag57
(g73
g59
NtRp2165
(dp2166
g62
(dp2167
sg71
g1045
sg64
(lp2168
g57
(g78
g59
NtRp2169
(dp2170
g62
(dp2171
g82
g83
ssg71
g2165
sg64
(lp2172
S'wsgi_version'
p2173
asbag57
(g78
g59
NtRp2174
(dp2175
g62
(dp2176
g89
g90
ssg71
g2165
sg64
(lp2177
S':'
asbag57
(g78
g59
NtRp2178
(dp2179
g62
(dp2180
sg71
g2165
sg64
(lp2181
g57
(g58
g59
NtRp2182
(dp2183
g62
(dp2184
g70
I4
ssg71
g2178
sg64
(lp2185
g57
(g66
g59
NtRp2186
(dp2187
g62
(dp2188
g70
I3
ssg71
Nsg64
(lp2189
g57
(g73
g59
NtRp2190
(dp2191
g62
(dp2192
sg71
g2186
sg64
(lp2193
g57
(g78
g59
NtRp2194
(dp2195
g62
(dp2196
sg71
g2190
sg64
(lp2197
g57
(g58
g59
NtRp2198
(dp2199
g62
(dp2200
g70
I3
ssg71
g2194
sg64
(lp2201
S'1'
asbasbasbag57
(g73
g59
NtRp2202
(dp2203
g62
(dp2204
sg71
g2186
sg64
(lp2205
g57
(g78
g59
NtRp2206
(dp2207
g62
(dp2208
sg71
g2202
sg64
(lp2209
g57
(g58
g59
NtRp2210
(dp2211
g62
(dp2212
g70
I3
ssg71
g2206
sg64
(lp2213
S'0'
asbasbasbasbasbasbasbasbasbasbasbag57
(g73
g59
NtRp2214
(dp2215
g62
(dp2216
sg71
g67
sg64
(lp2217
g57
(g78
g59
NtRp2218
(dp2219
g62
(dp2220
g82
g83
ssg71
g2214
sg64
(lp2221
S'extension'
p2222
asbag57
(g78
g59
NtRp2223
(dp2224
g62
(dp2225
g89
g90
ssg71
g2214
sg64
(lp2226
S':'
asbag57
(g78
g59
NtRp2227
(dp2228
g62
(dp2229
sg71
g2214
sg64
(lp2230
g57
(g58
g59
NtRp2231
(dp2232
g62
(dp2233
g70
I5
ssg71
g2227
sg64
(lp2234
S'html'
p2235
asbasbasbag57
(g73
g59
NtRp2236
(dp2237
g62
(dp2238
sg71
g67
sg64
(lp2239
g57
(g78
g59
NtRp2240
(dp2241
g62
(dp2242
g82
g83
ssg71
g2236
sg64
(lp2243
S'folder'
p2244
asbag57
(g78
g59
NtRp2245
(dp2246
g62
(dp2247
g89
g90
ssg71
g2236
sg64
(lp2248
S':'
asbag57
(g78
g59
NtRp2249
(dp2250
g62
(dp2251
sg71
g2236
sg64
(lp2252
g57
(g58
g59
NtRp2253
(dp2254
g62
(dp2255
g70
I5
ssg71
g2249
sg64
(lp2256
S'/home/adrian/web2py/applications/CygnusCloud/'
p2257
asbasbasbag57
(g73
g59
NtRp2258
(dp2259
g62
(dp2260
sg71
g67
sg64
(lp2261
g57
(g78
g59
NtRp2262
(dp2263
g62
(dp2264
g82
g83
ssg71
g2258
sg64
(lp2265
S'function'
p2266
asbag57
(g78
g59
NtRp2267
(dp2268
g62
(dp2269
g89
g90
ssg71
g2258
sg64
(lp2270
S':'
asbag57
(g78
g59
NtRp2271
(dp2272
g62
(dp2273
sg71
g2258
sg64
(lp2274
g57
(g58
g59
NtRp2275
(dp2276
g62
(dp2277
g70
I5
ssg71
g2271
sg64
(lp2278
S'users'
p2279
asbasbasbag57
(g73
g59
NtRp2280
(dp2281
g62
(dp2282
sg71
g67
sg64
(lp2283
g57
(g78
g59
NtRp2284
(dp2285
g62
(dp2286
g82
g83
ssg71
g2280
sg64
(lp2287
S'get_vars'
p2288
asbag57
(g78
g59
NtRp2289
(dp2290
g62
(dp2291
g89
g90
ssg71
g2280
sg64
(lp2292
S':'
asbag57
(g78
g59
NtRp2293
(dp2294
g62
(dp2295
sg71
g2280
sg64
(lp2296
g57
(g58
g59
NtRp2297
(dp2298
g62
(dp2299
g70
I5
ssg71
g2293
sg64
(lp2300
g57
(g66
g59
NtRp2301
(dp2302
g62
(dp2303
g70
I4
ssg71
Nsg64
(lp2304
g57
(g73
g59
NtRp2305
(dp2306
g62
(dp2307
sg71
g2301
sg64
(lp2308
g57
(g78
g59
NtRp2309
(dp2310
g62
(dp2311
g82
g83
ssg71
g2305
sg64
(lp2312
S'usersFind'
p2313
asbag57
(g78
g59
NtRp2314
(dp2315
g62
(dp2316
g89
g90
ssg71
g2305
sg64
(lp2317
S':'
asbag57
(g78
g59
NtRp2318
(dp2319
g62
(dp2320
sg71
g2305
sg64
(lp2321
g57
(g58
g59
NtRp2322
(dp2323
g62
(dp2324
g70
I4
ssg71
g2318
sg64
(lp2325
S'Student1@ucm.es'
p2326
asbasbasbasbasbasbasbag57
(g73
g59
NtRp2327
(dp2328
g62
(dp2329
sg71
g67
sg64
(lp2330
g57
(g78
g59
NtRp2331
(dp2332
g62
(dp2333
g82
g83
ssg71
g2327
sg64
(lp2334
S'global_settings'
p2335
asbag57
(g78
g59
NtRp2336
(dp2337
g62
(dp2338
g89
g90
ssg71
g2327
sg64
(lp2339
S':'
asbag57
(g78
g59
NtRp2340
(dp2341
g62
(dp2342
sg71
g2327
sg64
(lp2343
g57
(g58
g59
NtRp2344
(dp2345
g62
(dp2346
g70
I5
ssg71
g2340
sg64
(lp2347
g57
(g66
g59
NtRp2348
(dp2349
g62
(dp2350
g70
I4
ssg71
Nsg64
(lp2351
g57
(g73
g59
NtRp2352
(dp2353
g62
(dp2354
sg71
g2348
sg64
(lp2355
g57
(g78
g59
NtRp2356
(dp2357
g62
(dp2358
g82
g83
ssg71
g2352
sg64
(lp2359
g1057
asbag57
(g78
g59
NtRp2360
(dp2361
g62
(dp2362
g89
g90
ssg71
g2352
sg64
(lp2363
S':'
asbag57
(g78
g59
NtRp2364
(dp2365
g62
(dp2366
sg71
g2352
sg64
(lp2367
g57
(g58
g59
NtRp2368
(dp2369
g62
(dp2370
g70
I4
ssg71
g2364
sg64
(lp2371
S"set(['/home/adrian/web2py/applications/admin/', '/home/adrian/web2py/applications/CygnusCloud/'])"
p2372
asbasbasbag57
(g73
g59
NtRp2373
(dp2374
g62
(dp2375
sg71
g2348
sg64
(lp2376
g57
(g78
g59
NtRp2377
(dp2378
g62
(dp2379
g82
g83
ssg71
g2373
sg64
(lp2380
g1079
asbag57
(g78
g59
NtRp2381
(dp2382
g62
(dp2383
g89
g90
ssg71
g2373
sg64
(lp2384
S':'
asbag57
(g78
g59
NtRp2385
(dp2386
g62
(dp2387
sg71
g2373
sg64
(lp2388
g57
(g58
g59
NtRp2389
(dp2390
g62
(dp2391
g70
I4
ssg71
g2385
sg64
(lp2392
g1092
asbasbasbag57
(g73
g59
NtRp2393
(dp2394
g62
(dp2395
sg71
g2348
sg64
(lp2396
g57
(g78
g59
NtRp2397
(dp2398
g62
(dp2399
g82
g83
ssg71
g2393
sg64
(lp2400
g1101
asbag57
(g78
g59
NtRp2401
(dp2402
g62
(dp2403
g89
g90
ssg71
g2393
sg64
(lp2404
S':'
asbag57
(g78
g59
NtRp2405
(dp2406
g62
(dp2407
sg71
g2393
sg64
(lp2408
g57
(g58
g59
NtRp2409
(dp2410
g62
(dp2411
g70
I4
ssg71
g2405
sg64
(lp2412
g57
(g66
g59
NtRp2413
(dp2414
g62
(dp2415
g70
I3
ssg71
Nsg64
(lp2416
sbasbasbasbag57
(g73
g59
NtRp2417
(dp2418
g62
(dp2419
sg71
g2348
sg64
(lp2420
g57
(g78
g59
NtRp2421
(dp2422
g62
(dp2423
g82
g83
ssg71
g2417
sg64
(lp2424
g1126
asbag57
(g78
g59
NtRp2425
(dp2426
g62
(dp2427
g89
g90
ssg71
g2417
sg64
(lp2428
S':'
asbag57
(g78
g59
NtRp2429
(dp2430
g62
(dp2431
sg71
g2417
sg64
(lp2432
g57
(g58
g59
NtRp2433
(dp2434
g62
(dp2435
g70
I4
ssg71
g2429
sg64
(lp2436
S"<Values at 0x221dbd8: {'verbose': False, 'ip': '127.0.0.1', 'with_scheduler': False, 'ips': [], 'shutdown_timeout': 5, 'taskbar': False, 'port': 8000, 'maxthreads': None, 'softcron': False, 'server_name': 'adri-EasyNote', 'bpython': False, 'nogui': False, 'pid_filename': 'httpserver.pid', 'extcron': False, 'runcron': False, 'run_system_tests': False, 'test': None, 'folder': '/home/adrian/web2py', 'config': '', 'minthreads': None, 'winservice': '', 'shell': None, 'run': '', 'log_filename': 'httpserver.log', 'debuglevel': 30, 'args': [''], 'socket_timeout': 5, 'ssl_ca_certificate': None, 'scheduler': None, 'profiler_filename': None, 'ssl_private_key': '', 'scheduler_groups': None, 'password': 'cygnuscloud2012', 'request_queue_size': 5, 'ssl_certificate': '', 'cronjob': False, 'numthreads': None, 'quiet': False, 'interfaces': None, 'import_models': False, 'timeout': 10, 'plain': False, 'nobanner': False}>"
p2437
asbasbasbag57
(g73
g59
NtRp2438
(dp2439
g62
(dp2440
sg71
g2348
sg64
(lp2441
g57
(g78
g59
NtRp2442
(dp2443
g62
(dp2444
g82
g83
ssg71
g2438
sg64
(lp2445
g1192
asbag57
(g78
g59
NtRp2446
(dp2447
g62
(dp2448
g89
g90
ssg71
g2438
sg64
(lp2449
S':'
asbag57
(g78
g59
NtRp2450
(dp2451
g62
(dp2452
sg71
g2438
sg64
(lp2453
g57
(g58
g59
NtRp2454
(dp2455
g62
(dp2456
g70
I4
ssg71
g2450
sg64
(lp2457
S'set([])'
p2458
asbasbasbag57
(g73
g59
NtRp2459
(dp2460
g62
(dp2461
sg71
g2348
sg64
(lp2462
g57
(g78
g59
NtRp2463
(dp2464
g62
(dp2465
g82
g83
ssg71
g2459
sg64
(lp2466
g1214
asbag57
(g78
g59
NtRp2467
(dp2468
g62
(dp2469
g89
g90
ssg71
g2459
sg64
(lp2470
S':'
asbag57
(g78
g59
NtRp2471
(dp2472
g62
(dp2473
sg71
g2459
sg64
(lp2474
g57
(g58
g59
NtRp2475
(dp2476
g62
(dp2477
g70
I4
ssg71
g2471
sg64
(lp2478
g100
asbasbasbag57
(g73
g59
NtRp2479
(dp2480
g62
(dp2481
sg71
g2348
sg64
(lp2482
g57
(g78
g59
NtRp2483
(dp2484
g62
(dp2485
g82
g83
ssg71
g2479
sg64
(lp2486
g1235
asbag57
(g78
g59
NtRp2487
(dp2488
g62
(dp2489
g89
g90
ssg71
g2479
sg64
(lp2490
S':'
asbag57
(g78
g59
NtRp2491
(dp2492
g62
(dp2493
sg71
g2479
sg64
(lp2494
g57
(g58
g59
NtRp2495
(dp2496
g62
(dp2497
g70
I4
ssg71
g2491
sg64
(lp2498
g1248
asbasbasbag57
(g73
g59
NtRp2499
(dp2500
g62
(dp2501
sg71
g2348
sg64
(lp2502
g57
(g78
g59
NtRp2503
(dp2504
g62
(dp2505
g82
g83
ssg71
g2499
sg64
(lp2506
g1541
asbag57
(g78
g59
NtRp2507
(dp2508
g62
(dp2509
g89
g90
ssg71
g2499
sg64
(lp2510
S':'
asbag57
(g78
g59
NtRp2511
(dp2512
g62
(dp2513
sg71
g2499
sg64
(lp2514
g57
(g58
g59
NtRp2515
(dp2516
g62
(dp2517
g70
I4
ssg71
g2511
sg64
(lp2518
g100
asbasbasbag57
(g73
g59
NtRp2519
(dp2520
g62
(dp2521
sg71
g2348
sg64
(lp2522
g57
(g78
g59
NtRp2523
(dp2524
g62
(dp2525
g82
g83
ssg71
g2519
sg64
(lp2526
g1562
asbag57
(g78
g59
NtRp2527
(dp2528
g62
(dp2529
g89
g90
ssg71
g2519
sg64
(lp2530
S':'
asbag57
(g78
g59
NtRp2531
(dp2532
g62
(dp2533
sg71
g2519
sg64
(lp2534
g57
(g58
g59
NtRp2535
(dp2536
g62
(dp2537
g70
I4
ssg71
g2531
sg64
(lp2538
g100
asbasbasbag57
(g73
g59
NtRp2539
(dp2540
g62
(dp2541
sg71
g2348
sg64
(lp2542
g57
(g78
g59
NtRp2543
(dp2544
g62
(dp2545
g82
g83
ssg71
g2539
sg64
(lp2546
g1583
asbag57
(g78
g59
NtRp2547
(dp2548
g62
(dp2549
g89
g90
ssg71
g2539
sg64
(lp2550
S':'
asbag57
(g78
g59
NtRp2551
(dp2552
g62
(dp2553
sg71
g2539
sg64
(lp2554
g57
(g58
g59
NtRp2555
(dp2556
g62
(dp2557
g70
I4
ssg71
g2551
sg64
(lp2558
g57
(g66
g59
NtRp2559
(dp2560
g62
(dp2561
g70
I3
ssg71
Nsg64
(lp2562
g57
(g73
g59
NtRp2563
(dp2564
g62
(dp2565
sg71
g2559
sg64
(lp2566
g57
(g78
g59
NtRp2567
(dp2568
g62
(dp2569
sg71
g2563
sg64
(lp2570
g57
(g58
g59
NtRp2571
(dp2572
g62
(dp2573
g70
I3
ssg71
g2567
sg64
(lp2574
g1612
asbasbasbag57
(g73
g59
NtRp2575
(dp2576
g62
(dp2577
sg71
g2559
sg64
(lp2578
g57
(g78
g59
NtRp2579
(dp2580
g62
(dp2581
sg71
g2575
sg64
(lp2582
g57
(g58
g59
NtRp2583
(dp2584
g62
(dp2585
g70
I3
ssg71
g2579
sg64
(lp2586
g1625
asbasbasbag57
(g73
g59
NtRp2587
(dp2588
g62
(dp2589
sg71
g2559
sg64
(lp2590
g57
(g78
g59
NtRp2591
(dp2592
g62
(dp2593
sg71
g2587
sg64
(lp2594
g57
(g58
g59
NtRp2595
(dp2596
g62
(dp2597
g70
I3
ssg71
g2591
sg64
(lp2598
g1638
asbasbasbag57
(g73
g59
NtRp2599
(dp2600
g62
(dp2601
sg71
g2559
sg64
(lp2602
g57
(g78
g59
NtRp2603
(dp2604
g62
(dp2605
sg71
g2599
sg64
(lp2606
g57
(g58
g59
NtRp2607
(dp2608
g62
(dp2609
g70
I3
ssg71
g2603
sg64
(lp2610
g1651
asbasbasbag57
(g73
g59
NtRp2611
(dp2612
g62
(dp2613
sg71
g2559
sg64
(lp2614
g57
(g78
g59
NtRp2615
(dp2616
g62
(dp2617
sg71
g2611
sg64
(lp2618
g57
(g58
g59
NtRp2619
(dp2620
g62
(dp2621
g70
I3
ssg71
g2615
sg64
(lp2622
g1664
asbasbasbasbasbasbasbag57
(g73
g59
NtRp2623
(dp2624
g62
(dp2625
sg71
g2348
sg64
(lp2626
g57
(g78
g59
NtRp2627
(dp2628
g62
(dp2629
g82
g83
ssg71
g2623
sg64
(lp2630
g1934
asbag57
(g78
g59
NtRp2631
(dp2632
g62
(dp2633
g89
g90
ssg71
g2623
sg64
(lp2634
S':'
asbag57
(g78
g59
NtRp2635
(dp2636
g62
(dp2637
sg71
g2623
sg64
(lp2638
g57
(g58
g59
NtRp2639
(dp2640
g62
(dp2641
g70
I4
ssg71
g2635
sg64
(lp2642
g57
(g66
g59
NtRp2643
(dp2644
g62
(dp2645
g70
I3
ssg71
Nsg64
(lp2646
g57
(g73
g59
NtRp2647
(dp2648
g62
(dp2649
sg71
g2643
sg64
(lp2650
g57
(g78
g59
NtRp2651
(dp2652
g62
(dp2653
sg71
g2647
sg64
(lp2654
g57
(g58
g59
NtRp2655
(dp2656
g62
(dp2657
g70
I3
ssg71
g2651
sg64
(lp2658
S'2'
asbasbasbag57
(g73
g59
NtRp2659
(dp2660
g62
(dp2661
sg71
g2643
sg64
(lp2662
g57
(g78
g59
NtRp2663
(dp2664
g62
(dp2665
sg71
g2659
sg64
(lp2666
g57
(g58
g59
NtRp2667
(dp2668
g62
(dp2669
g70
I3
ssg71
g2663
sg64
(lp2670
S'3'
asbasbasbag57
(g73
g59
NtRp2671
(dp2672
g62
(dp2673
sg71
g2643
sg64
(lp2674
g57
(g78
g59
NtRp2675
(dp2676
g62
(dp2677
sg71
g2671
sg64
(lp2678
g57
(g58
g59
NtRp2679
(dp2680
g62
(dp2681
g70
I3
ssg71
g2675
sg64
(lp2682
S'2'
asbasbasbag57
(g73
g59
NtRp2683
(dp2684
g62
(dp2685
sg71
g2643
sg64
(lp2686
g57
(g78
g59
NtRp2687
(dp2688
g62
(dp2689
sg71
g2683
sg64
(lp2690
g57
(g58
g59
NtRp2691
(dp2692
g62
(dp2693
g70
I3
ssg71
g2687
sg64
(lp2694
S'datetime.datetime(2012, 12, 17, 15, 3, 30)'
p2695
asbasbasbag57
(g73
g59
NtRp2696
(dp2697
g62
(dp2698
sg71
g2643
sg64
(lp2699
g57
(g78
g59
NtRp2700
(dp2701
g62
(dp2702
sg71
g2696
sg64
(lp2703
g57
(g58
g59
NtRp2704
(dp2705
g62
(dp2706
g70
I3
ssg71
g2700
sg64
(lp2707
g2012
asbasbasbasbasbasbasbasbasbasbasbag57
(g73
g59
NtRp2708
(dp2709
g62
(dp2710
sg71
g67
sg64
(lp2711
g57
(g78
g59
NtRp2712
(dp2713
g62
(dp2714
g82
g83
ssg71
g2708
sg64
(lp2715
S'is_https'
p2716
asbag57
(g78
g59
NtRp2717
(dp2718
g62
(dp2719
g89
g90
ssg71
g2708
sg64
(lp2720
S':'
asbag57
(g78
g59
NtRp2721
(dp2722
g62
(dp2723
sg71
g2708
sg64
(lp2724
g57
(g58
g59
NtRp2725
(dp2726
g62
(dp2727
g70
I5
ssg71
g2721
sg64
(lp2728
g100
asbasbasbag57
(g73
g59
NtRp2729
(dp2730
g62
(dp2731
sg71
g67
sg64
(lp2732
g57
(g78
g59
NtRp2733
(dp2734
g62
(dp2735
g82
g83
ssg71
g2729
sg64
(lp2736
S'is_local'
p2737
asbag57
(g78
g59
NtRp2738
(dp2739
g62
(dp2740
g89
g90
ssg71
g2729
sg64
(lp2741
S':'
asbag57
(g78
g59
NtRp2742
(dp2743
g62
(dp2744
sg71
g2729
sg64
(lp2745
g57
(g58
g59
NtRp2746
(dp2747
g62
(dp2748
g70
I5
ssg71
g2742
sg64
(lp2749
g2121
asbasbasbag57
(g73
g59
NtRp2750
(dp2751
g62
(dp2752
sg71
g67
sg64
(lp2753
g57
(g78
g59
NtRp2754
(dp2755
g62
(dp2756
g82
g83
ssg71
g2750
sg64
(lp2757
S'is_restful'
p2758
asbag57
(g78
g59
NtRp2759
(dp2760
g62
(dp2761
g89
g90
ssg71
g2750
sg64
(lp2762
S':'
asbag57
(g78
g59
NtRp2763
(dp2764
g62
(dp2765
sg71
g2750
sg64
(lp2766
g57
(g58
g59
NtRp2767
(dp2768
g62
(dp2769
g70
I5
ssg71
g2763
sg64
(lp2770
g100
asbasbasbag57
(g73
g59
NtRp2771
(dp2772
g62
(dp2773
sg71
g67
sg64
(lp2774
g57
(g78
g59
NtRp2775
(dp2776
g62
(dp2777
g82
g83
ssg71
g2771
sg64
(lp2778
S'now'
p2779
asbag57
(g78
g59
NtRp2780
(dp2781
g62
(dp2782
g89
g90
ssg71
g2771
sg64
(lp2783
S':'
asbag57
(g78
g59
NtRp2784
(dp2785
g62
(dp2786
sg71
g2771
sg64
(lp2787
g57
(g58
g59
NtRp2788
(dp2789
g62
(dp2790
g70
I5
ssg71
g2784
sg64
(lp2791
S'datetime.datetime(2013, 2, 11, 20, 23, 26, 613946)'
p2792
asbasbasbag57
(g73
g59
NtRp2793
(dp2794
g62
(dp2795
sg71
g67
sg64
(lp2796
g57
(g78
g59
NtRp2797
(dp2798
g62
(dp2799
g82
g83
ssg71
g2793
sg64
(lp2800
S'post_vars'
p2801
asbag57
(g78
g59
NtRp2802
(dp2803
g62
(dp2804
g89
g90
ssg71
g2793
sg64
(lp2805
S':'
asbag57
(g78
g59
NtRp2806
(dp2807
g62
(dp2808
sg71
g2793
sg64
(lp2809
g57
(g58
g59
NtRp2810
(dp2811
g62
(dp2812
g70
I5
ssg71
g2806
sg64
(lp2813
g57
(g66
g59
NtRp2814
(dp2815
g62
(dp2816
g70
I4
ssg71
Nsg64
(lp2817
g57
(g73
g59
NtRp2818
(dp2819
g62
(dp2820
sg71
g2814
sg64
(lp2821
g57
(g78
g59
NtRp2822
(dp2823
g62
(dp2824
g82
g83
ssg71
g2818
sg64
(lp2825
S'classGroup'
p2826
asbag57
(g78
g59
NtRp2827
(dp2828
g62
(dp2829
g89
g90
ssg71
g2818
sg64
(lp2830
S':'
asbag57
(g78
g59
NtRp2831
(dp2832
g62
(dp2833
sg71
g2818
sg64
(lp2834
g57
(g58
g59
NtRp2835
(dp2836
g62
(dp2837
g70
I4
ssg71
g2831
sg64
(lp2838
S'a'
asbasbasbag57
(g73
g59
NtRp2839
(dp2840
g62
(dp2841
sg71
g2814
sg64
(lp2842
g57
(g78
g59
NtRp2843
(dp2844
g62
(dp2845
g82
g83
ssg71
g2839
sg64
(lp2846
S'code'
p2847
asbag57
(g78
g59
NtRp2848
(dp2849
g62
(dp2850
g89
g90
ssg71
g2839
sg64
(lp2851
S':'
asbag57
(g78
g59
NtRp2852
(dp2853
g62
(dp2854
sg71
g2839
sg64
(lp2855
g57
(g58
g59
NtRp2856
(dp2857
g62
(dp2858
g70
I4
ssg71
g2852
sg64
(lp2859
S'106144'
p2860
asbasbasbag57
(g73
g59
NtRp2861
(dp2862
g62
(dp2863
sg71
g2814
sg64
(lp2864
g57
(g78
g59
NtRp2865
(dp2866
g62
(dp2867
g82
g83
ssg71
g2861
sg64
(lp2868
S'remove'
p2869
asbag57
(g78
g59
NtRp2870
(dp2871
g62
(dp2872
g89
g90
ssg71
g2861
sg64
(lp2873
S':'
asbag57
(g78
g59
NtRp2874
(dp2875
g62
(dp2876
sg71
g2861
sg64
(lp2877
g57
(g58
g59
NtRp2878
(dp2879
g62
(dp2880
g70
I4
ssg71
g2874
sg64
(lp2881
S'Eliminar'
p2882
asbasbasbag57
(g73
g59
NtRp2883
(dp2884
g62
(dp2885
sg71
g2814
sg64
(lp2886
g57
(g78
g59
NtRp2887
(dp2888
g62
(dp2889
g82
g83
ssg71
g2883
sg64
(lp2890
S'usersSelect'
p2891
asbag57
(g78
g59
NtRp2892
(dp2893
g62
(dp2894
g89
g90
ssg71
g2883
sg64
(lp2895
S':'
asbag57
(g78
g59
NtRp2896
(dp2897
g62
(dp2898
sg71
g2883
sg64
(lp2899
g57
(g58
g59
NtRp2900
(dp2901
g62
(dp2902
g70
I4
ssg71
g2896
sg64
(lp2903
S'Student1@ucm.es'
p2904
asbasbasbasbasbasbasbag57
(g73
g59
NtRp2905
(dp2906
g62
(dp2907
sg71
g67
sg64
(lp2908
g57
(g78
g59
NtRp2909
(dp2910
g62
(dp2911
g82
g83
ssg71
g2905
sg64
(lp2912
S'raw_args'
p2913
asbag57
(g78
g59
NtRp2914
(dp2915
g62
(dp2916
g89
g90
ssg71
g2905
sg64
(lp2917
S':'
asbag57
(g78
g59
NtRp2918
(dp2919
g62
(dp2920
sg71
g2905
sg64
(lp2921
g57
(g58
g59
NtRp2922
(dp2923
g62
(dp2924
g70
I5
ssg71
g2918
sg64
(lp2925
g159
asbasbasbag57
(g73
g59
NtRp2926
(dp2927
g62
(dp2928
sg71
g67
sg64
(lp2929
g57
(g78
g59
NtRp2930
(dp2931
g62
(dp2932
g82
g83
ssg71
g2926
sg64
(lp2933
S'raw_extension'
p2934
asbag57
(g78
g59
NtRp2935
(dp2936
g62
(dp2937
g89
g90
ssg71
g2926
sg64
(lp2938
S':'
asbag57
(g78
g59
NtRp2939
(dp2940
g62
(dp2941
sg71
g2926
sg64
(lp2942
g57
(g58
g59
NtRp2943
(dp2944
g62
(dp2945
g70
I5
ssg71
g2939
sg64
(lp2946
S'None'
p2947
asbasbasbag57
(g73
g59
NtRp2948
(dp2949
g62
(dp2950
sg71
g67
sg64
(lp2951
g57
(g78
g59
NtRp2952
(dp2953
g62
(dp2954
g82
g83
ssg71
g2948
sg64
(lp2955
S'url'
p2956
asbag57
(g78
g59
NtRp2957
(dp2958
g62
(dp2959
g89
g90
ssg71
g2948
sg64
(lp2960
S':'
asbag57
(g78
g59
NtRp2961
(dp2962
g62
(dp2963
sg71
g2948
sg64
(lp2964
g57
(g58
g59
NtRp2965
(dp2966
g62
(dp2967
g70
I5
ssg71
g2961
sg64
(lp2968
g1686
asbasbasbag57
(g73
g59
NtRp2969
(dp2970
g62
(dp2971
sg71
g67
sg64
(lp2972
g57
(g78
g59
NtRp2973
(dp2974
g62
(dp2975
g82
g83
ssg71
g2969
sg64
(lp2976
S'utcnow'
p2977
asbag57
(g78
g59
NtRp2978
(dp2979
g62
(dp2980
g89
g90
ssg71
g2969
sg64
(lp2981
S':'
asbag57
(g78
g59
NtRp2982
(dp2983
g62
(dp2984
sg71
g2969
sg64
(lp2985
g57
(g58
g59
NtRp2986
(dp2987
g62
(dp2988
g70
I5
ssg71
g2982
sg64
(lp2989
S'datetime.datetime(2013, 2, 11, 19, 23, 26, 613980)'
p2990
asbasbasbag57
(g73
g59
NtRp2991
(dp2992
g62
(dp2993
sg71
g67
sg64
(lp2994
g57
(g78
g59
NtRp2995
(dp2996
g62
(dp2997
g82
g83
ssg71
g2991
sg64
(lp2998
S'uuid'
p2999
asbag57
(g78
g59
NtRp3000
(dp3001
g62
(dp3002
g89
g90
ssg71
g2991
sg64
(lp3003
S':'
asbag57
(g78
g59
NtRp3004
(dp3005
g62
(dp3006
sg71
g2991
sg64
(lp3007
g57
(g58
g59
NtRp3008
(dp3009
g62
(dp3010
g70
I5
ssg71
g3004
sg64
(lp3011
S'CygnusCloud/127.0.0.1.2013-02-11.20-23-26.8a1675df-3acf-46c1-8b8f-3ae1a9420f33'
p3012
asbasbasbag57
(g73
g59
NtRp3013
(dp3014
g62
(dp3015
sg71
g67
sg64
(lp3016
g57
(g78
g59
NtRp3017
(dp3018
g62
(dp3019
g82
g83
ssg71
g3013
sg64
(lp3020
S'vars'
p3021
asbag57
(g78
g59
NtRp3022
(dp3023
g62
(dp3024
g89
g90
ssg71
g3013
sg64
(lp3025
S':'
asbag57
(g78
g59
NtRp3026
(dp3027
g62
(dp3028
sg71
g3013
sg64
(lp3029
g57
(g58
g59
NtRp3030
(dp3031
g62
(dp3032
g70
I5
ssg71
g3026
sg64
(lp3033
g57
(g66
g59
NtRp3034
(dp3035
g62
(dp3036
g70
I4
ssg71
Nsg64
(lp3037
g57
(g73
g59
NtRp3038
(dp3039
g62
(dp3040
sg71
g3034
sg64
(lp3041
g57
(g78
g59
NtRp3042
(dp3043
g62
(dp3044
g82
g83
ssg71
g3038
sg64
(lp3045
g2826
asbag57
(g78
g59
NtRp3046
(dp3047
g62
(dp3048
g89
g90
ssg71
g3038
sg64
(lp3049
S':'
asbag57
(g78
g59
NtRp3050
(dp3051
g62
(dp3052
sg71
g3038
sg64
(lp3053
g57
(g58
g59
NtRp3054
(dp3055
g62
(dp3056
g70
I4
ssg71
g3050
sg64
(lp3057
S'a'
asbasbasbag57
(g73
g59
NtRp3058
(dp3059
g62
(dp3060
sg71
g3034
sg64
(lp3061
g57
(g78
g59
NtRp3062
(dp3063
g62
(dp3064
g82
g83
ssg71
g3058
sg64
(lp3065
g2847
asbag57
(g78
g59
NtRp3066
(dp3067
g62
(dp3068
g89
g90
ssg71
g3058
sg64
(lp3069
S':'
asbag57
(g78
g59
NtRp3070
(dp3071
g62
(dp3072
sg71
g3058
sg64
(lp3073
g57
(g58
g59
NtRp3074
(dp3075
g62
(dp3076
g70
I4
ssg71
g3070
sg64
(lp3077
g2860
asbasbasbag57
(g73
g59
NtRp3078
(dp3079
g62
(dp3080
sg71
g3034
sg64
(lp3081
g57
(g78
g59
NtRp3082
(dp3083
g62
(dp3084
g82
g83
ssg71
g3078
sg64
(lp3085
g2869
asbag57
(g78
g59
NtRp3086
(dp3087
g62
(dp3088
g89
g90
ssg71
g3078
sg64
(lp3089
S':'
asbag57
(g78
g59
NtRp3090
(dp3091
g62
(dp3092
sg71
g3078
sg64
(lp3093
g57
(g58
g59
NtRp3094
(dp3095
g62
(dp3096
g70
I4
ssg71
g3090
sg64
(lp3097
g2882
asbasbasbag57
(g73
g59
NtRp3098
(dp3099
g62
(dp3100
sg71
g3034
sg64
(lp3101
g57
(g78
g59
NtRp3102
(dp3103
g62
(dp3104
g82
g83
ssg71
g3098
sg64
(lp3105
g2313
asbag57
(g78
g59
NtRp3106
(dp3107
g62
(dp3108
g89
g90
ssg71
g3098
sg64
(lp3109
S':'
asbag57
(g78
g59
NtRp3110
(dp3111
g62
(dp3112
sg71
g3098
sg64
(lp3113
g57
(g58
g59
NtRp3114
(dp3115
g62
(dp3116
g70
I4
ssg71
g3110
sg64
(lp3117
S'Student1@ucm.es'
p3118
asbasbasbag57
(g73
g59
NtRp3119
(dp3120
g62
(dp3121
sg71
g3034
sg64
(lp3122
g57
(g78
g59
NtRp3123
(dp3124
g62
(dp3125
g82
g83
ssg71
g3119
sg64
(lp3126
g2891
asbag57
(g78
g59
NtRp3127
(dp3128
g62
(dp3129
g89
g90
ssg71
g3119
sg64
(lp3130
S':'
asbag57
(g78
g59
NtRp3131
(dp3132
g62
(dp3133
sg71
g3119
sg64
(lp3134
g57
(g58
g59
NtRp3135
(dp3136
g62
(dp3137
g70
I4
ssg71
g3131
sg64
(lp3138
g2904
asbasbasbasbasbasbasbag57
(g73
g59
NtRp3139
(dp3140
g62
(dp3141
sg71
g67
sg64
(lp3142
g57
(g78
g59
NtRp3143
(dp3144
g62
(dp3145
g82
g83
ssg71
g3139
sg64
(lp3146
S'wsgi'
p3147
asbag57
(g78
g59
NtRp3148
(dp3149
g62
(dp3150
g89
g90
ssg71
g3139
sg64
(lp3151
S':'
asbag57
(g78
g59
NtRp3152
(dp3153
g62
(dp3154
sg71
g3139
sg64
(lp3155
g57
(g58
g59
NtRp3156
(dp3157
g62
(dp3158
g70
I5
ssg71
g3152
sg64
(lp3159
g57
(g66
g59
NtRp3160
(dp3161
g62
(dp3162
g70
I4
ssg71
Nsg64
(lp3163
g57
(g73
g59
NtRp3164
(dp3165
g62
(dp3166
sg71
g3160
sg64
(lp3167
g57
(g78
g59
NtRp3168
(dp3169
g62
(dp3170
g82
g83
ssg71
g3164
sg64
(lp3171
S'environ'
p3172
asbag57
(g78
g59
NtRp3173
(dp3174
g62
(dp3175
g89
g90
ssg71
g3164
sg64
(lp3176
S':'
asbag57
(g78
g59
NtRp3177
(dp3178
g62
(dp3179
sg71
g3164
sg64
(lp3180
g57
(g58
g59
NtRp3181
(dp3182
g62
(dp3183
g70
I4
ssg71
g3177
sg64
(lp3184
g57
(g66
g59
NtRp3185
(dp3186
g62
(dp3187
g70
I3
ssg71
Nsg64
(lp3188
g57
(g73
g59
NtRp3189
(dp3190
g62
(dp3191
sg71
g3185
sg64
(lp3192
g57
(g78
g59
NtRp3193
(dp3194
g62
(dp3195
g82
g83
ssg71
g3189
sg64
(lp3196
S'CONTENT_LENGTH'
p3197
asbag57
(g78
g59
NtRp3198
(dp3199
g62
(dp3200
g89
g90
ssg71
g3189
sg64
(lp3201
S':'
asbag57
(g78
g59
NtRp3202
(dp3203
g62
(dp3204
sg71
g3189
sg64
(lp3205
g57
(g58
g59
NtRp3206
(dp3207
g62
(dp3208
g70
I3
ssg71
g3202
sg64
(lp3209
g1161
asbasbasbag57
(g73
g59
NtRp3210
(dp3211
g62
(dp3212
sg71
g3185
sg64
(lp3213
g57
(g78
g59
NtRp3214
(dp3215
g62
(dp3216
g82
g83
ssg71
g3210
sg64
(lp3217
S'CONTENT_TYPE'
p3218
asbag57
(g78
g59
NtRp3219
(dp3220
g62
(dp3221
g89
g90
ssg71
g3210
sg64
(lp3222
S':'
asbag57
(g78
g59
NtRp3223
(dp3224
g62
(dp3225
sg71
g3210
sg64
(lp3226
g57
(g58
g59
NtRp3227
(dp3228
g62
(dp3229
g70
I3
ssg71
g3223
sg64
(lp3230
g1183
asbasbasbag57
(g73
g59
NtRp3231
(dp3232
g62
(dp3233
sg71
g3185
sg64
(lp3234
g57
(g78
g59
NtRp3235
(dp3236
g62
(dp3237
g82
g83
ssg71
g3231
sg64
(lp3238
S'HTTP_ACCEPT'
p3239
asbag57
(g78
g59
NtRp3240
(dp3241
g62
(dp3242
g89
g90
ssg71
g3231
sg64
(lp3243
S':'
asbag57
(g78
g59
NtRp3244
(dp3245
g62
(dp3246
sg71
g3231
sg64
(lp3247
g57
(g58
g59
NtRp3248
(dp3249
g62
(dp3250
g70
I3
ssg71
g3244
sg64
(lp3251
g1270
asbasbasbag57
(g73
g59
NtRp3252
(dp3253
g62
(dp3254
sg71
g3185
sg64
(lp3255
g57
(g78
g59
NtRp3256
(dp3257
g62
(dp3258
g82
g83
ssg71
g3252
sg64
(lp3259
S'HTTP_ACCEPT_CHARSET'
p3260
asbag57
(g78
g59
NtRp3261
(dp3262
g62
(dp3263
g89
g90
ssg71
g3252
sg64
(lp3264
S':'
asbag57
(g78
g59
NtRp3265
(dp3266
g62
(dp3267
sg71
g3252
sg64
(lp3268
g57
(g58
g59
NtRp3269
(dp3270
g62
(dp3271
g70
I3
ssg71
g3265
sg64
(lp3272
g1292
asbasbasbag57
(g73
g59
NtRp3273
(dp3274
g62
(dp3275
sg71
g3185
sg64
(lp3276
g57
(g78
g59
NtRp3277
(dp3278
g62
(dp3279
g82
g83
ssg71
g3273
sg64
(lp3280
S'HTTP_ACCEPT_ENCODING'
p3281
asbag57
(g78
g59
NtRp3282
(dp3283
g62
(dp3284
g89
g90
ssg71
g3273
sg64
(lp3285
S':'
asbag57
(g78
g59
NtRp3286
(dp3287
g62
(dp3288
sg71
g3273
sg64
(lp3289
g57
(g58
g59
NtRp3290
(dp3291
g62
(dp3292
g70
I3
ssg71
g3286
sg64
(lp3293
g1314
asbasbasbag57
(g73
g59
NtRp3294
(dp3295
g62
(dp3296
sg71
g3185
sg64
(lp3297
g57
(g78
g59
NtRp3298
(dp3299
g62
(dp3300
g82
g83
ssg71
g3294
sg64
(lp3301
S'HTTP_ACCEPT_LANGUAGE'
p3302
asbag57
(g78
g59
NtRp3303
(dp3304
g62
(dp3305
g89
g90
ssg71
g3294
sg64
(lp3306
S':'
asbag57
(g78
g59
NtRp3307
(dp3308
g62
(dp3309
sg71
g3294
sg64
(lp3310
g57
(g58
g59
NtRp3311
(dp3312
g62
(dp3313
g70
I3
ssg71
g3307
sg64
(lp3314
g1336
asbasbasbag57
(g73
g59
NtRp3315
(dp3316
g62
(dp3317
sg71
g3185
sg64
(lp3318
g57
(g78
g59
NtRp3319
(dp3320
g62
(dp3321
g82
g83
ssg71
g3315
sg64
(lp3322
S'HTTP_CACHE_CONTROL'
p3323
asbag57
(g78
g59
NtRp3324
(dp3325
g62
(dp3326
g89
g90
ssg71
g3315
sg64
(lp3327
S':'
asbag57
(g78
g59
NtRp3328
(dp3329
g62
(dp3330
sg71
g3315
sg64
(lp3331
g57
(g58
g59
NtRp3332
(dp3333
g62
(dp3334
g70
I3
ssg71
g3328
sg64
(lp3335
g1358
asbasbasbag57
(g73
g59
NtRp3336
(dp3337
g62
(dp3338
sg71
g3185
sg64
(lp3339
g57
(g78
g59
NtRp3340
(dp3341
g62
(dp3342
g82
g83
ssg71
g3336
sg64
(lp3343
S'HTTP_CONNECTION'
p3344
asbag57
(g78
g59
NtRp3345
(dp3346
g62
(dp3347
g89
g90
ssg71
g3336
sg64
(lp3348
S':'
asbag57
(g78
g59
NtRp3349
(dp3350
g62
(dp3351
sg71
g3336
sg64
(lp3352
g57
(g58
g59
NtRp3353
(dp3354
g62
(dp3355
g70
I3
ssg71
g3349
sg64
(lp3356
g1380
asbasbasbag57
(g73
g59
NtRp3357
(dp3358
g62
(dp3359
sg71
g3185
sg64
(lp3360
g57
(g78
g59
NtRp3361
(dp3362
g62
(dp3363
g82
g83
ssg71
g3357
sg64
(lp3364
S'HTTP_CONTENT_LENGTH'
p3365
asbag57
(g78
g59
NtRp3366
(dp3367
g62
(dp3368
g89
g90
ssg71
g3357
sg64
(lp3369
S':'
asbag57
(g78
g59
NtRp3370
(dp3371
g62
(dp3372
sg71
g3357
sg64
(lp3373
g57
(g58
g59
NtRp3374
(dp3375
g62
(dp3376
g70
I3
ssg71
g3370
sg64
(lp3377
g1161
asbasbasbag57
(g73
g59
NtRp3378
(dp3379
g62
(dp3380
sg71
g3185
sg64
(lp3381
g57
(g78
g59
NtRp3382
(dp3383
g62
(dp3384
g82
g83
ssg71
g3378
sg64
(lp3385
S'HTTP_CONTENT_TYPE'
p3386
asbag57
(g78
g59
NtRp3387
(dp3388
g62
(dp3389
g89
g90
ssg71
g3378
sg64
(lp3390
S':'
asbag57
(g78
g59
NtRp3391
(dp3392
g62
(dp3393
sg71
g3378
sg64
(lp3394
g57
(g58
g59
NtRp3395
(dp3396
g62
(dp3397
g70
I3
ssg71
g3391
sg64
(lp3398
g1183
asbasbasbag57
(g73
g59
NtRp3399
(dp3400
g62
(dp3401
sg71
g3185
sg64
(lp3402
g57
(g78
g59
NtRp3403
(dp3404
g62
(dp3405
g82
g83
ssg71
g3399
sg64
(lp3406
S'HTTP_COOKIE'
p3407
asbag57
(g78
g59
NtRp3408
(dp3409
g62
(dp3410
g89
g90
ssg71
g3399
sg64
(lp3411
S':'
asbag57
(g78
g59
NtRp3412
(dp3413
g62
(dp3414
sg71
g3399
sg64
(lp3415
g57
(g58
g59
NtRp3416
(dp3417
g62
(dp3418
g70
I3
ssg71
g3412
sg64
(lp3419
g1444
asbasbasbag57
(g73
g59
NtRp3420
(dp3421
g62
(dp3422
sg71
g3185
sg64
(lp3423
g57
(g78
g59
NtRp3424
(dp3425
g62
(dp3426
g82
g83
ssg71
g3420
sg64
(lp3427
S'HTTP_HOST'
p3428
asbag57
(g78
g59
NtRp3429
(dp3430
g62
(dp3431
g89
g90
ssg71
g3420
sg64
(lp3432
S':'
asbag57
(g78
g59
NtRp3433
(dp3434
g62
(dp3435
sg71
g3420
sg64
(lp3436
g57
(g58
g59
NtRp3437
(dp3438
g62
(dp3439
g70
I3
ssg71
g3433
sg64
(lp3440
g1466
asbasbasbag57
(g73
g59
NtRp3441
(dp3442
g62
(dp3443
sg71
g3185
sg64
(lp3444
g57
(g78
g59
NtRp3445
(dp3446
g62
(dp3447
g82
g83
ssg71
g3441
sg64
(lp3448
S'HTTP_ORIGIN'
p3449
asbag57
(g78
g59
NtRp3450
(dp3451
g62
(dp3452
g89
g90
ssg71
g3441
sg64
(lp3453
S':'
asbag57
(g78
g59
NtRp3454
(dp3455
g62
(dp3456
sg71
g3441
sg64
(lp3457
g57
(g58
g59
NtRp3458
(dp3459
g62
(dp3460
g70
I3
ssg71
g3454
sg64
(lp3461
g1488
asbasbasbag57
(g73
g59
NtRp3462
(dp3463
g62
(dp3464
sg71
g3185
sg64
(lp3465
g57
(g78
g59
NtRp3466
(dp3467
g62
(dp3468
g82
g83
ssg71
g3462
sg64
(lp3469
S'HTTP_REFERER'
p3470
asbag57
(g78
g59
NtRp3471
(dp3472
g62
(dp3473
g89
g90
ssg71
g3462
sg64
(lp3474
S':'
asbag57
(g78
g59
NtRp3475
(dp3476
g62
(dp3477
sg71
g3462
sg64
(lp3478
g57
(g58
g59
NtRp3479
(dp3480
g62
(dp3481
g70
I3
ssg71
g3475
sg64
(lp3482
g1510
asbasbasbag57
(g73
g59
NtRp3483
(dp3484
g62
(dp3485
sg71
g3185
sg64
(lp3486
g57
(g78
g59
NtRp3487
(dp3488
g62
(dp3489
g82
g83
ssg71
g3483
sg64
(lp3490
S'HTTP_USER_AGENT'
p3491
asbag57
(g78
g59
NtRp3492
(dp3493
g62
(dp3494
g89
g90
ssg71
g3483
sg64
(lp3495
S':'
asbag57
(g78
g59
NtRp3496
(dp3497
g62
(dp3498
sg71
g3483
sg64
(lp3499
g57
(g58
g59
NtRp3500
(dp3501
g62
(dp3502
g70
I3
ssg71
g3496
sg64
(lp3503
g1532
asbasbasbag57
(g73
g59
NtRp3504
(dp3505
g62
(dp3506
sg71
g3185
sg64
(lp3507
g57
(g78
g59
NtRp3508
(dp3509
g62
(dp3510
g82
g83
ssg71
g3504
sg64
(lp3511
S'PATH_INFO'
p3512
asbag57
(g78
g59
NtRp3513
(dp3514
g62
(dp3515
g89
g90
ssg71
g3504
sg64
(lp3516
S':'
asbag57
(g78
g59
NtRp3517
(dp3518
g62
(dp3519
sg71
g3504
sg64
(lp3520
g57
(g58
g59
NtRp3521
(dp3522
g62
(dp3523
g70
I3
ssg71
g3517
sg64
(lp3524
g1686
asbasbasbag57
(g73
g59
NtRp3525
(dp3526
g62
(dp3527
sg71
g3185
sg64
(lp3528
g57
(g78
g59
NtRp3529
(dp3530
g62
(dp3531
g82
g83
ssg71
g3525
sg64
(lp3532
S'QUERY_STRING'
p3533
asbag57
(g78
g59
NtRp3534
(dp3535
g62
(dp3536
g89
g90
ssg71
g3525
sg64
(lp3537
S':'
asbag57
(g78
g59
NtRp3538
(dp3539
g62
(dp3540
sg71
g3525
sg64
(lp3541
g57
(g58
g59
NtRp3542
(dp3543
g62
(dp3544
g70
I3
ssg71
g3538
sg64
(lp3545
g1708
asbasbasbag57
(g73
g59
NtRp3546
(dp3547
g62
(dp3548
sg71
g3185
sg64
(lp3549
g57
(g78
g59
NtRp3550
(dp3551
g62
(dp3552
g82
g83
ssg71
g3546
sg64
(lp3553
S'REMOTE_ADDR'
p3554
asbag57
(g78
g59
NtRp3555
(dp3556
g62
(dp3557
g89
g90
ssg71
g3546
sg64
(lp3558
S':'
asbag57
(g78
g59
NtRp3559
(dp3560
g62
(dp3561
sg71
g3546
sg64
(lp3562
g57
(g58
g59
NtRp3563
(dp3564
g62
(dp3565
g70
I3
ssg71
g3559
sg64
(lp3566
g225
asbasbasbag57
(g73
g59
NtRp3567
(dp3568
g62
(dp3569
sg71
g3185
sg64
(lp3570
g57
(g78
g59
NtRp3571
(dp3572
g62
(dp3573
g82
g83
ssg71
g3567
sg64
(lp3574
S'REMOTE_PORT'
p3575
asbag57
(g78
g59
NtRp3576
(dp3577
g62
(dp3578
g89
g90
ssg71
g3567
sg64
(lp3579
S':'
asbag57
(g78
g59
NtRp3580
(dp3581
g62
(dp3582
sg71
g3567
sg64
(lp3583
g57
(g58
g59
NtRp3584
(dp3585
g62
(dp3586
g70
I3
ssg71
g3580
sg64
(lp3587
g1751
asbasbasbag57
(g73
g59
NtRp3588
(dp3589
g62
(dp3590
sg71
g3185
sg64
(lp3591
g57
(g78
g59
NtRp3592
(dp3593
g62
(dp3594
g82
g83
ssg71
g3588
sg64
(lp3595
S'REQUEST_METHOD'
p3596
asbag57
(g78
g59
NtRp3597
(dp3598
g62
(dp3599
g89
g90
ssg71
g3588
sg64
(lp3600
S':'
asbag57
(g78
g59
NtRp3601
(dp3602
g62
(dp3603
sg71
g3588
sg64
(lp3604
g57
(g58
g59
NtRp3605
(dp3606
g62
(dp3607
g70
I3
ssg71
g3601
sg64
(lp3608
g1773
asbasbasbag57
(g73
g59
NtRp3609
(dp3610
g62
(dp3611
sg71
g3185
sg64
(lp3612
g57
(g78
g59
NtRp3613
(dp3614
g62
(dp3615
g82
g83
ssg71
g3609
sg64
(lp3616
S'REQUEST_URI'
p3617
asbag57
(g78
g59
NtRp3618
(dp3619
g62
(dp3620
g89
g90
ssg71
g3609
sg64
(lp3621
S':'
asbag57
(g78
g59
NtRp3622
(dp3623
g62
(dp3624
sg71
g3609
sg64
(lp3625
g57
(g58
g59
NtRp3626
(dp3627
g62
(dp3628
g70
I3
ssg71
g3622
sg64
(lp3629
g1795
asbasbasbag57
(g73
g59
NtRp3630
(dp3631
g62
(dp3632
sg71
g3185
sg64
(lp3633
g57
(g78
g59
NtRp3634
(dp3635
g62
(dp3636
g82
g83
ssg71
g3630
sg64
(lp3637
S'SCRIPT_NAME'
p3638
asbag57
(g78
g59
NtRp3639
(dp3640
g62
(dp3641
g89
g90
ssg71
g3630
sg64
(lp3642
S':'
asbag57
(g78
g59
NtRp3643
(dp3644
g62
(dp3645
sg71
g3630
sg64
(lp3646
g57
(g58
g59
NtRp3647
(dp3648
g62
(dp3649
g70
I3
ssg71
g3643
sg64
(lp3650
S''
asbasbasbag57
(g73
g59
NtRp3651
(dp3652
g62
(dp3653
sg71
g3185
sg64
(lp3654
g57
(g78
g59
NtRp3655
(dp3656
g62
(dp3657
g82
g83
ssg71
g3651
sg64
(lp3658
S'SERVER_NAME'
p3659
asbag57
(g78
g59
NtRp3660
(dp3661
g62
(dp3662
g89
g90
ssg71
g3651
sg64
(lp3663
S':'
asbag57
(g78
g59
NtRp3664
(dp3665
g62
(dp3666
sg71
g3651
sg64
(lp3667
g57
(g58
g59
NtRp3668
(dp3669
g62
(dp3670
g70
I3
ssg71
g3664
sg64
(lp3671
g1838
asbasbasbag57
(g73
g59
NtRp3672
(dp3673
g62
(dp3674
sg71
g3185
sg64
(lp3675
g57
(g78
g59
NtRp3676
(dp3677
g62
(dp3678
g82
g83
ssg71
g3672
sg64
(lp3679
S'SERVER_PORT'
p3680
asbag57
(g78
g59
NtRp3681
(dp3682
g62
(dp3683
g89
g90
ssg71
g3672
sg64
(lp3684
S':'
asbag57
(g78
g59
NtRp3685
(dp3686
g62
(dp3687
sg71
g3672
sg64
(lp3688
g57
(g58
g59
NtRp3689
(dp3690
g62
(dp3691
g70
I3
ssg71
g3685
sg64
(lp3692
g1860
asbasbasbag57
(g73
g59
NtRp3693
(dp3694
g62
(dp3695
sg71
g3185
sg64
(lp3696
g57
(g78
g59
NtRp3697
(dp3698
g62
(dp3699
g82
g83
ssg71
g3693
sg64
(lp3700
S'SERVER_PROTOCOL'
p3701
asbag57
(g78
g59
NtRp3702
(dp3703
g62
(dp3704
g89
g90
ssg71
g3693
sg64
(lp3705
S':'
asbag57
(g78
g59
NtRp3706
(dp3707
g62
(dp3708
sg71
g3693
sg64
(lp3709
g57
(g58
g59
NtRp3710
(dp3711
g62
(dp3712
g70
I3
ssg71
g3706
sg64
(lp3713
g1882
asbasbasbag57
(g73
g59
NtRp3714
(dp3715
g62
(dp3716
sg71
g3185
sg64
(lp3717
g57
(g78
g59
NtRp3718
(dp3719
g62
(dp3720
g82
g83
ssg71
g3714
sg64
(lp3721
S'SERVER_SOFTWARE'
p3722
asbag57
(g78
g59
NtRp3723
(dp3724
g62
(dp3725
g89
g90
ssg71
g3714
sg64
(lp3726
S':'
asbag57
(g78
g59
NtRp3727
(dp3728
g62
(dp3729
sg71
g3714
sg64
(lp3730
g57
(g58
g59
NtRp3731
(dp3732
g62
(dp3733
g70
I3
ssg71
g3727
sg64
(lp3734
g1904
asbasbasbag57
(g73
g59
NtRp3735
(dp3736
g62
(dp3737
sg71
g3185
sg64
(lp3738
g57
(g78
g59
NtRp3739
(dp3740
g62
(dp3741
g82
g83
ssg71
g3735
sg64
(lp3742
S'wsgi.errors'
p3743
asbag57
(g78
g59
NtRp3744
(dp3745
g62
(dp3746
g89
g90
ssg71
g3735
sg64
(lp3747
S':'
asbag57
(g78
g59
NtRp3748
(dp3749
g62
(dp3750
sg71
g3735
sg64
(lp3751
g57
(g58
g59
NtRp3752
(dp3753
g62
(dp3754
g70
I3
ssg71
g3748
sg64
(lp3755
S"<open file '<stderr>', mode 'w' at 0x7f5f77b12270>"
p3756
asbasbasbag57
(g73
g59
NtRp3757
(dp3758
g62
(dp3759
sg71
g3185
sg64
(lp3760
g57
(g78
g59
NtRp3761
(dp3762
g62
(dp3763
g82
g83
ssg71
g3757
sg64
(lp3764
S'wsgi.file_wrapper'
p3765
asbag57
(g78
g59
NtRp3766
(dp3767
g62
(dp3768
g89
g90
ssg71
g3757
sg64
(lp3769
S':'
asbag57
(g78
g59
NtRp3770
(dp3771
g62
(dp3772
sg71
g3757
sg64
(lp3773
g57
(g58
g59
NtRp3774
(dp3775
g62
(dp3776
g70
I3
ssg71
g3770
sg64
(lp3777
S'<class wsgiref.util.FileWrapper at 0x2151db8>'
p3778
asbasbasbag57
(g73
g59
NtRp3779
(dp3780
g62
(dp3781
sg71
g3185
sg64
(lp3782
g57
(g78
g59
NtRp3783
(dp3784
g62
(dp3785
g82
g83
ssg71
g3779
sg64
(lp3786
S'wsgi.input'
p3787
asbag57
(g78
g59
NtRp3788
(dp3789
g62
(dp3790
g89
g90
ssg71
g3779
sg64
(lp3791
S':'
asbag57
(g78
g59
NtRp3792
(dp3793
g62
(dp3794
sg71
g3779
sg64
(lp3795
g57
(g58
g59
NtRp3796
(dp3797
g62
(dp3798
g70
I3
ssg71
g3792
sg64
(lp3799
S"<open file '<fdopen>', mode 'w+b' at 0x7f5f64102c90>"
p3800
asbasbasbag57
(g73
g59
NtRp3801
(dp3802
g62
(dp3803
sg71
g3185
sg64
(lp3804
g57
(g78
g59
NtRp3805
(dp3806
g62
(dp3807
g82
g83
ssg71
g3801
sg64
(lp3808
S'wsgi.multiprocess'
p3809
asbag57
(g78
g59
NtRp3810
(dp3811
g62
(dp3812
g89
g90
ssg71
g3801
sg64
(lp3813
S':'
asbag57
(g78
g59
NtRp3814
(dp3815
g62
(dp3816
sg71
g3801
sg64
(lp3817
g57
(g58
g59
NtRp3818
(dp3819
g62
(dp3820
g70
I3
ssg71
g3814
sg64
(lp3821
g100
asbasbasbag57
(g73
g59
NtRp3822
(dp3823
g62
(dp3824
sg71
g3185
sg64
(lp3825
g57
(g78
g59
NtRp3826
(dp3827
g62
(dp3828
g82
g83
ssg71
g3822
sg64
(lp3829
S'wsgi.multithread'
p3830
asbag57
(g78
g59
NtRp3831
(dp3832
g62
(dp3833
g89
g90
ssg71
g3822
sg64
(lp3834
S':'
asbag57
(g78
g59
NtRp3835
(dp3836
g62
(dp3837
sg71
g3822
sg64
(lp3838
g57
(g58
g59
NtRp3839
(dp3840
g62
(dp3841
g70
I3
ssg71
g3835
sg64
(lp3842
g2121
asbasbasbag57
(g73
g59
NtRp3843
(dp3844
g62
(dp3845
sg71
g3185
sg64
(lp3846
g57
(g78
g59
NtRp3847
(dp3848
g62
(dp3849
g82
g83
ssg71
g3843
sg64
(lp3850
S'wsgi.run_once'
p3851
asbag57
(g78
g59
NtRp3852
(dp3853
g62
(dp3854
g89
g90
ssg71
g3843
sg64
(lp3855
S':'
asbag57
(g78
g59
NtRp3856
(dp3857
g62
(dp3858
sg71
g3843
sg64
(lp3859
g57
(g58
g59
NtRp3860
(dp3861
g62
(dp3862
g70
I3
ssg71
g3856
sg64
(lp3863
g100
asbasbasbag57
(g73
g59
NtRp3864
(dp3865
g62
(dp3866
sg71
g3185
sg64
(lp3867
g57
(g78
g59
NtRp3868
(dp3869
g62
(dp3870
g82
g83
ssg71
g3864
sg64
(lp3871
S'wsgi.url_scheme'
p3872
asbag57
(g78
g59
NtRp3873
(dp3874
g62
(dp3875
g89
g90
ssg71
g3864
sg64
(lp3876
S':'
asbag57
(g78
g59
NtRp3877
(dp3878
g62
(dp3879
sg71
g3864
sg64
(lp3880
g57
(g58
g59
NtRp3881
(dp3882
g62
(dp3883
g70
I3
ssg71
g3877
sg64
(lp3884
g2164
asbasbasbag57
(g73
g59
NtRp3885
(dp3886
g62
(dp3887
sg71
g3185
sg64
(lp3888
g57
(g78
g59
NtRp3889
(dp3890
g62
(dp3891
g82
g83
ssg71
g3885
sg64
(lp3892
S'wsgi.version'
p3893
asbag57
(g78
g59
NtRp3894
(dp3895
g62
(dp3896
g89
g90
ssg71
g3885
sg64
(lp3897
S':'
asbag57
(g78
g59
NtRp3898
(dp3899
g62
(dp3900
sg71
g3885
sg64
(lp3901
g57
(g58
g59
NtRp3902
(dp3903
g62
(dp3904
g70
I3
ssg71
g3898
sg64
(lp3905
S'1'
asbasbasbasbasbasbasbasbasbasbasbasbasbsS'frames'
p3906
(lp3907
(dp3908
S'file'
p3909
S'/home/adrian/web2py/gluon/restricted.py'
p3910
sS'dump'
p3911
(dp3912
S'environment'
p3913
S"{'A': <class 'gluon.html.A'>, 'Auth': <class 'gluon.tools.Auth'>, 'B': <class 'gluon.html.B'>, 'BEAUTIFY': <class 'gluon.html.BEAUTIFY'>, 'BODY': <class 'gluon.html.BODY'>, 'BR': <class 'gluon.html.BR'>, 'BUTTON': <class 'gluon.html.BUTTON'>, 'CAT': <class 'gluon.html.CAT'>, 'CENTER': <class 'gluon.html.CENTER'>, 'CLEANUP': <class 'gluon.validators.CLEANUP'>, ...}"
p3914
sS'ccode'
p3915
S'<code object <module> at 0x2295a30, file "/home/...ygnusCloud/controllers/administrator.py", line 4>'
p3916
ssS'lnum'
p3917
I212
sS'lines'
p3918
(dp3919
I207
S'    try:'
p3920
sI208
S'        if isinstance(code, types.CodeType):'
p3921
sI209
S'            ccode = code'
p3922
sI210
S'        else:'
p3923
sI211
S'            ccode = compile2(code, layer)'
p3924
sI212
S'        exec ccode in environment'
p3925
sI213
S'    except HTTP:'
p3926
sI214
S'        raise'
p3927
sI215
S'    except RestrictedError:'
p3928
sI216
S'        # do not encapsulate (obfuscate) the original RestrictedError'
p3929
ssS'call'
p3930
S'(code="# coding: utf8\\n\\n\\n@auth.requires_membership(\'Admi...rn table\\n\\nresponse._vars=response._caller(users)\\n", environment={\'A\': <class \'gluon.html.A\'>, \'Auth\': <class \'gluon.tools.Auth\'>, \'B\': <class \'gluon.html.B\'>, \'BEAUTIFY\': <class \'gluon.html.BEAUTIFY\'>, \'BODY\': <class \'gluon.html.BODY\'>, \'BR\': <class \'gluon.html.BR\'>, \'BUTTON\': <class \'gluon.html.BUTTON\'>, \'CAT\': <class \'gluon.html.CAT\'>, \'CENTER\': <class \'gluon.html.CENTER\'>, \'CLEANUP\': <class \'gluon.validators.CLEANUP\'>, ...}, layer=\'/home/adrian/web2py/applications/CygnusCloud/controllers/administrator.py\')'
p3931
sS'func'
p3932
S'restricted'
p3933
sa(dp3934
g3909
S'/home/adrian/web2py/applications/CygnusCloud/controllers/administrator.py'
p3935
sg3911
(dp3936
sg3917
I297
sg3918
(dp3937
I288
S'    for l in listSubjects:'
p3938
sI289
S'        table.append(TR(\\'
p3939
sI290
S"        TD(INPUT(_type='radio',_name = 'selection',_value = i)),\\"
p3940
sI291
S"        TD(LABEL(str(l[0]) + '-' + userDB(l[0] == userDB.Subjects.code).select()[0].name),_width = '50%'),"
p3941
sI292
S'        TD(LABEL(l[1]))))'
p3942
sI293
S'        i = i + 1'
p3943
sI294
S'    pass'
p3944
sI295
S'    return table'
p3945
sI286
S"    table.append(TR(TH('S.'),TH(T('Cod-Asignatura'),TH(T('Grupo')))))"
p3946
sI287
S'    i = 0'
p3947
ssg3930
S'()'
p3948
sg3932
S'<module>'
p3949
sa(dp3950
g3909
S'/home/adrian/web2py/gluon/globals.py'
p3951
sg3911
(dp3952
S'self'
p3953
S'undefined'
p3954
sS'f'
S'<function users>'
p3955
ssg3917
I193
sg3918
(dp3956
I192
S'        self._vars = None'
p3957
sI193
S'        self._caller = lambda f: f()'
p3958
sI194
S'        self._view_environment = None'
p3959
sI195
S'        self._custom_commit = None'
p3960
sI196
S'        self._custom_rollback = None'
p3961
sI197
S''
sI188
S'        self.menu = []             # used by the default view layout'
p3962
sI189
S'        self.files = []            # used by web2py_ajax.html'
p3963
sI190
S'        self.generic_patterns = []  # patterns to allow generic views'
p3964
sI191
S"        self.delimiters = ('{{', '}}')"
p3965
ssg3930
S'(f=<function users>)'
p3966
sg3932
S'<lambda>'
p3967
sa(dp3968
g3909
S'/home/adrian/web2py/gluon/tools.py'
p3969
sg3911
(dp3970
S'action'
p3971
S'<function users>'
p3972
sS'a'
S'()'
p3973
sS'b'
g45
ssg3917
I2929
sg3918
(dp3974
I2924
S'                    flag = condition'
p3975
sI2925
S'                if not flag:'
p3976
sI2926
S'                    current.session.flash = self.messages.access_denied'
p3977
sI2927
S'                    return call_or_redirect('
p3978
sI2928
S'                        self.settings.on_failed_authorization)'
p3979
sI2929
S'                return action(*a, **b)'
p3980
sI2930
S'            f.__doc__ = action.__doc__'
p3981
sI2931
S'            f.__name__ = action.__name__'
p3982
sI2932
S'            f.__dict__.update(action.__dict__)'
p3983
sI2933
S'            return f'
p3984
ssg3930
S'(*a=(), **b={})'
p3985
sg3932
S'f'
sa(dp3986
g3909
S'/home/adrian/web2py/applications/CygnusCloud/controllers/administrator.py'
p3987
sg3911
(dp3988
S'form2.vars.code'
p3989
S"'106144'"
p3990
sS'userDB.UserGroup.curseGroup'
p3991
S'<gluon.dal.Field object>'
p3992
sS'form2.vars'
p3993
S"<Storage {'code': '106144', 'classGroup': 'a', '...elect': 'Student1@ucm.es', 'remove': 'Eliminar'}>"
p3994
sS'global userDB'
p3995
S'<DAL uri="mysql://******:cygnuscloud2012@localhost/CygnusCloudUserDB">'
p3996
sS'form2.vars.usersSelect'
p3997
S"'Student1@ucm.es'"
p3998
sS'form2'
p3999
S'<gluon.html.FORM object>'
p4000
sS').count'
p4001
S'<built-in method count of str object>'
p4002
sS'userDB.UserGroup.userId'
p4003
S'<gluon.dal.Field object>'
p4004
sS'userDB.UserGroup'
p4005
S'<Table UserGroup (userId,cod,curseGroup)>'
p4006
sS'form2.vars.classGroup'
p4007
S"'a'"
p4008
sS'userDB.UserGroup.cod'
p4009
S'<gluon.dal.Field object>'
p4010
ssg3917
I67
sg3918
(dp4011
I64
S'               else:'
p4012
sI65
S"                    response.flash = T('El usuario ya se encuentra asociado al grupo de asignatura o el grupo de asignatura no existe.')"
p4013
sI66
S'        elif form2.accepts(request.vars,keepvalues=True) and form2.vars.remove:'
p4014
sI67
S'            if((userDB(userDB.UserGroup.userId == form2.vars.usersSelect) & (userDB.UserGroup.cod == form2.vars.code) & \\'
p4015
sI68
S'            (userDB.UserGroup.curseGroup == form2.vars.classGroup)).count() == 1):'
p4016
sI69
S'                (userDB(userDB.UserGroup.userId == form2.vars.usersSelect) & (userDB.UserGroup.cod == form2.vars.code) & \\'
p4017
sI70
S'                (userDB.UserGroup.curseGroup == form2.vars.classGroup)).delete()'
p4018
sI71
S"                response.flash = T('Relaci\xc3\xb3n eliminada.')"
p4019
sI62
S'                   userDB.UserGroup.insert(userId = form2.vars.usersSelect,cod = form2.vars.code,curseGroup = form2.vars.classGroup)'
p4020
sI63
S"                   response.flash = T('Usuario asociado.')"
p4021
ssg3930
S'()'
p4022
sg3932
S'users'
p4023
sasS'pyver'
p4024
S'Python 2.7.3: /usr/bin/python'
p4025
sS'session'
p4026
g57
(g58
g59
NtRp4027
(dp4028
g62
(dp4029
sg64
(lp4030
g57
(g66
g59
NtRp4031
(dp4032
g62
(dp4033
g70
I5
ssg71
Nsg64
(lp4034
g57
(g73
g59
NtRp4035
(dp4036
g62
(dp4037
sg71
g4031
sg64
(lp4038
g57
(g78
g59
NtRp4039
(dp4040
g62
(dp4041
g82
g83
ssg71
g4035
sg64
(lp4042
S'auth'
p4043
asbag57
(g78
g59
NtRp4044
(dp4045
g62
(dp4046
g89
g90
ssg71
g4035
sg64
(lp4047
S':'
asbag57
(g78
g59
NtRp4048
(dp4049
g62
(dp4050
sg71
g4035
sg64
(lp4051
g57
(g58
g59
NtRp4052
(dp4053
g62
(dp4054
g70
I5
ssg71
g4048
sg64
(lp4055
g57
(g66
g59
NtRp4056
(dp4057
g62
(dp4058
g70
I4
ssg71
Nsg64
(lp4059
g57
(g73
g59
NtRp4060
(dp4061
g62
(dp4062
sg71
g4056
sg64
(lp4063
g57
(g78
g59
NtRp4064
(dp4065
g62
(dp4066
g82
g83
ssg71
g4060
sg64
(lp4067
S'expiration'
p4068
asbag57
(g78
g59
NtRp4069
(dp4070
g62
(dp4071
g89
g90
ssg71
g4060
sg64
(lp4072
S':'
asbag57
(g78
g59
NtRp4073
(dp4074
g62
(dp4075
sg71
g4060
sg64
(lp4076
g57
(g58
g59
NtRp4077
(dp4078
g62
(dp4079
g70
I4
ssg71
g4073
sg64
(lp4080
S'3600'
p4081
asbasbasbag57
(g73
g59
NtRp4082
(dp4083
g62
(dp4084
sg71
g4056
sg64
(lp4085
g57
(g78
g59
NtRp4086
(dp4087
g62
(dp4088
g82
g83
ssg71
g4082
sg64
(lp4089
S'hmac_key'
p4090
asbag57
(g78
g59
NtRp4091
(dp4092
g62
(dp4093
g89
g90
ssg71
g4082
sg64
(lp4094
S':'
asbag57
(g78
g59
NtRp4095
(dp4096
g62
(dp4097
sg71
g4082
sg64
(lp4098
g57
(g58
g59
NtRp4099
(dp4100
g62
(dp4101
g70
I4
ssg71
g4095
sg64
(lp4102
S'1c339bb1-1ea9-43a4-a4a3-46170445c13f'
p4103
asbasbasbag57
(g73
g59
NtRp4104
(dp4105
g62
(dp4106
sg71
g4056
sg64
(lp4107
g57
(g78
g59
NtRp4108
(dp4109
g62
(dp4110
g82
g83
ssg71
g4104
sg64
(lp4111
S'last_visit'
p4112
asbag57
(g78
g59
NtRp4113
(dp4114
g62
(dp4115
g89
g90
ssg71
g4104
sg64
(lp4116
S':'
asbag57
(g78
g59
NtRp4117
(dp4118
g62
(dp4119
sg71
g4104
sg64
(lp4120
g57
(g58
g59
NtRp4121
(dp4122
g62
(dp4123
g70
I4
ssg71
g4117
sg64
(lp4124
S'datetime.datetime(2013, 2, 11, 20, 23, 26, 613946)'
p4125
asbasbasbag57
(g73
g59
NtRp4126
(dp4127
g62
(dp4128
sg71
g4056
sg64
(lp4129
g57
(g78
g59
NtRp4130
(dp4131
g62
(dp4132
g82
g83
ssg71
g4126
sg64
(lp4133
S'remember'
p4134
asbag57
(g78
g59
NtRp4135
(dp4136
g62
(dp4137
g89
g90
ssg71
g4126
sg64
(lp4138
S':'
asbag57
(g78
g59
NtRp4139
(dp4140
g62
(dp4141
sg71
g4126
sg64
(lp4142
g57
(g58
g59
NtRp4143
(dp4144
g62
(dp4145
g70
I4
ssg71
g4139
sg64
(lp4146
g100
asbasbasbag57
(g73
g59
NtRp4147
(dp4148
g62
(dp4149
sg71
g4056
sg64
(lp4150
g57
(g78
g59
NtRp4151
(dp4152
g62
(dp4153
g82
g83
ssg71
g4147
sg64
(lp4154
S'user'
p4155
asbag57
(g78
g59
NtRp4156
(dp4157
g62
(dp4158
g89
g90
ssg71
g4147
sg64
(lp4159
S':'
asbag57
(g78
g59
NtRp4160
(dp4161
g62
(dp4162
sg71
g4147
sg64
(lp4163
g57
(g58
g59
NtRp4164
(dp4165
g62
(dp4166
g70
I4
ssg71
g4160
sg64
(lp4167
g57
(g66
g59
NtRp4168
(dp4169
g62
(dp4170
g70
I3
ssg71
Nsg64
(lp4171
g57
(g73
g59
NtRp4172
(dp4173
g62
(dp4174
sg71
g4168
sg64
(lp4175
g57
(g78
g59
NtRp4176
(dp4177
g62
(dp4178
g82
g83
ssg71
g4172
sg64
(lp4179
S'email'
p4180
asbag57
(g78
g59
NtRp4181
(dp4182
g62
(dp4183
g89
g90
ssg71
g4172
sg64
(lp4184
S':'
asbag57
(g78
g59
NtRp4185
(dp4186
g62
(dp4187
sg71
g4172
sg64
(lp4188
g57
(g58
g59
NtRp4189
(dp4190
g62
(dp4191
g70
I3
ssg71
g4185
sg64
(lp4192
S'Admin1@ucm.es'
p4193
asbasbasbag57
(g73
g59
NtRp4194
(dp4195
g62
(dp4196
sg71
g4168
sg64
(lp4197
g57
(g78
g59
NtRp4198
(dp4199
g62
(dp4200
g82
g83
ssg71
g4194
sg64
(lp4201
S'first_name'
p4202
asbag57
(g78
g59
NtRp4203
(dp4204
g62
(dp4205
g89
g90
ssg71
g4194
sg64
(lp4206
S':'
asbag57
(g78
g59
NtRp4207
(dp4208
g62
(dp4209
sg71
g4194
sg64
(lp4210
g57
(g58
g59
NtRp4211
(dp4212
g62
(dp4213
g70
I3
ssg71
g4207
sg64
(lp4214
S'Bertoldo'
p4215
asbasbasbag57
(g73
g59
NtRp4216
(dp4217
g62
(dp4218
sg71
g4168
sg64
(lp4219
g57
(g78
g59
NtRp4220
(dp4221
g62
(dp4222
g82
g83
ssg71
g4216
sg64
(lp4223
S'id'
p4224
asbag57
(g78
g59
NtRp4225
(dp4226
g62
(dp4227
g89
g90
ssg71
g4216
sg64
(lp4228
S':'
asbag57
(g78
g59
NtRp4229
(dp4230
g62
(dp4231
sg71
g4216
sg64
(lp4232
g57
(g58
g59
NtRp4233
(dp4234
g62
(dp4235
g70
I3
ssg71
g4229
sg64
(lp4236
S'1'
asbasbasbag57
(g73
g59
NtRp4237
(dp4238
g62
(dp4239
sg71
g4168
sg64
(lp4240
g57
(g78
g59
NtRp4241
(dp4242
g62
(dp4243
g82
g83
ssg71
g4237
sg64
(lp4244
S'last_name'
p4245
asbag57
(g78
g59
NtRp4246
(dp4247
g62
(dp4248
g89
g90
ssg71
g4237
sg64
(lp4249
S':'
asbag57
(g78
g59
NtRp4250
(dp4251
g62
(dp4252
sg71
g4237
sg64
(lp4253
g57
(g58
g59
NtRp4254
(dp4255
g62
(dp4256
g70
I3
ssg71
g4250
sg64
(lp4257
S'Pedralbes'
p4258
asbasbasbag57
(g73
g59
NtRp4259
(dp4260
g62
(dp4261
sg71
g4168
sg64
(lp4262
g57
(g78
g59
NtRp4263
(dp4264
g62
(dp4265
g82
g83
ssg71
g4259
sg64
(lp4266
S'registration_id'
p4267
asbag57
(g78
g59
NtRp4268
(dp4269
g62
(dp4270
g89
g90
ssg71
g4259
sg64
(lp4271
S':'
asbag57
(g78
g59
NtRp4272
(dp4273
g62
(dp4274
sg71
g4259
sg64
(lp4275
g57
(g58
g59
NtRp4276
(dp4277
g62
(dp4278
g70
I3
ssg71
g4272
sg64
(lp4279
S''
asbasbasbag57
(g73
g59
NtRp4280
(dp4281
g62
(dp4282
sg71
g4168
sg64
(lp4283
g57
(g78
g59
NtRp4284
(dp4285
g62
(dp4286
g82
g83
ssg71
g4280
sg64
(lp4287
S'registration_key'
p4288
asbag57
(g78
g59
NtRp4289
(dp4290
g62
(dp4291
g89
g90
ssg71
g4280
sg64
(lp4292
S':'
asbag57
(g78
g59
NtRp4293
(dp4294
g62
(dp4295
sg71
g4280
sg64
(lp4296
g57
(g58
g59
NtRp4297
(dp4298
g62
(dp4299
g70
I3
ssg71
g4293
sg64
(lp4300
S''
asbasbasbag57
(g73
g59
NtRp4301
(dp4302
g62
(dp4303
sg71
g4168
sg64
(lp4304
g57
(g78
g59
NtRp4305
(dp4306
g62
(dp4307
g82
g83
ssg71
g4301
sg64
(lp4308
S'reset_password_key'
p4309
asbag57
(g78
g59
NtRp4310
(dp4311
g62
(dp4312
g89
g90
ssg71
g4301
sg64
(lp4313
S':'
asbag57
(g78
g59
NtRp4314
(dp4315
g62
(dp4316
sg71
g4301
sg64
(lp4317
g57
(g58
g59
NtRp4318
(dp4319
g62
(dp4320
g70
I3
ssg71
g4314
sg64
(lp4321
S''
asbasbasbasbasbasbasbag57
(g73
g59
NtRp4322
(dp4323
g62
(dp4324
sg71
g4056
sg64
(lp4325
g57
(g78
g59
NtRp4326
(dp4327
g62
(dp4328
g82
g83
ssg71
g4322
sg64
(lp4329
S'user_groups'
p4330
asbag57
(g78
g59
NtRp4331
(dp4332
g62
(dp4333
g89
g90
ssg71
g4322
sg64
(lp4334
S':'
asbag57
(g78
g59
NtRp4335
(dp4336
g62
(dp4337
sg71
g4322
sg64
(lp4338
g57
(g58
g59
NtRp4339
(dp4340
g62
(dp4341
g70
I4
ssg71
g4335
sg64
(lp4342
g57
(g66
g59
NtRp4343
(dp4344
g62
(dp4345
g70
I3
ssg71
Nsg64
(lp4346
g57
(g73
g59
NtRp4347
(dp4348
g62
(dp4349
sg71
g4343
sg64
(lp4350
g57
(g78
g59
NtRp4351
(dp4352
g62
(dp4353
g82
g83
ssg71
g4347
sg64
(lp4354
S'2'
asbag57
(g78
g59
NtRp4355
(dp4356
g62
(dp4357
g89
g90
ssg71
g4347
sg64
(lp4358
S':'
asbag57
(g78
g59
NtRp4359
(dp4360
g62
(dp4361
sg71
g4347
sg64
(lp4362
g57
(g58
g59
NtRp4363
(dp4364
g62
(dp4365
g70
I3
ssg71
g4359
sg64
(lp4366
S'Administrator'
p4367
asbasbasbasbasbasbasbasbasbasbasbag57
(g73
g59
NtRp4368
(dp4369
g62
(dp4370
sg71
g4031
sg64
(lp4371
g57
(g78
g59
NtRp4372
(dp4373
g62
(dp4374
g82
g83
ssg71
g4368
sg64
(lp4375
S'flash'
p4376
asbag57
(g78
g59
NtRp4377
(dp4378
g62
(dp4379
g89
g90
ssg71
g4368
sg64
(lp4380
S':'
asbag57
(g78
g59
NtRp4381
(dp4382
g62
(dp4383
sg71
g4368
sg64
(lp4384
g57
(g58
g59
NtRp4385
(dp4386
g62
(dp4387
g70
I5
ssg71
g4381
sg64
(lp4388
S'None'
p4389
asbasbasbag57
(g73
g59
NtRp4390
(dp4391
g62
(dp4392
sg71
g4031
sg64
(lp4393
g57
(g78
g59
NtRp4394
(dp4395
g62
(dp4396
g82
g83
ssg71
g4390
sg64
(lp4397
S'last_orderby'
p4398
asbag57
(g78
g59
NtRp4399
(dp4400
g62
(dp4401
g89
g90
ssg71
g4390
sg64
(lp4402
S':'
asbag57
(g78
g59
NtRp4403
(dp4404
g62
(dp4405
sg71
g4390
sg64
(lp4406
g57
(g58
g59
NtRp4407
(dp4408
g62
(dp4409
g70
I5
ssg71
g4403
sg64
(lp4410
S'None'
p4411
asbasbasbag57
(g73
g59
NtRp4412
(dp4413
g62
(dp4414
sg71
g4031
sg64
(lp4415
g57
(g78
g59
NtRp4416
(dp4417
g62
(dp4418
g82
g83
ssg71
g4412
sg64
(lp4419
S'last_query'
p4420
asbag57
(g78
g59
NtRp4421
(dp4422
g62
(dp4423
g89
g90
ssg71
g4412
sg64
(lp4424
S':'
asbag57
(g78
g59
NtRp4425
(dp4426
g62
(dp4427
sg71
g4412
sg64
(lp4428
g57
(g58
g59
NtRp4429
(dp4430
g62
(dp4431
g70
I5
ssg71
g4425
sg64
(lp4432
S'userDB.UserGroup.cod>0'
p4433
asbasbasbasbasbsS'etype'
p4434
S"<type 'exceptions.TypeError'>"
p4435
sS'date'
p4436
S'Mon Feb 11 20:23:26 2013'
p4437
sS'response'
p4438
g57
(g58
g59
NtRp4439
(dp4440
g62
(dp4441
sg64
(lp4442
g57
(g66
g59
NtRp4443
(dp4444
g62
(dp4445
g70
I5
ssg71
Nsg64
(lp4446
g57
(g73
g59
NtRp4447
(dp4448
g62
(dp4449
sg71
g4443
sg64
(lp4450
g57
(g78
g59
NtRp4451
(dp4452
g62
(dp4453
g82
g83
ssg71
g4447
sg64
(lp4454
g168
asbag57
(g78
g59
NtRp4455
(dp4456
g62
(dp4457
g89
g90
ssg71
g4447
sg64
(lp4458
S':'
asbag57
(g78
g59
NtRp4459
(dp4460
g62
(dp4461
sg71
g4447
sg64
(lp4462
g57
(g58
g59
NtRp4463
(dp4464
g62
(dp4465
g70
I5
ssg71
g4459
sg64
(lp4466
S'<cStringIO.StringO object at 0x7f5f50395458>'
p4467
asbasbasbag57
(g73
g59
NtRp4468
(dp4469
g62
(dp4470
sg71
g4443
sg64
(lp4471
g57
(g78
g59
NtRp4472
(dp4473
g62
(dp4474
g82
g83
ssg71
g4468
sg64
(lp4475
g256
asbag57
(g78
g59
NtRp4476
(dp4477
g62
(dp4478
g89
g90
ssg71
g4468
sg64
(lp4479
S':'
asbag57
(g78
g59
NtRp4480
(dp4481
g62
(dp4482
sg71
g4468
sg64
(lp4483
g57
(g58
g59
NtRp4484
(dp4485
g62
(dp4486
g70
I5
ssg71
g4480
sg64
(lp4487
g57
(g66
g59
NtRp4488
(dp4489
g62
(dp4490
g70
I4
ssg71
Nsg64
(lp4491
g57
(g73
g59
NtRp4492
(dp4493
g62
(dp4494
sg71
g4488
sg64
(lp4495
g57
(g78
g59
NtRp4496
(dp4497
g62
(dp4498
g82
g83
ssg71
g4492
sg64
(lp4499
S'session_id_cygnuscloud'
p4500
asbag57
(g78
g59
NtRp4501
(dp4502
g62
(dp4503
g89
g90
ssg71
g4492
sg64
(lp4504
S':'
asbag57
(g78
g59
NtRp4505
(dp4506
g62
(dp4507
sg71
g4492
sg64
(lp4508
g57
(g58
g59
NtRp4509
(dp4510
g62
(dp4511
g70
I4
ssg71
g4505
sg64
(lp4512
g673
ag57
(g66
g59
NtRp4513
(dp4514
g62
(dp4515
g70
I3
ssg71
Nsg64
(lp4516
g57
(g73
g59
NtRp4517
(dp4518
g62
(dp4519
sg71
g4513
sg64
(lp4520
g57
(g78
g59
NtRp4521
(dp4522
g62
(dp4523
g82
g83
ssg71
g4517
sg64
(lp4524
g306
asbag57
(g78
g59
NtRp4525
(dp4526
g62
(dp4527
g89
g90
ssg71
g4517
sg64
(lp4528
S':'
asbag57
(g78
g59
NtRp4529
(dp4530
g62
(dp4531
sg71
g4517
sg64
(lp4532
g57
(g58
g59
NtRp4533
(dp4534
g62
(dp4535
g70
I3
ssg71
g4529
sg64
(lp4536
S''
asbasbasbag57
(g73
g59
NtRp4537
(dp4538
g62
(dp4539
sg71
g4513
sg64
(lp4540
g57
(g78
g59
NtRp4541
(dp4542
g62
(dp4543
g82
g83
ssg71
g4537
sg64
(lp4544
g327
asbag57
(g78
g59
NtRp4545
(dp4546
g62
(dp4547
g89
g90
ssg71
g4537
sg64
(lp4548
S':'
asbag57
(g78
g59
NtRp4549
(dp4550
g62
(dp4551
sg71
g4537
sg64
(lp4552
g57
(g58
g59
NtRp4553
(dp4554
g62
(dp4555
g70
I3
ssg71
g4549
sg64
(lp4556
S''
asbasbasbag57
(g73
g59
NtRp4557
(dp4558
g62
(dp4559
sg71
g4513
sg64
(lp4560
g57
(g78
g59
NtRp4561
(dp4562
g62
(dp4563
g82
g83
ssg71
g4557
sg64
(lp4564
g348
asbag57
(g78
g59
NtRp4565
(dp4566
g62
(dp4567
g89
g90
ssg71
g4557
sg64
(lp4568
S':'
asbag57
(g78
g59
NtRp4569
(dp4570
g62
(dp4571
sg71
g4557
sg64
(lp4572
g57
(g58
g59
NtRp4573
(dp4574
g62
(dp4575
g70
I3
ssg71
g4569
sg64
(lp4576
S''
asbasbasbag57
(g73
g59
NtRp4577
(dp4578
g62
(dp4579
sg71
g4513
sg64
(lp4580
g57
(g78
g59
NtRp4581
(dp4582
g62
(dp4583
g82
g83
ssg71
g4577
sg64
(lp4584
g369
asbag57
(g78
g59
NtRp4585
(dp4586
g62
(dp4587
g89
g90
ssg71
g4577
sg64
(lp4588
S':'
asbag57
(g78
g59
NtRp4589
(dp4590
g62
(dp4591
sg71
g4577
sg64
(lp4592
g57
(g58
g59
NtRp4593
(dp4594
g62
(dp4595
g70
I3
ssg71
g4589
sg64
(lp4596
S''
asbasbasbag57
(g73
g59
NtRp4597
(dp4598
g62
(dp4599
sg71
g4513
sg64
(lp4600
g57
(g78
g59
NtRp4601
(dp4602
g62
(dp4603
g82
g83
ssg71
g4597
sg64
(lp4604
g390
asbag57
(g78
g59
NtRp4605
(dp4606
g62
(dp4607
g89
g90
ssg71
g4597
sg64
(lp4608
S':'
asbag57
(g78
g59
NtRp4609
(dp4610
g62
(dp4611
sg71
g4597
sg64
(lp4612
g57
(g58
g59
NtRp4613
(dp4614
g62
(dp4615
g70
I3
ssg71
g4609
sg64
(lp4616
S''
asbasbasbag57
(g73
g59
NtRp4617
(dp4618
g62
(dp4619
sg71
g4513
sg64
(lp4620
g57
(g78
g59
NtRp4621
(dp4622
g62
(dp4623
g82
g83
ssg71
g4617
sg64
(lp4624
g411
asbag57
(g78
g59
NtRp4625
(dp4626
g62
(dp4627
g89
g90
ssg71
g4617
sg64
(lp4628
S':'
asbag57
(g78
g59
NtRp4629
(dp4630
g62
(dp4631
sg71
g4617
sg64
(lp4632
g57
(g58
g59
NtRp4633
(dp4634
g62
(dp4635
g70
I3
ssg71
g4629
sg64
(lp4636
S'/'
asbasbasbag57
(g73
g59
NtRp4637
(dp4638
g62
(dp4639
sg71
g4513
sg64
(lp4640
g57
(g78
g59
NtRp4641
(dp4642
g62
(dp4643
g82
g83
ssg71
g4637
sg64
(lp4644
g432
asbag57
(g78
g59
NtRp4645
(dp4646
g62
(dp4647
g89
g90
ssg71
g4637
sg64
(lp4648
S':'
asbag57
(g78
g59
NtRp4649
(dp4650
g62
(dp4651
sg71
g4637
sg64
(lp4652
g57
(g58
g59
NtRp4653
(dp4654
g62
(dp4655
g70
I3
ssg71
g4649
sg64
(lp4656
S''
asbasbasbag57
(g73
g59
NtRp4657
(dp4658
g62
(dp4659
sg71
g4513
sg64
(lp4660
g57
(g78
g59
NtRp4661
(dp4662
g62
(dp4663
g82
g83
ssg71
g4657
sg64
(lp4664
g453
asbag57
(g78
g59
NtRp4665
(dp4666
g62
(dp4667
g89
g90
ssg71
g4657
sg64
(lp4668
S':'
asbag57
(g78
g59
NtRp4669
(dp4670
g62
(dp4671
sg71
g4657
sg64
(lp4672
g57
(g58
g59
NtRp4673
(dp4674
g62
(dp4675
g70
I3
ssg71
g4669
sg64
(lp4676
S''
asbasbasbasbasbasbasbasbasbasbasbag57
(g73
g59
NtRp4677
(dp4678
g62
(dp4679
sg71
g4443
sg64
(lp4680
g57
(g78
g59
NtRp4681
(dp4682
g62
(dp4683
g82
g83
ssg71
g4677
sg64
(lp4684
S'delimiters'
p4685
asbag57
(g78
g59
NtRp4686
(dp4687
g62
(dp4688
g89
g90
ssg71
g4677
sg64
(lp4689
S':'
asbag57
(g78
g59
NtRp4690
(dp4691
g62
(dp4692
sg71
g4677
sg64
(lp4693
g57
(g58
g59
NtRp4694
(dp4695
g62
(dp4696
g70
I5
ssg71
g4690
sg64
(lp4697
g57
(g66
g59
NtRp4698
(dp4699
g62
(dp4700
g70
I4
ssg71
Nsg64
(lp4701
g57
(g73
g59
NtRp4702
(dp4703
g62
(dp4704
sg71
g4698
sg64
(lp4705
g57
(g78
g59
NtRp4706
(dp4707
g62
(dp4708
sg71
g4702
sg64
(lp4709
g57
(g58
g59
NtRp4710
(dp4711
g62
(dp4712
g70
I4
ssg71
g4706
sg64
(lp4713
S'{{'
p4714
asbasbasbag57
(g73
g59
NtRp4715
(dp4716
g62
(dp4717
sg71
g4698
sg64
(lp4718
g57
(g78
g59
NtRp4719
(dp4720
g62
(dp4721
sg71
g4715
sg64
(lp4722
g57
(g58
g59
NtRp4723
(dp4724
g62
(dp4725
g70
I4
ssg71
g4719
sg64
(lp4726
S'}}'
p4727
asbasbasbasbasbasbasbag57
(g73
g59
NtRp4728
(dp4729
g62
(dp4730
sg71
g4443
sg64
(lp4731
g57
(g78
g59
NtRp4732
(dp4733
g62
(dp4734
g82
g83
ssg71
g4728
sg64
(lp4735
S'files'
p4736
asbag57
(g78
g59
NtRp4737
(dp4738
g62
(dp4739
g89
g90
ssg71
g4728
sg64
(lp4740
S':'
asbag57
(g78
g59
NtRp4741
(dp4742
g62
(dp4743
sg71
g4728
sg64
(lp4744
g57
(g58
g59
NtRp4745
(dp4746
g62
(dp4747
g70
I5
ssg71
g4741
sg64
(lp4748
g57
(g66
g59
NtRp4749
(dp4750
g62
(dp4751
g70
I4
ssg71
Nsg64
(lp4752
sbasbasbasbag57
(g73
g59
NtRp4753
(dp4754
g62
(dp4755
sg71
g4443
sg64
(lp4756
g57
(g78
g59
NtRp4757
(dp4758
g62
(dp4759
g82
g83
ssg71
g4753
sg64
(lp4760
S'flash'
p4761
asbag57
(g78
g59
NtRp4762
(dp4763
g62
(dp4764
g89
g90
ssg71
g4753
sg64
(lp4765
S':'
asbag57
(g78
g59
NtRp4766
(dp4767
g62
(dp4768
sg71
g4753
sg64
(lp4769
g57
(g58
g59
NtRp4770
(dp4771
g62
(dp4772
g70
I5
ssg71
g4766
sg64
(lp4773
S''
asbasbasbag57
(g73
g59
NtRp4774
(dp4775
g62
(dp4776
sg71
g4443
sg64
(lp4777
g57
(g78
g59
NtRp4778
(dp4779
g62
(dp4780
g82
g83
ssg71
g4774
sg64
(lp4781
S'generic_patterns'
p4782
asbag57
(g78
g59
NtRp4783
(dp4784
g62
(dp4785
g89
g90
ssg71
g4774
sg64
(lp4786
S':'
asbag57
(g78
g59
NtRp4787
(dp4788
g62
(dp4789
sg71
g4774
sg64
(lp4790
g57
(g58
g59
NtRp4791
(dp4792
g62
(dp4793
g70
I5
ssg71
g4787
sg64
(lp4794
g57
(g66
g59
NtRp4795
(dp4796
g62
(dp4797
g70
I4
ssg71
Nsg64
(lp4798
sbasbasbasbag57
(g73
g59
NtRp4799
(dp4800
g62
(dp4801
sg71
g4443
sg64
(lp4802
g57
(g78
g59
NtRp4803
(dp4804
g62
(dp4805
g82
g83
ssg71
g4799
sg64
(lp4806
S'google_analytics_id'
p4807
asbag57
(g78
g59
NtRp4808
(dp4809
g62
(dp4810
g89
g90
ssg71
g4799
sg64
(lp4811
S':'
asbag57
(g78
g59
NtRp4812
(dp4813
g62
(dp4814
sg71
g4799
sg64
(lp4815
g57
(g58
g59
NtRp4816
(dp4817
g62
(dp4818
g70
I5
ssg71
g4812
sg64
(lp4819
S'None'
p4820
asbasbasbag57
(g73
g59
NtRp4821
(dp4822
g62
(dp4823
sg71
g4443
sg64
(lp4824
g57
(g78
g59
NtRp4825
(dp4826
g62
(dp4827
g82
g83
ssg71
g4821
sg64
(lp4828
S'headers'
p4829
asbag57
(g78
g59
NtRp4830
(dp4831
g62
(dp4832
g89
g90
ssg71
g4821
sg64
(lp4833
S':'
asbag57
(g78
g59
NtRp4834
(dp4835
g62
(dp4836
sg71
g4821
sg64
(lp4837
g57
(g58
g59
NtRp4838
(dp4839
g62
(dp4840
g70
I5
ssg71
g4834
sg64
(lp4841
g57
(g66
g59
NtRp4842
(dp4843
g62
(dp4844
g70
I4
ssg71
Nsg64
(lp4845
g57
(g73
g59
NtRp4846
(dp4847
g62
(dp4848
sg71
g4842
sg64
(lp4849
g57
(g78
g59
NtRp4850
(dp4851
g62
(dp4852
g82
g83
ssg71
g4846
sg64
(lp4853
S'X-Powered-By'
p4854
asbag57
(g78
g59
NtRp4855
(dp4856
g62
(dp4857
g89
g90
ssg71
g4846
sg64
(lp4858
S':'
asbag57
(g78
g59
NtRp4859
(dp4860
g62
(dp4861
sg71
g4846
sg64
(lp4862
g57
(g58
g59
NtRp4863
(dp4864
g62
(dp4865
g70
I4
ssg71
g4859
sg64
(lp4866
S'web2py'
p4867
asbasbasbasbasbasbasbag57
(g73
g59
NtRp4868
(dp4869
g62
(dp4870
sg71
g4443
sg64
(lp4871
g57
(g78
g59
NtRp4872
(dp4873
g62
(dp4874
g82
g83
ssg71
g4868
sg64
(lp4875
S'logo'
p4876
asbag57
(g78
g59
NtRp4877
(dp4878
g62
(dp4879
g89
g90
ssg71
g4868
sg64
(lp4880
S':'
asbag57
(g78
g59
NtRp4881
(dp4882
g62
(dp4883
sg71
g4868
sg64
(lp4884
g57
(g58
g59
NtRp4885
(dp4886
g62
(dp4887
g70
I5
ssg71
g4881
sg64
(lp4888
g57
(cgluon.html
A
p4889
g59
NtRp4890
(dp4891
g62
(dp4892
S'_class'
p4893
S'brand'
p4894
sS'_href'
p4895
S'/CygnusCloud/main/about'
p4896
ssg71
Nsg64
(lp4897
g57
(cgluon.html
IMG
p4898
g59
NtRp4899
(dp4900
g62
(dp4901
S'_alt'
p4902
S'My Logo'
p4903
sS'src'
p4904
S'/CygnusCloud/static/logo.png'
p4905
ssg71
g4890
sg64
(lp4906
sbacgluon.html
XML_unpickle
p4907
(S's\r\x00\x00\x00&trade;&nbsp;'
tRp4908
asbasbasbasbag57
(g73
g59
NtRp4909
(dp4910
g62
(dp4911
sg71
g4443
sg64
(lp4912
g57
(g78
g59
NtRp4913
(dp4914
g62
(dp4915
g82
g83
ssg71
g4909
sg64
(lp4916
S'menu'
p4917
asbag57
(g78
g59
NtRp4918
(dp4919
g62
(dp4920
g89
g90
ssg71
g4909
sg64
(lp4921
S':'
asbag57
(g78
g59
NtRp4922
(dp4923
g62
(dp4924
sg71
g4909
sg64
(lp4925
g57
(g58
g59
NtRp4926
(dp4927
g62
(dp4928
g70
I5
ssg71
g4922
sg64
(lp4929
g57
(g66
g59
NtRp4930
(dp4931
g62
(dp4932
g70
I4
ssg71
Nsg64
(lp4933
g57
(g73
g59
NtRp4934
(dp4935
g62
(dp4936
sg71
g4930
sg64
(lp4937
g57
(g78
g59
NtRp4938
(dp4939
g62
(dp4940
sg71
g4934
sg64
(lp4941
g57
(g58
g59
NtRp4942
(dp4943
g62
(dp4944
g70
I4
ssg71
g4938
sg64
(lp4945
g57
(g66
g59
NtRp4946
(dp4947
g62
(dp4948
g70
I3
ssg71
Nsg64
(lp4949
g57
(g73
g59
NtRp4950
(dp4951
g62
(dp4952
sg71
g4946
sg64
(lp4953
g57
(g78
g59
NtRp4954
(dp4955
g62
(dp4956
sg71
g4950
sg64
(lp4957
g57
(g58
g59
NtRp4958
(dp4959
g62
(dp4960
g70
I3
ssg71
g4954
sg64
(lp4961
g57
(cgluon.html
SPAN
p4962
g59
NtRp4963
(dp4964
g62
(dp4965
g4893
S'highlighted'
p4966
ssg71
Nsg64
(lp4967
cgluon.languages
lazyT_unpickle
p4968
(S's\x11\x00\x00\x00Arrancar m\xc3\xa1quina'
tRp4969
asbasbasbasbag57
(g73
g59
NtRp4970
(dp4971
g62
(dp4972
sg71
g4946
sg64
(lp4973
g57
(g78
g59
NtRp4974
(dp4975
g62
(dp4976
sg71
g4970
sg64
(lp4977
g57
(g58
g59
NtRp4978
(dp4979
g62
(dp4980
g70
I3
ssg71
g4974
sg64
(lp4981
g100
asbasbasbag57
(g73
g59
NtRp4982
(dp4983
g62
(dp4984
sg71
g4946
sg64
(lp4985
g57
(g78
g59
NtRp4986
(dp4987
g62
(dp4988
sg71
g4982
sg64
(lp4989
g57
(g58
g59
NtRp4990
(dp4991
g62
(dp4992
g70
I3
ssg71
g4986
sg64
(lp4993
S'/CygnusCloud/administrator/runVM'
p4994
asbasbasbag57
(g73
g59
NtRp4995
(dp4996
g62
(dp4997
sg71
g4946
sg64
(lp4998
g57
(g78
g59
NtRp4999
(dp5000
g62
(dp5001
sg71
g4995
sg64
(lp5002
g57
(g58
g59
NtRp5003
(dp5004
g62
(dp5005
g70
I3
ssg71
g4999
sg64
(lp5006
g57
(g66
g59
NtRp5007
(dp5008
g62
(dp5009
g70
I2
ssg71
Nsg64
(lp5010
sbasbasbasbasbasbasbasbag57
(g73
g59
NtRp5011
(dp5012
g62
(dp5013
sg71
g4930
sg64
(lp5014
g57
(g78
g59
NtRp5015
(dp5016
g62
(dp5017
sg71
g5011
sg64
(lp5018
g57
(g58
g59
NtRp5019
(dp5020
g62
(dp5021
g70
I4
ssg71
g5015
sg64
(lp5022
g57
(g66
g59
NtRp5023
(dp5024
g62
(dp5025
g70
I3
ssg71
Nsg64
(lp5026
g57
(g73
g59
NtRp5027
(dp5028
g62
(dp5029
sg71
g5023
sg64
(lp5030
g57
(g78
g59
NtRp5031
(dp5032
g62
(dp5033
sg71
g5027
sg64
(lp5034
g57
(g58
g59
NtRp5035
(dp5036
g62
(dp5037
g70
I3
ssg71
g5031
sg64
(lp5038
g57
(g4962
g59
NtRp5039
(dp5040
g62
(dp5041
g4893
g4966
ssg71
Nsg64
(lp5042
g4968
(S's\x16\x00\x00\x00Administrar servidores'
tRp5043
asbasbasbasbag57
(g73
g59
NtRp5044
(dp5045
g62
(dp5046
sg71
g5023
sg64
(lp5047
g57
(g78
g59
NtRp5048
(dp5049
g62
(dp5050
sg71
g5044
sg64
(lp5051
g57
(g58
g59
NtRp5052
(dp5053
g62
(dp5054
g70
I3
ssg71
g5048
sg64
(lp5055
g100
asbasbasbag57
(g73
g59
NtRp5056
(dp5057
g62
(dp5058
sg71
g5023
sg64
(lp5059
g57
(g78
g59
NtRp5060
(dp5061
g62
(dp5062
sg71
g5056
sg64
(lp5063
g57
(g58
g59
NtRp5064
(dp5065
g62
(dp5066
g70
I3
ssg71
g5060
sg64
(lp5067
S'/CygnusCloud/administrator/servers/add_remove_servers'
p5068
asbasbasbag57
(g73
g59
NtRp5069
(dp5070
g62
(dp5071
sg71
g5023
sg64
(lp5072
g57
(g78
g59
NtRp5073
(dp5074
g62
(dp5075
sg71
g5069
sg64
(lp5076
g57
(g58
g59
NtRp5077
(dp5078
g62
(dp5079
g70
I3
ssg71
g5073
sg64
(lp5080
g57
(g66
g59
NtRp5081
(dp5082
g62
(dp5083
g70
I2
ssg71
Nsg64
(lp5084
g57
(g73
g59
NtRp5085
(dp5086
g62
(dp5087
sg71
g5081
sg64
(lp5088
g57
(g78
g59
NtRp5089
(dp5090
g62
(dp5091
sg71
g5085
sg64
(lp5092
g57
(g58
g59
NtRp5093
(dp5094
g62
(dp5095
g70
I2
ssg71
g5089
sg64
(lp5096
g57
(g66
g59
NtRp5097
(dp5098
g62
(dp5099
g70
I1
ssg71
Nsg64
(lp5100
g57
(g73
g59
NtRp5101
(dp5102
g62
(dp5103
sg71
g5097
sg64
(lp5104
g57
(g78
g59
NtRp5105
(dp5106
g62
(dp5107
sg71
g5101
sg64
(lp5108
g57
(g58
g59
NtRp5109
(dp5110
g62
(dp5111
g70
I1
ssg71
g5105
sg64
(lp5112
g4968
(S's\x10\x00\x00\x00A\xc3\xb1adir/Eliminar'
tRp5113
asbasbasbag57
(g73
g59
NtRp5114
(dp5115
g62
(dp5116
sg71
g5097
sg64
(lp5117
g57
(g78
g59
NtRp5118
(dp5119
g62
(dp5120
sg71
g5114
sg64
(lp5121
g57
(g58
g59
NtRp5122
(dp5123
g62
(dp5124
g70
I1
ssg71
g5118
sg64
(lp5125
I00
asbasbasbag57
(g73
g59
NtRp5126
(dp5127
g62
(dp5128
sg71
g5097
sg64
(lp5129
g57
(g78
g59
NtRp5130
(dp5131
g62
(dp5132
sg71
g5126
sg64
(lp5133
g57
(g58
g59
NtRp5134
(dp5135
g62
(dp5136
g70
I1
ssg71
g5130
sg64
(lp5137
S'/CygnusCloud/administrator/servers/add_remove_servers'
p5138
asbasbasbasbasbasbasbasbasbasbasbasbasbasbasbag57
(g73
g59
NtRp5139
(dp5140
g62
(dp5141
sg71
g4930
sg64
(lp5142
g57
(g78
g59
NtRp5143
(dp5144
g62
(dp5145
sg71
g5139
sg64
(lp5146
g57
(g58
g59
NtRp5147
(dp5148
g62
(dp5149
g70
I4
ssg71
g5143
sg64
(lp5150
g57
(g66
g59
NtRp5151
(dp5152
g62
(dp5153
g70
I3
ssg71
Nsg64
(lp5154
g57
(g73
g59
NtRp5155
(dp5156
g62
(dp5157
sg71
g5151
sg64
(lp5158
g57
(g78
g59
NtRp5159
(dp5160
g62
(dp5161
sg71
g5155
sg64
(lp5162
g57
(g58
g59
NtRp5163
(dp5164
g62
(dp5165
g70
I3
ssg71
g5159
sg64
(lp5166
g57
(g4962
g59
NtRp5167
(dp5168
g62
(dp5169
g4893
g4966
ssg71
Nsg64
(lp5170
g4968
(S's\x14\x00\x00\x00Administrar usuarios'
tRp5171
asbasbasbasbag57
(g73
g59
NtRp5172
(dp5173
g62
(dp5174
sg71
g5151
sg64
(lp5175
g57
(g78
g59
NtRp5176
(dp5177
g62
(dp5178
sg71
g5172
sg64
(lp5179
g57
(g58
g59
NtRp5180
(dp5181
g62
(dp5182
g70
I3
ssg71
g5176
sg64
(lp5183
g100
asbasbasbag57
(g73
g59
NtRp5184
(dp5185
g62
(dp5186
sg71
g5151
sg64
(lp5187
g57
(g78
g59
NtRp5188
(dp5189
g62
(dp5190
sg71
g5184
sg64
(lp5191
g57
(g58
g59
NtRp5192
(dp5193
g62
(dp5194
g70
I3
ssg71
g5188
sg64
(lp5195
S'/CygnusCloud/administrator/initUsers/remove'
p5196
asbasbasbag57
(g73
g59
NtRp5197
(dp5198
g62
(dp5199
sg71
g5151
sg64
(lp5200
g57
(g78
g59
NtRp5201
(dp5202
g62
(dp5203
sg71
g5197
sg64
(lp5204
g57
(g58
g59
NtRp5205
(dp5206
g62
(dp5207
g70
I3
ssg71
g5201
sg64
(lp5208
g57
(g66
g59
NtRp5209
(dp5210
g62
(dp5211
g70
I2
ssg71
Nsg64
(lp5212
g57
(g73
g59
NtRp5213
(dp5214
g62
(dp5215
sg71
g5209
sg64
(lp5216
g57
(g78
g59
NtRp5217
(dp5218
g62
(dp5219
sg71
g5213
sg64
(lp5220
g57
(g58
g59
NtRp5221
(dp5222
g62
(dp5223
g70
I2
ssg71
g5217
sg64
(lp5224
g57
(g66
g59
NtRp5225
(dp5226
g62
(dp5227
g70
I1
ssg71
Nsg64
(lp5228
g57
(g73
g59
NtRp5229
(dp5230
g62
(dp5231
sg71
g5225
sg64
(lp5232
g57
(g78
g59
NtRp5233
(dp5234
g62
(dp5235
sg71
g5229
sg64
(lp5236
g57
(g58
g59
NtRp5237
(dp5238
g62
(dp5239
g70
I1
ssg71
g5233
sg64
(lp5240
g4968
(S's\x08\x00\x00\x00Eliminar'
tRp5241
asbasbasbag57
(g73
g59
NtRp5242
(dp5243
g62
(dp5244
sg71
g5225
sg64
(lp5245
g57
(g78
g59
NtRp5246
(dp5247
g62
(dp5248
sg71
g5242
sg64
(lp5249
g57
(g58
g59
NtRp5250
(dp5251
g62
(dp5252
g70
I1
ssg71
g5246
sg64
(lp5253
I00
asbasbasbag57
(g73
g59
NtRp5254
(dp5255
g62
(dp5256
sg71
g5225
sg64
(lp5257
g57
(g78
g59
NtRp5258
(dp5259
g62
(dp5260
sg71
g5254
sg64
(lp5261
g57
(g58
g59
NtRp5262
(dp5263
g62
(dp5264
g70
I1
ssg71
g5258
sg64
(lp5265
S'/CygnusCloud/administrator/users/remove'
p5266
asbasbasbasbasbasbasbag57
(g73
g59
NtRp5267
(dp5268
g62
(dp5269
sg71
g5209
sg64
(lp5270
g57
(g78
g59
NtRp5271
(dp5272
g62
(dp5273
sg71
g5267
sg64
(lp5274
g57
(g58
g59
NtRp5275
(dp5276
g62
(dp5277
g70
I2
ssg71
g5271
sg64
(lp5278
g57
(g66
g59
NtRp5279
(dp5280
g62
(dp5281
g70
I1
ssg71
Nsg64
(lp5282
g57
(g73
g59
NtRp5283
(dp5284
g62
(dp5285
sg71
g5279
sg64
(lp5286
g57
(g78
g59
NtRp5287
(dp5288
g62
(dp5289
sg71
g5283
sg64
(lp5290
g57
(g58
g59
NtRp5291
(dp5292
g62
(dp5293
g70
I1
ssg71
g5287
sg64
(lp5294
g4968
(S's\x07\x00\x00\x00A\xc3\xb1adir'
tRp5295
asbasbasbag57
(g73
g59
NtRp5296
(dp5297
g62
(dp5298
sg71
g5279
sg64
(lp5299
g57
(g78
g59
NtRp5300
(dp5301
g62
(dp5302
sg71
g5296
sg64
(lp5303
g57
(g58
g59
NtRp5304
(dp5305
g62
(dp5306
g70
I1
ssg71
g5300
sg64
(lp5307
I00
asbasbasbag57
(g73
g59
NtRp5308
(dp5309
g62
(dp5310
sg71
g5279
sg64
(lp5311
g57
(g78
g59
NtRp5312
(dp5313
g62
(dp5314
sg71
g5308
sg64
(lp5315
g57
(g58
g59
NtRp5316
(dp5317
g62
(dp5318
g70
I1
ssg71
g5312
sg64
(lp5319
S'/CygnusCloud/administrator/users/add'
p5320
asbasbasbasbasbasbasbag57
(g73
g59
NtRp5321
(dp5322
g62
(dp5323
sg71
g5209
sg64
(lp5324
g57
(g78
g59
NtRp5325
(dp5326
g62
(dp5327
sg71
g5321
sg64
(lp5328
g57
(g58
g59
NtRp5329
(dp5330
g62
(dp5331
g70
I2
ssg71
g5325
sg64
(lp5332
g57
(g66
g59
NtRp5333
(dp5334
g62
(dp5335
g70
I1
ssg71
Nsg64
(lp5336
g57
(g73
g59
NtRp5337
(dp5338
g62
(dp5339
sg71
g5333
sg64
(lp5340
g57
(g78
g59
NtRp5341
(dp5342
g62
(dp5343
sg71
g5337
sg64
(lp5344
g57
(g58
g59
NtRp5345
(dp5346
g62
(dp5347
g70
I1
ssg71
g5341
sg64
(lp5348
g4968
(S's\x13\x00\x00\x00Asociar asignaturas'
tRp5349
asbasbasbag57
(g73
g59
NtRp5350
(dp5351
g62
(dp5352
sg71
g5333
sg64
(lp5353
g57
(g78
g59
NtRp5354
(dp5355
g62
(dp5356
sg71
g5350
sg64
(lp5357
g57
(g58
g59
NtRp5358
(dp5359
g62
(dp5360
g70
I1
ssg71
g5354
sg64
(lp5361
I00
asbasbasbag57
(g73
g59
NtRp5362
(dp5363
g62
(dp5364
sg71
g5333
sg64
(lp5365
g57
(g78
g59
NtRp5366
(dp5367
g62
(dp5368
sg71
g5362
sg64
(lp5369
g57
(g58
g59
NtRp5370
(dp5371
g62
(dp5372
g70
I1
ssg71
g5366
sg64
(lp5373
S'/CygnusCloud/administrator/users/associate_subjects'
p5374
asbasbasbasbasbasbasbasbasbasbasbasbasbasbasbag57
(g73
g59
NtRp5375
(dp5376
g62
(dp5377
sg71
g4930
sg64
(lp5378
g57
(g78
g59
NtRp5379
(dp5380
g62
(dp5381
sg71
g5375
sg64
(lp5382
g57
(g58
g59
NtRp5383
(dp5384
g62
(dp5385
g70
I4
ssg71
g5379
sg64
(lp5386
g57
(g66
g59
NtRp5387
(dp5388
g62
(dp5389
g70
I3
ssg71
Nsg64
(lp5390
g57
(g73
g59
NtRp5391
(dp5392
g62
(dp5393
sg71
g5387
sg64
(lp5394
g57
(g78
g59
NtRp5395
(dp5396
g62
(dp5397
sg71
g5391
sg64
(lp5398
g57
(g58
g59
NtRp5399
(dp5400
g62
(dp5401
g70
I3
ssg71
g5395
sg64
(lp5402
g57
(g4962
g59
NtRp5403
(dp5404
g62
(dp5405
g4893
g4966
ssg71
Nsg64
(lp5406
g4968
(S's\x17\x00\x00\x00Administrar asignaturas'
tRp5407
asbasbasbasbag57
(g73
g59
NtRp5408
(dp5409
g62
(dp5410
sg71
g5387
sg64
(lp5411
g57
(g78
g59
NtRp5412
(dp5413
g62
(dp5414
sg71
g5408
sg64
(lp5415
g57
(g58
g59
NtRp5416
(dp5417
g62
(dp5418
g70
I3
ssg71
g5412
sg64
(lp5419
g100
asbasbasbag57
(g73
g59
NtRp5420
(dp5421
g62
(dp5422
sg71
g5387
sg64
(lp5423
g57
(g78
g59
NtRp5424
(dp5425
g62
(dp5426
sg71
g5420
sg64
(lp5427
g57
(g58
g59
NtRp5428
(dp5429
g62
(dp5430
g70
I3
ssg71
g5424
sg64
(lp5431
S'/CygnusCloud/administrator/subjects/add'
p5432
asbasbasbag57
(g73
g59
NtRp5433
(dp5434
g62
(dp5435
sg71
g5387
sg64
(lp5436
g57
(g78
g59
NtRp5437
(dp5438
g62
(dp5439
sg71
g5433
sg64
(lp5440
g57
(g58
g59
NtRp5441
(dp5442
g62
(dp5443
g70
I3
ssg71
g5437
sg64
(lp5444
g57
(g66
g59
NtRp5445
(dp5446
g62
(dp5447
g70
I2
ssg71
Nsg64
(lp5448
g57
(g73
g59
NtRp5449
(dp5450
g62
(dp5451
sg71
g5445
sg64
(lp5452
g57
(g78
g59
NtRp5453
(dp5454
g62
(dp5455
sg71
g5449
sg64
(lp5456
g57
(g58
g59
NtRp5457
(dp5458
g62
(dp5459
g70
I2
ssg71
g5453
sg64
(lp5460
g57
(g66
g59
NtRp5461
(dp5462
g62
(dp5463
g70
I1
ssg71
Nsg64
(lp5464
g57
(g73
g59
NtRp5465
(dp5466
g62
(dp5467
sg71
g5461
sg64
(lp5468
g57
(g78
g59
NtRp5469
(dp5470
g62
(dp5471
sg71
g5465
sg64
(lp5472
g57
(g58
g59
NtRp5473
(dp5474
g62
(dp5475
g70
I1
ssg71
g5469
sg64
(lp5476
g4968
(S's\x07\x00\x00\x00A\xc3\xb1adir'
tRp5477
asbasbasbag57
(g73
g59
NtRp5478
(dp5479
g62
(dp5480
sg71
g5461
sg64
(lp5481
g57
(g78
g59
NtRp5482
(dp5483
g62
(dp5484
sg71
g5478
sg64
(lp5485
g57
(g58
g59
NtRp5486
(dp5487
g62
(dp5488
g70
I1
ssg71
g5482
sg64
(lp5489
I00
asbasbasbag57
(g73
g59
NtRp5490
(dp5491
g62
(dp5492
sg71
g5461
sg64
(lp5493
g57
(g78
g59
NtRp5494
(dp5495
g62
(dp5496
sg71
g5490
sg64
(lp5497
g57
(g58
g59
NtRp5498
(dp5499
g62
(dp5500
g70
I1
ssg71
g5494
sg64
(lp5501
S'/CygnusCloud/administrator/subjects/add'
p5502
asbasbasbasbasbasbasbag57
(g73
g59
NtRp5503
(dp5504
g62
(dp5505
sg71
g5445
sg64
(lp5506
g57
(g78
g59
NtRp5507
(dp5508
g62
(dp5509
sg71
g5503
sg64
(lp5510
g57
(g58
g59
NtRp5511
(dp5512
g62
(dp5513
g70
I2
ssg71
g5507
sg64
(lp5514
g57
(g66
g59
NtRp5515
(dp5516
g62
(dp5517
g70
I1
ssg71
Nsg64
(lp5518
g57
(g73
g59
NtRp5519
(dp5520
g62
(dp5521
sg71
g5515
sg64
(lp5522
g57
(g78
g59
NtRp5523
(dp5524
g62
(dp5525
sg71
g5519
sg64
(lp5526
g57
(g58
g59
NtRp5527
(dp5528
g62
(dp5529
g70
I1
ssg71
g5523
sg64
(lp5530
g4968
(S's\x08\x00\x00\x00Eliminar'
tRp5531
asbasbasbag57
(g73
g59
NtRp5532
(dp5533
g62
(dp5534
sg71
g5515
sg64
(lp5535
g57
(g78
g59
NtRp5536
(dp5537
g62
(dp5538
sg71
g5532
sg64
(lp5539
g57
(g58
g59
NtRp5540
(dp5541
g62
(dp5542
g70
I1
ssg71
g5536
sg64
(lp5543
I00
asbasbasbag57
(g73
g59
NtRp5544
(dp5545
g62
(dp5546
sg71
g5515
sg64
(lp5547
g57
(g78
g59
NtRp5548
(dp5549
g62
(dp5550
sg71
g5544
sg64
(lp5551
g57
(g58
g59
NtRp5552
(dp5553
g62
(dp5554
g70
I1
ssg71
g5548
sg64
(lp5555
S'/CygnusCloud/administrator/subjects/remove'
p5556
asbasbasbasbasbasbasbag57
(g73
g59
NtRp5557
(dp5558
g62
(dp5559
sg71
g5445
sg64
(lp5560
g57
(g78
g59
NtRp5561
(dp5562
g62
(dp5563
sg71
g5557
sg64
(lp5564
g57
(g58
g59
NtRp5565
(dp5566
g62
(dp5567
g70
I2
ssg71
g5561
sg64
(lp5568
g57
(g66
g59
NtRp5569
(dp5570
g62
(dp5571
g70
I1
ssg71
Nsg64
(lp5572
g57
(g73
g59
NtRp5573
(dp5574
g62
(dp5575
sg71
g5569
sg64
(lp5576
g57
(g78
g59
NtRp5577
(dp5578
g62
(dp5579
sg71
g5573
sg64
(lp5580
g57
(g58
g59
NtRp5581
(dp5582
g62
(dp5583
g70
I1
ssg71
g5577
sg64
(lp5584
g4968
(S's\x15\x00\x00\x00Administrar m\xc3\xa1quinas'
tRp5585
asbasbasbag57
(g73
g59
NtRp5586
(dp5587
g62
(dp5588
sg71
g5569
sg64
(lp5589
g57
(g78
g59
NtRp5590
(dp5591
g62
(dp5592
sg71
g5586
sg64
(lp5593
g57
(g58
g59
NtRp5594
(dp5595
g62
(dp5596
g70
I1
ssg71
g5590
sg64
(lp5597
I00
asbasbasbag57
(g73
g59
NtRp5598
(dp5599
g62
(dp5600
sg71
g5569
sg64
(lp5601
g57
(g78
g59
NtRp5602
(dp5603
g62
(dp5604
sg71
g5598
sg64
(lp5605
g57
(g58
g59
NtRp5606
(dp5607
g62
(dp5608
g70
I1
ssg71
g5602
sg64
(lp5609
S'/CygnusCloud/administrator/subjects/addVM'
p5610
asbasbasbasbasbasbasbasbasbasbasbasbasbasbasbasbasbasbasbag57
(g73
g59
NtRp5611
(dp5612
g62
(dp5613
sg71
g4443
sg64
(lp5614
g57
(g78
g59
NtRp5615
(dp5616
g62
(dp5617
g82
g83
ssg71
g5611
sg64
(lp5618
S'meta'
p5619
asbag57
(g78
g59
NtRp5620
(dp5621
g62
(dp5622
g89
g90
ssg71
g5611
sg64
(lp5623
S':'
asbag57
(g78
g59
NtRp5624
(dp5625
g62
(dp5626
sg71
g5611
sg64
(lp5627
g57
(g58
g59
NtRp5628
(dp5629
g62
(dp5630
g70
I5
ssg71
g5624
sg64
(lp5631
g57
(g66
g59
NtRp5632
(dp5633
g62
(dp5634
g70
I4
ssg71
Nsg64
(lp5635
g57
(g73
g59
NtRp5636
(dp5637
g62
(dp5638
sg71
g5632
sg64
(lp5639
g57
(g78
g59
NtRp5640
(dp5641
g62
(dp5642
g82
g83
ssg71
g5636
sg64
(lp5643
S'author'
p5644
asbag57
(g78
g59
NtRp5645
(dp5646
g62
(dp5647
g89
g90
ssg71
g5636
sg64
(lp5648
S':'
asbag57
(g78
g59
NtRp5649
(dp5650
g62
(dp5651
sg71
g5636
sg64
(lp5652
g57
(g58
g59
NtRp5653
(dp5654
g62
(dp5655
g70
I4
ssg71
g5649
sg64
(lp5656
S'Your Name <you@example.com>'
p5657
asbasbasbag57
(g73
g59
NtRp5658
(dp5659
g62
(dp5660
sg71
g5632
sg64
(lp5661
g57
(g78
g59
NtRp5662
(dp5663
g62
(dp5664
g82
g83
ssg71
g5658
sg64
(lp5665
S'description'
p5666
asbag57
(g78
g59
NtRp5667
(dp5668
g62
(dp5669
g89
g90
ssg71
g5658
sg64
(lp5670
S':'
asbag57
(g78
g59
NtRp5671
(dp5672
g62
(dp5673
sg71
g5658
sg64
(lp5674
g57
(g58
g59
NtRp5675
(dp5676
g62
(dp5677
g70
I4
ssg71
g5671
sg64
(lp5678
S'a cool new app'
p5679
asbasbasbag57
(g73
g59
NtRp5680
(dp5681
g62
(dp5682
sg71
g5632
sg64
(lp5683
g57
(g78
g59
NtRp5684
(dp5685
g62
(dp5686
g82
g83
ssg71
g5680
sg64
(lp5687
S'generator'
p5688
asbag57
(g78
g59
NtRp5689
(dp5690
g62
(dp5691
g89
g90
ssg71
g5680
sg64
(lp5692
S':'
asbag57
(g78
g59
NtRp5693
(dp5694
g62
(dp5695
sg71
g5680
sg64
(lp5696
g57
(g58
g59
NtRp5697
(dp5698
g62
(dp5699
g70
I4
ssg71
g5693
sg64
(lp5700
S'Web2py Web Framework'
p5701
asbasbasbag57
(g73
g59
NtRp5702
(dp5703
g62
(dp5704
sg71
g5632
sg64
(lp5705
g57
(g78
g59
NtRp5706
(dp5707
g62
(dp5708
g82
g83
ssg71
g5702
sg64
(lp5709
S'keywords'
p5710
asbag57
(g78
g59
NtRp5711
(dp5712
g62
(dp5713
g89
g90
ssg71
g5702
sg64
(lp5714
S':'
asbag57
(g78
g59
NtRp5715
(dp5716
g62
(dp5717
sg71
g5702
sg64
(lp5718
g57
(g58
g59
NtRp5719
(dp5720
g62
(dp5721
g70
I4
ssg71
g5715
sg64
(lp5722
S'web2py, python, framework'
p5723
asbasbasbasbasbasbasbag57
(g73
g59
NtRp5724
(dp5725
g62
(dp5726
sg71
g4443
sg64
(lp5727
g57
(g78
g59
NtRp5728
(dp5729
g62
(dp5730
g82
g83
ssg71
g5724
sg64
(lp5731
S'models_to_run'
p5732
asbag57
(g78
g59
NtRp5733
(dp5734
g62
(dp5735
g89
g90
ssg71
g5724
sg64
(lp5736
S':'
asbag57
(g78
g59
NtRp5737
(dp5738
g62
(dp5739
sg71
g5724
sg64
(lp5740
g57
(g58
g59
NtRp5741
(dp5742
g62
(dp5743
g70
I5
ssg71
g5737
sg64
(lp5744
g57
(g66
g59
NtRp5745
(dp5746
g62
(dp5747
g70
I4
ssg71
Nsg64
(lp5748
g57
(g73
g59
NtRp5749
(dp5750
g62
(dp5751
sg71
g5745
sg64
(lp5752
g57
(g78
g59
NtRp5753
(dp5754
g62
(dp5755
sg71
g5749
sg64
(lp5756
g57
(g58
g59
NtRp5757
(dp5758
g62
(dp5759
g70
I4
ssg71
g5753
sg64
(lp5760
S'^\\w+\\.py$'
p5761
asbasbasbag57
(g73
g59
NtRp5762
(dp5763
g62
(dp5764
sg71
g5745
sg64
(lp5765
g57
(g78
g59
NtRp5766
(dp5767
g62
(dp5768
sg71
g5762
sg64
(lp5769
g57
(g58
g59
NtRp5770
(dp5771
g62
(dp5772
g70
I4
ssg71
g5766
sg64
(lp5773
S'^administrator/\\w+\\.py$'
p5774
asbasbasbag57
(g73
g59
NtRp5775
(dp5776
g62
(dp5777
sg71
g5745
sg64
(lp5778
g57
(g78
g59
NtRp5779
(dp5780
g62
(dp5781
sg71
g5775
sg64
(lp5782
g57
(g58
g59
NtRp5783
(dp5784
g62
(dp5785
g70
I4
ssg71
g5779
sg64
(lp5786
S'^administrator/users/\\w+\\.py$'
p5787
asbasbasbasbasbasbasbag57
(g73
g59
NtRp5788
(dp5789
g62
(dp5790
sg71
g4443
sg64
(lp5791
g57
(g78
g59
NtRp5792
(dp5793
g62
(dp5794
g82
g83
ssg71
g5788
sg64
(lp5795
S'postprocessing'
p5796
asbag57
(g78
g59
NtRp5797
(dp5798
g62
(dp5799
g89
g90
ssg71
g5788
sg64
(lp5800
S':'
asbag57
(g78
g59
NtRp5801
(dp5802
g62
(dp5803
sg71
g5788
sg64
(lp5804
g57
(g58
g59
NtRp5805
(dp5806
g62
(dp5807
g70
I5
ssg71
g5801
sg64
(lp5808
g57
(g66
g59
NtRp5809
(dp5810
g62
(dp5811
g70
I4
ssg71
Nsg64
(lp5812
sbasbasbasbag57
(g73
g59
NtRp5813
(dp5814
g62
(dp5815
sg71
g4443
sg64
(lp5816
g57
(g78
g59
NtRp5817
(dp5818
g62
(dp5819
g82
g83
ssg71
g5813
sg64
(lp5820
S'session_cookie_expires'
p5821
asbag57
(g78
g59
NtRp5822
(dp5823
g62
(dp5824
g89
g90
ssg71
g5813
sg64
(lp5825
S':'
asbag57
(g78
g59
NtRp5826
(dp5827
g62
(dp5828
sg71
g5813
sg64
(lp5829
g57
(g58
g59
NtRp5830
(dp5831
g62
(dp5832
g70
I5
ssg71
g5826
sg64
(lp5833
S'None'
p5834
asbasbasbag57
(g73
g59
NtRp5835
(dp5836
g62
(dp5837
sg71
g4443
sg64
(lp5838
g57
(g78
g59
NtRp5839
(dp5840
g62
(dp5841
g82
g83
ssg71
g5835
sg64
(lp5842
S'session_data_name'
p5843
asbag57
(g78
g59
NtRp5844
(dp5845
g62
(dp5846
g89
g90
ssg71
g5835
sg64
(lp5847
S':'
asbag57
(g78
g59
NtRp5848
(dp5849
g62
(dp5850
sg71
g5835
sg64
(lp5851
g57
(g58
g59
NtRp5852
(dp5853
g62
(dp5854
g70
I5
ssg71
g5848
sg64
(lp5855
S'session_data_cygnuscloud'
p5856
asbasbasbag57
(g73
g59
NtRp5857
(dp5858
g62
(dp5859
sg71
g4443
sg64
(lp5860
g57
(g78
g59
NtRp5861
(dp5862
g62
(dp5863
g82
g83
ssg71
g5857
sg64
(lp5864
S'session_file'
p5865
asbag57
(g78
g59
NtRp5866
(dp5867
g62
(dp5868
g89
g90
ssg71
g5857
sg64
(lp5869
S':'
asbag57
(g78
g59
NtRp5870
(dp5871
g62
(dp5872
sg71
g5857
sg64
(lp5873
g57
(g58
g59
NtRp5874
(dp5875
g62
(dp5876
g70
I5
ssg71
g5870
sg64
(lp5877
S"<open file '/home/adrian/web2py/applications/CygnusCloud/sessions/127.0.0.1-94b597fa-52b2-4481-ad0f-59b1fd37bc50', mode 'rb+' at 0x7f5f641025d0>"
p5878
asbasbasbag57
(g73
g59
NtRp5879
(dp5880
g62
(dp5881
sg71
g4443
sg64
(lp5882
g57
(g78
g59
NtRp5883
(dp5884
g62
(dp5885
g82
g83
ssg71
g5879
sg64
(lp5886
S'session_filename'
p5887
asbag57
(g78
g59
NtRp5888
(dp5889
g62
(dp5890
g89
g90
ssg71
g5879
sg64
(lp5891
S':'
asbag57
(g78
g59
NtRp5892
(dp5893
g62
(dp5894
sg71
g5879
sg64
(lp5895
g57
(g58
g59
NtRp5896
(dp5897
g62
(dp5898
g70
I5
ssg71
g5892
sg64
(lp5899
S'/home/adrian/web2py/applications/CygnusCloud/sessions/127.0.0.1-94b597fa-52b2-4481-ad0f-59b1fd37bc50'
p5900
asbasbasbag57
(g73
g59
NtRp5901
(dp5902
g62
(dp5903
sg71
g4443
sg64
(lp5904
g57
(g78
g59
NtRp5905
(dp5906
g62
(dp5907
g82
g83
ssg71
g5901
sg64
(lp5908
S'session_id'
p5909
asbag57
(g78
g59
NtRp5910
(dp5911
g62
(dp5912
g89
g90
ssg71
g5901
sg64
(lp5913
S':'
asbag57
(g78
g59
NtRp5914
(dp5915
g62
(dp5916
sg71
g5901
sg64
(lp5917
g57
(g58
g59
NtRp5918
(dp5919
g62
(dp5920
g70
I5
ssg71
g5914
sg64
(lp5921
g673
asbasbasbag57
(g73
g59
NtRp5922
(dp5923
g62
(dp5924
sg71
g4443
sg64
(lp5925
g57
(g78
g59
NtRp5926
(dp5927
g62
(dp5928
g82
g83
ssg71
g5922
sg64
(lp5929
S'session_id_name'
p5930
asbag57
(g78
g59
NtRp5931
(dp5932
g62
(dp5933
g89
g90
ssg71
g5922
sg64
(lp5934
S':'
asbag57
(g78
g59
NtRp5935
(dp5936
g62
(dp5937
sg71
g5922
sg64
(lp5938
g57
(g58
g59
NtRp5939
(dp5940
g62
(dp5941
g70
I5
ssg71
g5935
sg64
(lp5942
g4500
asbasbasbag57
(g73
g59
NtRp5943
(dp5944
g62
(dp5945
sg71
g4443
sg64
(lp5946
g57
(g78
g59
NtRp5947
(dp5948
g62
(dp5949
g82
g83
ssg71
g5943
sg64
(lp5950
S'session_locked'
p5951
asbag57
(g78
g59
NtRp5952
(dp5953
g62
(dp5954
g89
g90
ssg71
g5943
sg64
(lp5955
S':'
asbag57
(g78
g59
NtRp5956
(dp5957
g62
(dp5958
sg71
g5943
sg64
(lp5959
g57
(g58
g59
NtRp5960
(dp5961
g62
(dp5962
g70
I5
ssg71
g5956
sg64
(lp5963
g2121
asbasbasbag57
(g73
g59
NtRp5964
(dp5965
g62
(dp5966
sg71
g4443
sg64
(lp5967
g57
(g78
g59
NtRp5968
(dp5969
g62
(dp5970
g82
g83
ssg71
g5964
sg64
(lp5971
S'session_new'
p5972
asbag57
(g78
g59
NtRp5973
(dp5974
g62
(dp5975
g89
g90
ssg71
g5964
sg64
(lp5976
S':'
asbag57
(g78
g59
NtRp5977
(dp5978
g62
(dp5979
sg71
g5964
sg64
(lp5980
g57
(g58
g59
NtRp5981
(dp5982
g62
(dp5983
g70
I5
ssg71
g5977
sg64
(lp5984
g100
asbasbasbag57
(g73
g59
NtRp5985
(dp5986
g62
(dp5987
sg71
g4443
sg64
(lp5988
g57
(g78
g59
NtRp5989
(dp5990
g62
(dp5991
g82
g83
ssg71
g5985
sg64
(lp5992
S'session_storage_type'
p5993
asbag57
(g78
g59
NtRp5994
(dp5995
g62
(dp5996
g89
g90
ssg71
g5985
sg64
(lp5997
S':'
asbag57
(g78
g59
NtRp5998
(dp5999
g62
(dp6000
sg71
g5985
sg64
(lp6001
g57
(g58
g59
NtRp6002
(dp6003
g62
(dp6004
g70
I5
ssg71
g5998
sg64
(lp6005
g3909
asbasbasbag57
(g73
g59
NtRp6006
(dp6007
g62
(dp6008
sg71
g4443
sg64
(lp6009
g57
(g78
g59
NtRp6010
(dp6011
g62
(dp6012
g82
g83
ssg71
g6006
sg64
(lp6013
S'status'
p6014
asbag57
(g78
g59
NtRp6015
(dp6016
g62
(dp6017
g89
g90
ssg71
g6006
sg64
(lp6018
S':'
asbag57
(g78
g59
NtRp6019
(dp6020
g62
(dp6021
sg71
g6006
sg64
(lp6022
g57
(g58
g59
NtRp6023
(dp6024
g62
(dp6025
g70
I5
ssg71
g6019
sg64
(lp6026
S'200'
p6027
asbasbasbag57
(g73
g59
NtRp6028
(dp6029
g62
(dp6030
sg71
g4443
sg64
(lp6031
g57
(g78
g59
NtRp6032
(dp6033
g62
(dp6034
g82
g83
ssg71
g6028
sg64
(lp6035
S'subtitle'
p6036
asbag57
(g78
g59
NtRp6037
(dp6038
g62
(dp6039
g89
g90
ssg71
g6028
sg64
(lp6040
S':'
asbag57
(g78
g59
NtRp6041
(dp6042
g62
(dp6043
sg71
g6028
sg64
(lp6044
g57
(g58
g59
NtRp6045
(dp6046
g62
(dp6047
g70
I5
ssg71
g6041
sg64
(lp6048
g4968
(S's\t\x00\x00\x00Adaptame!'
tRp6049
asbasbasbag57
(g73
g59
NtRp6050
(dp6051
g62
(dp6052
sg71
g4443
sg64
(lp6053
g57
(g78
g59
NtRp6054
(dp6055
g62
(dp6056
g82
g83
ssg71
g6050
sg64
(lp6057
S'title'
p6058
asbag57
(g78
g59
NtRp6059
(dp6060
g62
(dp6061
g89
g90
ssg71
g6050
sg64
(lp6062
S':'
asbag57
(g78
g59
NtRp6063
(dp6064
g62
(dp6065
sg71
g6050
sg64
(lp6066
g57
(g58
g59
NtRp6067
(dp6068
g62
(dp6069
g70
I5
ssg71
g6063
sg64
(lp6070
S'Cygnuscloud'
p6071
asbasbasbag57
(g73
g59
NtRp6072
(dp6073
g62
(dp6074
sg71
g4443
sg64
(lp6075
g57
(g78
g59
NtRp6076
(dp6077
g62
(dp6078
g82
g83
ssg71
g6072
sg64
(lp6079
S'view'
p6080
asbag57
(g78
g59
NtRp6081
(dp6082
g62
(dp6083
g89
g90
ssg71
g6072
sg64
(lp6084
S':'
asbag57
(g78
g59
NtRp6085
(dp6086
g62
(dp6087
sg71
g6072
sg64
(lp6088
g57
(g58
g59
NtRp6089
(dp6090
g62
(dp6091
g70
I5
ssg71
g6085
sg64
(lp6092
S'administrator/users.html'
p6093
asbasbasbasbasbsS'locals'
p6094
(dp6095
S'form2'
p6096
S'<gluon.html.FORM object>'
p6097
sS'form1'
p6098
S'<gluon.html.FORM object>'
p6099
sS'listUsers'
p6100
S"['Student1@ucm.es']"
p6101
sssS'traceback'
p6102
S'Traceback (most recent call last):\n  File "/home/adrian/web2py/gluon/restricted.py", line 212, in restricted\n    exec ccode in environment\n  File "/home/adrian/web2py/applications/CygnusCloud/controllers/administrator.py", line 297, in <module>\n  File "/home/adrian/web2py/gluon/globals.py", line 193, in <lambda>\n    self._caller = lambda f: f()\n  File "/home/adrian/web2py/gluon/tools.py", line 2929, in f\n    return action(*a, **b)\n  File "/home/adrian/web2py/applications/CygnusCloud/controllers/administrator.py", line 67, in users\n    if((userDB(userDB.UserGroup.userId == form2.vars.usersSelect) & (userDB.UserGroup.cod == form2.vars.code) & \\\nTypeError: unsupported operand type(s) for &: \'Set\' and \'Query\'\n'
p6103
s.