(dp1
S'output'
p2
S"<type 'exceptions.SyntaxError'> setting key 'login' does not exist"
p3
sS'layer'
p4
S'/home/adrian/web2py/applications/CygnusCloud/controllers/main.py'
p5
sS'code'
p6
S"# coding: utf8\n# M\xc3\xa9todo encargado de la p\xc3\xa1gina de inicio de sesi\xc3\xb3n\ndef login(): \n    createAdressBar()\n    auth.settings.login=URL( c='main', f='login')\n    auth.settings.login_next = URL(c='main',f='login')  \n    return dict(form=auth.login())\n    \ndef createAdressBar():\n    response.menu=[[T('Iniciar sesi\xc3\xb3n'),False,URL('login')],\n                   [T('Acerca de'),False,URL('login')]]\n\nresponse._vars=response._caller(login)\n"
p7
sS'snapshot'
p8
(dp9
S'exception'
p10
(dp11
S'__getslice__'
p12
S"<method-wrapper '__getslice__' of exceptions.SyntaxError object>"
p13
sS'text'
p14
S'None'
p15
sS'__str__'
p16
S"<method-wrapper '__str__' of exceptions.SyntaxError object>"
p17
sS'__reduce__'
p18
S'<built-in method __reduce__ of exceptions.SyntaxError object>'
p19
sS'__dict__'
p20
S'{}'
p21
sS'__sizeof__'
p22
S'<built-in method __sizeof__ of exceptions.SyntaxError object>'
p23
sS'__init__'
p24
S"<method-wrapper '__init__' of exceptions.SyntaxError object>"
p25
sS'__setattr__'
p26
S"<method-wrapper '__setattr__' of exceptions.SyntaxError object>"
p27
sS'__reduce_ex__'
p28
S'<built-in method __reduce_ex__ of exceptions.SyntaxError object>'
p29
sS'__new__'
p30
S'<built-in method __new__ of type object>'
p31
sS'__format__'
p32
S'<built-in method __format__ of exceptions.SyntaxError object>'
p33
sS'__class__'
p34
S"<type 'exceptions.SyntaxError'>"
p35
sS'filename'
p36
S'None'
p37
sS'lineno'
p38
S'None'
p39
sS'msg'
p40
S'"setting key \'login\' does not exist"'
p41
sS'__doc__'
p42
S"'Invalid syntax.'"
p43
sS'__getitem__'
p44
S"<method-wrapper '__getitem__' of exceptions.SyntaxError object>"
p45
sS'__setstate__'
p46
S'<built-in method __setstate__ of exceptions.SyntaxError object>'
p47
sS'__getattribute__'
p48
S"<method-wrapper '__getattribute__' of exceptions.SyntaxError object>"
p49
sS'print_file_and_line'
p50
S'None'
p51
sS'args'
p52
S'("setting key \'login\' does not exist",)'
p53
sS'__subclasshook__'
p54
S'<built-in method __subclasshook__ of type object>'
p55
sS'offset'
p56
S'None'
p57
sS'__unicode__'
p58
S'<built-in method __unicode__ of exceptions.SyntaxError object>'
p59
sS'__delattr__'
p60
S"<method-wrapper '__delattr__' of exceptions.SyntaxError object>"
p61
sS'__repr__'
p62
S"<method-wrapper '__repr__' of exceptions.SyntaxError object>"
p63
sS'__hash__'
p64
S"<method-wrapper '__hash__' of exceptions.SyntaxError object>"
p65
ssS'evalue'
p66
S"setting key 'login' does not exist"
p67
sS'request'
p68
ccopy_reg
_reconstructor
p69
(cgluon.html
BEAUTIFY
p70
c__builtin__
object
p71
NtRp72
(dp73
S'attributes'
p74
(dp75
sS'components'
p76
(lp77
g69
(cgluon.html
TABLE
p78
g71
NtRp79
(dp80
g74
(dp81
S'level'
p82
I5
ssS'parent'
p83
Nsg76
(lp84
g69
(cgluon.html
TR
p85
g71
NtRp86
(dp87
g74
(dp88
sg83
g79
sg76
(lp89
g69
(cgluon.html
TD
p90
g71
NtRp91
(dp92
g74
(dp93
S'_style'
p94
S'font-weight:bold;vertical-align:top'
p95
ssg83
g86
sg76
(lp96
S'ajax'
p97
asbag69
(g90
g71
NtRp98
(dp99
g74
(dp100
S'_valign'
p101
S'top'
p102
ssg83
g86
sg76
(lp103
S':'
asbag69
(g90
g71
NtRp104
(dp105
g74
(dp106
sg83
g86
sg76
(lp107
g69
(g70
g71
NtRp108
(dp109
g74
(dp110
g82
I5
ssg83
g104
sg76
(lp111
S'False'
p112
asbasbasbag69
(g85
g71
NtRp113
(dp114
g74
(dp115
sg83
g79
sg76
(lp116
g69
(g90
g71
NtRp117
(dp118
g74
(dp119
g94
g95
ssg83
g113
sg76
(lp120
S'application'
p121
asbag69
(g90
g71
NtRp122
(dp123
g74
(dp124
g101
g102
ssg83
g113
sg76
(lp125
S':'
asbag69
(g90
g71
NtRp126
(dp127
g74
(dp128
sg83
g113
sg76
(lp129
g69
(g70
g71
NtRp130
(dp131
g74
(dp132
g82
I5
ssg83
g126
sg76
(lp133
S'CygnusCloud'
p134
asbasbasbag69
(g85
g71
NtRp135
(dp136
g74
(dp137
sg83
g79
sg76
(lp138
g69
(g90
g71
NtRp139
(dp140
g74
(dp141
g94
g95
ssg83
g135
sg76
(lp142
g52
asbag69
(g90
g71
NtRp143
(dp144
g74
(dp145
g101
g102
ssg83
g135
sg76
(lp146
S':'
asbag69
(g90
g71
NtRp147
(dp148
g74
(dp149
sg83
g135
sg76
(lp150
g69
(g70
g71
NtRp151
(dp152
g74
(dp153
g82
I5
ssg83
g147
sg76
(lp154
g69
(g78
g71
NtRp155
(dp156
g74
(dp157
g82
I4
ssg83
Nsg76
(lp158
sbasbasbasbag69
(g85
g71
NtRp159
(dp160
g74
(dp161
sg83
g79
sg76
(lp162
g69
(g90
g71
NtRp163
(dp164
g74
(dp165
g94
g95
ssg83
g159
sg76
(lp166
S'body'
p167
asbag69
(g90
g71
NtRp168
(dp169
g74
(dp170
g101
g102
ssg83
g159
sg76
(lp171
S':'
asbag69
(g90
g71
NtRp172
(dp173
g74
(dp174
sg83
g159
sg76
(lp175
g69
(g70
g71
NtRp176
(dp177
g74
(dp178
g82
I5
ssg83
g172
sg76
(lp179
S'<cStringIO.StringO object at 0x7f2364359880>'
p180
asbasbasbag69
(g85
g71
NtRp181
(dp182
g74
(dp183
sg83
g79
sg76
(lp184
g69
(g90
g71
NtRp185
(dp186
g74
(dp187
g94
g95
ssg83
g181
sg76
(lp188
S'cid'
p189
asbag69
(g90
g71
NtRp190
(dp191
g74
(dp192
g101
g102
ssg83
g181
sg76
(lp193
S':'
asbag69
(g90
g71
NtRp194
(dp195
g74
(dp196
sg83
g181
sg76
(lp197
g69
(g70
g71
NtRp198
(dp199
g74
(dp200
g82
I5
ssg83
g194
sg76
(lp201
S'None'
p202
asbasbasbag69
(g85
g71
NtRp203
(dp204
g74
(dp205
sg83
g79
sg76
(lp206
g69
(g90
g71
NtRp207
(dp208
g74
(dp209
g94
g95
ssg83
g203
sg76
(lp210
S'client'
p211
asbag69
(g90
g71
NtRp212
(dp213
g74
(dp214
g101
g102
ssg83
g203
sg76
(lp215
S':'
asbag69
(g90
g71
NtRp216
(dp217
g74
(dp218
sg83
g203
sg76
(lp219
g69
(g70
g71
NtRp220
(dp221
g74
(dp222
g82
I5
ssg83
g216
sg76
(lp223
S'127.0.0.1'
p224
asbasbasbag69
(g85
g71
NtRp225
(dp226
g74
(dp227
sg83
g79
sg76
(lp228
g69
(g90
g71
NtRp229
(dp230
g74
(dp231
g94
g95
ssg83
g225
sg76
(lp232
S'controller'
p233
asbag69
(g90
g71
NtRp234
(dp235
g74
(dp236
g101
g102
ssg83
g225
sg76
(lp237
S':'
asbag69
(g90
g71
NtRp238
(dp239
g74
(dp240
sg83
g225
sg76
(lp241
g69
(g70
g71
NtRp242
(dp243
g74
(dp244
g82
I5
ssg83
g238
sg76
(lp245
S'main'
p246
asbasbasbag69
(g85
g71
NtRp247
(dp248
g74
(dp249
sg83
g79
sg76
(lp250
g69
(g90
g71
NtRp251
(dp252
g74
(dp253
g94
g95
ssg83
g247
sg76
(lp254
S'cookies'
p255
asbag69
(g90
g71
NtRp256
(dp257
g74
(dp258
g101
g102
ssg83
g247
sg76
(lp259
S':'
asbag69
(g90
g71
NtRp260
(dp261
g74
(dp262
sg83
g247
sg76
(lp263
g69
(g70
g71
NtRp264
(dp265
g74
(dp266
g82
I5
ssg83
g260
sg76
(lp267
g69
(g78
g71
NtRp268
(dp269
g74
(dp270
g82
I4
ssg83
Nsg76
(lp271
g69
(g85
g71
NtRp272
(dp273
g74
(dp274
sg83
g268
sg76
(lp275
g69
(g90
g71
NtRp276
(dp277
g74
(dp278
g94
g95
ssg83
g272
sg76
(lp279
S'session_id_admin'
p280
asbag69
(g90
g71
NtRp281
(dp282
g74
(dp283
g101
g102
ssg83
g272
sg76
(lp284
S':'
asbag69
(g90
g71
NtRp285
(dp286
g74
(dp287
sg83
g272
sg76
(lp288
g69
(g70
g71
NtRp289
(dp290
g74
(dp291
g82
I4
ssg83
g285
sg76
(lp292
S'127.0.0.1-55f52477-473c-42b8-b923-a29e2f1fa64b'
p293
ag69
(g78
g71
NtRp294
(dp295
g74
(dp296
g82
I3
ssg83
Nsg76
(lp297
g69
(g85
g71
NtRp298
(dp299
g74
(dp300
sg83
g294
sg76
(lp301
g69
(g90
g71
NtRp302
(dp303
g74
(dp304
g94
g95
ssg83
g298
sg76
(lp305
S'comment'
p306
asbag69
(g90
g71
NtRp307
(dp308
g74
(dp309
g101
g102
ssg83
g298
sg76
(lp310
S':'
asbag69
(g90
g71
NtRp311
(dp312
g74
(dp313
sg83
g298
sg76
(lp314
g69
(g70
g71
NtRp315
(dp316
g74
(dp317
g82
I3
ssg83
g311
sg76
(lp318
S''
asbasbasbag69
(g85
g71
NtRp319
(dp320
g74
(dp321
sg83
g294
sg76
(lp322
g69
(g90
g71
NtRp323
(dp324
g74
(dp325
g94
g95
ssg83
g319
sg76
(lp326
S'domain'
p327
asbag69
(g90
g71
NtRp328
(dp329
g74
(dp330
g101
g102
ssg83
g319
sg76
(lp331
S':'
asbag69
(g90
g71
NtRp332
(dp333
g74
(dp334
sg83
g319
sg76
(lp335
g69
(g70
g71
NtRp336
(dp337
g74
(dp338
g82
I3
ssg83
g332
sg76
(lp339
S''
asbasbasbag69
(g85
g71
NtRp340
(dp341
g74
(dp342
sg83
g294
sg76
(lp343
g69
(g90
g71
NtRp344
(dp345
g74
(dp346
g94
g95
ssg83
g340
sg76
(lp347
S'expires'
p348
asbag69
(g90
g71
NtRp349
(dp350
g74
(dp351
g101
g102
ssg83
g340
sg76
(lp352
S':'
asbag69
(g90
g71
NtRp353
(dp354
g74
(dp355
sg83
g340
sg76
(lp356
g69
(g70
g71
NtRp357
(dp358
g74
(dp359
g82
I3
ssg83
g353
sg76
(lp360
S''
asbasbasbag69
(g85
g71
NtRp361
(dp362
g74
(dp363
sg83
g294
sg76
(lp364
g69
(g90
g71
NtRp365
(dp366
g74
(dp367
g94
g95
ssg83
g361
sg76
(lp368
S'httponly'
p369
asbag69
(g90
g71
NtRp370
(dp371
g74
(dp372
g101
g102
ssg83
g361
sg76
(lp373
S':'
asbag69
(g90
g71
NtRp374
(dp375
g74
(dp376
sg83
g361
sg76
(lp377
g69
(g70
g71
NtRp378
(dp379
g74
(dp380
g82
I3
ssg83
g374
sg76
(lp381
S''
asbasbasbag69
(g85
g71
NtRp382
(dp383
g74
(dp384
sg83
g294
sg76
(lp385
g69
(g90
g71
NtRp386
(dp387
g74
(dp388
g94
g95
ssg83
g382
sg76
(lp389
S'max-age'
p390
asbag69
(g90
g71
NtRp391
(dp392
g74
(dp393
g101
g102
ssg83
g382
sg76
(lp394
S':'
asbag69
(g90
g71
NtRp395
(dp396
g74
(dp397
sg83
g382
sg76
(lp398
g69
(g70
g71
NtRp399
(dp400
g74
(dp401
g82
I3
ssg83
g395
sg76
(lp402
S''
asbasbasbag69
(g85
g71
NtRp403
(dp404
g74
(dp405
sg83
g294
sg76
(lp406
g69
(g90
g71
NtRp407
(dp408
g74
(dp409
g94
g95
ssg83
g403
sg76
(lp410
S'path'
p411
asbag69
(g90
g71
NtRp412
(dp413
g74
(dp414
g101
g102
ssg83
g403
sg76
(lp415
S':'
asbag69
(g90
g71
NtRp416
(dp417
g74
(dp418
sg83
g403
sg76
(lp419
g69
(g70
g71
NtRp420
(dp421
g74
(dp422
g82
I3
ssg83
g416
sg76
(lp423
S''
asbasbasbag69
(g85
g71
NtRp424
(dp425
g74
(dp426
sg83
g294
sg76
(lp427
g69
(g90
g71
NtRp428
(dp429
g74
(dp430
g94
g95
ssg83
g424
sg76
(lp431
S'secure'
p432
asbag69
(g90
g71
NtRp433
(dp434
g74
(dp435
g101
g102
ssg83
g424
sg76
(lp436
S':'
asbag69
(g90
g71
NtRp437
(dp438
g74
(dp439
sg83
g424
sg76
(lp440
g69
(g70
g71
NtRp441
(dp442
g74
(dp443
g82
I3
ssg83
g437
sg76
(lp444
S''
asbasbasbag69
(g85
g71
NtRp445
(dp446
g74
(dp447
sg83
g294
sg76
(lp448
g69
(g90
g71
NtRp449
(dp450
g74
(dp451
g94
g95
ssg83
g445
sg76
(lp452
S'version'
p453
asbag69
(g90
g71
NtRp454
(dp455
g74
(dp456
g101
g102
ssg83
g445
sg76
(lp457
S':'
asbag69
(g90
g71
NtRp458
(dp459
g74
(dp460
sg83
g445
sg76
(lp461
g69
(g70
g71
NtRp462
(dp463
g74
(dp464
g82
I3
ssg83
g458
sg76
(lp465
S''
asbasbasbasbasbasbasbag69
(g85
g71
NtRp466
(dp467
g74
(dp468
sg83
g268
sg76
(lp469
g69
(g90
g71
NtRp470
(dp471
g74
(dp472
g94
g95
ssg83
g466
sg76
(lp473
S'session_id_cygnuscloud'
p474
asbag69
(g90
g71
NtRp475
(dp476
g74
(dp477
g101
g102
ssg83
g466
sg76
(lp478
S':'
asbag69
(g90
g71
NtRp479
(dp480
g74
(dp481
sg83
g466
sg76
(lp482
g69
(g70
g71
NtRp483
(dp484
g74
(dp485
g82
I4
ssg83
g479
sg76
(lp486
S'127.0.0.1-791acaf2-7386-46dc-b011-4810dc00037c'
p487
ag69
(g78
g71
NtRp488
(dp489
g74
(dp490
g82
I3
ssg83
Nsg76
(lp491
g69
(g85
g71
NtRp492
(dp493
g74
(dp494
sg83
g488
sg76
(lp495
g69
(g90
g71
NtRp496
(dp497
g74
(dp498
g94
g95
ssg83
g492
sg76
(lp499
g306
asbag69
(g90
g71
NtRp500
(dp501
g74
(dp502
g101
g102
ssg83
g492
sg76
(lp503
S':'
asbag69
(g90
g71
NtRp504
(dp505
g74
(dp506
sg83
g492
sg76
(lp507
g69
(g70
g71
NtRp508
(dp509
g74
(dp510
g82
I3
ssg83
g504
sg76
(lp511
S''
asbasbasbag69
(g85
g71
NtRp512
(dp513
g74
(dp514
sg83
g488
sg76
(lp515
g69
(g90
g71
NtRp516
(dp517
g74
(dp518
g94
g95
ssg83
g512
sg76
(lp519
g327
asbag69
(g90
g71
NtRp520
(dp521
g74
(dp522
g101
g102
ssg83
g512
sg76
(lp523
S':'
asbag69
(g90
g71
NtRp524
(dp525
g74
(dp526
sg83
g512
sg76
(lp527
g69
(g70
g71
NtRp528
(dp529
g74
(dp530
g82
I3
ssg83
g524
sg76
(lp531
S''
asbasbasbag69
(g85
g71
NtRp532
(dp533
g74
(dp534
sg83
g488
sg76
(lp535
g69
(g90
g71
NtRp536
(dp537
g74
(dp538
g94
g95
ssg83
g532
sg76
(lp539
g348
asbag69
(g90
g71
NtRp540
(dp541
g74
(dp542
g101
g102
ssg83
g532
sg76
(lp543
S':'
asbag69
(g90
g71
NtRp544
(dp545
g74
(dp546
sg83
g532
sg76
(lp547
g69
(g70
g71
NtRp548
(dp549
g74
(dp550
g82
I3
ssg83
g544
sg76
(lp551
S''
asbasbasbag69
(g85
g71
NtRp552
(dp553
g74
(dp554
sg83
g488
sg76
(lp555
g69
(g90
g71
NtRp556
(dp557
g74
(dp558
g94
g95
ssg83
g552
sg76
(lp559
g369
asbag69
(g90
g71
NtRp560
(dp561
g74
(dp562
g101
g102
ssg83
g552
sg76
(lp563
S':'
asbag69
(g90
g71
NtRp564
(dp565
g74
(dp566
sg83
g552
sg76
(lp567
g69
(g70
g71
NtRp568
(dp569
g74
(dp570
g82
I3
ssg83
g564
sg76
(lp571
S''
asbasbasbag69
(g85
g71
NtRp572
(dp573
g74
(dp574
sg83
g488
sg76
(lp575
g69
(g90
g71
NtRp576
(dp577
g74
(dp578
g94
g95
ssg83
g572
sg76
(lp579
g390
asbag69
(g90
g71
NtRp580
(dp581
g74
(dp582
g101
g102
ssg83
g572
sg76
(lp583
S':'
asbag69
(g90
g71
NtRp584
(dp585
g74
(dp586
sg83
g572
sg76
(lp587
g69
(g70
g71
NtRp588
(dp589
g74
(dp590
g82
I3
ssg83
g584
sg76
(lp591
S''
asbasbasbag69
(g85
g71
NtRp592
(dp593
g74
(dp594
sg83
g488
sg76
(lp595
g69
(g90
g71
NtRp596
(dp597
g74
(dp598
g94
g95
ssg83
g592
sg76
(lp599
g411
asbag69
(g90
g71
NtRp600
(dp601
g74
(dp602
g101
g102
ssg83
g592
sg76
(lp603
S':'
asbag69
(g90
g71
NtRp604
(dp605
g74
(dp606
sg83
g592
sg76
(lp607
g69
(g70
g71
NtRp608
(dp609
g74
(dp610
g82
I3
ssg83
g604
sg76
(lp611
S''
asbasbasbag69
(g85
g71
NtRp612
(dp613
g74
(dp614
sg83
g488
sg76
(lp615
g69
(g90
g71
NtRp616
(dp617
g74
(dp618
g94
g95
ssg83
g612
sg76
(lp619
g432
asbag69
(g90
g71
NtRp620
(dp621
g74
(dp622
g101
g102
ssg83
g612
sg76
(lp623
S':'
asbag69
(g90
g71
NtRp624
(dp625
g74
(dp626
sg83
g612
sg76
(lp627
g69
(g70
g71
NtRp628
(dp629
g74
(dp630
g82
I3
ssg83
g624
sg76
(lp631
S''
asbasbasbag69
(g85
g71
NtRp632
(dp633
g74
(dp634
sg83
g488
sg76
(lp635
g69
(g90
g71
NtRp636
(dp637
g74
(dp638
g94
g95
ssg83
g632
sg76
(lp639
g453
asbag69
(g90
g71
NtRp640
(dp641
g74
(dp642
g101
g102
ssg83
g632
sg76
(lp643
S':'
asbag69
(g90
g71
NtRp644
(dp645
g74
(dp646
sg83
g632
sg76
(lp647
g69
(g70
g71
NtRp648
(dp649
g74
(dp650
g82
I3
ssg83
g644
sg76
(lp651
S''
asbasbasbasbasbasbasbag69
(g85
g71
NtRp652
(dp653
g74
(dp654
sg83
g268
sg76
(lp655
g69
(g90
g71
NtRp656
(dp657
g74
(dp658
g94
g95
ssg83
g652
sg76
(lp659
S'session_id_images'
p660
asbag69
(g90
g71
NtRp661
(dp662
g74
(dp663
g101
g102
ssg83
g652
sg76
(lp664
S':'
asbag69
(g90
g71
NtRp665
(dp666
g74
(dp667
sg83
g652
sg76
(lp668
g69
(g70
g71
NtRp669
(dp670
g74
(dp671
g82
I4
ssg83
g665
sg76
(lp672
S'127.0.0.1-86f6c98f-4fbb-4841-b606-44c0d90442c6'
p673
ag69
(g78
g71
NtRp674
(dp675
g74
(dp676
g82
I3
ssg83
Nsg76
(lp677
g69
(g85
g71
NtRp678
(dp679
g74
(dp680
sg83
g674
sg76
(lp681
g69
(g90
g71
NtRp682
(dp683
g74
(dp684
g94
g95
ssg83
g678
sg76
(lp685
g306
asbag69
(g90
g71
NtRp686
(dp687
g74
(dp688
g101
g102
ssg83
g678
sg76
(lp689
S':'
asbag69
(g90
g71
NtRp690
(dp691
g74
(dp692
sg83
g678
sg76
(lp693
g69
(g70
g71
NtRp694
(dp695
g74
(dp696
g82
I3
ssg83
g690
sg76
(lp697
S''
asbasbasbag69
(g85
g71
NtRp698
(dp699
g74
(dp700
sg83
g674
sg76
(lp701
g69
(g90
g71
NtRp702
(dp703
g74
(dp704
g94
g95
ssg83
g698
sg76
(lp705
g327
asbag69
(g90
g71
NtRp706
(dp707
g74
(dp708
g101
g102
ssg83
g698
sg76
(lp709
S':'
asbag69
(g90
g71
NtRp710
(dp711
g74
(dp712
sg83
g698
sg76
(lp713
g69
(g70
g71
NtRp714
(dp715
g74
(dp716
g82
I3
ssg83
g710
sg76
(lp717
S''
asbasbasbag69
(g85
g71
NtRp718
(dp719
g74
(dp720
sg83
g674
sg76
(lp721
g69
(g90
g71
NtRp722
(dp723
g74
(dp724
g94
g95
ssg83
g718
sg76
(lp725
g348
asbag69
(g90
g71
NtRp726
(dp727
g74
(dp728
g101
g102
ssg83
g718
sg76
(lp729
S':'
asbag69
(g90
g71
NtRp730
(dp731
g74
(dp732
sg83
g718
sg76
(lp733
g69
(g70
g71
NtRp734
(dp735
g74
(dp736
g82
I3
ssg83
g730
sg76
(lp737
S''
asbasbasbag69
(g85
g71
NtRp738
(dp739
g74
(dp740
sg83
g674
sg76
(lp741
g69
(g90
g71
NtRp742
(dp743
g74
(dp744
g94
g95
ssg83
g738
sg76
(lp745
g369
asbag69
(g90
g71
NtRp746
(dp747
g74
(dp748
g101
g102
ssg83
g738
sg76
(lp749
S':'
asbag69
(g90
g71
NtRp750
(dp751
g74
(dp752
sg83
g738
sg76
(lp753
g69
(g70
g71
NtRp754
(dp755
g74
(dp756
g82
I3
ssg83
g750
sg76
(lp757
S''
asbasbasbag69
(g85
g71
NtRp758
(dp759
g74
(dp760
sg83
g674
sg76
(lp761
g69
(g90
g71
NtRp762
(dp763
g74
(dp764
g94
g95
ssg83
g758
sg76
(lp765
g390
asbag69
(g90
g71
NtRp766
(dp767
g74
(dp768
g101
g102
ssg83
g758
sg76
(lp769
S':'
asbag69
(g90
g71
NtRp770
(dp771
g74
(dp772
sg83
g758
sg76
(lp773
g69
(g70
g71
NtRp774
(dp775
g74
(dp776
g82
I3
ssg83
g770
sg76
(lp777
S''
asbasbasbag69
(g85
g71
NtRp778
(dp779
g74
(dp780
sg83
g674
sg76
(lp781
g69
(g90
g71
NtRp782
(dp783
g74
(dp784
g94
g95
ssg83
g778
sg76
(lp785
g411
asbag69
(g90
g71
NtRp786
(dp787
g74
(dp788
g101
g102
ssg83
g778
sg76
(lp789
S':'
asbag69
(g90
g71
NtRp790
(dp791
g74
(dp792
sg83
g778
sg76
(lp793
g69
(g70
g71
NtRp794
(dp795
g74
(dp796
g82
I3
ssg83
g790
sg76
(lp797
S''
asbasbasbag69
(g85
g71
NtRp798
(dp799
g74
(dp800
sg83
g674
sg76
(lp801
g69
(g90
g71
NtRp802
(dp803
g74
(dp804
g94
g95
ssg83
g798
sg76
(lp805
g432
asbag69
(g90
g71
NtRp806
(dp807
g74
(dp808
g101
g102
ssg83
g798
sg76
(lp809
S':'
asbag69
(g90
g71
NtRp810
(dp811
g74
(dp812
sg83
g798
sg76
(lp813
g69
(g70
g71
NtRp814
(dp815
g74
(dp816
g82
I3
ssg83
g810
sg76
(lp817
S''
asbasbasbag69
(g85
g71
NtRp818
(dp819
g74
(dp820
sg83
g674
sg76
(lp821
g69
(g90
g71
NtRp822
(dp823
g74
(dp824
g94
g95
ssg83
g818
sg76
(lp825
g453
asbag69
(g90
g71
NtRp826
(dp827
g74
(dp828
g101
g102
ssg83
g818
sg76
(lp829
S':'
asbag69
(g90
g71
NtRp830
(dp831
g74
(dp832
sg83
g818
sg76
(lp833
g69
(g70
g71
NtRp834
(dp835
g74
(dp836
g82
I3
ssg83
g830
sg76
(lp837
S''
asbasbasbasbasbasbasbag69
(g85
g71
NtRp838
(dp839
g74
(dp840
sg83
g268
sg76
(lp841
g69
(g90
g71
NtRp842
(dp843
g74
(dp844
g94
g95
ssg83
g838
sg76
(lp845
S'session_id_mywiki'
p846
asbag69
(g90
g71
NtRp847
(dp848
g74
(dp849
g101
g102
ssg83
g838
sg76
(lp850
S':'
asbag69
(g90
g71
NtRp851
(dp852
g74
(dp853
sg83
g838
sg76
(lp854
g69
(g70
g71
NtRp855
(dp856
g74
(dp857
g82
I4
ssg83
g851
sg76
(lp858
S'127.0.0.1-5985911a-1127-4d96-9157-dcf724a3d27c'
p859
ag69
(g78
g71
NtRp860
(dp861
g74
(dp862
g82
I3
ssg83
Nsg76
(lp863
g69
(g85
g71
NtRp864
(dp865
g74
(dp866
sg83
g860
sg76
(lp867
g69
(g90
g71
NtRp868
(dp869
g74
(dp870
g94
g95
ssg83
g864
sg76
(lp871
g306
asbag69
(g90
g71
NtRp872
(dp873
g74
(dp874
g101
g102
ssg83
g864
sg76
(lp875
S':'
asbag69
(g90
g71
NtRp876
(dp877
g74
(dp878
sg83
g864
sg76
(lp879
g69
(g70
g71
NtRp880
(dp881
g74
(dp882
g82
I3
ssg83
g876
sg76
(lp883
S''
asbasbasbag69
(g85
g71
NtRp884
(dp885
g74
(dp886
sg83
g860
sg76
(lp887
g69
(g90
g71
NtRp888
(dp889
g74
(dp890
g94
g95
ssg83
g884
sg76
(lp891
g327
asbag69
(g90
g71
NtRp892
(dp893
g74
(dp894
g101
g102
ssg83
g884
sg76
(lp895
S':'
asbag69
(g90
g71
NtRp896
(dp897
g74
(dp898
sg83
g884
sg76
(lp899
g69
(g70
g71
NtRp900
(dp901
g74
(dp902
g82
I3
ssg83
g896
sg76
(lp903
S''
asbasbasbag69
(g85
g71
NtRp904
(dp905
g74
(dp906
sg83
g860
sg76
(lp907
g69
(g90
g71
NtRp908
(dp909
g74
(dp910
g94
g95
ssg83
g904
sg76
(lp911
g348
asbag69
(g90
g71
NtRp912
(dp913
g74
(dp914
g101
g102
ssg83
g904
sg76
(lp915
S':'
asbag69
(g90
g71
NtRp916
(dp917
g74
(dp918
sg83
g904
sg76
(lp919
g69
(g70
g71
NtRp920
(dp921
g74
(dp922
g82
I3
ssg83
g916
sg76
(lp923
S''
asbasbasbag69
(g85
g71
NtRp924
(dp925
g74
(dp926
sg83
g860
sg76
(lp927
g69
(g90
g71
NtRp928
(dp929
g74
(dp930
g94
g95
ssg83
g924
sg76
(lp931
g369
asbag69
(g90
g71
NtRp932
(dp933
g74
(dp934
g101
g102
ssg83
g924
sg76
(lp935
S':'
asbag69
(g90
g71
NtRp936
(dp937
g74
(dp938
sg83
g924
sg76
(lp939
g69
(g70
g71
NtRp940
(dp941
g74
(dp942
g82
I3
ssg83
g936
sg76
(lp943
S''
asbasbasbag69
(g85
g71
NtRp944
(dp945
g74
(dp946
sg83
g860
sg76
(lp947
g69
(g90
g71
NtRp948
(dp949
g74
(dp950
g94
g95
ssg83
g944
sg76
(lp951
g390
asbag69
(g90
g71
NtRp952
(dp953
g74
(dp954
g101
g102
ssg83
g944
sg76
(lp955
S':'
asbag69
(g90
g71
NtRp956
(dp957
g74
(dp958
sg83
g944
sg76
(lp959
g69
(g70
g71
NtRp960
(dp961
g74
(dp962
g82
I3
ssg83
g956
sg76
(lp963
S''
asbasbasbag69
(g85
g71
NtRp964
(dp965
g74
(dp966
sg83
g860
sg76
(lp967
g69
(g90
g71
NtRp968
(dp969
g74
(dp970
g94
g95
ssg83
g964
sg76
(lp971
g411
asbag69
(g90
g71
NtRp972
(dp973
g74
(dp974
g101
g102
ssg83
g964
sg76
(lp975
S':'
asbag69
(g90
g71
NtRp976
(dp977
g74
(dp978
sg83
g964
sg76
(lp979
g69
(g70
g71
NtRp980
(dp981
g74
(dp982
g82
I3
ssg83
g976
sg76
(lp983
S''
asbasbasbag69
(g85
g71
NtRp984
(dp985
g74
(dp986
sg83
g860
sg76
(lp987
g69
(g90
g71
NtRp988
(dp989
g74
(dp990
g94
g95
ssg83
g984
sg76
(lp991
g432
asbag69
(g90
g71
NtRp992
(dp993
g74
(dp994
g101
g102
ssg83
g984
sg76
(lp995
S':'
asbag69
(g90
g71
NtRp996
(dp997
g74
(dp998
sg83
g984
sg76
(lp999
g69
(g70
g71
NtRp1000
(dp1001
g74
(dp1002
g82
I3
ssg83
g996
sg76
(lp1003
S''
asbasbasbag69
(g85
g71
NtRp1004
(dp1005
g74
(dp1006
sg83
g860
sg76
(lp1007
g69
(g90
g71
NtRp1008
(dp1009
g74
(dp1010
g94
g95
ssg83
g1004
sg76
(lp1011
g453
asbag69
(g90
g71
NtRp1012
(dp1013
g74
(dp1014
g101
g102
ssg83
g1004
sg76
(lp1015
S':'
asbag69
(g90
g71
NtRp1016
(dp1017
g74
(dp1018
sg83
g1004
sg76
(lp1019
g69
(g70
g71
NtRp1020
(dp1021
g74
(dp1022
g82
I3
ssg83
g1016
sg76
(lp1023
S''
asbasbasbasbasbasbasbag69
(g85
g71
NtRp1024
(dp1025
g74
(dp1026
sg83
g268
sg76
(lp1027
g69
(g90
g71
NtRp1028
(dp1029
g74
(dp1030
g94
g95
ssg83
g1024
sg76
(lp1031
S'session_id_welcome'
p1032
asbag69
(g90
g71
NtRp1033
(dp1034
g74
(dp1035
g101
g102
ssg83
g1024
sg76
(lp1036
S':'
asbag69
(g90
g71
NtRp1037
(dp1038
g74
(dp1039
sg83
g1024
sg76
(lp1040
g69
(g70
g71
NtRp1041
(dp1042
g74
(dp1043
g82
I4
ssg83
g1037
sg76
(lp1044
S'127.0.0.1-ed3399df-33a9-4506-9f65-53bddd2578f7'
p1045
ag69
(g78
g71
NtRp1046
(dp1047
g74
(dp1048
g82
I3
ssg83
Nsg76
(lp1049
g69
(g85
g71
NtRp1050
(dp1051
g74
(dp1052
sg83
g1046
sg76
(lp1053
g69
(g90
g71
NtRp1054
(dp1055
g74
(dp1056
g94
g95
ssg83
g1050
sg76
(lp1057
g306
asbag69
(g90
g71
NtRp1058
(dp1059
g74
(dp1060
g101
g102
ssg83
g1050
sg76
(lp1061
S':'
asbag69
(g90
g71
NtRp1062
(dp1063
g74
(dp1064
sg83
g1050
sg76
(lp1065
g69
(g70
g71
NtRp1066
(dp1067
g74
(dp1068
g82
I3
ssg83
g1062
sg76
(lp1069
S''
asbasbasbag69
(g85
g71
NtRp1070
(dp1071
g74
(dp1072
sg83
g1046
sg76
(lp1073
g69
(g90
g71
NtRp1074
(dp1075
g74
(dp1076
g94
g95
ssg83
g1070
sg76
(lp1077
g327
asbag69
(g90
g71
NtRp1078
(dp1079
g74
(dp1080
g101
g102
ssg83
g1070
sg76
(lp1081
S':'
asbag69
(g90
g71
NtRp1082
(dp1083
g74
(dp1084
sg83
g1070
sg76
(lp1085
g69
(g70
g71
NtRp1086
(dp1087
g74
(dp1088
g82
I3
ssg83
g1082
sg76
(lp1089
S''
asbasbasbag69
(g85
g71
NtRp1090
(dp1091
g74
(dp1092
sg83
g1046
sg76
(lp1093
g69
(g90
g71
NtRp1094
(dp1095
g74
(dp1096
g94
g95
ssg83
g1090
sg76
(lp1097
g348
asbag69
(g90
g71
NtRp1098
(dp1099
g74
(dp1100
g101
g102
ssg83
g1090
sg76
(lp1101
S':'
asbag69
(g90
g71
NtRp1102
(dp1103
g74
(dp1104
sg83
g1090
sg76
(lp1105
g69
(g70
g71
NtRp1106
(dp1107
g74
(dp1108
g82
I3
ssg83
g1102
sg76
(lp1109
S''
asbasbasbag69
(g85
g71
NtRp1110
(dp1111
g74
(dp1112
sg83
g1046
sg76
(lp1113
g69
(g90
g71
NtRp1114
(dp1115
g74
(dp1116
g94
g95
ssg83
g1110
sg76
(lp1117
g369
asbag69
(g90
g71
NtRp1118
(dp1119
g74
(dp1120
g101
g102
ssg83
g1110
sg76
(lp1121
S':'
asbag69
(g90
g71
NtRp1122
(dp1123
g74
(dp1124
sg83
g1110
sg76
(lp1125
g69
(g70
g71
NtRp1126
(dp1127
g74
(dp1128
g82
I3
ssg83
g1122
sg76
(lp1129
S''
asbasbasbag69
(g85
g71
NtRp1130
(dp1131
g74
(dp1132
sg83
g1046
sg76
(lp1133
g69
(g90
g71
NtRp1134
(dp1135
g74
(dp1136
g94
g95
ssg83
g1130
sg76
(lp1137
g390
asbag69
(g90
g71
NtRp1138
(dp1139
g74
(dp1140
g101
g102
ssg83
g1130
sg76
(lp1141
S':'
asbag69
(g90
g71
NtRp1142
(dp1143
g74
(dp1144
sg83
g1130
sg76
(lp1145
g69
(g70
g71
NtRp1146
(dp1147
g74
(dp1148
g82
I3
ssg83
g1142
sg76
(lp1149
S''
asbasbasbag69
(g85
g71
NtRp1150
(dp1151
g74
(dp1152
sg83
g1046
sg76
(lp1153
g69
(g90
g71
NtRp1154
(dp1155
g74
(dp1156
g94
g95
ssg83
g1150
sg76
(lp1157
g411
asbag69
(g90
g71
NtRp1158
(dp1159
g74
(dp1160
g101
g102
ssg83
g1150
sg76
(lp1161
S':'
asbag69
(g90
g71
NtRp1162
(dp1163
g74
(dp1164
sg83
g1150
sg76
(lp1165
g69
(g70
g71
NtRp1166
(dp1167
g74
(dp1168
g82
I3
ssg83
g1162
sg76
(lp1169
S''
asbasbasbag69
(g85
g71
NtRp1170
(dp1171
g74
(dp1172
sg83
g1046
sg76
(lp1173
g69
(g90
g71
NtRp1174
(dp1175
g74
(dp1176
g94
g95
ssg83
g1170
sg76
(lp1177
g432
asbag69
(g90
g71
NtRp1178
(dp1179
g74
(dp1180
g101
g102
ssg83
g1170
sg76
(lp1181
S':'
asbag69
(g90
g71
NtRp1182
(dp1183
g74
(dp1184
sg83
g1170
sg76
(lp1185
g69
(g70
g71
NtRp1186
(dp1187
g74
(dp1188
g82
I3
ssg83
g1182
sg76
(lp1189
S''
asbasbasbag69
(g85
g71
NtRp1190
(dp1191
g74
(dp1192
sg83
g1046
sg76
(lp1193
g69
(g90
g71
NtRp1194
(dp1195
g74
(dp1196
g94
g95
ssg83
g1190
sg76
(lp1197
g453
asbag69
(g90
g71
NtRp1198
(dp1199
g74
(dp1200
g101
g102
ssg83
g1190
sg76
(lp1201
S':'
asbag69
(g90
g71
NtRp1202
(dp1203
g74
(dp1204
sg83
g1190
sg76
(lp1205
g69
(g70
g71
NtRp1206
(dp1207
g74
(dp1208
g82
I3
ssg83
g1202
sg76
(lp1209
S''
asbasbasbasbasbasbasbasbasbasbasbag69
(g85
g71
NtRp1210
(dp1211
g74
(dp1212
sg83
g79
sg76
(lp1213
g69
(g90
g71
NtRp1214
(dp1215
g74
(dp1216
g94
g95
ssg83
g1210
sg76
(lp1217
S'env'
p1218
asbag69
(g90
g71
NtRp1219
(dp1220
g74
(dp1221
g101
g102
ssg83
g1210
sg76
(lp1222
S':'
asbag69
(g90
g71
NtRp1223
(dp1224
g74
(dp1225
sg83
g1210
sg76
(lp1226
g69
(g70
g71
NtRp1227
(dp1228
g74
(dp1229
g82
I5
ssg83
g1223
sg76
(lp1230
g69
(g78
g71
NtRp1231
(dp1232
g74
(dp1233
g82
I4
ssg83
Nsg76
(lp1234
g69
(g85
g71
NtRp1235
(dp1236
g74
(dp1237
sg83
g1231
sg76
(lp1238
g69
(g90
g71
NtRp1239
(dp1240
g74
(dp1241
g94
g95
ssg83
g1235
sg76
(lp1242
S'app_folders'
p1243
asbag69
(g90
g71
NtRp1244
(dp1245
g74
(dp1246
g101
g102
ssg83
g1235
sg76
(lp1247
S':'
asbag69
(g90
g71
NtRp1248
(dp1249
g74
(dp1250
sg83
g1235
sg76
(lp1251
g69
(g70
g71
NtRp1252
(dp1253
g74
(dp1254
g82
I4
ssg83
g1248
sg76
(lp1255
S"set(['/home/adrian/web2py/applications/admin/', '/home/adrian/web2py/applications/welcome/', '/home/adrian/web2py/applications/mywiki/', '/home/adrian/web2py/applications/images/', '/home/adrian/web2py/applications/CygnusCloud/'])"
p1256
asbasbasbag69
(g85
g71
NtRp1257
(dp1258
g74
(dp1259
sg83
g1231
sg76
(lp1260
g69
(g90
g71
NtRp1261
(dp1262
g74
(dp1263
g94
g95
ssg83
g1257
sg76
(lp1264
S'applications_parent'
p1265
asbag69
(g90
g71
NtRp1266
(dp1267
g74
(dp1268
g101
g102
ssg83
g1257
sg76
(lp1269
S':'
asbag69
(g90
g71
NtRp1270
(dp1271
g74
(dp1272
sg83
g1257
sg76
(lp1273
g69
(g70
g71
NtRp1274
(dp1275
g74
(dp1276
g82
I4
ssg83
g1270
sg76
(lp1277
S'/home/adrian/web2py'
p1278
asbasbasbag69
(g85
g71
NtRp1279
(dp1280
g74
(dp1281
sg83
g1231
sg76
(lp1282
g69
(g90
g71
NtRp1283
(dp1284
g74
(dp1285
g94
g95
ssg83
g1279
sg76
(lp1286
S'cmd_args'
p1287
asbag69
(g90
g71
NtRp1288
(dp1289
g74
(dp1290
g101
g102
ssg83
g1279
sg76
(lp1291
S':'
asbag69
(g90
g71
NtRp1292
(dp1293
g74
(dp1294
sg83
g1279
sg76
(lp1295
g69
(g70
g71
NtRp1296
(dp1297
g74
(dp1298
g82
I4
ssg83
g1292
sg76
(lp1299
g69
(g78
g71
NtRp1300
(dp1301
g74
(dp1302
g82
I3
ssg83
Nsg76
(lp1303
sbasbasbasbag69
(g85
g71
NtRp1304
(dp1305
g74
(dp1306
sg83
g1231
sg76
(lp1307
g69
(g90
g71
NtRp1308
(dp1309
g74
(dp1310
g94
g95
ssg83
g1304
sg76
(lp1311
S'cmd_options'
p1312
asbag69
(g90
g71
NtRp1313
(dp1314
g74
(dp1315
g101
g102
ssg83
g1304
sg76
(lp1316
S':'
asbag69
(g90
g71
NtRp1317
(dp1318
g74
(dp1319
sg83
g1304
sg76
(lp1320
g69
(g70
g71
NtRp1321
(dp1322
g74
(dp1323
g82
I4
ssg83
g1317
sg76
(lp1324
S"<Values at 0x172fbd8: {'verbose': False, 'ip': '127.0.0.1', 'with_scheduler': False, 'ips': [], 'shutdown_timeout': 5, 'taskbar': False, 'port': 8000, 'maxthreads': None, 'softcron': False, 'server_name': 'adri-EasyNote', 'bpython': False, 'nogui': False, 'pid_filename': 'httpserver.pid', 'extcron': False, 'runcron': False, 'run_system_tests': False, 'test': None, 'folder': '/home/adrian/web2py', 'config': '', 'minthreads': None, 'winservice': '', 'shell': None, 'run': '', 'log_filename': 'httpserver.log', 'debuglevel': 30, 'args': [''], 'socket_timeout': 5, 'ssl_ca_certificate': None, 'scheduler': None, 'profiler_filename': None, 'ssl_private_key': '', 'scheduler_groups': None, 'password': 'cygnuscloud2012', 'request_queue_size': 5, 'ssl_certificate': '', 'cronjob': False, 'numthreads': None, 'quiet': False, 'interfaces': None, 'import_models': False, 'timeout': 10, 'plain': False, 'nobanner': False}>"
p1325
asbasbasbag69
(g85
g71
NtRp1326
(dp1327
g74
(dp1328
sg83
g1231
sg76
(lp1329
g69
(g90
g71
NtRp1330
(dp1331
g74
(dp1332
g94
g95
ssg83
g1326
sg76
(lp1333
S'db_sessions'
p1334
asbag69
(g90
g71
NtRp1335
(dp1336
g74
(dp1337
g101
g102
ssg83
g1326
sg76
(lp1338
S':'
asbag69
(g90
g71
NtRp1339
(dp1340
g74
(dp1341
sg83
g1326
sg76
(lp1342
g69
(g70
g71
NtRp1343
(dp1344
g74
(dp1345
g82
I4
ssg83
g1339
sg76
(lp1346
S'set([])'
p1347
asbasbasbag69
(g85
g71
NtRp1348
(dp1349
g74
(dp1350
sg83
g1231
sg76
(lp1351
g69
(g90
g71
NtRp1352
(dp1353
g74
(dp1354
g94
g95
ssg83
g1348
sg76
(lp1355
S'debugging'
p1356
asbag69
(g90
g71
NtRp1357
(dp1358
g74
(dp1359
g101
g102
ssg83
g1348
sg76
(lp1360
S':'
asbag69
(g90
g71
NtRp1361
(dp1362
g74
(dp1363
sg83
g1348
sg76
(lp1364
g69
(g70
g71
NtRp1365
(dp1366
g74
(dp1367
g82
I4
ssg83
g1361
sg76
(lp1368
g112
asbasbasbag69
(g85
g71
NtRp1369
(dp1370
g74
(dp1371
sg83
g1231
sg76
(lp1372
g69
(g90
g71
NtRp1373
(dp1374
g74
(dp1375
g94
g95
ssg83
g1369
sg76
(lp1376
S'gluon_parent'
p1377
asbag69
(g90
g71
NtRp1378
(dp1379
g74
(dp1380
g101
g102
ssg83
g1369
sg76
(lp1381
S':'
asbag69
(g90
g71
NtRp1382
(dp1383
g74
(dp1384
sg83
g1369
sg76
(lp1385
g69
(g70
g71
NtRp1386
(dp1387
g74
(dp1388
g82
I4
ssg83
g1382
sg76
(lp1389
S'/home/adrian/web2py'
p1390
asbasbasbag69
(g85
g71
NtRp1391
(dp1392
g74
(dp1393
sg83
g1231
sg76
(lp1394
g69
(g90
g71
NtRp1395
(dp1396
g74
(dp1397
g94
g95
ssg83
g1391
sg76
(lp1398
S'http_accept'
p1399
asbag69
(g90
g71
NtRp1400
(dp1401
g74
(dp1402
g101
g102
ssg83
g1391
sg76
(lp1403
S':'
asbag69
(g90
g71
NtRp1404
(dp1405
g74
(dp1406
sg83
g1391
sg76
(lp1407
g69
(g70
g71
NtRp1408
(dp1409
g74
(dp1410
g82
I4
ssg83
g1404
sg76
(lp1411
S'text/html,application/xhtml+xml,application/xml;q=0.9,*/*;q=0.8'
p1412
asbasbasbag69
(g85
g71
NtRp1413
(dp1414
g74
(dp1415
sg83
g1231
sg76
(lp1416
g69
(g90
g71
NtRp1417
(dp1418
g74
(dp1419
g94
g95
ssg83
g1413
sg76
(lp1420
S'http_accept_charset'
p1421
asbag69
(g90
g71
NtRp1422
(dp1423
g74
(dp1424
g101
g102
ssg83
g1413
sg76
(lp1425
S':'
asbag69
(g90
g71
NtRp1426
(dp1427
g74
(dp1428
sg83
g1413
sg76
(lp1429
g69
(g70
g71
NtRp1430
(dp1431
g74
(dp1432
g82
I4
ssg83
g1426
sg76
(lp1433
S'ISO-8859-1,utf-8;q=0.7,*;q=0.3'
p1434
asbasbasbag69
(g85
g71
NtRp1435
(dp1436
g74
(dp1437
sg83
g1231
sg76
(lp1438
g69
(g90
g71
NtRp1439
(dp1440
g74
(dp1441
g94
g95
ssg83
g1435
sg76
(lp1442
S'http_accept_encoding'
p1443
asbag69
(g90
g71
NtRp1444
(dp1445
g74
(dp1446
g101
g102
ssg83
g1435
sg76
(lp1447
S':'
asbag69
(g90
g71
NtRp1448
(dp1449
g74
(dp1450
sg83
g1435
sg76
(lp1451
g69
(g70
g71
NtRp1452
(dp1453
g74
(dp1454
g82
I4
ssg83
g1448
sg76
(lp1455
S'gzip,deflate,sdch'
p1456
asbasbasbag69
(g85
g71
NtRp1457
(dp1458
g74
(dp1459
sg83
g1231
sg76
(lp1460
g69
(g90
g71
NtRp1461
(dp1462
g74
(dp1463
g94
g95
ssg83
g1457
sg76
(lp1464
S'http_accept_language'
p1465
asbag69
(g90
g71
NtRp1466
(dp1467
g74
(dp1468
g101
g102
ssg83
g1457
sg76
(lp1469
S':'
asbag69
(g90
g71
NtRp1470
(dp1471
g74
(dp1472
sg83
g1457
sg76
(lp1473
g69
(g70
g71
NtRp1474
(dp1475
g74
(dp1476
g82
I4
ssg83
g1470
sg76
(lp1477
S'es-ES,es;q=0.8'
p1478
asbasbasbag69
(g85
g71
NtRp1479
(dp1480
g74
(dp1481
sg83
g1231
sg76
(lp1482
g69
(g90
g71
NtRp1483
(dp1484
g74
(dp1485
g94
g95
ssg83
g1479
sg76
(lp1486
S'http_cache_control'
p1487
asbag69
(g90
g71
NtRp1488
(dp1489
g74
(dp1490
g101
g102
ssg83
g1479
sg76
(lp1491
S':'
asbag69
(g90
g71
NtRp1492
(dp1493
g74
(dp1494
sg83
g1479
sg76
(lp1495
g69
(g70
g71
NtRp1496
(dp1497
g74
(dp1498
g82
I4
ssg83
g1492
sg76
(lp1499
S'max-age=0'
p1500
asbasbasbag69
(g85
g71
NtRp1501
(dp1502
g74
(dp1503
sg83
g1231
sg76
(lp1504
g69
(g90
g71
NtRp1505
(dp1506
g74
(dp1507
g94
g95
ssg83
g1501
sg76
(lp1508
S'http_connection'
p1509
asbag69
(g90
g71
NtRp1510
(dp1511
g74
(dp1512
g101
g102
ssg83
g1501
sg76
(lp1513
S':'
asbag69
(g90
g71
NtRp1514
(dp1515
g74
(dp1516
sg83
g1501
sg76
(lp1517
g69
(g70
g71
NtRp1518
(dp1519
g74
(dp1520
g82
I4
ssg83
g1514
sg76
(lp1521
S'keep-alive'
p1522
asbasbasbag69
(g85
g71
NtRp1523
(dp1524
g74
(dp1525
sg83
g1231
sg76
(lp1526
g69
(g90
g71
NtRp1527
(dp1528
g74
(dp1529
g94
g95
ssg83
g1523
sg76
(lp1530
S'http_cookie'
p1531
asbag69
(g90
g71
NtRp1532
(dp1533
g74
(dp1534
g101
g102
ssg83
g1523
sg76
(lp1535
S':'
asbag69
(g90
g71
NtRp1536
(dp1537
g74
(dp1538
sg83
g1523
sg76
(lp1539
g69
(g70
g71
NtRp1540
(dp1541
g74
(dp1542
g82
I4
ssg83
g1536
sg76
(lp1543
S'session_id_welcome=127.0.0.1-ed3399df-33a9-4506-9f65-53bddd2578f7; session_id_mywiki=127.0.0.1-5985911a-1127-4d96-9157-dcf724a3d27c; session_id_images=127.0.0.1-86f6c98f-4fbb-4841-b606-44c0d90442c6; session_id_cygnuscloud=127.0.0.1-791acaf2-7386-46dc-b011-4810dc00037c; session_id_admin=127.0.0.1-55f52477-473c-42b8-b923-a29e2f1fa64b'
p1544
asbasbasbag69
(g85
g71
NtRp1545
(dp1546
g74
(dp1547
sg83
g1231
sg76
(lp1548
g69
(g90
g71
NtRp1549
(dp1550
g74
(dp1551
g94
g95
ssg83
g1545
sg76
(lp1552
S'http_host'
p1553
asbag69
(g90
g71
NtRp1554
(dp1555
g74
(dp1556
g101
g102
ssg83
g1545
sg76
(lp1557
S':'
asbag69
(g90
g71
NtRp1558
(dp1559
g74
(dp1560
sg83
g1545
sg76
(lp1561
g69
(g70
g71
NtRp1562
(dp1563
g74
(dp1564
g82
I4
ssg83
g1558
sg76
(lp1565
S'127.0.0.1:8000'
p1566
asbasbasbag69
(g85
g71
NtRp1567
(dp1568
g74
(dp1569
sg83
g1231
sg76
(lp1570
g69
(g90
g71
NtRp1571
(dp1572
g74
(dp1573
g94
g95
ssg83
g1567
sg76
(lp1574
S'http_user_agent'
p1575
asbag69
(g90
g71
NtRp1576
(dp1577
g74
(dp1578
g101
g102
ssg83
g1567
sg76
(lp1579
S':'
asbag69
(g90
g71
NtRp1580
(dp1581
g74
(dp1582
sg83
g1567
sg76
(lp1583
g69
(g70
g71
NtRp1584
(dp1585
g74
(dp1586
g82
I4
ssg83
g1580
sg76
(lp1587
S'Mozilla/5.0 (X11; Linux x86_64) AppleWebKit/537.11 (KHTML, like Gecko) Chrome/23.0.1271.64 Safari/537.11'
p1588
asbasbasbag69
(g85
g71
NtRp1589
(dp1590
g74
(dp1591
sg83
g1231
sg76
(lp1592
g69
(g90
g71
NtRp1593
(dp1594
g74
(dp1595
g94
g95
ssg83
g1589
sg76
(lp1596
S'is_jython'
p1597
asbag69
(g90
g71
NtRp1598
(dp1599
g74
(dp1600
g101
g102
ssg83
g1589
sg76
(lp1601
S':'
asbag69
(g90
g71
NtRp1602
(dp1603
g74
(dp1604
sg83
g1589
sg76
(lp1605
g69
(g70
g71
NtRp1606
(dp1607
g74
(dp1608
g82
I4
ssg83
g1602
sg76
(lp1609
g112
asbasbasbag69
(g85
g71
NtRp1610
(dp1611
g74
(dp1612
sg83
g1231
sg76
(lp1613
g69
(g90
g71
NtRp1614
(dp1615
g74
(dp1616
g94
g95
ssg83
g1610
sg76
(lp1617
S'is_pypy'
p1618
asbag69
(g90
g71
NtRp1619
(dp1620
g74
(dp1621
g101
g102
ssg83
g1610
sg76
(lp1622
S':'
asbag69
(g90
g71
NtRp1623
(dp1624
g74
(dp1625
sg83
g1610
sg76
(lp1626
g69
(g70
g71
NtRp1627
(dp1628
g74
(dp1629
g82
I4
ssg83
g1623
sg76
(lp1630
g112
asbasbasbag69
(g85
g71
NtRp1631
(dp1632
g74
(dp1633
sg83
g1231
sg76
(lp1634
g69
(g90
g71
NtRp1635
(dp1636
g74
(dp1637
g94
g95
ssg83
g1631
sg76
(lp1638
S'local_hosts'
p1639
asbag69
(g90
g71
NtRp1640
(dp1641
g74
(dp1642
g101
g102
ssg83
g1631
sg76
(lp1643
S':'
asbag69
(g90
g71
NtRp1644
(dp1645
g74
(dp1646
sg83
g1631
sg76
(lp1647
g69
(g70
g71
NtRp1648
(dp1649
g74
(dp1650
g82
I4
ssg83
g1644
sg76
(lp1651
g69
(g78
g71
NtRp1652
(dp1653
g74
(dp1654
g82
I3
ssg83
Nsg76
(lp1655
g69
(g85
g71
NtRp1656
(dp1657
g74
(dp1658
sg83
g1652
sg76
(lp1659
g69
(g90
g71
NtRp1660
(dp1661
g74
(dp1662
sg83
g1656
sg76
(lp1663
g69
(g70
g71
NtRp1664
(dp1665
g74
(dp1666
g82
I3
ssg83
g1660
sg76
(lp1667
S'adri-EasyNote'
p1668
asbasbasbag69
(g85
g71
NtRp1669
(dp1670
g74
(dp1671
sg83
g1652
sg76
(lp1672
g69
(g90
g71
NtRp1673
(dp1674
g74
(dp1675
sg83
g1669
sg76
(lp1676
g69
(g70
g71
NtRp1677
(dp1678
g74
(dp1679
g82
I3
ssg83
g1673
sg76
(lp1680
S'::1'
p1681
asbasbasbag69
(g85
g71
NtRp1682
(dp1683
g74
(dp1684
sg83
g1652
sg76
(lp1685
g69
(g90
g71
NtRp1686
(dp1687
g74
(dp1688
sg83
g1682
sg76
(lp1689
g69
(g70
g71
NtRp1690
(dp1691
g74
(dp1692
g82
I3
ssg83
g1686
sg76
(lp1693
S'127.0.1.1'
p1694
asbasbasbag69
(g85
g71
NtRp1695
(dp1696
g74
(dp1697
sg83
g1652
sg76
(lp1698
g69
(g90
g71
NtRp1699
(dp1700
g74
(dp1701
sg83
g1695
sg76
(lp1702
g69
(g70
g71
NtRp1703
(dp1704
g74
(dp1705
g82
I3
ssg83
g1699
sg76
(lp1706
S'::ffff:127.0.0.1'
p1707
asbasbasbag69
(g85
g71
NtRp1708
(dp1709
g74
(dp1710
sg83
g1652
sg76
(lp1711
g69
(g90
g71
NtRp1712
(dp1713
g74
(dp1714
sg83
g1708
sg76
(lp1715
g69
(g70
g71
NtRp1716
(dp1717
g74
(dp1718
g82
I3
ssg83
g1712
sg76
(lp1719
S'127.0.0.1'
p1720
asbasbasbasbasbasbasbag69
(g85
g71
NtRp1721
(dp1722
g74
(dp1723
sg83
g1231
sg76
(lp1724
g69
(g90
g71
NtRp1725
(dp1726
g74
(dp1727
g94
g95
ssg83
g1721
sg76
(lp1728
S'path_info'
p1729
asbag69
(g90
g71
NtRp1730
(dp1731
g74
(dp1732
g101
g102
ssg83
g1721
sg76
(lp1733
S':'
asbag69
(g90
g71
NtRp1734
(dp1735
g74
(dp1736
sg83
g1721
sg76
(lp1737
g69
(g70
g71
NtRp1738
(dp1739
g74
(dp1740
g82
I4
ssg83
g1734
sg76
(lp1741
S'/CygnusCloud/main/login'
p1742
asbasbasbag69
(g85
g71
NtRp1743
(dp1744
g74
(dp1745
sg83
g1231
sg76
(lp1746
g69
(g90
g71
NtRp1747
(dp1748
g74
(dp1749
g94
g95
ssg83
g1743
sg76
(lp1750
S'query_string'
p1751
asbag69
(g90
g71
NtRp1752
(dp1753
g74
(dp1754
g101
g102
ssg83
g1743
sg76
(lp1755
S':'
asbag69
(g90
g71
NtRp1756
(dp1757
g74
(dp1758
sg83
g1743
sg76
(lp1759
g69
(g70
g71
NtRp1760
(dp1761
g74
(dp1762
g82
I4
ssg83
g1756
sg76
(lp1763
S''
asbasbasbag69
(g85
g71
NtRp1764
(dp1765
g74
(dp1766
sg83
g1231
sg76
(lp1767
g69
(g90
g71
NtRp1768
(dp1769
g74
(dp1770
g94
g95
ssg83
g1764
sg76
(lp1771
S'remote_addr'
p1772
asbag69
(g90
g71
NtRp1773
(dp1774
g74
(dp1775
g101
g102
ssg83
g1764
sg76
(lp1776
S':'
asbag69
(g90
g71
NtRp1777
(dp1778
g74
(dp1779
sg83
g1764
sg76
(lp1780
g69
(g70
g71
NtRp1781
(dp1782
g74
(dp1783
g82
I4
ssg83
g1777
sg76
(lp1784
g224
asbasbasbag69
(g85
g71
NtRp1785
(dp1786
g74
(dp1787
sg83
g1231
sg76
(lp1788
g69
(g90
g71
NtRp1789
(dp1790
g74
(dp1791
g94
g95
ssg83
g1785
sg76
(lp1792
S'remote_port'
p1793
asbag69
(g90
g71
NtRp1794
(dp1795
g74
(dp1796
g101
g102
ssg83
g1785
sg76
(lp1797
S':'
asbag69
(g90
g71
NtRp1798
(dp1799
g74
(dp1800
sg83
g1785
sg76
(lp1801
g69
(g70
g71
NtRp1802
(dp1803
g74
(dp1804
g82
I4
ssg83
g1798
sg76
(lp1805
S'53275'
p1806
asbasbasbag69
(g85
g71
NtRp1807
(dp1808
g74
(dp1809
sg83
g1231
sg76
(lp1810
g69
(g90
g71
NtRp1811
(dp1812
g74
(dp1813
g94
g95
ssg83
g1807
sg76
(lp1814
S'request_method'
p1815
asbag69
(g90
g71
NtRp1816
(dp1817
g74
(dp1818
g101
g102
ssg83
g1807
sg76
(lp1819
S':'
asbag69
(g90
g71
NtRp1820
(dp1821
g74
(dp1822
sg83
g1807
sg76
(lp1823
g69
(g70
g71
NtRp1824
(dp1825
g74
(dp1826
g82
I4
ssg83
g1820
sg76
(lp1827
S'GET'
p1828
asbasbasbag69
(g85
g71
NtRp1829
(dp1830
g74
(dp1831
sg83
g1231
sg76
(lp1832
g69
(g90
g71
NtRp1833
(dp1834
g74
(dp1835
g94
g95
ssg83
g1829
sg76
(lp1836
S'request_uri'
p1837
asbag69
(g90
g71
NtRp1838
(dp1839
g74
(dp1840
g101
g102
ssg83
g1829
sg76
(lp1841
S':'
asbag69
(g90
g71
NtRp1842
(dp1843
g74
(dp1844
sg83
g1829
sg76
(lp1845
g69
(g70
g71
NtRp1846
(dp1847
g74
(dp1848
g82
I4
ssg83
g1842
sg76
(lp1849
g1742
asbasbasbag69
(g85
g71
NtRp1850
(dp1851
g74
(dp1852
sg83
g1231
sg76
(lp1853
g69
(g90
g71
NtRp1854
(dp1855
g74
(dp1856
g94
g95
ssg83
g1850
sg76
(lp1857
S'script_name'
p1858
asbag69
(g90
g71
NtRp1859
(dp1860
g74
(dp1861
g101
g102
ssg83
g1850
sg76
(lp1862
S':'
asbag69
(g90
g71
NtRp1863
(dp1864
g74
(dp1865
sg83
g1850
sg76
(lp1866
g69
(g70
g71
NtRp1867
(dp1868
g74
(dp1869
g82
I4
ssg83
g1863
sg76
(lp1870
S''
asbasbasbag69
(g85
g71
NtRp1871
(dp1872
g74
(dp1873
sg83
g1231
sg76
(lp1874
g69
(g90
g71
NtRp1875
(dp1876
g74
(dp1877
g94
g95
ssg83
g1871
sg76
(lp1878
S'server_name'
p1879
asbag69
(g90
g71
NtRp1880
(dp1881
g74
(dp1882
g101
g102
ssg83
g1871
sg76
(lp1883
S':'
asbag69
(g90
g71
NtRp1884
(dp1885
g74
(dp1886
sg83
g1871
sg76
(lp1887
g69
(g70
g71
NtRp1888
(dp1889
g74
(dp1890
g82
I4
ssg83
g1884
sg76
(lp1891
S'adri-EasyNote'
p1892
asbasbasbag69
(g85
g71
NtRp1893
(dp1894
g74
(dp1895
sg83
g1231
sg76
(lp1896
g69
(g90
g71
NtRp1897
(dp1898
g74
(dp1899
g94
g95
ssg83
g1893
sg76
(lp1900
S'server_port'
p1901
asbag69
(g90
g71
NtRp1902
(dp1903
g74
(dp1904
g101
g102
ssg83
g1893
sg76
(lp1905
S':'
asbag69
(g90
g71
NtRp1906
(dp1907
g74
(dp1908
sg83
g1893
sg76
(lp1909
g69
(g70
g71
NtRp1910
(dp1911
g74
(dp1912
g82
I4
ssg83
g1906
sg76
(lp1913
S'8000'
p1914
asbasbasbag69
(g85
g71
NtRp1915
(dp1916
g74
(dp1917
sg83
g1231
sg76
(lp1918
g69
(g90
g71
NtRp1919
(dp1920
g74
(dp1921
g94
g95
ssg83
g1915
sg76
(lp1922
S'server_protocol'
p1923
asbag69
(g90
g71
NtRp1924
(dp1925
g74
(dp1926
g101
g102
ssg83
g1915
sg76
(lp1927
S':'
asbag69
(g90
g71
NtRp1928
(dp1929
g74
(dp1930
sg83
g1915
sg76
(lp1931
g69
(g70
g71
NtRp1932
(dp1933
g74
(dp1934
g82
I4
ssg83
g1928
sg76
(lp1935
S'HTTP/1.1'
p1936
asbasbasbag69
(g85
g71
NtRp1937
(dp1938
g74
(dp1939
sg83
g1231
sg76
(lp1940
g69
(g90
g71
NtRp1941
(dp1942
g74
(dp1943
g94
g95
ssg83
g1937
sg76
(lp1944
S'server_software'
p1945
asbag69
(g90
g71
NtRp1946
(dp1947
g74
(dp1948
g101
g102
ssg83
g1937
sg76
(lp1949
S':'
asbag69
(g90
g71
NtRp1950
(dp1951
g74
(dp1952
sg83
g1937
sg76
(lp1953
g69
(g70
g71
NtRp1954
(dp1955
g74
(dp1956
g82
I4
ssg83
g1950
sg76
(lp1957
S'Rocket 1.2.6'
p1958
asbasbasbag69
(g85
g71
NtRp1959
(dp1960
g74
(dp1961
sg83
g1231
sg76
(lp1962
g69
(g90
g71
NtRp1963
(dp1964
g74
(dp1965
g94
g95
ssg83
g1959
sg76
(lp1966
S'web2py_path'
p1967
asbag69
(g90
g71
NtRp1968
(dp1969
g74
(dp1970
g101
g102
ssg83
g1959
sg76
(lp1971
S':'
asbag69
(g90
g71
NtRp1972
(dp1973
g74
(dp1974
sg83
g1959
sg76
(lp1975
g69
(g70
g71
NtRp1976
(dp1977
g74
(dp1978
g82
I4
ssg83
g1972
sg76
(lp1979
g1278
asbasbasbag69
(g85
g71
NtRp1980
(dp1981
g74
(dp1982
sg83
g1231
sg76
(lp1983
g69
(g90
g71
NtRp1984
(dp1985
g74
(dp1986
g94
g95
ssg83
g1980
sg76
(lp1987
S'web2py_version'
p1988
asbag69
(g90
g71
NtRp1989
(dp1990
g74
(dp1991
g101
g102
ssg83
g1980
sg76
(lp1992
S':'
asbag69
(g90
g71
NtRp1993
(dp1994
g74
(dp1995
sg83
g1980
sg76
(lp1996
g69
(g70
g71
NtRp1997
(dp1998
g74
(dp1999
g82
I4
ssg83
g1993
sg76
(lp2000
g69
(g78
g71
NtRp2001
(dp2002
g74
(dp2003
g82
I3
ssg83
Nsg76
(lp2004
g69
(g85
g71
NtRp2005
(dp2006
g74
(dp2007
sg83
g2001
sg76
(lp2008
g69
(g90
g71
NtRp2009
(dp2010
g74
(dp2011
sg83
g2005
sg76
(lp2012
g69
(g70
g71
NtRp2013
(dp2014
g74
(dp2015
g82
I3
ssg83
g2009
sg76
(lp2016
S'2'
asbasbasbag69
(g85
g71
NtRp2017
(dp2018
g74
(dp2019
sg83
g2001
sg76
(lp2020
g69
(g90
g71
NtRp2021
(dp2022
g74
(dp2023
sg83
g2017
sg76
(lp2024
g69
(g70
g71
NtRp2025
(dp2026
g74
(dp2027
g82
I3
ssg83
g2021
sg76
(lp2028
S'3'
asbasbasbag69
(g85
g71
NtRp2029
(dp2030
g74
(dp2031
sg83
g2001
sg76
(lp2032
g69
(g90
g71
NtRp2033
(dp2034
g74
(dp2035
sg83
g2029
sg76
(lp2036
g69
(g70
g71
NtRp2037
(dp2038
g74
(dp2039
g82
I3
ssg83
g2033
sg76
(lp2040
S'2'
asbasbasbag69
(g85
g71
NtRp2041
(dp2042
g74
(dp2043
sg83
g2001
sg76
(lp2044
g69
(g90
g71
NtRp2045
(dp2046
g74
(dp2047
sg83
g2041
sg76
(lp2048
g69
(g70
g71
NtRp2049
(dp2050
g74
(dp2051
g82
I3
ssg83
g2045
sg76
(lp2052
S'datetime.datetime(2012, 12, 17, 15, 3, 30)'
p2053
asbasbasbag69
(g85
g71
NtRp2054
(dp2055
g74
(dp2056
sg83
g2001
sg76
(lp2057
g69
(g90
g71
NtRp2058
(dp2059
g74
(dp2060
sg83
g2054
sg76
(lp2061
g69
(g70
g71
NtRp2062
(dp2063
g74
(dp2064
g82
I3
ssg83
g2058
sg76
(lp2065
S'stable'
p2066
asbasbasbasbasbasbasbag69
(g85
g71
NtRp2067
(dp2068
g74
(dp2069
sg83
g1231
sg76
(lp2070
g69
(g90
g71
NtRp2071
(dp2072
g74
(dp2073
g94
g95
ssg83
g2067
sg76
(lp2074
S'wsgi_errors'
p2075
asbag69
(g90
g71
NtRp2076
(dp2077
g74
(dp2078
g101
g102
ssg83
g2067
sg76
(lp2079
S':'
asbag69
(g90
g71
NtRp2080
(dp2081
g74
(dp2082
sg83
g2067
sg76
(lp2083
g69
(g70
g71
NtRp2084
(dp2085
g74
(dp2086
g82
I4
ssg83
g2080
sg76
(lp2087
S"<open file '<stderr>', mode 'w' at 0x7f239539e270>"
p2088
asbasbasbag69
(g85
g71
NtRp2089
(dp2090
g74
(dp2091
sg83
g1231
sg76
(lp2092
g69
(g90
g71
NtRp2093
(dp2094
g74
(dp2095
g94
g95
ssg83
g2089
sg76
(lp2096
S'wsgi_file_wrapper'
p2097
asbag69
(g90
g71
NtRp2098
(dp2099
g74
(dp2100
g101
g102
ssg83
g2089
sg76
(lp2101
S':'
asbag69
(g90
g71
NtRp2102
(dp2103
g74
(dp2104
sg83
g2089
sg76
(lp2105
g69
(g70
g71
NtRp2106
(dp2107
g74
(dp2108
g82
I4
ssg83
g2102
sg76
(lp2109
S'<class wsgiref.util.FileWrapper at 0x1663db8>'
p2110
asbasbasbag69
(g85
g71
NtRp2111
(dp2112
g74
(dp2113
sg83
g1231
sg76
(lp2114
g69
(g90
g71
NtRp2115
(dp2116
g74
(dp2117
g94
g95
ssg83
g2111
sg76
(lp2118
S'wsgi_input'
p2119
asbag69
(g90
g71
NtRp2120
(dp2121
g74
(dp2122
g101
g102
ssg83
g2111
sg76
(lp2123
S':'
asbag69
(g90
g71
NtRp2124
(dp2125
g74
(dp2126
sg83
g2111
sg76
(lp2127
g69
(g70
g71
NtRp2128
(dp2129
g74
(dp2130
g82
I4
ssg83
g2124
sg76
(lp2131
S'<socket._fileobject object at 0x1799f50>'
p2132
asbasbasbag69
(g85
g71
NtRp2133
(dp2134
g74
(dp2135
sg83
g1231
sg76
(lp2136
g69
(g90
g71
NtRp2137
(dp2138
g74
(dp2139
g94
g95
ssg83
g2133
sg76
(lp2140
S'wsgi_multiprocess'
p2141
asbag69
(g90
g71
NtRp2142
(dp2143
g74
(dp2144
g101
g102
ssg83
g2133
sg76
(lp2145
S':'
asbag69
(g90
g71
NtRp2146
(dp2147
g74
(dp2148
sg83
g2133
sg76
(lp2149
g69
(g70
g71
NtRp2150
(dp2151
g74
(dp2152
g82
I4
ssg83
g2146
sg76
(lp2153
g112
asbasbasbag69
(g85
g71
NtRp2154
(dp2155
g74
(dp2156
sg83
g1231
sg76
(lp2157
g69
(g90
g71
NtRp2158
(dp2159
g74
(dp2160
g94
g95
ssg83
g2154
sg76
(lp2161
S'wsgi_multithread'
p2162
asbag69
(g90
g71
NtRp2163
(dp2164
g74
(dp2165
g101
g102
ssg83
g2154
sg76
(lp2166
S':'
asbag69
(g90
g71
NtRp2167
(dp2168
g74
(dp2169
sg83
g2154
sg76
(lp2170
g69
(g70
g71
NtRp2171
(dp2172
g74
(dp2173
g82
I4
ssg83
g2167
sg76
(lp2174
S'True'
p2175
asbasbasbag69
(g85
g71
NtRp2176
(dp2177
g74
(dp2178
sg83
g1231
sg76
(lp2179
g69
(g90
g71
NtRp2180
(dp2181
g74
(dp2182
g94
g95
ssg83
g2176
sg76
(lp2183
S'wsgi_run_once'
p2184
asbag69
(g90
g71
NtRp2185
(dp2186
g74
(dp2187
g101
g102
ssg83
g2176
sg76
(lp2188
S':'
asbag69
(g90
g71
NtRp2189
(dp2190
g74
(dp2191
sg83
g2176
sg76
(lp2192
g69
(g70
g71
NtRp2193
(dp2194
g74
(dp2195
g82
I4
ssg83
g2189
sg76
(lp2196
g112
asbasbasbag69
(g85
g71
NtRp2197
(dp2198
g74
(dp2199
sg83
g1231
sg76
(lp2200
g69
(g90
g71
NtRp2201
(dp2202
g74
(dp2203
g94
g95
ssg83
g2197
sg76
(lp2204
S'wsgi_url_scheme'
p2205
asbag69
(g90
g71
NtRp2206
(dp2207
g74
(dp2208
g101
g102
ssg83
g2197
sg76
(lp2209
S':'
asbag69
(g90
g71
NtRp2210
(dp2211
g74
(dp2212
sg83
g2197
sg76
(lp2213
g69
(g70
g71
NtRp2214
(dp2215
g74
(dp2216
g82
I4
ssg83
g2210
sg76
(lp2217
S'http'
p2218
asbasbasbag69
(g85
g71
NtRp2219
(dp2220
g74
(dp2221
sg83
g1231
sg76
(lp2222
g69
(g90
g71
NtRp2223
(dp2224
g74
(dp2225
g94
g95
ssg83
g2219
sg76
(lp2226
S'wsgi_version'
p2227
asbag69
(g90
g71
NtRp2228
(dp2229
g74
(dp2230
g101
g102
ssg83
g2219
sg76
(lp2231
S':'
asbag69
(g90
g71
NtRp2232
(dp2233
g74
(dp2234
sg83
g2219
sg76
(lp2235
g69
(g70
g71
NtRp2236
(dp2237
g74
(dp2238
g82
I4
ssg83
g2232
sg76
(lp2239
g69
(g78
g71
NtRp2240
(dp2241
g74
(dp2242
g82
I3
ssg83
Nsg76
(lp2243
g69
(g85
g71
NtRp2244
(dp2245
g74
(dp2246
sg83
g2240
sg76
(lp2247
g69
(g90
g71
NtRp2248
(dp2249
g74
(dp2250
sg83
g2244
sg76
(lp2251
g69
(g70
g71
NtRp2252
(dp2253
g74
(dp2254
g82
I3
ssg83
g2248
sg76
(lp2255
S'1'
asbasbasbag69
(g85
g71
NtRp2256
(dp2257
g74
(dp2258
sg83
g2240
sg76
(lp2259
g69
(g90
g71
NtRp2260
(dp2261
g74
(dp2262
sg83
g2256
sg76
(lp2263
g69
(g70
g71
NtRp2264
(dp2265
g74
(dp2266
g82
I3
ssg83
g2260
sg76
(lp2267
S'0'
asbasbasbasbasbasbasbasbasbasbasbag69
(g85
g71
NtRp2268
(dp2269
g74
(dp2270
sg83
g79
sg76
(lp2271
g69
(g90
g71
NtRp2272
(dp2273
g74
(dp2274
g94
g95
ssg83
g2268
sg76
(lp2275
S'extension'
p2276
asbag69
(g90
g71
NtRp2277
(dp2278
g74
(dp2279
g101
g102
ssg83
g2268
sg76
(lp2280
S':'
asbag69
(g90
g71
NtRp2281
(dp2282
g74
(dp2283
sg83
g2268
sg76
(lp2284
g69
(g70
g71
NtRp2285
(dp2286
g74
(dp2287
g82
I5
ssg83
g2281
sg76
(lp2288
S'html'
p2289
asbasbasbag69
(g85
g71
NtRp2290
(dp2291
g74
(dp2292
sg83
g79
sg76
(lp2293
g69
(g90
g71
NtRp2294
(dp2295
g74
(dp2296
g94
g95
ssg83
g2290
sg76
(lp2297
S'folder'
p2298
asbag69
(g90
g71
NtRp2299
(dp2300
g74
(dp2301
g101
g102
ssg83
g2290
sg76
(lp2302
S':'
asbag69
(g90
g71
NtRp2303
(dp2304
g74
(dp2305
sg83
g2290
sg76
(lp2306
g69
(g70
g71
NtRp2307
(dp2308
g74
(dp2309
g82
I5
ssg83
g2303
sg76
(lp2310
S'/home/adrian/web2py/applications/CygnusCloud/'
p2311
asbasbasbag69
(g85
g71
NtRp2312
(dp2313
g74
(dp2314
sg83
g79
sg76
(lp2315
g69
(g90
g71
NtRp2316
(dp2317
g74
(dp2318
g94
g95
ssg83
g2312
sg76
(lp2319
S'function'
p2320
asbag69
(g90
g71
NtRp2321
(dp2322
g74
(dp2323
g101
g102
ssg83
g2312
sg76
(lp2324
S':'
asbag69
(g90
g71
NtRp2325
(dp2326
g74
(dp2327
sg83
g2312
sg76
(lp2328
g69
(g70
g71
NtRp2329
(dp2330
g74
(dp2331
g82
I5
ssg83
g2325
sg76
(lp2332
S'login'
p2333
asbasbasbag69
(g85
g71
NtRp2334
(dp2335
g74
(dp2336
sg83
g79
sg76
(lp2337
g69
(g90
g71
NtRp2338
(dp2339
g74
(dp2340
g94
g95
ssg83
g2334
sg76
(lp2341
S'get_vars'
p2342
asbag69
(g90
g71
NtRp2343
(dp2344
g74
(dp2345
g101
g102
ssg83
g2334
sg76
(lp2346
S':'
asbag69
(g90
g71
NtRp2347
(dp2348
g74
(dp2349
sg83
g2334
sg76
(lp2350
g69
(g70
g71
NtRp2351
(dp2352
g74
(dp2353
g82
I5
ssg83
g2347
sg76
(lp2354
g69
(g78
g71
NtRp2355
(dp2356
g74
(dp2357
g82
I4
ssg83
Nsg76
(lp2358
sbasbasbasbag69
(g85
g71
NtRp2359
(dp2360
g74
(dp2361
sg83
g79
sg76
(lp2362
g69
(g90
g71
NtRp2363
(dp2364
g74
(dp2365
g94
g95
ssg83
g2359
sg76
(lp2366
S'global_settings'
p2367
asbag69
(g90
g71
NtRp2368
(dp2369
g74
(dp2370
g101
g102
ssg83
g2359
sg76
(lp2371
S':'
asbag69
(g90
g71
NtRp2372
(dp2373
g74
(dp2374
sg83
g2359
sg76
(lp2375
g69
(g70
g71
NtRp2376
(dp2377
g74
(dp2378
g82
I5
ssg83
g2372
sg76
(lp2379
g69
(g78
g71
NtRp2380
(dp2381
g74
(dp2382
g82
I4
ssg83
Nsg76
(lp2383
g69
(g85
g71
NtRp2384
(dp2385
g74
(dp2386
sg83
g2380
sg76
(lp2387
g69
(g90
g71
NtRp2388
(dp2389
g74
(dp2390
g94
g95
ssg83
g2384
sg76
(lp2391
g1243
asbag69
(g90
g71
NtRp2392
(dp2393
g74
(dp2394
g101
g102
ssg83
g2384
sg76
(lp2395
S':'
asbag69
(g90
g71
NtRp2396
(dp2397
g74
(dp2398
sg83
g2384
sg76
(lp2399
g69
(g70
g71
NtRp2400
(dp2401
g74
(dp2402
g82
I4
ssg83
g2396
sg76
(lp2403
S"set(['/home/adrian/web2py/applications/admin/', '/home/adrian/web2py/applications/welcome/', '/home/adrian/web2py/applications/mywiki/', '/home/adrian/web2py/applications/images/', '/home/adrian/web2py/applications/CygnusCloud/'])"
p2404
asbasbasbag69
(g85
g71
NtRp2405
(dp2406
g74
(dp2407
sg83
g2380
sg76
(lp2408
g69
(g90
g71
NtRp2409
(dp2410
g74
(dp2411
g94
g95
ssg83
g2405
sg76
(lp2412
g1265
asbag69
(g90
g71
NtRp2413
(dp2414
g74
(dp2415
g101
g102
ssg83
g2405
sg76
(lp2416
S':'
asbag69
(g90
g71
NtRp2417
(dp2418
g74
(dp2419
sg83
g2405
sg76
(lp2420
g69
(g70
g71
NtRp2421
(dp2422
g74
(dp2423
g82
I4
ssg83
g2417
sg76
(lp2424
g1278
asbasbasbag69
(g85
g71
NtRp2425
(dp2426
g74
(dp2427
sg83
g2380
sg76
(lp2428
g69
(g90
g71
NtRp2429
(dp2430
g74
(dp2431
g94
g95
ssg83
g2425
sg76
(lp2432
g1287
asbag69
(g90
g71
NtRp2433
(dp2434
g74
(dp2435
g101
g102
ssg83
g2425
sg76
(lp2436
S':'
asbag69
(g90
g71
NtRp2437
(dp2438
g74
(dp2439
sg83
g2425
sg76
(lp2440
g69
(g70
g71
NtRp2441
(dp2442
g74
(dp2443
g82
I4
ssg83
g2437
sg76
(lp2444
g69
(g78
g71
NtRp2445
(dp2446
g74
(dp2447
g82
I3
ssg83
Nsg76
(lp2448
sbasbasbasbag69
(g85
g71
NtRp2449
(dp2450
g74
(dp2451
sg83
g2380
sg76
(lp2452
g69
(g90
g71
NtRp2453
(dp2454
g74
(dp2455
g94
g95
ssg83
g2449
sg76
(lp2456
g1312
asbag69
(g90
g71
NtRp2457
(dp2458
g74
(dp2459
g101
g102
ssg83
g2449
sg76
(lp2460
S':'
asbag69
(g90
g71
NtRp2461
(dp2462
g74
(dp2463
sg83
g2449
sg76
(lp2464
g69
(g70
g71
NtRp2465
(dp2466
g74
(dp2467
g82
I4
ssg83
g2461
sg76
(lp2468
S"<Values at 0x172fbd8: {'verbose': False, 'ip': '127.0.0.1', 'with_scheduler': False, 'ips': [], 'shutdown_timeout': 5, 'taskbar': False, 'port': 8000, 'maxthreads': None, 'softcron': False, 'server_name': 'adri-EasyNote', 'bpython': False, 'nogui': False, 'pid_filename': 'httpserver.pid', 'extcron': False, 'runcron': False, 'run_system_tests': False, 'test': None, 'folder': '/home/adrian/web2py', 'config': '', 'minthreads': None, 'winservice': '', 'shell': None, 'run': '', 'log_filename': 'httpserver.log', 'debuglevel': 30, 'args': [''], 'socket_timeout': 5, 'ssl_ca_certificate': None, 'scheduler': None, 'profiler_filename': None, 'ssl_private_key': '', 'scheduler_groups': None, 'password': 'cygnuscloud2012', 'request_queue_size': 5, 'ssl_certificate': '', 'cronjob': False, 'numthreads': None, 'quiet': False, 'interfaces': None, 'import_models': False, 'timeout': 10, 'plain': False, 'nobanner': False}>"
p2469
asbasbasbag69
(g85
g71
NtRp2470
(dp2471
g74
(dp2472
sg83
g2380
sg76
(lp2473
g69
(g90
g71
NtRp2474
(dp2475
g74
(dp2476
g94
g95
ssg83
g2470
sg76
(lp2477
g1334
asbag69
(g90
g71
NtRp2478
(dp2479
g74
(dp2480
g101
g102
ssg83
g2470
sg76
(lp2481
S':'
asbag69
(g90
g71
NtRp2482
(dp2483
g74
(dp2484
sg83
g2470
sg76
(lp2485
g69
(g70
g71
NtRp2486
(dp2487
g74
(dp2488
g82
I4
ssg83
g2482
sg76
(lp2489
S'set([])'
p2490
asbasbasbag69
(g85
g71
NtRp2491
(dp2492
g74
(dp2493
sg83
g2380
sg76
(lp2494
g69
(g90
g71
NtRp2495
(dp2496
g74
(dp2497
g94
g95
ssg83
g2491
sg76
(lp2498
g1356
asbag69
(g90
g71
NtRp2499
(dp2500
g74
(dp2501
g101
g102
ssg83
g2491
sg76
(lp2502
S':'
asbag69
(g90
g71
NtRp2503
(dp2504
g74
(dp2505
sg83
g2491
sg76
(lp2506
g69
(g70
g71
NtRp2507
(dp2508
g74
(dp2509
g82
I4
ssg83
g2503
sg76
(lp2510
g112
asbasbasbag69
(g85
g71
NtRp2511
(dp2512
g74
(dp2513
sg83
g2380
sg76
(lp2514
g69
(g90
g71
NtRp2515
(dp2516
g74
(dp2517
g94
g95
ssg83
g2511
sg76
(lp2518
g1377
asbag69
(g90
g71
NtRp2519
(dp2520
g74
(dp2521
g101
g102
ssg83
g2511
sg76
(lp2522
S':'
asbag69
(g90
g71
NtRp2523
(dp2524
g74
(dp2525
sg83
g2511
sg76
(lp2526
g69
(g70
g71
NtRp2527
(dp2528
g74
(dp2529
g82
I4
ssg83
g2523
sg76
(lp2530
g1390
asbasbasbag69
(g85
g71
NtRp2531
(dp2532
g74
(dp2533
sg83
g2380
sg76
(lp2534
g69
(g90
g71
NtRp2535
(dp2536
g74
(dp2537
g94
g95
ssg83
g2531
sg76
(lp2538
g1597
asbag69
(g90
g71
NtRp2539
(dp2540
g74
(dp2541
g101
g102
ssg83
g2531
sg76
(lp2542
S':'
asbag69
(g90
g71
NtRp2543
(dp2544
g74
(dp2545
sg83
g2531
sg76
(lp2546
g69
(g70
g71
NtRp2547
(dp2548
g74
(dp2549
g82
I4
ssg83
g2543
sg76
(lp2550
g112
asbasbasbag69
(g85
g71
NtRp2551
(dp2552
g74
(dp2553
sg83
g2380
sg76
(lp2554
g69
(g90
g71
NtRp2555
(dp2556
g74
(dp2557
g94
g95
ssg83
g2551
sg76
(lp2558
g1618
asbag69
(g90
g71
NtRp2559
(dp2560
g74
(dp2561
g101
g102
ssg83
g2551
sg76
(lp2562
S':'
asbag69
(g90
g71
NtRp2563
(dp2564
g74
(dp2565
sg83
g2551
sg76
(lp2566
g69
(g70
g71
NtRp2567
(dp2568
g74
(dp2569
g82
I4
ssg83
g2563
sg76
(lp2570
g112
asbasbasbag69
(g85
g71
NtRp2571
(dp2572
g74
(dp2573
sg83
g2380
sg76
(lp2574
g69
(g90
g71
NtRp2575
(dp2576
g74
(dp2577
g94
g95
ssg83
g2571
sg76
(lp2578
g1639
asbag69
(g90
g71
NtRp2579
(dp2580
g74
(dp2581
g101
g102
ssg83
g2571
sg76
(lp2582
S':'
asbag69
(g90
g71
NtRp2583
(dp2584
g74
(dp2585
sg83
g2571
sg76
(lp2586
g69
(g70
g71
NtRp2587
(dp2588
g74
(dp2589
g82
I4
ssg83
g2583
sg76
(lp2590
g69
(g78
g71
NtRp2591
(dp2592
g74
(dp2593
g82
I3
ssg83
Nsg76
(lp2594
g69
(g85
g71
NtRp2595
(dp2596
g74
(dp2597
sg83
g2591
sg76
(lp2598
g69
(g90
g71
NtRp2599
(dp2600
g74
(dp2601
sg83
g2595
sg76
(lp2602
g69
(g70
g71
NtRp2603
(dp2604
g74
(dp2605
g82
I3
ssg83
g2599
sg76
(lp2606
g1668
asbasbasbag69
(g85
g71
NtRp2607
(dp2608
g74
(dp2609
sg83
g2591
sg76
(lp2610
g69
(g90
g71
NtRp2611
(dp2612
g74
(dp2613
sg83
g2607
sg76
(lp2614
g69
(g70
g71
NtRp2615
(dp2616
g74
(dp2617
g82
I3
ssg83
g2611
sg76
(lp2618
g1681
asbasbasbag69
(g85
g71
NtRp2619
(dp2620
g74
(dp2621
sg83
g2591
sg76
(lp2622
g69
(g90
g71
NtRp2623
(dp2624
g74
(dp2625
sg83
g2619
sg76
(lp2626
g69
(g70
g71
NtRp2627
(dp2628
g74
(dp2629
g82
I3
ssg83
g2623
sg76
(lp2630
g1694
asbasbasbag69
(g85
g71
NtRp2631
(dp2632
g74
(dp2633
sg83
g2591
sg76
(lp2634
g69
(g90
g71
NtRp2635
(dp2636
g74
(dp2637
sg83
g2631
sg76
(lp2638
g69
(g70
g71
NtRp2639
(dp2640
g74
(dp2641
g82
I3
ssg83
g2635
sg76
(lp2642
g1707
asbasbasbag69
(g85
g71
NtRp2643
(dp2644
g74
(dp2645
sg83
g2591
sg76
(lp2646
g69
(g90
g71
NtRp2647
(dp2648
g74
(dp2649
sg83
g2643
sg76
(lp2650
g69
(g70
g71
NtRp2651
(dp2652
g74
(dp2653
g82
I3
ssg83
g2647
sg76
(lp2654
g1720
asbasbasbasbasbasbasbag69
(g85
g71
NtRp2655
(dp2656
g74
(dp2657
sg83
g2380
sg76
(lp2658
g69
(g90
g71
NtRp2659
(dp2660
g74
(dp2661
g94
g95
ssg83
g2655
sg76
(lp2662
g1988
asbag69
(g90
g71
NtRp2663
(dp2664
g74
(dp2665
g101
g102
ssg83
g2655
sg76
(lp2666
S':'
asbag69
(g90
g71
NtRp2667
(dp2668
g74
(dp2669
sg83
g2655
sg76
(lp2670
g69
(g70
g71
NtRp2671
(dp2672
g74
(dp2673
g82
I4
ssg83
g2667
sg76
(lp2674
g69
(g78
g71
NtRp2675
(dp2676
g74
(dp2677
g82
I3
ssg83
Nsg76
(lp2678
g69
(g85
g71
NtRp2679
(dp2680
g74
(dp2681
sg83
g2675
sg76
(lp2682
g69
(g90
g71
NtRp2683
(dp2684
g74
(dp2685
sg83
g2679
sg76
(lp2686
g69
(g70
g71
NtRp2687
(dp2688
g74
(dp2689
g82
I3
ssg83
g2683
sg76
(lp2690
S'2'
asbasbasbag69
(g85
g71
NtRp2691
(dp2692
g74
(dp2693
sg83
g2675
sg76
(lp2694
g69
(g90
g71
NtRp2695
(dp2696
g74
(dp2697
sg83
g2691
sg76
(lp2698
g69
(g70
g71
NtRp2699
(dp2700
g74
(dp2701
g82
I3
ssg83
g2695
sg76
(lp2702
S'3'
asbasbasbag69
(g85
g71
NtRp2703
(dp2704
g74
(dp2705
sg83
g2675
sg76
(lp2706
g69
(g90
g71
NtRp2707
(dp2708
g74
(dp2709
sg83
g2703
sg76
(lp2710
g69
(g70
g71
NtRp2711
(dp2712
g74
(dp2713
g82
I3
ssg83
g2707
sg76
(lp2714
S'2'
asbasbasbag69
(g85
g71
NtRp2715
(dp2716
g74
(dp2717
sg83
g2675
sg76
(lp2718
g69
(g90
g71
NtRp2719
(dp2720
g74
(dp2721
sg83
g2715
sg76
(lp2722
g69
(g70
g71
NtRp2723
(dp2724
g74
(dp2725
g82
I3
ssg83
g2719
sg76
(lp2726
S'datetime.datetime(2012, 12, 17, 15, 3, 30)'
p2727
asbasbasbag69
(g85
g71
NtRp2728
(dp2729
g74
(dp2730
sg83
g2675
sg76
(lp2731
g69
(g90
g71
NtRp2732
(dp2733
g74
(dp2734
sg83
g2728
sg76
(lp2735
g69
(g70
g71
NtRp2736
(dp2737
g74
(dp2738
g82
I3
ssg83
g2732
sg76
(lp2739
g2066
asbasbasbasbasbasbasbasbasbasbasbag69
(g85
g71
NtRp2740
(dp2741
g74
(dp2742
sg83
g79
sg76
(lp2743
g69
(g90
g71
NtRp2744
(dp2745
g74
(dp2746
g94
g95
ssg83
g2740
sg76
(lp2747
S'is_https'
p2748
asbag69
(g90
g71
NtRp2749
(dp2750
g74
(dp2751
g101
g102
ssg83
g2740
sg76
(lp2752
S':'
asbag69
(g90
g71
NtRp2753
(dp2754
g74
(dp2755
sg83
g2740
sg76
(lp2756
g69
(g70
g71
NtRp2757
(dp2758
g74
(dp2759
g82
I5
ssg83
g2753
sg76
(lp2760
g112
asbasbasbag69
(g85
g71
NtRp2761
(dp2762
g74
(dp2763
sg83
g79
sg76
(lp2764
g69
(g90
g71
NtRp2765
(dp2766
g74
(dp2767
g94
g95
ssg83
g2761
sg76
(lp2768
S'is_local'
p2769
asbag69
(g90
g71
NtRp2770
(dp2771
g74
(dp2772
g101
g102
ssg83
g2761
sg76
(lp2773
S':'
asbag69
(g90
g71
NtRp2774
(dp2775
g74
(dp2776
sg83
g2761
sg76
(lp2777
g69
(g70
g71
NtRp2778
(dp2779
g74
(dp2780
g82
I5
ssg83
g2774
sg76
(lp2781
g2175
asbasbasbag69
(g85
g71
NtRp2782
(dp2783
g74
(dp2784
sg83
g79
sg76
(lp2785
g69
(g90
g71
NtRp2786
(dp2787
g74
(dp2788
g94
g95
ssg83
g2782
sg76
(lp2789
S'is_restful'
p2790
asbag69
(g90
g71
NtRp2791
(dp2792
g74
(dp2793
g101
g102
ssg83
g2782
sg76
(lp2794
S':'
asbag69
(g90
g71
NtRp2795
(dp2796
g74
(dp2797
sg83
g2782
sg76
(lp2798
g69
(g70
g71
NtRp2799
(dp2800
g74
(dp2801
g82
I5
ssg83
g2795
sg76
(lp2802
g112
asbasbasbag69
(g85
g71
NtRp2803
(dp2804
g74
(dp2805
sg83
g79
sg76
(lp2806
g69
(g90
g71
NtRp2807
(dp2808
g74
(dp2809
g94
g95
ssg83
g2803
sg76
(lp2810
S'now'
p2811
asbag69
(g90
g71
NtRp2812
(dp2813
g74
(dp2814
g101
g102
ssg83
g2803
sg76
(lp2815
S':'
asbag69
(g90
g71
NtRp2816
(dp2817
g74
(dp2818
sg83
g2803
sg76
(lp2819
g69
(g70
g71
NtRp2820
(dp2821
g74
(dp2822
g82
I5
ssg83
g2816
sg76
(lp2823
S'datetime.datetime(2013, 2, 5, 23, 43, 50, 901854)'
p2824
asbasbasbag69
(g85
g71
NtRp2825
(dp2826
g74
(dp2827
sg83
g79
sg76
(lp2828
g69
(g90
g71
NtRp2829
(dp2830
g74
(dp2831
g94
g95
ssg83
g2825
sg76
(lp2832
S'post_vars'
p2833
asbag69
(g90
g71
NtRp2834
(dp2835
g74
(dp2836
g101
g102
ssg83
g2825
sg76
(lp2837
S':'
asbag69
(g90
g71
NtRp2838
(dp2839
g74
(dp2840
sg83
g2825
sg76
(lp2841
g69
(g70
g71
NtRp2842
(dp2843
g74
(dp2844
g82
I5
ssg83
g2838
sg76
(lp2845
g69
(g78
g71
NtRp2846
(dp2847
g74
(dp2848
g82
I4
ssg83
Nsg76
(lp2849
sbasbasbasbag69
(g85
g71
NtRp2850
(dp2851
g74
(dp2852
sg83
g79
sg76
(lp2853
g69
(g90
g71
NtRp2854
(dp2855
g74
(dp2856
g94
g95
ssg83
g2850
sg76
(lp2857
S'raw_args'
p2858
asbag69
(g90
g71
NtRp2859
(dp2860
g74
(dp2861
g101
g102
ssg83
g2850
sg76
(lp2862
S':'
asbag69
(g90
g71
NtRp2863
(dp2864
g74
(dp2865
sg83
g2850
sg76
(lp2866
g69
(g70
g71
NtRp2867
(dp2868
g74
(dp2869
g82
I5
ssg83
g2863
sg76
(lp2870
S''
asbasbasbag69
(g85
g71
NtRp2871
(dp2872
g74
(dp2873
sg83
g79
sg76
(lp2874
g69
(g90
g71
NtRp2875
(dp2876
g74
(dp2877
g94
g95
ssg83
g2871
sg76
(lp2878
S'raw_extension'
p2879
asbag69
(g90
g71
NtRp2880
(dp2881
g74
(dp2882
g101
g102
ssg83
g2871
sg76
(lp2883
S':'
asbag69
(g90
g71
NtRp2884
(dp2885
g74
(dp2886
sg83
g2871
sg76
(lp2887
g69
(g70
g71
NtRp2888
(dp2889
g74
(dp2890
g82
I5
ssg83
g2884
sg76
(lp2891
S'None'
p2892
asbasbasbag69
(g85
g71
NtRp2893
(dp2894
g74
(dp2895
sg83
g79
sg76
(lp2896
g69
(g90
g71
NtRp2897
(dp2898
g74
(dp2899
g94
g95
ssg83
g2893
sg76
(lp2900
S'url'
p2901
asbag69
(g90
g71
NtRp2902
(dp2903
g74
(dp2904
g101
g102
ssg83
g2893
sg76
(lp2905
S':'
asbag69
(g90
g71
NtRp2906
(dp2907
g74
(dp2908
sg83
g2893
sg76
(lp2909
g69
(g70
g71
NtRp2910
(dp2911
g74
(dp2912
g82
I5
ssg83
g2906
sg76
(lp2913
g1742
asbasbasbag69
(g85
g71
NtRp2914
(dp2915
g74
(dp2916
sg83
g79
sg76
(lp2917
g69
(g90
g71
NtRp2918
(dp2919
g74
(dp2920
g94
g95
ssg83
g2914
sg76
(lp2921
S'utcnow'
p2922
asbag69
(g90
g71
NtRp2923
(dp2924
g74
(dp2925
g101
g102
ssg83
g2914
sg76
(lp2926
S':'
asbag69
(g90
g71
NtRp2927
(dp2928
g74
(dp2929
sg83
g2914
sg76
(lp2930
g69
(g70
g71
NtRp2931
(dp2932
g74
(dp2933
g82
I5
ssg83
g2927
sg76
(lp2934
S'datetime.datetime(2013, 2, 5, 22, 43, 50, 901888)'
p2935
asbasbasbag69
(g85
g71
NtRp2936
(dp2937
g74
(dp2938
sg83
g79
sg76
(lp2939
g69
(g90
g71
NtRp2940
(dp2941
g74
(dp2942
g94
g95
ssg83
g2936
sg76
(lp2943
S'uuid'
p2944
asbag69
(g90
g71
NtRp2945
(dp2946
g74
(dp2947
g101
g102
ssg83
g2936
sg76
(lp2948
S':'
asbag69
(g90
g71
NtRp2949
(dp2950
g74
(dp2951
sg83
g2936
sg76
(lp2952
g69
(g70
g71
NtRp2953
(dp2954
g74
(dp2955
g82
I5
ssg83
g2949
sg76
(lp2956
S'CygnusCloud/127.0.0.1.2013-02-05.23-43-50.658060de-4d65-4f09-b426-0b917b11e1ba'
p2957
asbasbasbag69
(g85
g71
NtRp2958
(dp2959
g74
(dp2960
sg83
g79
sg76
(lp2961
g69
(g90
g71
NtRp2962
(dp2963
g74
(dp2964
g94
g95
ssg83
g2958
sg76
(lp2965
S'vars'
p2966
asbag69
(g90
g71
NtRp2967
(dp2968
g74
(dp2969
g101
g102
ssg83
g2958
sg76
(lp2970
S':'
asbag69
(g90
g71
NtRp2971
(dp2972
g74
(dp2973
sg83
g2958
sg76
(lp2974
g69
(g70
g71
NtRp2975
(dp2976
g74
(dp2977
g82
I5
ssg83
g2971
sg76
(lp2978
g69
(g78
g71
NtRp2979
(dp2980
g74
(dp2981
g82
I4
ssg83
Nsg76
(lp2982
sbasbasbasbag69
(g85
g71
NtRp2983
(dp2984
g74
(dp2985
sg83
g79
sg76
(lp2986
g69
(g90
g71
NtRp2987
(dp2988
g74
(dp2989
g94
g95
ssg83
g2983
sg76
(lp2990
S'wsgi'
p2991
asbag69
(g90
g71
NtRp2992
(dp2993
g74
(dp2994
g101
g102
ssg83
g2983
sg76
(lp2995
S':'
asbag69
(g90
g71
NtRp2996
(dp2997
g74
(dp2998
sg83
g2983
sg76
(lp2999
g69
(g70
g71
NtRp3000
(dp3001
g74
(dp3002
g82
I5
ssg83
g2996
sg76
(lp3003
g69
(g78
g71
NtRp3004
(dp3005
g74
(dp3006
g82
I4
ssg83
Nsg76
(lp3007
g69
(g85
g71
NtRp3008
(dp3009
g74
(dp3010
sg83
g3004
sg76
(lp3011
g69
(g90
g71
NtRp3012
(dp3013
g74
(dp3014
g94
g95
ssg83
g3008
sg76
(lp3015
S'environ'
p3016
asbag69
(g90
g71
NtRp3017
(dp3018
g74
(dp3019
g101
g102
ssg83
g3008
sg76
(lp3020
S':'
asbag69
(g90
g71
NtRp3021
(dp3022
g74
(dp3023
sg83
g3008
sg76
(lp3024
g69
(g70
g71
NtRp3025
(dp3026
g74
(dp3027
g82
I4
ssg83
g3021
sg76
(lp3028
g69
(g78
g71
NtRp3029
(dp3030
g74
(dp3031
g82
I3
ssg83
Nsg76
(lp3032
g69
(g85
g71
NtRp3033
(dp3034
g74
(dp3035
sg83
g3029
sg76
(lp3036
g69
(g90
g71
NtRp3037
(dp3038
g74
(dp3039
g94
g95
ssg83
g3033
sg76
(lp3040
S'HTTP_ACCEPT'
p3041
asbag69
(g90
g71
NtRp3042
(dp3043
g74
(dp3044
g101
g102
ssg83
g3033
sg76
(lp3045
S':'
asbag69
(g90
g71
NtRp3046
(dp3047
g74
(dp3048
sg83
g3033
sg76
(lp3049
g69
(g70
g71
NtRp3050
(dp3051
g74
(dp3052
g82
I3
ssg83
g3046
sg76
(lp3053
g1412
asbasbasbag69
(g85
g71
NtRp3054
(dp3055
g74
(dp3056
sg83
g3029
sg76
(lp3057
g69
(g90
g71
NtRp3058
(dp3059
g74
(dp3060
g94
g95
ssg83
g3054
sg76
(lp3061
S'HTTP_ACCEPT_CHARSET'
p3062
asbag69
(g90
g71
NtRp3063
(dp3064
g74
(dp3065
g101
g102
ssg83
g3054
sg76
(lp3066
S':'
asbag69
(g90
g71
NtRp3067
(dp3068
g74
(dp3069
sg83
g3054
sg76
(lp3070
g69
(g70
g71
NtRp3071
(dp3072
g74
(dp3073
g82
I3
ssg83
g3067
sg76
(lp3074
g1434
asbasbasbag69
(g85
g71
NtRp3075
(dp3076
g74
(dp3077
sg83
g3029
sg76
(lp3078
g69
(g90
g71
NtRp3079
(dp3080
g74
(dp3081
g94
g95
ssg83
g3075
sg76
(lp3082
S'HTTP_ACCEPT_ENCODING'
p3083
asbag69
(g90
g71
NtRp3084
(dp3085
g74
(dp3086
g101
g102
ssg83
g3075
sg76
(lp3087
S':'
asbag69
(g90
g71
NtRp3088
(dp3089
g74
(dp3090
sg83
g3075
sg76
(lp3091
g69
(g70
g71
NtRp3092
(dp3093
g74
(dp3094
g82
I3
ssg83
g3088
sg76
(lp3095
g1456
asbasbasbag69
(g85
g71
NtRp3096
(dp3097
g74
(dp3098
sg83
g3029
sg76
(lp3099
g69
(g90
g71
NtRp3100
(dp3101
g74
(dp3102
g94
g95
ssg83
g3096
sg76
(lp3103
S'HTTP_ACCEPT_LANGUAGE'
p3104
asbag69
(g90
g71
NtRp3105
(dp3106
g74
(dp3107
g101
g102
ssg83
g3096
sg76
(lp3108
S':'
asbag69
(g90
g71
NtRp3109
(dp3110
g74
(dp3111
sg83
g3096
sg76
(lp3112
g69
(g70
g71
NtRp3113
(dp3114
g74
(dp3115
g82
I3
ssg83
g3109
sg76
(lp3116
g1478
asbasbasbag69
(g85
g71
NtRp3117
(dp3118
g74
(dp3119
sg83
g3029
sg76
(lp3120
g69
(g90
g71
NtRp3121
(dp3122
g74
(dp3123
g94
g95
ssg83
g3117
sg76
(lp3124
S'HTTP_CACHE_CONTROL'
p3125
asbag69
(g90
g71
NtRp3126
(dp3127
g74
(dp3128
g101
g102
ssg83
g3117
sg76
(lp3129
S':'
asbag69
(g90
g71
NtRp3130
(dp3131
g74
(dp3132
sg83
g3117
sg76
(lp3133
g69
(g70
g71
NtRp3134
(dp3135
g74
(dp3136
g82
I3
ssg83
g3130
sg76
(lp3137
g1500
asbasbasbag69
(g85
g71
NtRp3138
(dp3139
g74
(dp3140
sg83
g3029
sg76
(lp3141
g69
(g90
g71
NtRp3142
(dp3143
g74
(dp3144
g94
g95
ssg83
g3138
sg76
(lp3145
S'HTTP_CONNECTION'
p3146
asbag69
(g90
g71
NtRp3147
(dp3148
g74
(dp3149
g101
g102
ssg83
g3138
sg76
(lp3150
S':'
asbag69
(g90
g71
NtRp3151
(dp3152
g74
(dp3153
sg83
g3138
sg76
(lp3154
g69
(g70
g71
NtRp3155
(dp3156
g74
(dp3157
g82
I3
ssg83
g3151
sg76
(lp3158
g1522
asbasbasbag69
(g85
g71
NtRp3159
(dp3160
g74
(dp3161
sg83
g3029
sg76
(lp3162
g69
(g90
g71
NtRp3163
(dp3164
g74
(dp3165
g94
g95
ssg83
g3159
sg76
(lp3166
S'HTTP_COOKIE'
p3167
asbag69
(g90
g71
NtRp3168
(dp3169
g74
(dp3170
g101
g102
ssg83
g3159
sg76
(lp3171
S':'
asbag69
(g90
g71
NtRp3172
(dp3173
g74
(dp3174
sg83
g3159
sg76
(lp3175
g69
(g70
g71
NtRp3176
(dp3177
g74
(dp3178
g82
I3
ssg83
g3172
sg76
(lp3179
g1544
asbasbasbag69
(g85
g71
NtRp3180
(dp3181
g74
(dp3182
sg83
g3029
sg76
(lp3183
g69
(g90
g71
NtRp3184
(dp3185
g74
(dp3186
g94
g95
ssg83
g3180
sg76
(lp3187
S'HTTP_HOST'
p3188
asbag69
(g90
g71
NtRp3189
(dp3190
g74
(dp3191
g101
g102
ssg83
g3180
sg76
(lp3192
S':'
asbag69
(g90
g71
NtRp3193
(dp3194
g74
(dp3195
sg83
g3180
sg76
(lp3196
g69
(g70
g71
NtRp3197
(dp3198
g74
(dp3199
g82
I3
ssg83
g3193
sg76
(lp3200
g1566
asbasbasbag69
(g85
g71
NtRp3201
(dp3202
g74
(dp3203
sg83
g3029
sg76
(lp3204
g69
(g90
g71
NtRp3205
(dp3206
g74
(dp3207
g94
g95
ssg83
g3201
sg76
(lp3208
S'HTTP_USER_AGENT'
p3209
asbag69
(g90
g71
NtRp3210
(dp3211
g74
(dp3212
g101
g102
ssg83
g3201
sg76
(lp3213
S':'
asbag69
(g90
g71
NtRp3214
(dp3215
g74
(dp3216
sg83
g3201
sg76
(lp3217
g69
(g70
g71
NtRp3218
(dp3219
g74
(dp3220
g82
I3
ssg83
g3214
sg76
(lp3221
g1588
asbasbasbag69
(g85
g71
NtRp3222
(dp3223
g74
(dp3224
sg83
g3029
sg76
(lp3225
g69
(g90
g71
NtRp3226
(dp3227
g74
(dp3228
g94
g95
ssg83
g3222
sg76
(lp3229
S'PATH_INFO'
p3230
asbag69
(g90
g71
NtRp3231
(dp3232
g74
(dp3233
g101
g102
ssg83
g3222
sg76
(lp3234
S':'
asbag69
(g90
g71
NtRp3235
(dp3236
g74
(dp3237
sg83
g3222
sg76
(lp3238
g69
(g70
g71
NtRp3239
(dp3240
g74
(dp3241
g82
I3
ssg83
g3235
sg76
(lp3242
g1742
asbasbasbag69
(g85
g71
NtRp3243
(dp3244
g74
(dp3245
sg83
g3029
sg76
(lp3246
g69
(g90
g71
NtRp3247
(dp3248
g74
(dp3249
g94
g95
ssg83
g3243
sg76
(lp3250
S'QUERY_STRING'
p3251
asbag69
(g90
g71
NtRp3252
(dp3253
g74
(dp3254
g101
g102
ssg83
g3243
sg76
(lp3255
S':'
asbag69
(g90
g71
NtRp3256
(dp3257
g74
(dp3258
sg83
g3243
sg76
(lp3259
g69
(g70
g71
NtRp3260
(dp3261
g74
(dp3262
g82
I3
ssg83
g3256
sg76
(lp3263
S''
asbasbasbag69
(g85
g71
NtRp3264
(dp3265
g74
(dp3266
sg83
g3029
sg76
(lp3267
g69
(g90
g71
NtRp3268
(dp3269
g74
(dp3270
g94
g95
ssg83
g3264
sg76
(lp3271
S'REMOTE_ADDR'
p3272
asbag69
(g90
g71
NtRp3273
(dp3274
g74
(dp3275
g101
g102
ssg83
g3264
sg76
(lp3276
S':'
asbag69
(g90
g71
NtRp3277
(dp3278
g74
(dp3279
sg83
g3264
sg76
(lp3280
g69
(g70
g71
NtRp3281
(dp3282
g74
(dp3283
g82
I3
ssg83
g3277
sg76
(lp3284
g224
asbasbasbag69
(g85
g71
NtRp3285
(dp3286
g74
(dp3287
sg83
g3029
sg76
(lp3288
g69
(g90
g71
NtRp3289
(dp3290
g74
(dp3291
g94
g95
ssg83
g3285
sg76
(lp3292
S'REMOTE_PORT'
p3293
asbag69
(g90
g71
NtRp3294
(dp3295
g74
(dp3296
g101
g102
ssg83
g3285
sg76
(lp3297
S':'
asbag69
(g90
g71
NtRp3298
(dp3299
g74
(dp3300
sg83
g3285
sg76
(lp3301
g69
(g70
g71
NtRp3302
(dp3303
g74
(dp3304
g82
I3
ssg83
g3298
sg76
(lp3305
g1806
asbasbasbag69
(g85
g71
NtRp3306
(dp3307
g74
(dp3308
sg83
g3029
sg76
(lp3309
g69
(g90
g71
NtRp3310
(dp3311
g74
(dp3312
g94
g95
ssg83
g3306
sg76
(lp3313
S'REQUEST_METHOD'
p3314
asbag69
(g90
g71
NtRp3315
(dp3316
g74
(dp3317
g101
g102
ssg83
g3306
sg76
(lp3318
S':'
asbag69
(g90
g71
NtRp3319
(dp3320
g74
(dp3321
sg83
g3306
sg76
(lp3322
g69
(g70
g71
NtRp3323
(dp3324
g74
(dp3325
g82
I3
ssg83
g3319
sg76
(lp3326
g1828
asbasbasbag69
(g85
g71
NtRp3327
(dp3328
g74
(dp3329
sg83
g3029
sg76
(lp3330
g69
(g90
g71
NtRp3331
(dp3332
g74
(dp3333
g94
g95
ssg83
g3327
sg76
(lp3334
S'REQUEST_URI'
p3335
asbag69
(g90
g71
NtRp3336
(dp3337
g74
(dp3338
g101
g102
ssg83
g3327
sg76
(lp3339
S':'
asbag69
(g90
g71
NtRp3340
(dp3341
g74
(dp3342
sg83
g3327
sg76
(lp3343
g69
(g70
g71
NtRp3344
(dp3345
g74
(dp3346
g82
I3
ssg83
g3340
sg76
(lp3347
g1742
asbasbasbag69
(g85
g71
NtRp3348
(dp3349
g74
(dp3350
sg83
g3029
sg76
(lp3351
g69
(g90
g71
NtRp3352
(dp3353
g74
(dp3354
g94
g95
ssg83
g3348
sg76
(lp3355
S'SCRIPT_NAME'
p3356
asbag69
(g90
g71
NtRp3357
(dp3358
g74
(dp3359
g101
g102
ssg83
g3348
sg76
(lp3360
S':'
asbag69
(g90
g71
NtRp3361
(dp3362
g74
(dp3363
sg83
g3348
sg76
(lp3364
g69
(g70
g71
NtRp3365
(dp3366
g74
(dp3367
g82
I3
ssg83
g3361
sg76
(lp3368
S''
asbasbasbag69
(g85
g71
NtRp3369
(dp3370
g74
(dp3371
sg83
g3029
sg76
(lp3372
g69
(g90
g71
NtRp3373
(dp3374
g74
(dp3375
g94
g95
ssg83
g3369
sg76
(lp3376
S'SERVER_NAME'
p3377
asbag69
(g90
g71
NtRp3378
(dp3379
g74
(dp3380
g101
g102
ssg83
g3369
sg76
(lp3381
S':'
asbag69
(g90
g71
NtRp3382
(dp3383
g74
(dp3384
sg83
g3369
sg76
(lp3385
g69
(g70
g71
NtRp3386
(dp3387
g74
(dp3388
g82
I3
ssg83
g3382
sg76
(lp3389
g1892
asbasbasbag69
(g85
g71
NtRp3390
(dp3391
g74
(dp3392
sg83
g3029
sg76
(lp3393
g69
(g90
g71
NtRp3394
(dp3395
g74
(dp3396
g94
g95
ssg83
g3390
sg76
(lp3397
S'SERVER_PORT'
p3398
asbag69
(g90
g71
NtRp3399
(dp3400
g74
(dp3401
g101
g102
ssg83
g3390
sg76
(lp3402
S':'
asbag69
(g90
g71
NtRp3403
(dp3404
g74
(dp3405
sg83
g3390
sg76
(lp3406
g69
(g70
g71
NtRp3407
(dp3408
g74
(dp3409
g82
I3
ssg83
g3403
sg76
(lp3410
g1914
asbasbasbag69
(g85
g71
NtRp3411
(dp3412
g74
(dp3413
sg83
g3029
sg76
(lp3414
g69
(g90
g71
NtRp3415
(dp3416
g74
(dp3417
g94
g95
ssg83
g3411
sg76
(lp3418
S'SERVER_PROTOCOL'
p3419
asbag69
(g90
g71
NtRp3420
(dp3421
g74
(dp3422
g101
g102
ssg83
g3411
sg76
(lp3423
S':'
asbag69
(g90
g71
NtRp3424
(dp3425
g74
(dp3426
sg83
g3411
sg76
(lp3427
g69
(g70
g71
NtRp3428
(dp3429
g74
(dp3430
g82
I3
ssg83
g3424
sg76
(lp3431
g1936
asbasbasbag69
(g85
g71
NtRp3432
(dp3433
g74
(dp3434
sg83
g3029
sg76
(lp3435
g69
(g90
g71
NtRp3436
(dp3437
g74
(dp3438
g94
g95
ssg83
g3432
sg76
(lp3439
S'SERVER_SOFTWARE'
p3440
asbag69
(g90
g71
NtRp3441
(dp3442
g74
(dp3443
g101
g102
ssg83
g3432
sg76
(lp3444
S':'
asbag69
(g90
g71
NtRp3445
(dp3446
g74
(dp3447
sg83
g3432
sg76
(lp3448
g69
(g70
g71
NtRp3449
(dp3450
g74
(dp3451
g82
I3
ssg83
g3445
sg76
(lp3452
g1958
asbasbasbag69
(g85
g71
NtRp3453
(dp3454
g74
(dp3455
sg83
g3029
sg76
(lp3456
g69
(g90
g71
NtRp3457
(dp3458
g74
(dp3459
g94
g95
ssg83
g3453
sg76
(lp3460
S'wsgi.errors'
p3461
asbag69
(g90
g71
NtRp3462
(dp3463
g74
(dp3464
g101
g102
ssg83
g3453
sg76
(lp3465
S':'
asbag69
(g90
g71
NtRp3466
(dp3467
g74
(dp3468
sg83
g3453
sg76
(lp3469
g69
(g70
g71
NtRp3470
(dp3471
g74
(dp3472
g82
I3
ssg83
g3466
sg76
(lp3473
S"<open file '<stderr>', mode 'w' at 0x7f239539e270>"
p3474
asbasbasbag69
(g85
g71
NtRp3475
(dp3476
g74
(dp3477
sg83
g3029
sg76
(lp3478
g69
(g90
g71
NtRp3479
(dp3480
g74
(dp3481
g94
g95
ssg83
g3475
sg76
(lp3482
S'wsgi.file_wrapper'
p3483
asbag69
(g90
g71
NtRp3484
(dp3485
g74
(dp3486
g101
g102
ssg83
g3475
sg76
(lp3487
S':'
asbag69
(g90
g71
NtRp3488
(dp3489
g74
(dp3490
sg83
g3475
sg76
(lp3491
g69
(g70
g71
NtRp3492
(dp3493
g74
(dp3494
g82
I3
ssg83
g3488
sg76
(lp3495
S'<class wsgiref.util.FileWrapper at 0x1663db8>'
p3496
asbasbasbag69
(g85
g71
NtRp3497
(dp3498
g74
(dp3499
sg83
g3029
sg76
(lp3500
g69
(g90
g71
NtRp3501
(dp3502
g74
(dp3503
g94
g95
ssg83
g3497
sg76
(lp3504
S'wsgi.input'
p3505
asbag69
(g90
g71
NtRp3506
(dp3507
g74
(dp3508
g101
g102
ssg83
g3497
sg76
(lp3509
S':'
asbag69
(g90
g71
NtRp3510
(dp3511
g74
(dp3512
sg83
g3497
sg76
(lp3513
g69
(g70
g71
NtRp3514
(dp3515
g74
(dp3516
g82
I3
ssg83
g3510
sg76
(lp3517
S'<cStringIO.StringO object at 0x7f2364359880>'
p3518
asbasbasbag69
(g85
g71
NtRp3519
(dp3520
g74
(dp3521
sg83
g3029
sg76
(lp3522
g69
(g90
g71
NtRp3523
(dp3524
g74
(dp3525
g94
g95
ssg83
g3519
sg76
(lp3526
S'wsgi.multiprocess'
p3527
asbag69
(g90
g71
NtRp3528
(dp3529
g74
(dp3530
g101
g102
ssg83
g3519
sg76
(lp3531
S':'
asbag69
(g90
g71
NtRp3532
(dp3533
g74
(dp3534
sg83
g3519
sg76
(lp3535
g69
(g70
g71
NtRp3536
(dp3537
g74
(dp3538
g82
I3
ssg83
g3532
sg76
(lp3539
g112
asbasbasbag69
(g85
g71
NtRp3540
(dp3541
g74
(dp3542
sg83
g3029
sg76
(lp3543
g69
(g90
g71
NtRp3544
(dp3545
g74
(dp3546
g94
g95
ssg83
g3540
sg76
(lp3547
S'wsgi.multithread'
p3548
asbag69
(g90
g71
NtRp3549
(dp3550
g74
(dp3551
g101
g102
ssg83
g3540
sg76
(lp3552
S':'
asbag69
(g90
g71
NtRp3553
(dp3554
g74
(dp3555
sg83
g3540
sg76
(lp3556
g69
(g70
g71
NtRp3557
(dp3558
g74
(dp3559
g82
I3
ssg83
g3553
sg76
(lp3560
g2175
asbasbasbag69
(g85
g71
NtRp3561
(dp3562
g74
(dp3563
sg83
g3029
sg76
(lp3564
g69
(g90
g71
NtRp3565
(dp3566
g74
(dp3567
g94
g95
ssg83
g3561
sg76
(lp3568
S'wsgi.run_once'
p3569
asbag69
(g90
g71
NtRp3570
(dp3571
g74
(dp3572
g101
g102
ssg83
g3561
sg76
(lp3573
S':'
asbag69
(g90
g71
NtRp3574
(dp3575
g74
(dp3576
sg83
g3561
sg76
(lp3577
g69
(g70
g71
NtRp3578
(dp3579
g74
(dp3580
g82
I3
ssg83
g3574
sg76
(lp3581
g112
asbasbasbag69
(g85
g71
NtRp3582
(dp3583
g74
(dp3584
sg83
g3029
sg76
(lp3585
g69
(g90
g71
NtRp3586
(dp3587
g74
(dp3588
g94
g95
ssg83
g3582
sg76
(lp3589
S'wsgi.url_scheme'
p3590
asbag69
(g90
g71
NtRp3591
(dp3592
g74
(dp3593
g101
g102
ssg83
g3582
sg76
(lp3594
S':'
asbag69
(g90
g71
NtRp3595
(dp3596
g74
(dp3597
sg83
g3582
sg76
(lp3598
g69
(g70
g71
NtRp3599
(dp3600
g74
(dp3601
g82
I3
ssg83
g3595
sg76
(lp3602
g2218
asbasbasbag69
(g85
g71
NtRp3603
(dp3604
g74
(dp3605
sg83
g3029
sg76
(lp3606
g69
(g90
g71
NtRp3607
(dp3608
g74
(dp3609
g94
g95
ssg83
g3603
sg76
(lp3610
S'wsgi.version'
p3611
asbag69
(g90
g71
NtRp3612
(dp3613
g74
(dp3614
g101
g102
ssg83
g3603
sg76
(lp3615
S':'
asbag69
(g90
g71
NtRp3616
(dp3617
g74
(dp3618
sg83
g3603
sg76
(lp3619
g69
(g70
g71
NtRp3620
(dp3621
g74
(dp3622
g82
I3
ssg83
g3616
sg76
(lp3623
S'1'
asbasbasbasbasbasbasbasbasbasbasbasbasbsS'frames'
p3624
(lp3625
(dp3626
S'file'
p3627
S'/home/adrian/web2py/gluon/restricted.py'
p3628
sS'dump'
p3629
(dp3630
S'environment'
p3631
S"{'A': <class 'gluon.html.A'>, 'Auth': <class 'gluon.tools.Auth'>, 'B': <class 'gluon.html.B'>, 'BEAUTIFY': <class 'gluon.html.BEAUTIFY'>, 'BODY': <class 'gluon.html.BODY'>, 'BR': <class 'gluon.html.BR'>, 'BUTTON': <class 'gluon.html.BUTTON'>, 'CAT': <class 'gluon.html.CAT'>, 'CENTER': <class 'gluon.html.CENTER'>, 'CLEANUP': <class 'gluon.validators.CLEANUP'>, ...}"
p3632
sS'ccode'
p3633
S'<code object <module> at 0x7f237c13d930, file "/...cations/CygnusCloud/controllers/main.py", line 3>'
p3634
ssS'lnum'
p3635
I212
sS'lines'
p3636
(dp3637
I207
S'    try:'
p3638
sI208
S'        if isinstance(code, types.CodeType):'
p3639
sI209
S'            ccode = code'
p3640
sI210
S'        else:'
p3641
sI211
S'            ccode = compile2(code, layer)'
p3642
sI212
S'        exec ccode in environment'
p3643
sI213
S'    except HTTP:'
p3644
sI214
S'        raise'
p3645
sI215
S'    except RestrictedError:'
p3646
sI216
S'        # do not encapsulate (obfuscate) the original RestrictedError'
p3647
ssS'call'
p3648
S'(code="# coding: utf8\\n# M\\xc3\\xa9todo encargado de la p\\xc3\\xa1gina...ogin\')]]\\n\\nresponse._vars=response._caller(login)\\n", environment={\'A\': <class \'gluon.html.A\'>, \'Auth\': <class \'gluon.tools.Auth\'>, \'B\': <class \'gluon.html.B\'>, \'BEAUTIFY\': <class \'gluon.html.BEAUTIFY\'>, \'BODY\': <class \'gluon.html.BODY\'>, \'BR\': <class \'gluon.html.BR\'>, \'BUTTON\': <class \'gluon.html.BUTTON\'>, \'CAT\': <class \'gluon.html.CAT\'>, \'CENTER\': <class \'gluon.html.CENTER\'>, \'CLEANUP\': <class \'gluon.validators.CLEANUP\'>, ...}, layer=\'/home/adrian/web2py/applications/CygnusCloud/controllers/main.py\')'
p3649
sS'func'
p3650
S'restricted'
p3651
sa(dp3652
g3627
S'/home/adrian/web2py/applications/CygnusCloud/controllers/main.py'
p3653
sg3629
(dp3654
sg3635
I13
sg3636
(dp3655
I2
S'# M\xc3\xa9todo encargado de la p\xc3\xa1gina de inicio de sesi\xc3\xb3n'
p3656
sI3
S'def login():'
p3657
sI4
S'    createAdressBar()'
p3658
sI5
S"    auth.settings.login=URL( c='main', f='login')"
p3659
sI6
S"    auth.settings.login_next = URL(c='main',f='login')"
p3660
sI7
S'    return dict(form=auth.login())'
p3661
sI8
S''
sI9
S'def createAdressBar():'
p3662
sI10
S"    response.menu=[[T('Iniciar sesi\xc3\xb3n'),False,URL('login')],"
p3663
sI11
S"                   [T('Acerca de'),False,URL('login')]]"
p3664
ssg3648
S'()'
p3665
sg3650
S'<module>'
p3666
sa(dp3667
g3627
S'/home/adrian/web2py/gluon/globals.py'
p3668
sg3629
(dp3669
S'self'
p3670
S'undefined'
p3671
sS'f'
S'<function login>'
p3672
ssg3635
I193
sg3636
(dp3673
I192
S'        self._vars = None'
p3674
sI193
S'        self._caller = lambda f: f()'
p3675
sI194
S'        self._view_environment = None'
p3676
sI195
S'        self._custom_commit = None'
p3677
sI196
S'        self._custom_rollback = None'
p3678
sI197
S''
sI188
S'        self.menu = []             # used by the default view layout'
p3679
sI189
S'        self.files = []            # used by web2py_ajax.html'
p3680
sI190
S'        self.generic_patterns = []  # patterns to allow generic views'
p3681
sI191
S"        self.delimiters = ('{{', '}}')"
p3682
ssg3648
S'(f=<function login>)'
p3683
sg3650
S'<lambda>'
p3684
sa(dp3685
g3627
S'/home/adrian/web2py/applications/CygnusCloud/controllers/main.py'
p3686
sg3629
(dp3687
S'c'
g3671
sS'f'
g3671
sS'global auth'
p3688
S'<gluon.tools.Auth object>'
p3689
sS'global URL'
p3690
S'<function URL>'
p3691
sS'auth.settings'
p3692
S"<Storage {'verify_email_onaccept': [], 'register...ve_username_next': '/CygnusCloud/default/index'}>"
p3693
sS'auth.settings.login'
p3694
S'None'
p3695
ssg3635
I5
sg3636
(dp3696
I2
S'# M\xc3\xa9todo encargado de la p\xc3\xa1gina de inicio de sesi\xc3\xb3n'
p3697
sI3
S'def login():'
p3698
sI4
S'    createAdressBar()'
p3699
sI5
S"    auth.settings.login=URL( c='main', f='login')"
p3700
sI6
S"    auth.settings.login_next = URL(c='main',f='login')"
p3701
sI7
S'    return dict(form=auth.login())'
p3702
sI8
S''
sI9
S'def createAdressBar():'
p3703
sI10
S"    response.menu=[[T('Iniciar sesi\xc3\xb3n'),False,URL('login')],"
p3704
sI11
S"                   [T('Acerca de'),False,URL('login')]]"
p3705
ssg3648
S'()'
p3706
sg3650
S'login'
p3707
sa(dp3708
g3627
S'/home/adrian/web2py/gluon/storage.py'
p3709
sg3629
(dp3710
S'builtinSyntaxError'
p3711
S"<type 'exceptions.SyntaxError'>"
p3712
sS'key'
p3713
S"'login'"
p3714
ssg3635
I164
sg3636
(dp3715
I160
S''
sI161
S'class Settings(Storage):'
p3716
sI162
S'    def __setattr__(self, key, value):'
p3717
sI163
S"        if key != 'lock_keys' and self['lock_keys'] and key not in self:"
p3718
sI164
S"            raise SyntaxError('setting key \\'%s\\' does not exist' % key)"
p3719
sI165
S"        if key != 'lock_values' and self['lock_values']:"
p3720
sI166
S"            raise SyntaxError('setting value cannot be changed: %s' % key)"
p3721
sI167
S'        self[key] = value'
p3722
sI168
S''
sI159
S''
ssg3648
S"(self=<Storage {'verify_email_onaccept': [], 'register...ve_username_next': '/CygnusCloud/default/index'}>, key='login', value='/CygnusCloud/main/login')"
p3723
sg3650
g26
sasS'pyver'
p3724
S'Python 2.7.3: /usr/bin/python'
p3725
sS'session'
p3726
g69
(g70
g71
NtRp3727
(dp3728
g74
(dp3729
sg76
(lp3730
g69
(g78
g71
NtRp3731
(dp3732
g74
(dp3733
g82
I5
ssg83
Nsg76
(lp3734
g69
(g85
g71
NtRp3735
(dp3736
g74
(dp3737
sg83
g3731
sg76
(lp3738
g69
(g90
g71
NtRp3739
(dp3740
g74
(dp3741
g94
g95
ssg83
g3735
sg76
(lp3742
S'auth'
p3743
asbag69
(g90
g71
NtRp3744
(dp3745
g74
(dp3746
g101
g102
ssg83
g3735
sg76
(lp3747
S':'
asbag69
(g90
g71
NtRp3748
(dp3749
g74
(dp3750
sg83
g3735
sg76
(lp3751
g69
(g70
g71
NtRp3752
(dp3753
g74
(dp3754
g82
I5
ssg83
g3748
sg76
(lp3755
g69
(g78
g71
NtRp3756
(dp3757
g74
(dp3758
g82
I4
ssg83
Nsg76
(lp3759
g69
(g85
g71
NtRp3760
(dp3761
g74
(dp3762
sg83
g3756
sg76
(lp3763
g69
(g90
g71
NtRp3764
(dp3765
g74
(dp3766
g94
g95
ssg83
g3760
sg76
(lp3767
S'expiration'
p3768
asbag69
(g90
g71
NtRp3769
(dp3770
g74
(dp3771
g101
g102
ssg83
g3760
sg76
(lp3772
S':'
asbag69
(g90
g71
NtRp3773
(dp3774
g74
(dp3775
sg83
g3760
sg76
(lp3776
g69
(g70
g71
NtRp3777
(dp3778
g74
(dp3779
g82
I4
ssg83
g3773
sg76
(lp3780
S'3600'
p3781
asbasbasbag69
(g85
g71
NtRp3782
(dp3783
g74
(dp3784
sg83
g3756
sg76
(lp3785
g69
(g90
g71
NtRp3786
(dp3787
g74
(dp3788
g94
g95
ssg83
g3782
sg76
(lp3789
S'hmac_key'
p3790
asbag69
(g90
g71
NtRp3791
(dp3792
g74
(dp3793
g101
g102
ssg83
g3782
sg76
(lp3794
S':'
asbag69
(g90
g71
NtRp3795
(dp3796
g74
(dp3797
sg83
g3782
sg76
(lp3798
g69
(g70
g71
NtRp3799
(dp3800
g74
(dp3801
g82
I4
ssg83
g3795
sg76
(lp3802
S'0b19ed6d-41c7-4698-86b9-d878e1bf9463'
p3803
asbasbasbag69
(g85
g71
NtRp3804
(dp3805
g74
(dp3806
sg83
g3756
sg76
(lp3807
g69
(g90
g71
NtRp3808
(dp3809
g74
(dp3810
g94
g95
ssg83
g3804
sg76
(lp3811
S'last_visit'
p3812
asbag69
(g90
g71
NtRp3813
(dp3814
g74
(dp3815
g101
g102
ssg83
g3804
sg76
(lp3816
S':'
asbag69
(g90
g71
NtRp3817
(dp3818
g74
(dp3819
sg83
g3804
sg76
(lp3820
g69
(g70
g71
NtRp3821
(dp3822
g74
(dp3823
g82
I4
ssg83
g3817
sg76
(lp3824
S'datetime.datetime(2013, 2, 5, 23, 42, 41, 582168)'
p3825
asbasbasbag69
(g85
g71
NtRp3826
(dp3827
g74
(dp3828
sg83
g3756
sg76
(lp3829
g69
(g90
g71
NtRp3830
(dp3831
g74
(dp3832
g94
g95
ssg83
g3826
sg76
(lp3833
S'remember'
p3834
asbag69
(g90
g71
NtRp3835
(dp3836
g74
(dp3837
g101
g102
ssg83
g3826
sg76
(lp3838
S':'
asbag69
(g90
g71
NtRp3839
(dp3840
g74
(dp3841
sg83
g3826
sg76
(lp3842
g69
(g70
g71
NtRp3843
(dp3844
g74
(dp3845
g82
I4
ssg83
g3839
sg76
(lp3846
g112
asbasbasbag69
(g85
g71
NtRp3847
(dp3848
g74
(dp3849
sg83
g3756
sg76
(lp3850
g69
(g90
g71
NtRp3851
(dp3852
g74
(dp3853
g94
g95
ssg83
g3847
sg76
(lp3854
S'user'
p3855
asbag69
(g90
g71
NtRp3856
(dp3857
g74
(dp3858
g101
g102
ssg83
g3847
sg76
(lp3859
S':'
asbag69
(g90
g71
NtRp3860
(dp3861
g74
(dp3862
sg83
g3847
sg76
(lp3863
g69
(g70
g71
NtRp3864
(dp3865
g74
(dp3866
g82
I4
ssg83
g3860
sg76
(lp3867
g69
(g78
g71
NtRp3868
(dp3869
g74
(dp3870
g82
I3
ssg83
Nsg76
(lp3871
g69
(g85
g71
NtRp3872
(dp3873
g74
(dp3874
sg83
g3868
sg76
(lp3875
g69
(g90
g71
NtRp3876
(dp3877
g74
(dp3878
g94
g95
ssg83
g3872
sg76
(lp3879
S'email'
p3880
asbag69
(g90
g71
NtRp3881
(dp3882
g74
(dp3883
g101
g102
ssg83
g3872
sg76
(lp3884
S':'
asbag69
(g90
g71
NtRp3885
(dp3886
g74
(dp3887
sg83
g3872
sg76
(lp3888
g69
(g70
g71
NtRp3889
(dp3890
g74
(dp3891
g82
I3
ssg83
g3885
sg76
(lp3892
S'Admin1@ucm.es'
p3893
asbasbasbag69
(g85
g71
NtRp3894
(dp3895
g74
(dp3896
sg83
g3868
sg76
(lp3897
g69
(g90
g71
NtRp3898
(dp3899
g74
(dp3900
g94
g95
ssg83
g3894
sg76
(lp3901
S'first_name'
p3902
asbag69
(g90
g71
NtRp3903
(dp3904
g74
(dp3905
g101
g102
ssg83
g3894
sg76
(lp3906
S':'
asbag69
(g90
g71
NtRp3907
(dp3908
g74
(dp3909
sg83
g3894
sg76
(lp3910
g69
(g70
g71
NtRp3911
(dp3912
g74
(dp3913
g82
I3
ssg83
g3907
sg76
(lp3914
S'Bertoldo'
p3915
asbasbasbag69
(g85
g71
NtRp3916
(dp3917
g74
(dp3918
sg83
g3868
sg76
(lp3919
g69
(g90
g71
NtRp3920
(dp3921
g74
(dp3922
g94
g95
ssg83
g3916
sg76
(lp3923
S'id'
p3924
asbag69
(g90
g71
NtRp3925
(dp3926
g74
(dp3927
g101
g102
ssg83
g3916
sg76
(lp3928
S':'
asbag69
(g90
g71
NtRp3929
(dp3930
g74
(dp3931
sg83
g3916
sg76
(lp3932
g69
(g70
g71
NtRp3933
(dp3934
g74
(dp3935
g82
I3
ssg83
g3929
sg76
(lp3936
S'87'
p3937
asbasbasbag69
(g85
g71
NtRp3938
(dp3939
g74
(dp3940
sg83
g3868
sg76
(lp3941
g69
(g90
g71
NtRp3942
(dp3943
g74
(dp3944
g94
g95
ssg83
g3938
sg76
(lp3945
S'last_name'
p3946
asbag69
(g90
g71
NtRp3947
(dp3948
g74
(dp3949
g101
g102
ssg83
g3938
sg76
(lp3950
S':'
asbag69
(g90
g71
NtRp3951
(dp3952
g74
(dp3953
sg83
g3938
sg76
(lp3954
g69
(g70
g71
NtRp3955
(dp3956
g74
(dp3957
g82
I3
ssg83
g3951
sg76
(lp3958
S'Pedralbes'
p3959
asbasbasbag69
(g85
g71
NtRp3960
(dp3961
g74
(dp3962
sg83
g3868
sg76
(lp3963
g69
(g90
g71
NtRp3964
(dp3965
g74
(dp3966
g94
g95
ssg83
g3960
sg76
(lp3967
S'registration_id'
p3968
asbag69
(g90
g71
NtRp3969
(dp3970
g74
(dp3971
g101
g102
ssg83
g3960
sg76
(lp3972
S':'
asbag69
(g90
g71
NtRp3973
(dp3974
g74
(dp3975
sg83
g3960
sg76
(lp3976
g69
(g70
g71
NtRp3977
(dp3978
g74
(dp3979
g82
I3
ssg83
g3973
sg76
(lp3980
S''
asbasbasbag69
(g85
g71
NtRp3981
(dp3982
g74
(dp3983
sg83
g3868
sg76
(lp3984
g69
(g90
g71
NtRp3985
(dp3986
g74
(dp3987
g94
g95
ssg83
g3981
sg76
(lp3988
S'registration_key'
p3989
asbag69
(g90
g71
NtRp3990
(dp3991
g74
(dp3992
g101
g102
ssg83
g3981
sg76
(lp3993
S':'
asbag69
(g90
g71
NtRp3994
(dp3995
g74
(dp3996
sg83
g3981
sg76
(lp3997
g69
(g70
g71
NtRp3998
(dp3999
g74
(dp4000
g82
I3
ssg83
g3994
sg76
(lp4001
S''
asbasbasbag69
(g85
g71
NtRp4002
(dp4003
g74
(dp4004
sg83
g3868
sg76
(lp4005
g69
(g90
g71
NtRp4006
(dp4007
g74
(dp4008
g94
g95
ssg83
g4002
sg76
(lp4009
S'reset_password_key'
p4010
asbag69
(g90
g71
NtRp4011
(dp4012
g74
(dp4013
g101
g102
ssg83
g4002
sg76
(lp4014
S':'
asbag69
(g90
g71
NtRp4015
(dp4016
g74
(dp4017
sg83
g4002
sg76
(lp4018
g69
(g70
g71
NtRp4019
(dp4020
g74
(dp4021
g82
I3
ssg83
g4015
sg76
(lp4022
S''
asbasbasbasbasbasbasbag69
(g85
g71
NtRp4023
(dp4024
g74
(dp4025
sg83
g3756
sg76
(lp4026
g69
(g90
g71
NtRp4027
(dp4028
g74
(dp4029
g94
g95
ssg83
g4023
sg76
(lp4030
S'user_groups'
p4031
asbag69
(g90
g71
NtRp4032
(dp4033
g74
(dp4034
g101
g102
ssg83
g4023
sg76
(lp4035
S':'
asbag69
(g90
g71
NtRp4036
(dp4037
g74
(dp4038
sg83
g4023
sg76
(lp4039
g69
(g70
g71
NtRp4040
(dp4041
g74
(dp4042
g82
I4
ssg83
g4036
sg76
(lp4043
g69
(g78
g71
NtRp4044
(dp4045
g74
(dp4046
g82
I3
ssg83
Nsg76
(lp4047
g69
(g85
g71
NtRp4048
(dp4049
g74
(dp4050
sg83
g4044
sg76
(lp4051
g69
(g90
g71
NtRp4052
(dp4053
g74
(dp4054
g94
g95
ssg83
g4048
sg76
(lp4055
S'100'
p4056
asbag69
(g90
g71
NtRp4057
(dp4058
g74
(dp4059
g101
g102
ssg83
g4048
sg76
(lp4060
S':'
asbag69
(g90
g71
NtRp4061
(dp4062
g74
(dp4063
sg83
g4048
sg76
(lp4064
g69
(g70
g71
NtRp4065
(dp4066
g74
(dp4067
g82
I3
ssg83
g4061
sg76
(lp4068
S'Administrator'
p4069
asbasbasbasbasbasbasbasbasbasbasbag69
(g85
g71
NtRp4070
(dp4071
g74
(dp4072
sg83
g3731
sg76
(lp4073
g69
(g90
g71
NtRp4074
(dp4075
g74
(dp4076
g94
g95
ssg83
g4070
sg76
(lp4077
S'flash'
p4078
asbag69
(g90
g71
NtRp4079
(dp4080
g74
(dp4081
g101
g102
ssg83
g4070
sg76
(lp4082
S':'
asbag69
(g90
g71
NtRp4083
(dp4084
g74
(dp4085
sg83
g4070
sg76
(lp4086
g69
(g70
g71
NtRp4087
(dp4088
g74
(dp4089
g82
I5
ssg83
g4083
sg76
(lp4090
S'None'
p4091
asbasbasbag69
(g85
g71
NtRp4092
(dp4093
g74
(dp4094
sg83
g3731
sg76
(lp4095
g69
(g90
g71
NtRp4096
(dp4097
g74
(dp4098
g94
g95
ssg83
g4092
sg76
(lp4099
S'last_orderby'
p4100
asbag69
(g90
g71
NtRp4101
(dp4102
g74
(dp4103
g101
g102
ssg83
g4092
sg76
(lp4104
S':'
asbag69
(g90
g71
NtRp4105
(dp4106
g74
(dp4107
sg83
g4092
sg76
(lp4108
g69
(g70
g71
NtRp4109
(dp4110
g74
(dp4111
g82
I5
ssg83
g4105
sg76
(lp4112
S'None'
p4113
asbasbasbag69
(g85
g71
NtRp4114
(dp4115
g74
(dp4116
sg83
g3731
sg76
(lp4117
g69
(g90
g71
NtRp4118
(dp4119
g74
(dp4120
g94
g95
ssg83
g4114
sg76
(lp4121
S'last_query'
p4122
asbag69
(g90
g71
NtRp4123
(dp4124
g74
(dp4125
g101
g102
ssg83
g4114
sg76
(lp4126
S':'
asbag69
(g90
g71
NtRp4127
(dp4128
g74
(dp4129
sg83
g4114
sg76
(lp4130
g69
(g70
g71
NtRp4131
(dp4132
g74
(dp4133
g82
I5
ssg83
g4127
sg76
(lp4134
S'userDB.auth_user.id>0'
p4135
asbasbasbasbasbsS'etype'
p4136
S"<type 'exceptions.SyntaxError'>"
p4137
sS'date'
p4138
S'Tue Feb  5 23:43:51 2013'
p4139
sS'response'
p4140
g69
(g70
g71
NtRp4141
(dp4142
g74
(dp4143
sg76
(lp4144
g69
(g78
g71
NtRp4145
(dp4146
g74
(dp4147
g82
I5
ssg83
Nsg76
(lp4148
g69
(g85
g71
NtRp4149
(dp4150
g74
(dp4151
sg83
g4145
sg76
(lp4152
g69
(g90
g71
NtRp4153
(dp4154
g74
(dp4155
g94
g95
ssg83
g4149
sg76
(lp4156
g167
asbag69
(g90
g71
NtRp4157
(dp4158
g74
(dp4159
g101
g102
ssg83
g4149
sg76
(lp4160
S':'
asbag69
(g90
g71
NtRp4161
(dp4162
g74
(dp4163
sg83
g4149
sg76
(lp4164
g69
(g70
g71
NtRp4165
(dp4166
g74
(dp4167
g82
I5
ssg83
g4161
sg76
(lp4168
S'<cStringIO.StringO object at 0x7f2378327fb8>'
p4169
asbasbasbag69
(g85
g71
NtRp4170
(dp4171
g74
(dp4172
sg83
g4145
sg76
(lp4173
g69
(g90
g71
NtRp4174
(dp4175
g74
(dp4176
g94
g95
ssg83
g4170
sg76
(lp4177
g255
asbag69
(g90
g71
NtRp4178
(dp4179
g74
(dp4180
g101
g102
ssg83
g4170
sg76
(lp4181
S':'
asbag69
(g90
g71
NtRp4182
(dp4183
g74
(dp4184
sg83
g4170
sg76
(lp4185
g69
(g70
g71
NtRp4186
(dp4187
g74
(dp4188
g82
I5
ssg83
g4182
sg76
(lp4189
g69
(g78
g71
NtRp4190
(dp4191
g74
(dp4192
g82
I4
ssg83
Nsg76
(lp4193
g69
(g85
g71
NtRp4194
(dp4195
g74
(dp4196
sg83
g4190
sg76
(lp4197
g69
(g90
g71
NtRp4198
(dp4199
g74
(dp4200
g94
g95
ssg83
g4194
sg76
(lp4201
S'session_id_cygnuscloud'
p4202
asbag69
(g90
g71
NtRp4203
(dp4204
g74
(dp4205
g101
g102
ssg83
g4194
sg76
(lp4206
S':'
asbag69
(g90
g71
NtRp4207
(dp4208
g74
(dp4209
sg83
g4194
sg76
(lp4210
g69
(g70
g71
NtRp4211
(dp4212
g74
(dp4213
g82
I4
ssg83
g4207
sg76
(lp4214
g487
ag69
(g78
g71
NtRp4215
(dp4216
g74
(dp4217
g82
I3
ssg83
Nsg76
(lp4218
g69
(g85
g71
NtRp4219
(dp4220
g74
(dp4221
sg83
g4215
sg76
(lp4222
g69
(g90
g71
NtRp4223
(dp4224
g74
(dp4225
g94
g95
ssg83
g4219
sg76
(lp4226
g306
asbag69
(g90
g71
NtRp4227
(dp4228
g74
(dp4229
g101
g102
ssg83
g4219
sg76
(lp4230
S':'
asbag69
(g90
g71
NtRp4231
(dp4232
g74
(dp4233
sg83
g4219
sg76
(lp4234
g69
(g70
g71
NtRp4235
(dp4236
g74
(dp4237
g82
I3
ssg83
g4231
sg76
(lp4238
S''
asbasbasbag69
(g85
g71
NtRp4239
(dp4240
g74
(dp4241
sg83
g4215
sg76
(lp4242
g69
(g90
g71
NtRp4243
(dp4244
g74
(dp4245
g94
g95
ssg83
g4239
sg76
(lp4246
g327
asbag69
(g90
g71
NtRp4247
(dp4248
g74
(dp4249
g101
g102
ssg83
g4239
sg76
(lp4250
S':'
asbag69
(g90
g71
NtRp4251
(dp4252
g74
(dp4253
sg83
g4239
sg76
(lp4254
g69
(g70
g71
NtRp4255
(dp4256
g74
(dp4257
g82
I3
ssg83
g4251
sg76
(lp4258
S''
asbasbasbag69
(g85
g71
NtRp4259
(dp4260
g74
(dp4261
sg83
g4215
sg76
(lp4262
g69
(g90
g71
NtRp4263
(dp4264
g74
(dp4265
g94
g95
ssg83
g4259
sg76
(lp4266
g348
asbag69
(g90
g71
NtRp4267
(dp4268
g74
(dp4269
g101
g102
ssg83
g4259
sg76
(lp4270
S':'
asbag69
(g90
g71
NtRp4271
(dp4272
g74
(dp4273
sg83
g4259
sg76
(lp4274
g69
(g70
g71
NtRp4275
(dp4276
g74
(dp4277
g82
I3
ssg83
g4271
sg76
(lp4278
S''
asbasbasbag69
(g85
g71
NtRp4279
(dp4280
g74
(dp4281
sg83
g4215
sg76
(lp4282
g69
(g90
g71
NtRp4283
(dp4284
g74
(dp4285
g94
g95
ssg83
g4279
sg76
(lp4286
g369
asbag69
(g90
g71
NtRp4287
(dp4288
g74
(dp4289
g101
g102
ssg83
g4279
sg76
(lp4290
S':'
asbag69
(g90
g71
NtRp4291
(dp4292
g74
(dp4293
sg83
g4279
sg76
(lp4294
g69
(g70
g71
NtRp4295
(dp4296
g74
(dp4297
g82
I3
ssg83
g4291
sg76
(lp4298
S''
asbasbasbag69
(g85
g71
NtRp4299
(dp4300
g74
(dp4301
sg83
g4215
sg76
(lp4302
g69
(g90
g71
NtRp4303
(dp4304
g74
(dp4305
g94
g95
ssg83
g4299
sg76
(lp4306
g390
asbag69
(g90
g71
NtRp4307
(dp4308
g74
(dp4309
g101
g102
ssg83
g4299
sg76
(lp4310
S':'
asbag69
(g90
g71
NtRp4311
(dp4312
g74
(dp4313
sg83
g4299
sg76
(lp4314
g69
(g70
g71
NtRp4315
(dp4316
g74
(dp4317
g82
I3
ssg83
g4311
sg76
(lp4318
S''
asbasbasbag69
(g85
g71
NtRp4319
(dp4320
g74
(dp4321
sg83
g4215
sg76
(lp4322
g69
(g90
g71
NtRp4323
(dp4324
g74
(dp4325
g94
g95
ssg83
g4319
sg76
(lp4326
g411
asbag69
(g90
g71
NtRp4327
(dp4328
g74
(dp4329
g101
g102
ssg83
g4319
sg76
(lp4330
S':'
asbag69
(g90
g71
NtRp4331
(dp4332
g74
(dp4333
sg83
g4319
sg76
(lp4334
g69
(g70
g71
NtRp4335
(dp4336
g74
(dp4337
g82
I3
ssg83
g4331
sg76
(lp4338
S'/'
asbasbasbag69
(g85
g71
NtRp4339
(dp4340
g74
(dp4341
sg83
g4215
sg76
(lp4342
g69
(g90
g71
NtRp4343
(dp4344
g74
(dp4345
g94
g95
ssg83
g4339
sg76
(lp4346
g432
asbag69
(g90
g71
NtRp4347
(dp4348
g74
(dp4349
g101
g102
ssg83
g4339
sg76
(lp4350
S':'
asbag69
(g90
g71
NtRp4351
(dp4352
g74
(dp4353
sg83
g4339
sg76
(lp4354
g69
(g70
g71
NtRp4355
(dp4356
g74
(dp4357
g82
I3
ssg83
g4351
sg76
(lp4358
S''
asbasbasbag69
(g85
g71
NtRp4359
(dp4360
g74
(dp4361
sg83
g4215
sg76
(lp4362
g69
(g90
g71
NtRp4363
(dp4364
g74
(dp4365
g94
g95
ssg83
g4359
sg76
(lp4366
g453
asbag69
(g90
g71
NtRp4367
(dp4368
g74
(dp4369
g101
g102
ssg83
g4359
sg76
(lp4370
S':'
asbag69
(g90
g71
NtRp4371
(dp4372
g74
(dp4373
sg83
g4359
sg76
(lp4374
g69
(g70
g71
NtRp4375
(dp4376
g74
(dp4377
g82
I3
ssg83
g4371
sg76
(lp4378
S''
asbasbasbasbasbasbasbasbasbasbasbag69
(g85
g71
NtRp4379
(dp4380
g74
(dp4381
sg83
g4145
sg76
(lp4382
g69
(g90
g71
NtRp4383
(dp4384
g74
(dp4385
g94
g95
ssg83
g4379
sg76
(lp4386
S'delimiters'
p4387
asbag69
(g90
g71
NtRp4388
(dp4389
g74
(dp4390
g101
g102
ssg83
g4379
sg76
(lp4391
S':'
asbag69
(g90
g71
NtRp4392
(dp4393
g74
(dp4394
sg83
g4379
sg76
(lp4395
g69
(g70
g71
NtRp4396
(dp4397
g74
(dp4398
g82
I5
ssg83
g4392
sg76
(lp4399
g69
(g78
g71
NtRp4400
(dp4401
g74
(dp4402
g82
I4
ssg83
Nsg76
(lp4403
g69
(g85
g71
NtRp4404
(dp4405
g74
(dp4406
sg83
g4400
sg76
(lp4407
g69
(g90
g71
NtRp4408
(dp4409
g74
(dp4410
sg83
g4404
sg76
(lp4411
g69
(g70
g71
NtRp4412
(dp4413
g74
(dp4414
g82
I4
ssg83
g4408
sg76
(lp4415
S'{{'
p4416
asbasbasbag69
(g85
g71
NtRp4417
(dp4418
g74
(dp4419
sg83
g4400
sg76
(lp4420
g69
(g90
g71
NtRp4421
(dp4422
g74
(dp4423
sg83
g4417
sg76
(lp4424
g69
(g70
g71
NtRp4425
(dp4426
g74
(dp4427
g82
I4
ssg83
g4421
sg76
(lp4428
S'}}'
p4429
asbasbasbasbasbasbasbag69
(g85
g71
NtRp4430
(dp4431
g74
(dp4432
sg83
g4145
sg76
(lp4433
g69
(g90
g71
NtRp4434
(dp4435
g74
(dp4436
g94
g95
ssg83
g4430
sg76
(lp4437
S'files'
p4438
asbag69
(g90
g71
NtRp4439
(dp4440
g74
(dp4441
g101
g102
ssg83
g4430
sg76
(lp4442
S':'
asbag69
(g90
g71
NtRp4443
(dp4444
g74
(dp4445
sg83
g4430
sg76
(lp4446
g69
(g70
g71
NtRp4447
(dp4448
g74
(dp4449
g82
I5
ssg83
g4443
sg76
(lp4450
g69
(g78
g71
NtRp4451
(dp4452
g74
(dp4453
g82
I4
ssg83
Nsg76
(lp4454
sbasbasbasbag69
(g85
g71
NtRp4455
(dp4456
g74
(dp4457
sg83
g4145
sg76
(lp4458
g69
(g90
g71
NtRp4459
(dp4460
g74
(dp4461
g94
g95
ssg83
g4455
sg76
(lp4462
S'flash'
p4463
asbag69
(g90
g71
NtRp4464
(dp4465
g74
(dp4466
g101
g102
ssg83
g4455
sg76
(lp4467
S':'
asbag69
(g90
g71
NtRp4468
(dp4469
g74
(dp4470
sg83
g4455
sg76
(lp4471
g69
(g70
g71
NtRp4472
(dp4473
g74
(dp4474
g82
I5
ssg83
g4468
sg76
(lp4475
S''
asbasbasbag69
(g85
g71
NtRp4476
(dp4477
g74
(dp4478
sg83
g4145
sg76
(lp4479
g69
(g90
g71
NtRp4480
(dp4481
g74
(dp4482
g94
g95
ssg83
g4476
sg76
(lp4483
S'generic_patterns'
p4484
asbag69
(g90
g71
NtRp4485
(dp4486
g74
(dp4487
g101
g102
ssg83
g4476
sg76
(lp4488
S':'
asbag69
(g90
g71
NtRp4489
(dp4490
g74
(dp4491
sg83
g4476
sg76
(lp4492
g69
(g70
g71
NtRp4493
(dp4494
g74
(dp4495
g82
I5
ssg83
g4489
sg76
(lp4496
g69
(g78
g71
NtRp4497
(dp4498
g74
(dp4499
g82
I4
ssg83
Nsg76
(lp4500
sbasbasbasbag69
(g85
g71
NtRp4501
(dp4502
g74
(dp4503
sg83
g4145
sg76
(lp4504
g69
(g90
g71
NtRp4505
(dp4506
g74
(dp4507
g94
g95
ssg83
g4501
sg76
(lp4508
S'google_analytics_id'
p4509
asbag69
(g90
g71
NtRp4510
(dp4511
g74
(dp4512
g101
g102
ssg83
g4501
sg76
(lp4513
S':'
asbag69
(g90
g71
NtRp4514
(dp4515
g74
(dp4516
sg83
g4501
sg76
(lp4517
g69
(g70
g71
NtRp4518
(dp4519
g74
(dp4520
g82
I5
ssg83
g4514
sg76
(lp4521
S'None'
p4522
asbasbasbag69
(g85
g71
NtRp4523
(dp4524
g74
(dp4525
sg83
g4145
sg76
(lp4526
g69
(g90
g71
NtRp4527
(dp4528
g74
(dp4529
g94
g95
ssg83
g4523
sg76
(lp4530
S'headers'
p4531
asbag69
(g90
g71
NtRp4532
(dp4533
g74
(dp4534
g101
g102
ssg83
g4523
sg76
(lp4535
S':'
asbag69
(g90
g71
NtRp4536
(dp4537
g74
(dp4538
sg83
g4523
sg76
(lp4539
g69
(g70
g71
NtRp4540
(dp4541
g74
(dp4542
g82
I5
ssg83
g4536
sg76
(lp4543
g69
(g78
g71
NtRp4544
(dp4545
g74
(dp4546
g82
I4
ssg83
Nsg76
(lp4547
g69
(g85
g71
NtRp4548
(dp4549
g74
(dp4550
sg83
g4544
sg76
(lp4551
g69
(g90
g71
NtRp4552
(dp4553
g74
(dp4554
g94
g95
ssg83
g4548
sg76
(lp4555
S'X-Powered-By'
p4556
asbag69
(g90
g71
NtRp4557
(dp4558
g74
(dp4559
g101
g102
ssg83
g4548
sg76
(lp4560
S':'
asbag69
(g90
g71
NtRp4561
(dp4562
g74
(dp4563
sg83
g4548
sg76
(lp4564
g69
(g70
g71
NtRp4565
(dp4566
g74
(dp4567
g82
I4
ssg83
g4561
sg76
(lp4568
S'web2py'
p4569
asbasbasbasbasbasbasbag69
(g85
g71
NtRp4570
(dp4571
g74
(dp4572
sg83
g4145
sg76
(lp4573
g69
(g90
g71
NtRp4574
(dp4575
g74
(dp4576
g94
g95
ssg83
g4570
sg76
(lp4577
S'logo'
p4578
asbag69
(g90
g71
NtRp4579
(dp4580
g74
(dp4581
g101
g102
ssg83
g4570
sg76
(lp4582
S':'
asbag69
(g90
g71
NtRp4583
(dp4584
g74
(dp4585
sg83
g4570
sg76
(lp4586
g69
(g70
g71
NtRp4587
(dp4588
g74
(dp4589
g82
I5
ssg83
g4583
sg76
(lp4590
g69
(cgluon.html
A
p4591
g71
NtRp4592
(dp4593
g74
(dp4594
S'_class'
p4595
S'brand'
p4596
sS'_href'
p4597
S'http://www.web2py.com/'
p4598
ssg83
Nsg76
(lp4599
g69
(cgluon.html
B
p4600
g71
NtRp4601
(dp4602
g74
(dp4603
sg83
g4592
sg76
(lp4604
S'web'
p4605
ag69
(cgluon.html
SPAN
p4606
g71
NtRp4607
(dp4608
g74
(dp4609
sg83
g4601
sg76
(lp4610
I2
asbaS'py'
p4611
asbacgluon.html
XML_unpickle
p4612
(S's\r\x00\x00\x00&trade;&nbsp;'
tRp4613
asbasbasbasbag69
(g85
g71
NtRp4614
(dp4615
g74
(dp4616
sg83
g4145
sg76
(lp4617
g69
(g90
g71
NtRp4618
(dp4619
g74
(dp4620
g94
g95
ssg83
g4614
sg76
(lp4621
S'menu'
p4622
asbag69
(g90
g71
NtRp4623
(dp4624
g74
(dp4625
g101
g102
ssg83
g4614
sg76
(lp4626
S':'
asbag69
(g90
g71
NtRp4627
(dp4628
g74
(dp4629
sg83
g4614
sg76
(lp4630
g69
(g70
g71
NtRp4631
(dp4632
g74
(dp4633
g82
I5
ssg83
g4627
sg76
(lp4634
g69
(g78
g71
NtRp4635
(dp4636
g74
(dp4637
g82
I4
ssg83
Nsg76
(lp4638
g69
(g85
g71
NtRp4639
(dp4640
g74
(dp4641
sg83
g4635
sg76
(lp4642
g69
(g90
g71
NtRp4643
(dp4644
g74
(dp4645
sg83
g4639
sg76
(lp4646
g69
(g70
g71
NtRp4647
(dp4648
g74
(dp4649
g82
I4
ssg83
g4643
sg76
(lp4650
g69
(g78
g71
NtRp4651
(dp4652
g74
(dp4653
g82
I3
ssg83
Nsg76
(lp4654
g69
(g85
g71
NtRp4655
(dp4656
g74
(dp4657
sg83
g4651
sg76
(lp4658
g69
(g90
g71
NtRp4659
(dp4660
g74
(dp4661
sg83
g4655
sg76
(lp4662
g69
(g70
g71
NtRp4663
(dp4664
g74
(dp4665
g82
I3
ssg83
g4659
sg76
(lp4666
cgluon.languages
lazyT_unpickle
p4667
(S's\x0f\x00\x00\x00Iniciar sesi\xc3\xb3n'
tRp4668
asbasbasbag69
(g85
g71
NtRp4669
(dp4670
g74
(dp4671
sg83
g4651
sg76
(lp4672
g69
(g90
g71
NtRp4673
(dp4674
g74
(dp4675
sg83
g4669
sg76
(lp4676
g69
(g70
g71
NtRp4677
(dp4678
g74
(dp4679
g82
I3
ssg83
g4673
sg76
(lp4680
g112
asbasbasbag69
(g85
g71
NtRp4681
(dp4682
g74
(dp4683
sg83
g4651
sg76
(lp4684
g69
(g90
g71
NtRp4685
(dp4686
g74
(dp4687
sg83
g4681
sg76
(lp4688
g69
(g70
g71
NtRp4689
(dp4690
g74
(dp4691
g82
I3
ssg83
g4685
sg76
(lp4692
S'/CygnusCloud/main/login'
p4693
asbasbasbasbasbasbasbag69
(g85
g71
NtRp4694
(dp4695
g74
(dp4696
sg83
g4635
sg76
(lp4697
g69
(g90
g71
NtRp4698
(dp4699
g74
(dp4700
sg83
g4694
sg76
(lp4701
g69
(g70
g71
NtRp4702
(dp4703
g74
(dp4704
g82
I4
ssg83
g4698
sg76
(lp4705
g69
(g78
g71
NtRp4706
(dp4707
g74
(dp4708
g82
I3
ssg83
Nsg76
(lp4709
g69
(g85
g71
NtRp4710
(dp4711
g74
(dp4712
sg83
g4706
sg76
(lp4713
g69
(g90
g71
NtRp4714
(dp4715
g74
(dp4716
sg83
g4710
sg76
(lp4717
g69
(g70
g71
NtRp4718
(dp4719
g74
(dp4720
g82
I3
ssg83
g4714
sg76
(lp4721
g4667
(S's\t\x00\x00\x00Acerca de'
tRp4722
asbasbasbag69
(g85
g71
NtRp4723
(dp4724
g74
(dp4725
sg83
g4706
sg76
(lp4726
g69
(g90
g71
NtRp4727
(dp4728
g74
(dp4729
sg83
g4723
sg76
(lp4730
g69
(g70
g71
NtRp4731
(dp4732
g74
(dp4733
g82
I3
ssg83
g4727
sg76
(lp4734
g112
asbasbasbag69
(g85
g71
NtRp4735
(dp4736
g74
(dp4737
sg83
g4706
sg76
(lp4738
g69
(g90
g71
NtRp4739
(dp4740
g74
(dp4741
sg83
g4735
sg76
(lp4742
g69
(g70
g71
NtRp4743
(dp4744
g74
(dp4745
g82
I3
ssg83
g4739
sg76
(lp4746
S'/CygnusCloud/main/login'
p4747
asbasbasbasbasbasbasbasbasbasbasbag69
(g85
g71
NtRp4748
(dp4749
g74
(dp4750
sg83
g4145
sg76
(lp4751
g69
(g90
g71
NtRp4752
(dp4753
g74
(dp4754
g94
g95
ssg83
g4748
sg76
(lp4755
S'meta'
p4756
asbag69
(g90
g71
NtRp4757
(dp4758
g74
(dp4759
g101
g102
ssg83
g4748
sg76
(lp4760
S':'
asbag69
(g90
g71
NtRp4761
(dp4762
g74
(dp4763
sg83
g4748
sg76
(lp4764
g69
(g70
g71
NtRp4765
(dp4766
g74
(dp4767
g82
I5
ssg83
g4761
sg76
(lp4768
g69
(g78
g71
NtRp4769
(dp4770
g74
(dp4771
g82
I4
ssg83
Nsg76
(lp4772
g69
(g85
g71
NtRp4773
(dp4774
g74
(dp4775
sg83
g4769
sg76
(lp4776
g69
(g90
g71
NtRp4777
(dp4778
g74
(dp4779
g94
g95
ssg83
g4773
sg76
(lp4780
S'author'
p4781
asbag69
(g90
g71
NtRp4782
(dp4783
g74
(dp4784
g101
g102
ssg83
g4773
sg76
(lp4785
S':'
asbag69
(g90
g71
NtRp4786
(dp4787
g74
(dp4788
sg83
g4773
sg76
(lp4789
g69
(g70
g71
NtRp4790
(dp4791
g74
(dp4792
g82
I4
ssg83
g4786
sg76
(lp4793
S'Your Name <you@example.com>'
p4794
asbasbasbag69
(g85
g71
NtRp4795
(dp4796
g74
(dp4797
sg83
g4769
sg76
(lp4798
g69
(g90
g71
NtRp4799
(dp4800
g74
(dp4801
g94
g95
ssg83
g4795
sg76
(lp4802
S'description'
p4803
asbag69
(g90
g71
NtRp4804
(dp4805
g74
(dp4806
g101
g102
ssg83
g4795
sg76
(lp4807
S':'
asbag69
(g90
g71
NtRp4808
(dp4809
g74
(dp4810
sg83
g4795
sg76
(lp4811
g69
(g70
g71
NtRp4812
(dp4813
g74
(dp4814
g82
I4
ssg83
g4808
sg76
(lp4815
S'a cool new app'
p4816
asbasbasbag69
(g85
g71
NtRp4817
(dp4818
g74
(dp4819
sg83
g4769
sg76
(lp4820
g69
(g90
g71
NtRp4821
(dp4822
g74
(dp4823
g94
g95
ssg83
g4817
sg76
(lp4824
S'generator'
p4825
asbag69
(g90
g71
NtRp4826
(dp4827
g74
(dp4828
g101
g102
ssg83
g4817
sg76
(lp4829
S':'
asbag69
(g90
g71
NtRp4830
(dp4831
g74
(dp4832
sg83
g4817
sg76
(lp4833
g69
(g70
g71
NtRp4834
(dp4835
g74
(dp4836
g82
I4
ssg83
g4830
sg76
(lp4837
S'Web2py Web Framework'
p4838
asbasbasbag69
(g85
g71
NtRp4839
(dp4840
g74
(dp4841
sg83
g4769
sg76
(lp4842
g69
(g90
g71
NtRp4843
(dp4844
g74
(dp4845
g94
g95
ssg83
g4839
sg76
(lp4846
S'keywords'
p4847
asbag69
(g90
g71
NtRp4848
(dp4849
g74
(dp4850
g101
g102
ssg83
g4839
sg76
(lp4851
S':'
asbag69
(g90
g71
NtRp4852
(dp4853
g74
(dp4854
sg83
g4839
sg76
(lp4855
g69
(g70
g71
NtRp4856
(dp4857
g74
(dp4858
g82
I4
ssg83
g4852
sg76
(lp4859
S'web2py, python, framework'
p4860
asbasbasbasbasbasbasbag69
(g85
g71
NtRp4861
(dp4862
g74
(dp4863
sg83
g4145
sg76
(lp4864
g69
(g90
g71
NtRp4865
(dp4866
g74
(dp4867
g94
g95
ssg83
g4861
sg76
(lp4868
S'models_to_run'
p4869
asbag69
(g90
g71
NtRp4870
(dp4871
g74
(dp4872
g101
g102
ssg83
g4861
sg76
(lp4873
S':'
asbag69
(g90
g71
NtRp4874
(dp4875
g74
(dp4876
sg83
g4861
sg76
(lp4877
g69
(g70
g71
NtRp4878
(dp4879
g74
(dp4880
g82
I5
ssg83
g4874
sg76
(lp4881
g69
(g78
g71
NtRp4882
(dp4883
g74
(dp4884
g82
I4
ssg83
Nsg76
(lp4885
g69
(g85
g71
NtRp4886
(dp4887
g74
(dp4888
sg83
g4882
sg76
(lp4889
g69
(g90
g71
NtRp4890
(dp4891
g74
(dp4892
sg83
g4886
sg76
(lp4893
g69
(g70
g71
NtRp4894
(dp4895
g74
(dp4896
g82
I4
ssg83
g4890
sg76
(lp4897
S'^\\w+\\.py$'
p4898
asbasbasbag69
(g85
g71
NtRp4899
(dp4900
g74
(dp4901
sg83
g4882
sg76
(lp4902
g69
(g90
g71
NtRp4903
(dp4904
g74
(dp4905
sg83
g4899
sg76
(lp4906
g69
(g70
g71
NtRp4907
(dp4908
g74
(dp4909
g82
I4
ssg83
g4903
sg76
(lp4910
S'^main/\\w+\\.py$'
p4911
asbasbasbag69
(g85
g71
NtRp4912
(dp4913
g74
(dp4914
sg83
g4882
sg76
(lp4915
g69
(g90
g71
NtRp4916
(dp4917
g74
(dp4918
sg83
g4912
sg76
(lp4919
g69
(g70
g71
NtRp4920
(dp4921
g74
(dp4922
g82
I4
ssg83
g4916
sg76
(lp4923
S'^main/login/\\w+\\.py$'
p4924
asbasbasbasbasbasbasbag69
(g85
g71
NtRp4925
(dp4926
g74
(dp4927
sg83
g4145
sg76
(lp4928
g69
(g90
g71
NtRp4929
(dp4930
g74
(dp4931
g94
g95
ssg83
g4925
sg76
(lp4932
S'postprocessing'
p4933
asbag69
(g90
g71
NtRp4934
(dp4935
g74
(dp4936
g101
g102
ssg83
g4925
sg76
(lp4937
S':'
asbag69
(g90
g71
NtRp4938
(dp4939
g74
(dp4940
sg83
g4925
sg76
(lp4941
g69
(g70
g71
NtRp4942
(dp4943
g74
(dp4944
g82
I5
ssg83
g4938
sg76
(lp4945
g69
(g78
g71
NtRp4946
(dp4947
g74
(dp4948
g82
I4
ssg83
Nsg76
(lp4949
sbasbasbasbag69
(g85
g71
NtRp4950
(dp4951
g74
(dp4952
sg83
g4145
sg76
(lp4953
g69
(g90
g71
NtRp4954
(dp4955
g74
(dp4956
g94
g95
ssg83
g4950
sg76
(lp4957
S'session_cookie_expires'
p4958
asbag69
(g90
g71
NtRp4959
(dp4960
g74
(dp4961
g101
g102
ssg83
g4950
sg76
(lp4962
S':'
asbag69
(g90
g71
NtRp4963
(dp4964
g74
(dp4965
sg83
g4950
sg76
(lp4966
g69
(g70
g71
NtRp4967
(dp4968
g74
(dp4969
g82
I5
ssg83
g4963
sg76
(lp4970
S'None'
p4971
asbasbasbag69
(g85
g71
NtRp4972
(dp4973
g74
(dp4974
sg83
g4145
sg76
(lp4975
g69
(g90
g71
NtRp4976
(dp4977
g74
(dp4978
g94
g95
ssg83
g4972
sg76
(lp4979
S'session_data_name'
p4980
asbag69
(g90
g71
NtRp4981
(dp4982
g74
(dp4983
g101
g102
ssg83
g4972
sg76
(lp4984
S':'
asbag69
(g90
g71
NtRp4985
(dp4986
g74
(dp4987
sg83
g4972
sg76
(lp4988
g69
(g70
g71
NtRp4989
(dp4990
g74
(dp4991
g82
I5
ssg83
g4985
sg76
(lp4992
S'session_data_cygnuscloud'
p4993
asbasbasbag69
(g85
g71
NtRp4994
(dp4995
g74
(dp4996
sg83
g4145
sg76
(lp4997
g69
(g90
g71
NtRp4998
(dp4999
g74
(dp5000
g94
g95
ssg83
g4994
sg76
(lp5001
S'session_file'
p5002
asbag69
(g90
g71
NtRp5003
(dp5004
g74
(dp5005
g101
g102
ssg83
g4994
sg76
(lp5006
S':'
asbag69
(g90
g71
NtRp5007
(dp5008
g74
(dp5009
sg83
g4994
sg76
(lp5010
g69
(g70
g71
NtRp5011
(dp5012
g74
(dp5013
g82
I5
ssg83
g5007
sg76
(lp5014
S"<open file '/home/adrian/web2py/applications/CygnusCloud/sessions/127.0.0.1-791acaf2-7386-46dc-b011-4810dc00037c', mode 'rb+' at 0x17a9a50>"
p5015
asbasbasbag69
(g85
g71
NtRp5016
(dp5017
g74
(dp5018
sg83
g4145
sg76
(lp5019
g69
(g90
g71
NtRp5020
(dp5021
g74
(dp5022
g94
g95
ssg83
g5016
sg76
(lp5023
S'session_filename'
p5024
asbag69
(g90
g71
NtRp5025
(dp5026
g74
(dp5027
g101
g102
ssg83
g5016
sg76
(lp5028
S':'
asbag69
(g90
g71
NtRp5029
(dp5030
g74
(dp5031
sg83
g5016
sg76
(lp5032
g69
(g70
g71
NtRp5033
(dp5034
g74
(dp5035
g82
I5
ssg83
g5029
sg76
(lp5036
S'/home/adrian/web2py/applications/CygnusCloud/sessions/127.0.0.1-791acaf2-7386-46dc-b011-4810dc00037c'
p5037
asbasbasbag69
(g85
g71
NtRp5038
(dp5039
g74
(dp5040
sg83
g4145
sg76
(lp5041
g69
(g90
g71
NtRp5042
(dp5043
g74
(dp5044
g94
g95
ssg83
g5038
sg76
(lp5045
S'session_id'
p5046
asbag69
(g90
g71
NtRp5047
(dp5048
g74
(dp5049
g101
g102
ssg83
g5038
sg76
(lp5050
S':'
asbag69
(g90
g71
NtRp5051
(dp5052
g74
(dp5053
sg83
g5038
sg76
(lp5054
g69
(g70
g71
NtRp5055
(dp5056
g74
(dp5057
g82
I5
ssg83
g5051
sg76
(lp5058
g487
asbasbasbag69
(g85
g71
NtRp5059
(dp5060
g74
(dp5061
sg83
g4145
sg76
(lp5062
g69
(g90
g71
NtRp5063
(dp5064
g74
(dp5065
g94
g95
ssg83
g5059
sg76
(lp5066
S'session_id_name'
p5067
asbag69
(g90
g71
NtRp5068
(dp5069
g74
(dp5070
g101
g102
ssg83
g5059
sg76
(lp5071
S':'
asbag69
(g90
g71
NtRp5072
(dp5073
g74
(dp5074
sg83
g5059
sg76
(lp5075
g69
(g70
g71
NtRp5076
(dp5077
g74
(dp5078
g82
I5
ssg83
g5072
sg76
(lp5079
g4202
asbasbasbag69
(g85
g71
NtRp5080
(dp5081
g74
(dp5082
sg83
g4145
sg76
(lp5083
g69
(g90
g71
NtRp5084
(dp5085
g74
(dp5086
g94
g95
ssg83
g5080
sg76
(lp5087
S'session_locked'
p5088
asbag69
(g90
g71
NtRp5089
(dp5090
g74
(dp5091
g101
g102
ssg83
g5080
sg76
(lp5092
S':'
asbag69
(g90
g71
NtRp5093
(dp5094
g74
(dp5095
sg83
g5080
sg76
(lp5096
g69
(g70
g71
NtRp5097
(dp5098
g74
(dp5099
g82
I5
ssg83
g5093
sg76
(lp5100
g2175
asbasbasbag69
(g85
g71
NtRp5101
(dp5102
g74
(dp5103
sg83
g4145
sg76
(lp5104
g69
(g90
g71
NtRp5105
(dp5106
g74
(dp5107
g94
g95
ssg83
g5101
sg76
(lp5108
S'session_new'
p5109
asbag69
(g90
g71
NtRp5110
(dp5111
g74
(dp5112
g101
g102
ssg83
g5101
sg76
(lp5113
S':'
asbag69
(g90
g71
NtRp5114
(dp5115
g74
(dp5116
sg83
g5101
sg76
(lp5117
g69
(g70
g71
NtRp5118
(dp5119
g74
(dp5120
g82
I5
ssg83
g5114
sg76
(lp5121
g112
asbasbasbag69
(g85
g71
NtRp5122
(dp5123
g74
(dp5124
sg83
g4145
sg76
(lp5125
g69
(g90
g71
NtRp5126
(dp5127
g74
(dp5128
g94
g95
ssg83
g5122
sg76
(lp5129
S'session_storage_type'
p5130
asbag69
(g90
g71
NtRp5131
(dp5132
g74
(dp5133
g101
g102
ssg83
g5122
sg76
(lp5134
S':'
asbag69
(g90
g71
NtRp5135
(dp5136
g74
(dp5137
sg83
g5122
sg76
(lp5138
g69
(g70
g71
NtRp5139
(dp5140
g74
(dp5141
g82
I5
ssg83
g5135
sg76
(lp5142
g3627
asbasbasbag69
(g85
g71
NtRp5143
(dp5144
g74
(dp5145
sg83
g4145
sg76
(lp5146
g69
(g90
g71
NtRp5147
(dp5148
g74
(dp5149
g94
g95
ssg83
g5143
sg76
(lp5150
S'status'
p5151
asbag69
(g90
g71
NtRp5152
(dp5153
g74
(dp5154
g101
g102
ssg83
g5143
sg76
(lp5155
S':'
asbag69
(g90
g71
NtRp5156
(dp5157
g74
(dp5158
sg83
g5143
sg76
(lp5159
g69
(g70
g71
NtRp5160
(dp5161
g74
(dp5162
g82
I5
ssg83
g5156
sg76
(lp5163
S'200'
p5164
asbasbasbag69
(g85
g71
NtRp5165
(dp5166
g74
(dp5167
sg83
g4145
sg76
(lp5168
g69
(g90
g71
NtRp5169
(dp5170
g74
(dp5171
g94
g95
ssg83
g5165
sg76
(lp5172
S'subtitle'
p5173
asbag69
(g90
g71
NtRp5174
(dp5175
g74
(dp5176
g101
g102
ssg83
g5165
sg76
(lp5177
S':'
asbag69
(g90
g71
NtRp5178
(dp5179
g74
(dp5180
sg83
g5165
sg76
(lp5181
g69
(g70
g71
NtRp5182
(dp5183
g74
(dp5184
g82
I5
ssg83
g5178
sg76
(lp5185
g4667
(S's\t\x00\x00\x00Adaptame!'
tRp5186
asbasbasbag69
(g85
g71
NtRp5187
(dp5188
g74
(dp5189
sg83
g4145
sg76
(lp5190
g69
(g90
g71
NtRp5191
(dp5192
g74
(dp5193
g94
g95
ssg83
g5187
sg76
(lp5194
S'title'
p5195
asbag69
(g90
g71
NtRp5196
(dp5197
g74
(dp5198
g101
g102
ssg83
g5187
sg76
(lp5199
S':'
asbag69
(g90
g71
NtRp5200
(dp5201
g74
(dp5202
sg83
g5187
sg76
(lp5203
g69
(g70
g71
NtRp5204
(dp5205
g74
(dp5206
g82
I5
ssg83
g5200
sg76
(lp5207
S'Cygnuscloud'
p5208
asbasbasbag69
(g85
g71
NtRp5209
(dp5210
g74
(dp5211
sg83
g4145
sg76
(lp5212
g69
(g90
g71
NtRp5213
(dp5214
g74
(dp5215
g94
g95
ssg83
g5209
sg76
(lp5216
S'view'
p5217
asbag69
(g90
g71
NtRp5218
(dp5219
g74
(dp5220
g101
g102
ssg83
g5209
sg76
(lp5221
S':'
asbag69
(g90
g71
NtRp5222
(dp5223
g74
(dp5224
sg83
g5209
sg76
(lp5225
g69
(g70
g71
NtRp5226
(dp5227
g74
(dp5228
g82
I5
ssg83
g5222
sg76
(lp5229
S'main/login.html'
p5230
asbasbasbasbasbsS'locals'
p5231
(dp5232
S'self'
p5233
S"<Storage {'verify_email_onaccept': [], 'register...ve_username_next': '/CygnusCloud/default/index'}>"
p5234
sS'value'
p5235
S"'/CygnusCloud/main/login'"
p5236
sS'key'
p5237
S"'login'"
p5238
sssS'traceback'
p5239
S'Traceback (most recent call last):\n  File "/home/adrian/web2py/gluon/restricted.py", line 212, in restricted\n    exec ccode in environment\n  File "/home/adrian/web2py/applications/CygnusCloud/controllers/main.py", line 13, in <module>\n  File "/home/adrian/web2py/gluon/globals.py", line 193, in <lambda>\n    self._caller = lambda f: f()\n  File "/home/adrian/web2py/applications/CygnusCloud/controllers/main.py", line 5, in login\n    auth.settings.login=URL( c=\'main\', f=\'login\')\n  File "/home/adrian/web2py/gluon/storage.py", line 164, in __setattr__\n    raise SyntaxError(\'setting key \\\'%s\\\' does not exist\' % key)\nSyntaxError: setting key \'login\' does not exist\n'
p5240
s.